(lp1
(lp2
(VThat
VDT
tp3
a(Vwould
VMD
tp4
a(Vhave
VVB
tp5
a(Vbeen
VVBN
tp6
a(Va
VDT
tp7
a(Vhelp
VNN
tp8
a(Vespecially
VRB
tp9
a(Vfor
VIN
tp10
a(Vstates
VNNS
tp11
a(Vsuch
VJJ
tp12
a(Vas
VIN
tp13
a(VAustria
VNNP
tp14
a(Vand
VCC
tp15
a(VGermany
VNNP
tp16
a(V,
V,
tp17
a(Vwhere
VWRB
tp18
a(Vno
VDT
tp19
a(Vprospectus
VNN
tp20
a(Vis
VVBZ
tp21
a(Vat
VIN
tp22
a(Vpresent
VJJ
tp23
a(Vrequired
VVBN
tp24
a(Vbelow
VIN
tp25
a(Vthis
VDT
tp26
a(Vthreshold
VNN
tp27
a(V.
V.
tp28
aa(lp29
(VI
VPRP
tp30
a(Vam
VVBP
tp31
a(Vparticularly
VRB
tp32
a(Vintrigued
VVBN
tp33
a(Vby
VIN
tp34
a(Vthe
VDT
tp35
a(Vthought
VNN
tp36
a(Vof
VIN
tp37
a(Vgetting
VVBG
tp38
a(Vmarried
VVBN
tp39
a(Von
VIN
tp40
a(Vthe
VDT
tp41
a(VInternet
VNN
tp42
a(V.
V.
tp43
aa(lp44
(VBut
VCC
tp45
a(VI
VPRP
tp46
a(Vdid
VVBD
tp47
a(Vnot
VRB
tp48
a(Vwant
VVB
tp49
a(Vto
VTO
tp50
a(Vback
VVB
tp51
a(Vdown
VRP
tp52
a(Vas
VRB
tp53
a(Vfar
VRB
tp54
a(Vas
VIN
tp55
a(Vvisibility
VNN
tp56
a(Vis
VVBZ
tp57
a(Vconcerned
VVBN
tp58
a(V.
V.
tp59
aa(lp60
(VThe
VDT
tp61
a(VSerbs
VNNS
tp62
a(Vare
VVBP
tp63
a(Vnot
VRB
tp64
a(VMilosevic
VNNP
tp65
a(V,
V,
tp66
a(Vjust
VRB
tp67
a(Vas
VIN
tp68
a(Vthe
VDT
tp69
a(VGermans
VNNPS
tp70
a(Vwere
VVBD
tp71
a(Vnot
VRB
tp72
a(VHitler
VNNP
tp73
a(V.
V.
tp74
aa(lp75
(VThe
VDT
tp76
a(VCommission
VNNP
tp77
a(Vwill
VMD
tp78
a(Valso
VRB
tp79
a(Vhave
VVB
tp80
a(Vto
VTO
tp81
a(Vnegotiate
VVB
tp82
a(Va
VDT
tp83
a(Vsolution
VNN
tp84
a(Vthat
VWDT
tp85
a(Vcan
VMD
tp86
a(Vbe
VVB
tp87
a(Vapplied
VVBN
tp88
a(Vto
VTO
tp89
a(Vtwo
VCD
tp90
a(Vdifferent
VJJ
tp91
a(Vgeographical
VJJ
tp92
a(Vindication
VNN
tp93
a(Vsystems
VNNS
tp94
a(V:
V:
tp95
a(Vin
VIN
tp96
a(VCanada
VNNP
tp97
a(V,
V,
tp98
a(V&apos;
VJJ
tp99
a(Vgeographical
VJJ
tp100
a(Vindication
VNN
tp101
a(V&apos;
VNN
tp102
a(Vis
VVBZ
tp103
a(Va
VDT
tp104
a(Vmere
VJJ
tp105
a(Vadjective
VNN
tp106
a(V;
V:
tp107
a(Vin
VIN
tp108
a(VEurope
VNNP
tp109
a(V,
V,
tp110
a(Vit
VPRP
tp111
a(Vis
VVBZ
tp112
a(Va
VDT
tp113
a(Vbona
VFW
tp114
a(Vfide
VFW
tp115
a(Vtrademark
VNN
tp116
a(V.
V.
tp117
aa(lp118
(VFinally
VRB
tp119
a(V,
V,
tp120
a(Vour
VPRP$
tp121
a(Vfellow
VJJ
tp122
a(Vmember
VNN
tp123
a(Vhas
VVBZ
tp124
a(Vcited
VVBN
tp125
a(Vinformation
VNN
tp126
a(Vwhich
VWDT
tp127
a(Vhe
VPRP
tp128
a(Vwas
VVBD
tp129
a(Vdelighted
VJJ
tp130
a(Vto
VTO
tp131
a(Vindicate
VVB
tp132
a(Vwas
VVBD
tp133
a(Vgiven
VVBN
tp134
a(Vto
VTO
tp135
a(Vhim
VPRP
tp136
a(Vby
VIN
tp137
a(Vthe
VDT
tp138
a(VBBC
VNNP
tp139
a(V.
V.
tp140
aa(lp141
(VHe
VPRP
tp142
a(Vbrought
VVBD
tp143
a(VChina
VNNP
tp144
a(Vto
VTO
tp145
a(Vits
VPRP$
tp146
a(Vknees
VNNS
tp147
a(V.
V.
tp148
aa(lp149
(VSome
VDT
tp150
a(Vpeople
VNNS
tp151
a(Vwere
VVBD
tp152
a(Vso
VRB
tp153
a(Vkeen
VJJ
tp154
a(Vto
VTO
tp155
a(Vget
VVB
tp156
a(Vinvolved
VVBN
tp157
a(Vthey
VPRP
tp158
a(Vfound
VVBD
tp159
a(Vthe
VDT
tp160
a(Vmoney
VNN
tp161
a(Vand
VCC
tp162
a(Vorganized
VVBN
tp163
a(Vevents
VNNS
tp164
a(Vfor
VIN
tp165
a(Vthemselves
VPRP
tp166
a(V.
V.
tp167
aa(lp168
(VThe
VDT
tp169
a(Vnetworks
VNNS
tp170
a(Vwere
VVBD
tp171
a(Vput
VVBN
tp172
a(Vforward
VRB
tp173
a(Vat
VIN
tp174
a(Vthe
VDT
tp175
a(VEdinburgh
VNNP
tp176
a(VSummit
VNNP
tp177
a(Vat
VIN
tp178
a(Vthe
VDT
tp179
a(Vend
VNN
tp180
a(Vof
VIN
tp181
a(V1992
VCD
tp182
a(Vto
VTO
tp183
a(Vstrengthen
VVB
tp184
a(Vthe
VDT
tp185
a(Vinternal
VJJ
tp186
a(Vmarket
VNN
tp187
a(Vand
VCC
tp188
a(Vas
VIN
tp189
a(Va
VDT
tp190
a(Vboost
VNN
tp191
a(Vfor
VIN
tp192
a(Vemployment
VNN
tp193
a(V.
V.
tp194
aa(lp195
(Vbelieves
VVBZ
tp196
a(Vthat
VIN
tp197
a(Vthe
VDT
tp198
a(Vaim
VNN
tp199
a(Vis
VVBZ
tp200
a(Vnot
VRB
tp201
a(Vharmonisation
VNN
tp202
a(Vof
VIN
tp203
a(Vnational
VJJ
tp204
a(Vsystems
VNNS
tp205
a(V(
VCD
tp206
a(Vgiven
VVBN
tp207
a(Vthat
VIN
tp208
a(Vthese
VDT
tp209
a(Vdo
VVBP
tp210
a(Vnot
VRB
tp211
a(Vexist
VVB
tp212
a(V)
VNN
tp213
a(V,
V,
tp214
a(Vbut
VCC
tp215
a(Vrather
VRB
tp216
a(Vthe
VDT
tp217
a(Vobligation
VNN
tp218
a(Vto
VTO
tp219
a(Vset
VVB
tp220
a(Vthese
VDT
tp221
a(Vup
VIN
tp222
a(V;
V:
tp223
aa(lp224
(VAs
VIN
tp225
a(Vyou
VPRP
tp226
a(Vknow
VVBP
tp227
a(Vquestion
VNN
tp228
a(Vtime
VNN
tp229
a(Vis
VVBZ
tp230
a(Vsupposed
VVBN
tp231
a(Vto
VTO
tp232
a(Vlast
VVB
tp233
a(Va
VDT
tp234
a(Vfull
VJJ
tp235
a(Vhour
VNN
tp236
a(V.
V.
tp237
aa(lp238
(VA
VDT
tp239
a(Vship
VNN
tp240
a(Vwas
VVBD
tp241
a(Vordered
VVBN
tp242
a(Vto
VTO
tp243
a(Vcontinue
VVB
tp244
a(Von
VIN
tp245
a(Vits
VPRP$
tp246
a(Vway
VNN
tp247
a(V,
V,
tp248
a(Vdespite
VIN
tp249
a(Vthe
VDT
tp250
a(Vfact
VNN
tp251
a(Vthat
VIN
tp252
a(Vthe
VDT
tp253
a(Vpresident
VNN
tp254
a(Vof
VIN
tp255
a(Vmerchant
VNN
tp256
a(Vfleet
VNN
tp257
a(Vengineers
VNNS
tp258
a(Vwas
VVBD
tp259
a(Vhanging
VVBG
tp260
a(Von
VIN
tp261
a(Vto
VTO
tp262
a(Vits
VPRP$
tp263
a(Vramp
VNN
tp264
a(V.
V.
tp265
aa(lp266
(VThis
VDT
tp267
a(Vhas
VVBZ
tp268
a(Vbeen
VVBN
tp269
a(Va
VDT
tp270
a(Vpermanent
VJJ
tp271
a(Vfeature
VNN
tp272
a(Vof
VIN
tp273
a(Vhuman
VJJ
tp274
a(Vhistory
VNN
tp275
a(Vand
VCC
tp276
a(Vwill
VMD
tp277
a(Valways
VRB
tp278
a(Vexist
VVB
tp279
a(V.
V.
tp280
aa(lp281
(VThe
VDT
tp282
a(VLisbon
VNNP
tp283
a(VTreaty
VNNP
tp284
a(Vdoes
VVBZ
tp285
a(Vdiffer
VVB
tp286
a(Vfrom
VIN
tp287
a(Vits
VPRP$
tp288
a(Vforerunner
VNN
tp289
a(V,
V,
tp290
a(Vthe
VDT
tp291
a(Vill-fated
VJJ
tp292
a(VConstitutional
VNNP
tp293
a(VTreaty
VNNP
tp294
a(V,
V,
tp295
a(Vin
VIN
tp296
a(Vthat
VIN
tp297
a(Vit
VPRP
tp298
a(Vno
VRB
tp299
a(Vlonger
VRBR
tp300
a(Vconsists
VVBZ
tp301
a(Vof
VIN
tp302
a(Va
VDT
tp303
a(Vsingle
VJJ
tp304
a(Vconsolidated
VJJ
tp305
a(Vtext
VNN
tp306
a(V.
V.
tp307
aa(lp308
(VThat
VDT
tp309
a(Vis
VVBZ
tp310
a(Vwhy
VWRB
tp311
a(VI
VPRP
tp312
a(Vdo
VVBP
tp313
a(Vnot
VRB
tp314
a(Vbelieve
VVB
tp315
a(Vany
VDT
tp316
a(Vof
VIN
tp317
a(Vyou
VPRP
tp318
a(V.
V.
tp319
a(VI
VPRP
tp320
a(Vdo
VVBP
tp321
a(Vnot
VRB
tp322
a(Vbelieve
VVB
tp323
a(Vyou
VPRP
tp324
a(Vwhen
VWRB
tp325
a(Vyou
VPRP
tp326
a(Vsay
VVBP
tp327
a(Vthat
VIN
tp328
a(Vyou
VPRP
tp329
a(Vwant
VVBP
tp330
a(Va
VDT
tp331
a(Vsolution
VNN
tp332
a(V!
V.
tp333
aa(lp334
(VThe
VDT
tp335
a(Vloss
VNN
tp336
a(Vof
VIN
tp337
a(Vhuman
VJJ
tp338
a(Vlife
VNN
tp339
a(Vthat
VWDT
tp340
a(Vhas
VVBZ
tp341
a(Vhappened
VVBN
tp342
a(Vthere
VRB
tp343
a(V,
V,
tp344
a(Vthe
VDT
tp345
a(Veconomic
VJJ
tp346
a(Vdamage
VNN
tp347
a(Vand
VCC
tp348
a(Valso
VRB
tp349
a(Vthe
VDT
tp350
a(Virreparable
VJJ
tp351
a(Vdestruction
VNN
tp352
a(Vof
VIN
tp353
a(Vthe
VDT
tp354
a(Vhistorical
VJJ
tp355
a(Vand
VCC
tp356
a(Vmonumental
VJJ
tp357
a(Vheritage
VNN
tp358
a(Vof
VIN
tp359
a(Vthis
VDT
tp360
a(Vmost
VRBS
tp361
a(Vbeautiful
VJJ
tp362
a(Vcity
VNN
tp363
a(Vhave
VVBP
tp364
a(Vastounded
VJJ
tp365
a(Vus
VPRP
tp366
a(Vall
VDT
tp367
a(V.
V.
tp368
aa(lp369
(VI
VPRP
tp370
a(Valso
VRB
tp371
a(Vbelieve
VVBP
tp372
a(Vit
VPRP
tp373
a(Vis
VVBZ
tp374
a(Vimportant
VJJ
tp375
a(Vfor
VIN
tp376
a(Vus
VPRP
tp377
a(Vto
VTO
tp378
a(Vhave
VVB
tp379
a(Va
VDT
tp380
a(Vproper
VJJ
tp381
a(Vmap
VNN
tp382
a(Vof
VIN
tp383
a(VEuropean
VJJ
tp384
a(Vseaports
VNNS
tp385
a(V,
V,
tp386
a(Vfor
VIN
tp387
a(Vthe
VDT
tp388
a(Vpublic
VNN
tp389
a(Vdid
VVBD
tp390
a(Vnot
VRB
tp391
a(Vunderstand
VVB
tp392
a(Vwhy
VWRB
tp393
a(Vwe
VPRP
tp394
a(Vhad
VVBD
tp395
a(Va
VDT
tp396
a(Vmap
VNN
tp397
a(Vshowing
VVBG
tp398
a(Vairports
VNNS
tp399
a(V,
V,
tp400
a(Vrailway
VNN
tp401
a(Vlines
VNNS
tp402
a(Vand
VCC
tp403
a(Vroads
VNNS
tp404
a(V,
V,
tp405
a(Vwithout
VIN
tp406
a(Vany
VDT
tp407
a(Vindication
VNN
tp408
a(Vof
VIN
tp409
a(Vseaports
VNNS
tp410
a(V.
V.
tp411
aa(lp412
(VIt
VPRP
tp413
a(Vstarts
VVBZ
tp414
a(Vfrom
VIN
tp415
a(Vpeople
VNNS
tp416
a(Vwho
VWP
tp417
a(Vlook
VVBP
tp418
a(Vto
VTO
tp419
a(VEurope
VNNP
tp420
a(Vfor
VIN
tp421
a(Va
VDT
tp422
a(Vsolution
VNN
tp423
a(Vto
VTO
tp424
a(Vtheir
VPRP$
tp425
a(Vproblem
VNN
tp426
a(V.
V.
tp427
aa(lp428
(VMoreover
VRB
tp429
a(V,
V,
tp430
a(Van
VDT
tp431
a(Vincrease
VNN
tp432
a(Vin
VIN
tp433
a(Villegal
VJJ
tp434
a(Vimmigration
VNN
tp435
a(Vwould
VMD
tp436
a(Vfurther
VRB
tp437
a(Vexacerbate
VVB
tp438
a(Vthe
VDT
tp439
a(Vconditions
VNNS
tp440
a(Vconfronting
VVBG
tp441
a(Vmigrants
VNNS
tp442
a(V.
V.
tp443
aa(lp444
(VFirst
VNNP
tp445
a(Vis
VVBZ
tp446
a(Vclimate
VNN
tp447
a(Vchange
VNN
tp448
a(V,
V,
tp449
a(Vwith
VIN
tp450
a(Vthe
VDT
tp451
a(Vpossibility
VNN
tp452
a(Vof
VIN
tp453
a(Vrising
VVBG
tp454
a(Vsea
VNN
tp455
a(Vlevels
VNNS
tp456
a(V,
V,
tp457
a(Vand
VCC
tp458
a(Vin
VIN
tp459
a(VIreland
VNNP
tp460
a(V,
V,
tp461
a(Vincreased
VVBD
tp462
a(Vrainfall
VNNS
tp463
a(V.
V.
tp464
aa(lp465
(VThe
VDT
tp466
a(Vaim
VNN
tp467
a(Vis
VVBZ
tp468
a(Vin
VIN
tp469
a(Vfact
VNN
tp470
a(Vto
VTO
tp471
a(Vreduce
VVB
tp472
a(Vthe
VDT
tp473
a(Vcountry
VNN
tp474
a(V&apos;
VNN
tp475
a(Vs
VVBZ
tp476
a(Vdebt
VNN
tp477
a(Vtowards
VIN
tp478
a(Vthe
VDT
tp479
a(VCommunity
VNN
tp480
a(V.
V.
tp481
aa(lp482
(VWhen
VWRB
tp483
a(Vthe
VDT
tp484
a(Vnews
VNN
tp485
a(Vof
VIN
tp486
a(VMr
VNNP
tp487
a(VOleaga
VNNP
tp488
a(V&apos;
VNN
tp489
a(Vs
VVBZ
tp490
a(Vdeath
VNN
tp491
a(Vwas
VVBD
tp492
a(Vannounced
VVBN
tp493
a(V,
V,
tp494
a(VI
VPRP
tp495
a(Vimmediately
VRB
tp496
a(Vexpressed
VVBD
tp497
a(V,
V,
tp498
a(Von
VIN
tp499
a(Vmy
VPRP$
tp500
a(Vown
VJJ
tp501
a(Vbehalf
VNN
tp502
a(Vand
VCC
tp503
a(Von
VIN
tp504
a(Vbehalf
VNN
tp505
a(Vof
VIN
tp506
a(Vthe
VDT
tp507
a(VEuropean
VNNP
tp508
a(VParliament
VNNP
tp509
a(V,
V,
tp510
a(Vmy
VPRP$
tp511
a(Vsincere
VJJ
tp512
a(Vcondolences
VNNS
tp513
a(Vand
VCC
tp514
a(Vour
VPRP$
tp515
a(Vsupport
VNN
tp516
a(Vto
VTO
tp517
a(Vthe
VDT
tp518
a(Vvictim
VNN
tp519
a(V&apos;s
VNNS
tp520
a(Vfamily
VNN
tp521
a(Vand
VCC
tp522
a(Vcolleagues
VNNS
tp523
a(V.
V.
tp524
aa(lp525
(VIt
VPRP
tp526
a(Vis
VVBZ
tp527
a(V,
V,
tp528
a(Vtherefore
VRB
tp529
a(V,
V,
tp530
a(Vcrucial
VJJ
tp531
a(Vto
VTO
tp532
a(Vmaintain
VVB
tp533
a(Vthe
VDT
tp534
a(Vcurrent
VJJ
tp535
a(Vpolitical
VJJ
tp536
a(Vmomentum
VNN
tp537
a(Vand
VCC
tp538
a(Vdo
VVB
tp539
a(Vall
VDT
tp540
a(Vwe
VPRP
tp541
a(Vcan
VMD
tp542
a(Vto
VTO
tp543
a(Vensure
VVB
tp544
a(Vthat
VIN
tp545
a(Vthe
VDT
tp546
a(Vdeclarations
VNNS
tp547
a(Vof
VIN
tp548
a(Vthe
VDT
tp549
a(Vvarious
VJJ
tp550
a(Vplayers
VNNS
tp551
a(Vare
VVBP
tp552
a(Vput
VVBN
tp553
a(Vinto
VIN
tp554
a(Vpractice
VNN
tp555
a(V.
V.
tp556
aa(lp557
(VAccording
VVBG
tp558
a(Vto
VTO
tp559
a(Vthe
VDT
tp560
a(VOECD
VNNP
tp561
a(Vreport
VNN
tp562
a(V,
V,
tp563
a(VUkraine
VNNP
tp564
a(V&apos;s
VNNS
tp565
a(Veconomic
VJJ
tp566
a(Vgrowth
VNN
tp567
a(Vaveraged
VVBD
tp568
a(V7.6
VCD
tp569
a(V%
VNN
tp570
a(Vin
VIN
tp571
a(Vthe
VDT
tp572
a(Vyears
VNNS
tp573
a(Vfrom
VIN
tp574
a(V2000
VCD
tp575
a(Vto
VTO
tp576
a(V2006
VCD
tp577
a(V.
V.
tp578
aa(lp579
(VThe
VDT
tp580
a(Vvarious
VJJ
tp581
a(Vindustries
VNNS
tp582
a(Vshould
VMD
tp583
a(Vbe
VVB
tp584
a(Vable
VJJ
tp585
a(Vto
VTO
tp586
a(Vcompete
VVB
tp587
a(Von
VIN
tp588
a(Va
VDT
tp589
a(Vlevel
VNN
tp590
a(Vplaying
VNN
tp591
a(Vfield
VNN
tp592
a(Vunder
VIN
tp593
a(Vthe
VDT
tp594
a(Vsame
VJJ
tp595
a(Vrules
VNNS
tp596
a(V.
V.
tp597
aa(lp598
(VHowever
VRB
tp599
a(V,
V,
tp600
a(Vwe
VPRP
tp601
a(Vstill
VRB
tp602
a(Vjust
VRB
tp603
a(Vkeep
VVB
tp604
a(Von
VIN
tp605
a(Vgoing
VVBG
tp606
a(V.
V.
tp607
aa(lp608
(VIn
VIN
tp609
a(Vits
VPRP$
tp610
a(Vresolution
VNN
tp611
a(VParliament
VNNP
tp612
a(Vcalled
VVBD
tp613
a(Vfor
VIN
tp614
a(Vit
VPRP
tp615
a(Vto
VTO
tp616
a(Vbe
VVB
tp617
a(Vmade
VVBN
tp618
a(Vquite
VRB
tp619
a(Vclear
VJJ
tp620
a(Vthat
VIN
tp621
a(Vthis
VDT
tp622
a(Vrecommendation
VNN
tp623
a(Vonly
VRB
tp624
a(Vapplies
VVBZ
tp625
a(Vto
VTO
tp626
a(Vthe
VDT
tp627
a(Vsale
VNN
tp628
a(Vof
VIN
tp629
a(Vmusic
VNN
tp630
a(Vrecordings
VNNS
tp631
a(Von
VIN
tp632
a(Vthe
VDT
tp633
a(VInternet
VNN
tp634
a(V.
V.
tp635
aa(lp636
(VFor
VIN
tp637
a(Va
VDT
tp638
a(Vgreat
VJJ
tp639
a(Vvariety
VNN
tp640
a(Vof
VIN
tp641
a(Vreasons
VNNS
tp642
a(V,
V,
tp643
a(Vhowever
VRB
tp644
a(V,
V,
tp645
a(Vmost
VRBS
tp646
a(Voften
VRB
tp647
a(Vpolitical
VJJ
tp648
a(Vand
VCC
tp649
a(Vhistorical
VJJ
tp650
a(Vones
VNNS
tp651
a(V,
V,
tp652
a(Vaction
VNN
tp653
a(Vhas
VVBZ
tp654
a(Vrarely
VRB
tp655
a(Vbeen
VVBN
tp656
a(Vtaken
VVBN
tp657
a(Vagainst
VIN
tp658
a(Vforeign
VJJ
tp659
a(Vforces
VNNS
tp660
a(V.
V.
tp661
aa(lp662
(VMr
VNNP
tp663
a(VPresident
VNNP
tp664
a(V,
V,
tp665
a(Vit
VPRP
tp666
a(Vis
VVBZ
tp667
a(Valmost
VRB
tp668
a(Vtwo
VCD
tp669
a(Vyears
VNNS
tp670
a(Vago
VIN
tp671
a(Vthat
VIN
tp672
a(VPresident
VNNP
tp673
a(VProdi
VNNP
tp674
a(Vdescribed
VVBD
tp675
a(Vthe
VDT
tp676
a(VStability
VNN
tp677
a(Vand
VCC
tp678
a(VGrowth
VNN
tp679
a(VPact
VNNP
tp680
a(Vas
VIN
tp681
a(Vstupid
VJJ
tp682
a(V.
V.
tp683
aa(lp684
(VIt
VPRP
tp685
a(Vtakes
VVBZ
tp686
a(Va
VDT
tp687
a(Vlot
VNN
tp688
a(Vof
VIN
tp689
a(Vwork
VNN
tp690
a(V.
V.
tp691
aa(lp692
(VIt
VPRP
tp693
a(Vshould
VMD
tp694
a(Vbe
VVB
tp695
a(V,
V,
tp696
a(Vbecause
VIN
tp697
a(Vthat
VDT
tp698
a(Vis
VVBZ
tp699
a(Vwhat
VWP
tp700
a(Vis
VVBZ
tp701
a(Vrelevant
VJJ
tp702
a(Vto
VTO
tp703
a(Vpeople
VNNS
tp704
a(V\u2019
VVBP
tp705
a(Vs
VNNS
tp706
a(Vwellbeing
VVBG
tp707
a(V.
V.
tp708
aa(lp709
(VDoes
VVBZ
tp710
a(V&quot;
VNNP
tp711
a(Vcommon
VJJ
tp712
a(V&quot;
VNN
tp713
a(Vreally
VRB
tp714
a(Vmean
VVB
tp715
a(V&quot;
VJJ
tp716
a(Vunilateral
VJJ
tp717
a(V&quot;
VNN
tp718
a(V?
V.
tp719
aa(lp720
(VThe
VDT
tp721
a(VCommission
VNNP
tp722
a(Vunderstands
VVBZ
tp723
a(Vthat
VIN
tp724
a(Vskiing
VNN
tp725
a(Vis
VVBZ
tp726
a(Vvery
VRB
tp727
a(Vmuch
VRB
tp728
a(Va
VDT
tp729
a(Vseasonal
VJJ
tp730
a(Vsport
VNN
tp731
a(V.
V.
tp732
aa(lp733
(VKenya
VNNP
tp734
a(Vhas
VVBZ
tp735
a(Vnow
VRB
tp736
a(Vlost
VVBN
tp737
a(Vthat
VIN
tp738
a(Vsuccess-story
VJJ
tp739
a(Vimage
VNN
tp740
a(V.
V.
tp741
aa(lp742
(VThe
VDT
tp743
a(Vfew
VJJ
tp744
a(Vdays
VNNS
tp745
a(V-
V:
tp746
a(Vhours
VNNS
tp747
a(Veven
VRB
tp748
a(V-
V:
tp749
a(Vwhich
VWDT
tp750
a(Vseparated
VVBD
tp751
a(Vthe
VDT
tp752
a(Vtwo
VCD
tp753
a(Vdebates
VNNS
tp754
a(Vrevealed
VVBD
tp755
a(Va
VDT
tp756
a(Vwealth
VNN
tp757
a(Vof
VIN
tp758
a(Vdifferences
VNNS
tp759
a(V:
V:
tp760
a(Vwhen
VWRB
tp761
a(Vwe
VPRP
tp762
a(Vtalk
VVBP
tp763
a(Vof
VIN
tp764
a(Va
VDT
tp765
a(Vnew
VJJ
tp766
a(VEurope
VNNP
tp767
a(V,
V,
tp768
a(Van
VDT
tp769
a(Vinnovative
VJJ
tp770
a(VEurope
VNNP
tp771
a(V,
V,
tp772
a(Vwe
VPRP
tp773
a(Vmust
VMD
tp774
a(Vnot
VRB
tp775
a(Vforget
VVB
tp776
a(Vthat
VIN
tp777
a(V,
V,
tp778
a(Vacross
VIN
tp779
a(Vthe
VDT
tp780
a(Vwater
VNN
tp781
a(V,
V,
tp782
a(Vthere
VEX
tp783
a(Vis
VVBZ
tp784
a(Va
VDT
tp785
a(Vterrible
VJJ
tp786
a(Vsituation
VNN
tp787
a(Vin
VIN
tp788
a(VAfrica
VNNP
tp789
a(Vwhich
VWDT
tp790
a(Vis
VVBZ
tp791
a(Vout
VIN
tp792
a(Vof
VIN
tp793
a(Vcontrol
VNN
tp794
a(V.
V.
tp795
aa(lp796
(VThe
VDT
tp797
a(Vhuge
VJJ
tp798
a(Vproblem
VNN
tp799
a(Vinvolving
VVBG
tp800
a(Vpeople
VNNS
tp801
a(Vwho
VWP
tp802
a(Vare
VVBP
tp803
a(V,
V,
tp804
a(Vto
VTO
tp805
a(Vthis
VDT
tp806
a(Vday
VNN
tp807
a(V,
V,
tp808
a(Vconsidered
VVBN
tp809
a(Voutcastes
VNNS
tp810
a(Vand
VCC
tp811
a(Vtherefore
VRB
tp812
a(V&apos;
VJJ
tp813
a(Vuntouchable
VJJ
tp814
a(V&apos;
VNN
tp815
a(Vis
VVBZ
tp816
a(Vdisturbing
VJJ
tp817
a(V.
V.
tp818
aa(lp819
(VIn
VIN
tp820
a(Vparticular
VJJ
tp821
a(V,
V,
tp822
a(Vwith
VIN
tp823
a(Vregard
VNN
tp824
a(Vto
VTO
tp825
a(Vfisheries
VNNS
tp826
a(V,
V,
tp827
a(Vwe
VPRP
tp828
a(Vhave
VVBP
tp829
a(Vheard
VVBN
tp830
a(Vthe
VDT
tp831
a(Vexplanations
VNNS
tp832
a(Vgiven
VVBN
tp833
a(Vus
VPRP
tp834
a(Vby
VIN
tp835
a(Vthe
VDT
tp836
a(Vrapporteur
VNN
tp837
a(Von
VIN
tp838
a(Vbudgets
VNNS
tp839
a(Vof
VIN
tp840
a(Vthe
VDT
tp841
a(VCommittee
VNNP
tp842
a(Von
VIN
tp843
a(VFisheries
VNNPS
tp844
a(V,
V,
tp845
a(VMrs
VNNP
tp846
a(VLangenhagen
VNNP
tp847
a(V,
V,
tp848
a(Vand
VCC
tp849
a(Vwe
VPRP
tp850
a(Vfully
VRB
tp851
a(Vagree
VVBP
tp852
a(Vwith
VIN
tp853
a(Vthem
VPRP
tp854
a(V.
V.
tp855
aa(lp856
(VWe
VPRP
tp857
a(Vneed
VVBP
tp858
a(Vto
VTO
tp859
a(Vunderstand
VVB
tp860
a(Vthis
VDT
tp861
a(V.
V.
tp862
aa(lp863
(VAfterwards
VRB
tp864
a(V,
V,
tp865
a(Vher
VPRP$
tp866
a(Vparents
VNNS
tp867
a(Vvery
VRB
tp868
a(Vbravely
VRB
tp869
a(Vallowed
VVBD
tp870
a(Va
VDT
tp871
a(Vvideo
VNN
tp872
a(Vof
VIN
tp873
a(Vher
VPRP$
tp874
a(Vbody
VNN
tp875
a(Vto
VTO
tp876
a(Vbe
VVB
tp877
a(Vshown
VVBN
tp878
a(V,
V,
tp879
a(Vso
VIN
tp880
a(Vthat
VIN
tp881
a(Vyoung
VJJ
tp882
a(Vpeople
VNNS
tp883
a(Vwould
VMD
tp884
a(Vunderstand
VVB
tp885
a(Vthe
VDT
tp886
a(Veffect
VNN
tp887
a(Vof
VIN
tp888
a(Vtaking
VVBG
tp889
a(Vecstasy
VNN
tp890
a(V.
V.
tp891
aa(lp892
(VIf
VIN
tp893
a(Vwe
VPRP
tp894
a(Vare
VVBP
tp895
a(Vto
VTO
tp896
a(Vcurb
VVB
tp897
a(Vthis
VDT
tp898
a(Vunhealthy
VJJ
tp899
a(Vpractice
VNN
tp900
a(Vit
VPRP
tp901
a(Vis
VVBZ
tp902
a(Vnot
VRB
tp903
a(Vtemporary
VJJ
tp904
a(Vrules
VNNS
tp905
a(Vthat
VIN
tp906
a(Vwe
VPRP
tp907
a(Vneed
VVBP
tp908
a(Vbut
VCC
tp909
a(Vabsolutely
VRB
tp910
a(Vstrict
VJJ
tp911
a(Vregulations
VNNS
tp912
a(V.
V.
tp913
aa(lp914
(VAs
VIN
tp915
a(Vof
VIN
tp916
a(V2004
VCD
tp917
a(V,
V,
tp918
a(Vthe
VDT
tp919
a(VEuropean
VJJ
tp920
a(Vauthorities
VNNS
tp921
a(Vwill
VMD
tp922
a(Vdemand
VVB
tp923
a(Vvisas
VNNS
tp924
a(Vfor
VIN
tp925
a(Vthis
VDT
tp926
a(Vjourney
VNN
tp927
a(V.
V.
tp928
aa(lp929
(VWhat
VWP
tp930
a(VI
VPRP
tp931
a(Vdid
VVBD
tp932
a(Vnot
VRB
tp933
a(Vknow
VVB
tp934
a(Vwas
VVBD
tp935
a(Vthat
VIN
tp936
a(V,
V,
tp937
a(Va
VDT
tp938
a(Vquarter
VNN
tp939
a(Vof
VIN
tp940
a(Va
VDT
tp941
a(Vcentury
VNN
tp942
a(Vlater
VRB
tp943
a(V,
V,
tp944
a(VRobin
VNNP
tp945
a(VHood
VNNP
tp946
a(Vcould
VMD
tp947
a(Vcommit
VVB
tp948
a(Vpolitical
VJJ
tp949
a(Vsuicide
VNN
tp950
a(Vby
VIN
tp951
a(Vtalking
VVBG
tp952
a(Vnonsense
VNN
tp953
a(V,
V,
tp954
a(Vas
VIN
tp955
a(Vhe
VPRP
tp956
a(Vhas
VVBZ
tp957
a(Vdone
VVBN
tp958
a(Vin
VIN
tp959
a(Vthis
VDT
tp960
a(VHouse
VNNP
tp961
a(Vtoday
VNN
tp962
a(V.
V.
tp963
aa(lp964
(VWhen
VWRB
tp965
a(Vexchange
VNN
tp966
a(Vrates
VNNS
tp967
a(Vshift
VNN
tp968
a(V,
V,
tp969
a(Vthe
VDT
tp970
a(Vfixed
VJJ
tp971
a(Vprices
VNNS
tp972
a(Vand
VCC
tp973
a(Vpayments
VNNS
tp974
a(Vin
VIN
tp975
a(Vnational
VJJ
tp976
a(Vcurrencies
VNNS
tp977
a(Vchange
VVBP
tp978
a(Vin
VIN
tp979
a(Vvalue
VNN
tp980
a(V;
V:
tp981
a(Vaccording
VVBG
tp982
a(Vto
VTO
tp983
a(Vthe
VDT
tp984
a(VCommission
VNNP
tp985
a(V,
V,
tp986
a(Vthe
VDT
tp987
a(Vold
VJJ
tp988
a(Vform
VNN
tp989
a(Vof
VIN
tp990
a(Vthe
VDT
tp991
a(Vcompensatory
VJJ
tp992
a(Vsystem
VNN
tp993
a(V,
V,
tp994
a(Vwhich
VWDT
tp995
a(Vhad
VVBD
tp996
a(Vto
VTO
tp997
a(Vbe
VVB
tp998
a(Vabolished
VVBN
tp999
a(Vin
VIN
tp1000
a(V1995
VCD
tp1001
a(V,
V,
tp1002
a(Vwas
VVBD
tp1003
a(Vcosting
VVBG
tp1004
a(VECU
VNNP
tp1005
a(V8
VCD
tp1006
a(Vbillion
VCD
tp1007
a(Vper
VIN
tp1008
a(Vannum
VNN
tp1009
a(V.
V.
tp1010
aa(lp1011
(VThe
VDT
tp1012
a(Vmost
VRBS
tp1013
a(Vimportant
VJJ
tp1014
a(Vthing
VNN
tp1015
a(Vis
VVBZ
tp1016
a(Vthat
VIN
tp1017
a(Vwe
VPRP
tp1018
a(Vtry
VVBP
tp1019
a(Vand
VCC
tp1020
a(Vensure
VVBP
tp1021
a(Vthat
VIN
tp1022
a(Vthe
VDT
tp1023
a(Vpublic
VJJ
tp1024
a(Vand
VCC
tp1025
a(Vthe
VDT
tp1026
a(Vconsumer
VNN
tp1027
a(Vcan
VMD
tp1028
a(Vbe
VVB
tp1029
a(Vcertain
VJJ
tp1030
a(Vthat
VIN
tp1031
a(Vthe
VDT
tp1032
a(Vfood
VNN
tp1033
a(Vthey
VPRP
tp1034
a(Vare
VVBP
tp1035
a(Vbuying
VVBG
tp1036
a(Vin
VIN
tp1037
a(Vthe
VDT
tp1038
a(Vsupermarkets
VNNS
tp1039
a(V,
V,
tp1040
a(Vin
VIN
tp1041
a(Vtheir
VPRP$
tp1042
a(Vlocal
VJJ
tp1043
a(Vcorner
VNN
tp1044
a(Vshops
VNNS
tp1045
a(Vis
VVBZ
tp1046
a(Vsafe
VJJ
tp1047
a(Vto
VTO
tp1048
a(Veat
VVB
tp1049
a(V.
V.
tp1050
aa(lp1051
(VThe
VDT
tp1052
a(VEuropean
VJJ
tp1053
a(VCouncil
VNNP
tp1054
a(Valso
VRB
tp1055
a(Vasked
VVBD
tp1056
a(Vthe
VDT
tp1057
a(VFinance
VNNP
tp1058
a(VMinisters
VNNPS
tp1059
a(Vto
VTO
tp1060
a(Vevaluate
VVB
tp1061
a(Vthe
VDT
tp1062
a(Vtransparency
VNN
tp1063
a(Vof
VIN
tp1064
a(Vour
VPRP$
tp1065
a(Vaccounting
VNN
tp1066
a(V,
V,
tp1067
a(Vconsultancy
VNN
tp1068
a(Vand
VCC
tp1069
a(Vauditing
VNN
tp1070
a(Vregulations
VNNS
tp1071
a(V.
V.
tp1072
aa(lp1073
(VUnfortunately
VRB
tp1074
a(V,
V,
tp1075
a(Vwe
VPRP
tp1076
a(Vknow
VVBP
tp1077
a(Vthat
VIN
tp1078
a(Vthere
VEX
tp1079
a(Vis
VVBZ
tp1080
a(Vsometimes
VRB
tp1081
a(Va
VDT
tp1082
a(Vgreat
VJJ
tp1083
a(Vdifference
VNN
tp1084
a(Vbetween
VIN
tp1085
a(Vthe
VDT
tp1086
a(Vnice-sounding
VJJ
tp1087
a(Vwords
VNNS
tp1088
a(Vthat
VWDT
tp1089
a(Vare
VVBP
tp1090
a(Vsaid
VVBN
tp1091
a(Vand
VCC
tp1092
a(Vwhat
VWP
tp1093
a(Vis
VVBZ
tp1094
a(Vdone
VVBN
tp1095
a(V.
V.
tp1096
aa(lp1097
(VIt
VPRP
tp1098
a(Vwas
VVBD
tp1099
a(Vonly
VRB
tp1100
a(Vafter
VIN
tp1101
a(Vthe
VDT
tp1102
a(Vintervention
VNN
tp1103
a(Vof
VIN
tp1104
a(Vthe
VDT
tp1105
a(VPolish
VJJ
tp1106
a(Vauthorities
VNNS
tp1107
a(V,
V,
tp1108
a(Vwho
VWP
tp1109
a(V,
V,
tp1110
a(Vmoreover
VRB
tp1111
a(V,
V,
tp1112
a(Vrecognised
VVBD
tp1113
a(Vthe
VDT
tp1114
a(Vvalidity
VNN
tp1115
a(Vof
VIN
tp1116
a(Vthe
VDT
tp1117
a(Vdocument
VNN
tp1118
a(V-
V:
tp1119
a(Vand
VCC
tp1120
a(Vthis
VDT
tp1121
a(Vbodes
VVBZ
tp1122
a(Vwell
VRB
tp1123
a(Vfor
VIN
tp1124
a(Venlargement
VNN
tp1125
a(V-
V:
tp1126
a(Vthat
VIN
tp1127
a(VI
VPRP
tp1128
a(Vwas
VVBD
tp1129
a(Vallowed
VVBN
tp1130
a(Vto
VTO
tp1131
a(Vcontinue
VVB
tp1132
a(Vmy
VPRP$
tp1133
a(Vjourney
VNN
tp1134
a(V.
V.
tp1135
aa(lp1136
(VIn
VIN
tp1137
a(Vthe
VDT
tp1138
a(VUnited
VNNP
tp1139
a(VStates
VNNPS
tp1140
a(V,
V,
tp1141
a(Vthere
VEX
tp1142
a(Vis
VVBZ
tp1143
a(Vno
VDT
tp1144
a(Vgeneral
VJJ
tp1145
a(Vlaw
VNN
tp1146
a(Von
VIN
tp1147
a(Vthe
VDT
tp1148
a(Vprotection
VNN
tp1149
a(Vof
VIN
tp1150
a(Vprivate
VJJ
tp1151
a(Vlife
VNN
tp1152
a(V,
V,
tp1153
a(Vnor
VCC
tp1154
a(Vis
VVBZ
tp1155
a(Vthere
VEX
tp1156
a(Vexplicit
VJJ
tp1157
a(Vreference
VNN
tp1158
a(Vto
VTO
tp1159
a(Va
VDT
tp1160
a(Vfundamental
VJJ
tp1161
a(Vright
VNN
tp1162
a(Vto
VTO
tp1163
a(Vthe
VDT
tp1164
a(Vprotection
VNN
tp1165
a(Vof
VIN
tp1166
a(Vprivate
VJJ
tp1167
a(Vlife
VNN
tp1168
a(Vin
VIN
tp1169
a(Vthe
VDT
tp1170
a(Vcountry
VNN
tp1171
a(V&apos;s
VNNS
tp1172
a(Vconstitution
VNN
tp1173
a(V.
V.
tp1174
aa(lp1175
(VWe
VPRP
tp1176
a(Vknow
VVBP
tp1177
a(Vthat
VIN
tp1178
a(Vvarious
VJJ
tp1179
a(Vforms
VNNS
tp1180
a(Vof
VIN
tp1181
a(Vviolence
VNN
tp1182
a(Vin
VIN
tp1183
a(Vthe
VDT
tp1184
a(VEuropean
VNNP
tp1185
a(VUnion
VNNP
tp1186
a(Vhave
VVBP
tp1187
a(Vmushroomed
VVBN
tp1188
a(V.
V.
tp1189
aa(lp1190
(VFurthermore
VRB
tp1191
a(V,
V,
tp1192
a(Vthe
VDT
tp1193
a(Vstatistics
VNNS
tp1194
a(Vinclude
VVBP
tp1195
a(Va
VDT
tp1196
a(Vfrightening
VJJ
tp1197
a(Vrate
VNN
tp1198
a(Vof
VIN
tp1199
a(Vsick
VJJ
tp1200
a(Vleave
VNN
tp1201
a(V.
V.
tp1202
aa(lp1203
(VAt
VIN
tp1204
a(Vthe
VDT
tp1205
a(Vmoment
VNN
tp1206
a(V,
V,
tp1207
a(Vthis
VDT
tp1208
a(Vis
VVBZ
tp1209
a(Vnot
VRB
tp1210
a(Vthe
VDT
tp1211
a(Vcase
VNN
tp1212
a(V.
V.
tp1213
aa(lp1214
(VAllow
VVB
tp1215
a(Vme
VPRP
tp1216
a(Vto
VTO
tp1217
a(Vquote
VVB
tp1218
a(Vtwo
VCD
tp1219
a(Vfigures
VNNS
tp1220
a(V,
V,
tp1221
a(VCommissioner
VNNP
tp1222
a(V,
V,
tp1223
a(Vwhich
VWDT
tp1224
a(VI
VPRP
tp1225
a(Vreceived
VVBD
tp1226
a(Vthis
VDT
tp1227
a(Vmorning
VNN
tp1228
a(V.
V.
tp1229
a(VThese
VDT
tp1230
a(Vare
VVBP
tp1231
a(Vfigures
VNNS
tp1232
a(Vthat
VWDT
tp1233
a(Vreflect
VVBP
tp1234
a(Vthe
VDT
tp1235
a(Vincrease
VNN
tp1236
a(Vof
VIN
tp1237
a(VChinese
VJJ
tp1238
a(Vimports
VNNS
tp1239
a(Vin
VIN
tp1240
a(VBelgium
VNNP
tp1241
a(Vover
VIN
tp1242
a(Vthe
VDT
tp1243
a(Vpast
VJJ
tp1244
a(Vquarter
VNN
tp1245
a(V,
V,
tp1246
a(Vfrom
VIN
tp1247
a(VJanuary
VNNP
tp1248
a(Vto
VTO
tp1249
a(VApril
VNNP
tp1250
a(V2005
VCD
tp1251
a(V.
V.
tp1252
aa(lp1253
(VThat
VDT
tp1254
a(Vis
VVBZ
tp1255
a(Vmuch
VJJ
tp1256
a(Vcheaper
VJJR
tp1257
a(Vthan
VIN
tp1258
a(Vsending
VVBG
tp1259
a(Vthem
VPRP
tp1260
a(Vto
VTO
tp1261
a(Vhospital
VNN
tp1262
a(Vor
VCC
tp1263
a(Vto
VTO
tp1264
a(Vnursing
VVBG
tp1265
a(Vhomes
VNNS
tp1266
a(V,
V,
tp1267
a(Vand
VCC
tp1268
a(Vof
VIN
tp1269
a(Vcourse
VNN
tp1270
a(Vit
VPRP
tp1271
a(Vis
VVBZ
tp1272
a(Valso
VRB
tp1273
a(Vbest
VRB
tp1274
a(Vfor
VIN
tp1275
a(Vtheir
VPRP$
tp1276
a(Vwellbeing
VNN
tp1277
a(V.
V.
tp1278
aa(lp1279
(VThat
VDT
tp1280
a(V,
V,
tp1281
a(Vin
VIN
tp1282
a(Vmy
VPRP$
tp1283
a(Vview
VNN
tp1284
a(V,
V,
tp1285
a(Vis
VVBZ
tp1286
a(Vthe
VDT
tp1287
a(Vmost
VRBS
tp1288
a(Vimportant
VJJ
tp1289
a(Vthing
VNN
tp1290
a(V,
V,
tp1291
a(Vthat
VIN
tp1292
a(Vthe
VDT
tp1293
a(Vcountry
VNN
tp1294
a(Vcan
VMD
tp1295
a(Vagain
VRB
tp1296
a(Vbe
VVB
tp1297
a(Vself-supporting
VJJ
tp1298
a(Vand
VCC
tp1299
a(Vexport
VNN
tp1300
a(Vagricultural
VJJ
tp1301
a(Vproduce
VNN
tp1302
a(V.
V.
tp1303
aa(lp1304
(VOne
VCD
tp1305
a(Vthing
VNN
tp1306
a(VI
VPRP
tp1307
a(Vhave
VVBP
tp1308
a(Vlearned
VVBN
tp1309
a(Vin
VIN
tp1310
a(Vmy
VPRP$
tp1311
a(Vpolitical
VJJ
tp1312
a(Vlife
VNN
tp1313
a(Vis
VVBZ
tp1314
a(Vthat
VIN
tp1315
a(Vit
VPRP
tp1316
a(Vis
VVBZ
tp1317
a(Valways
VRB
tp1318
a(Veasier
VJJR
tp1319
a(Vto
VTO
tp1320
a(Vcome
VVB
tp1321
a(Vup
VRP
tp1322
a(Vwith
VIN
tp1323
a(Vreasons
VNNS
tp1324
a(Vnot
VRB
tp1325
a(Vto
VTO
tp1326
a(Vdo
VVB
tp1327
a(Vsomething
VNN
tp1328
a(Vthan
VIN
tp1329
a(Vit
VPRP
tp1330
a(Vis
VVBZ
tp1331
a(Vto
VTO
tp1332
a(Vdo
VVB
tp1333
a(Vsomething
VNN
tp1334
a(V.
V.
tp1335
aa(lp1336
(VIn
VIN
tp1337
a(Vthe
VDT
tp1338
a(Vlight
VNN
tp1339
a(Vof
VIN
tp1340
a(Vthe
VDT
tp1341
a(VJoint
VNNP
tp1342
a(VStrategy
VNNP
tp1343
a(Vadopted
VVBD
tp1344
a(Vin
VIN
tp1345
a(V2007
VCD
tp1346
a(V,
V,
tp1347
a(Vwhich
VWDT
tp1348
a(Vproposed
VVBD
tp1349
a(Vthe
VDT
tp1350
a(Vintroduction
VNN
tp1351
a(Vof
VIN
tp1352
a(Va
VDT
tp1353
a(Vmore
VRBR
tp1354
a(Vbilateral
VJJ
tp1355
a(Vapproach
VNN
tp1356
a(Vputting
VVBG
tp1357
a(Vthe
VDT
tp1358
a(VEU
VNNP
tp1359
a(Vand
VCC
tp1360
a(VAfrica
VNNP
tp1361
a(Von
VIN
tp1362
a(Va
VDT
tp1363
a(Vmore
VRBR
tp1364
a(Vequal
VJJ
tp1365
a(Vfooting
VNN
tp1366
a(V,
V,
tp1367
a(VI
VPRP
tp1368
a(Vagree
VVBP
tp1369
a(Von
VIN
tp1370
a(Vthe
VDT
tp1371
a(Vimportance
VNN
tp1372
a(Vof
VIN
tp1373
a(Vsuch
VPDT
tp1374
a(Va
VDT
tp1375
a(Vstrategy
VNN
tp1376
a(V.
V.
tp1377
aa(lp1378
(VThe
VDT
tp1379
a(Veffect
VNN
tp1380
a(Vof
VIN
tp1381
a(Vthis
VDT
tp1382
a(Vis
VVBZ
tp1383
a(Vthat
VIN
tp1384
a(Vpeople
VNNS
tp1385
a(Von
VIN
tp1386
a(Vlower
VJJR
tp1387
a(Vincomes
VNNS
tp1388
a(Vhave
VVBP
tp1389
a(Vincreasing
VVBG
tp1390
a(Vdifficulty
VNN
tp1391
a(Vin
VIN
tp1392
a(Vaccessing
VVBG
tp1393
a(Vhealthcare
VNN
tp1394
a(V.
V.
tp1395
aa(lp1396
(VIs
VVBZ
tp1397
a(Vit
VPRP
tp1398
a(Vnot
VRB
tp1399
a(Vtime
VNN
tp1400
a(Vthat
VIN
tp1401
a(Vyou
VPRP
tp1402
a(Vunderstood
VVBD
tp1403
a(Vthe
VDT
tp1404
a(VRules
VNNPS
tp1405
a(V?
V.
tp1406
aa(lp1407
(VAnd
VCC
tp1408
a(Vis
VVBZ
tp1409
a(Vit
VPRP
tp1410
a(Vnot
VRB
tp1411
a(Vthe
VDT
tp1412
a(VCouncil
VNNP
tp1413
a(Vthat
VWDT
tp1414
a(Vis
VVBZ
tp1415
a(Vaiming
VVBG
tp1416
a(Vto
VTO
tp1417
a(Vwater
VVB
tp1418
a(Vdown
VRP
tp1419
a(Vthe
VDT
tp1420
a(Vdecision
VNN
tp1421
a(V,
V,
tp1422
a(Valmost
VRB
tp1423
a(Vto
VTO
tp1424
a(Vthe
VDT
tp1425
a(Vpoint
VNN
tp1426
a(Vthat
VIN
tp1427
a(Vthere
VEX
tp1428
a(Vis
VVBZ
tp1429
a(Vhardly
VRB
tp1430
a(Vanything
VNN
tp1431
a(Vleft
VVBD
tp1432
a(Vto
VTO
tp1433
a(Vprotect
VVB
tp1434
a(V?
V.
tp1435
aa(lp1436
(VIt
VPRP
tp1437
a(Vis
VVBZ
tp1438
a(Vrather
VRB
tp1439
a(Va
VDT
tp1440
a(Vphenomenon
VNN
tp1441
a(Vthat
VWDT
tp1442
a(Vis
VVBZ
tp1443
a(Vlinked
VVBN
tp1444
a(Vto
VTO
tp1445
a(Vthe
VDT
tp1446
a(Vdevelopment
VNN
tp1447
a(Vof
VIN
tp1448
a(Vthe
VDT
tp1449
a(Vcountry
VNN
tp1450
a(Vconcerned
VVBN
tp1451
a(V.
V.
tp1452
aa(lp1453
(VThey
VPRP
tp1454
a(Vare
VVBP
tp1455
a(Valleging
VVBG
tp1456
a(Vthat
VIN
tp1457
a(Vit
VPRP
tp1458
a(Vcreates
VVBZ
tp1459
a(Va
VDT
tp1460
a(Vcentralised
VJJ
tp1461
a(Vsuperstate
VNN
tp1462
a(Vwith
VIN
tp1463
a(Vall
VDT
tp1464
a(Vpowers
VNNS
tp1465
a(Vhanded
VVBN
tp1466
a(Vover
VIN
tp1467
a(Vto
VTO
tp1468
a(VBrussels
VNNP
tp1469
a(V,
V,
tp1470
a(Vwhere
VWRB
tp1471
a(VBrussels
VNNP
tp1472
a(Vwill
VMD
tp1473
a(Vbe
VVB
tp1474
a(Vable
VJJ
tp1475
a(Vto
VTO
tp1476
a(Voverrule
VVB
tp1477
a(Vnational
VJJ
tp1478
a(Vpolicy
VNN
tp1479
a(Vin
VIN
tp1480
a(Vevery
VDT
tp1481
a(Varea
VNN
tp1482
a(Vof
VIN
tp1483
a(Vgovernance
VNN
tp1484
a(V.
V.
tp1485
aa(lp1486
(VAnd
VCC
tp1487
a(V,
V,
tp1488
a(Vabove
VIN
tp1489
a(Vall
VDT
tp1490
a(V,
V,
tp1491
a(Vthat
VIN
tp1492
a(V,
V,
tp1493
a(Vshould
VMD
tp1494
a(Vthey
VPRP
tp1495
a(Vdo
VVB
tp1496
a(Vso
VRB
tp1497
a(V,
V,
tp1498
a(Vsanctions
VNNS
tp1499
a(Vare
VVBP
tp1500
a(Vimposed
VVBN
tp1501
a(Von
VIN
tp1502
a(Vthem
VPRP
tp1503
a(V.
V.
tp1504
aa(lp1505
(VMrs
VNNP
tp1506
a(VSwiebel
VNNP
tp1507
a(Vhas
VVBZ
tp1508
a(Vmade
VVBN
tp1509
a(Vthis
VDT
tp1510
a(Vclear
VJJ
tp1511
a(V.
V.
tp1512
aa(lp1513
(VTherefore
VRB
tp1514
a(V,
V,
tp1515
a(VI
VPRP
tp1516
a(Vwill
VMD
tp1517
a(Vbriefly
VRB
tp1518
a(Voutline
VVB
tp1519
a(Vthe
VDT
tp1520
a(Vthree
VCD
tp1521
a(Vstages
VNNS
tp1522
a(Vof
VIN
tp1523
a(Vthis
VDT
tp1524
a(Vnew
VJJ
tp1525
a(Vdimension
VNN
tp1526
a(Vof
VIN
tp1527
a(VEuropean
VJJ
tp1528
a(Vlaw
VNN
tp1529
a(V.
V.
tp1530
aa(lp1531
(VFor
VIN
tp1532
a(Vmany
VJJ
tp1533
a(Vyears
VNNS
tp1534
a(Vnow
VRB
tp1535
a(V,
V,
tp1536
a(Vhorrific
VJJ
tp1537
a(Vmassacres
VNNS
tp1538
a(V,
V,
tp1539
a(Vthe
VDT
tp1540
a(Vrape
VNN
tp1541
a(Vof
VIN
tp1542
a(Vwomen
VNNS
tp1543
a(Vand
VCC
tp1544
a(Vgirls
VNNS
tp1545
a(V,
V,
tp1546
a(Vplus
VCC
tp1547
a(Vconscription
VNN
tp1548
a(Vof
VIN
tp1549
a(Vchildren
VNNS
tp1550
a(Vinto
VIN
tp1551
a(Vthe
VDT
tp1552
a(Varmy
VNN
tp1553
a(Vhave
VVBP
tp1554
a(Vall
VDT
tp1555
a(Vbeen
VVBN
tp1556
a(Veveryday
VJJ
tp1557
a(Voccurences
VNNS
tp1558
a(Vin
VIN
tp1559
a(Vthis
VDT
tp1560
a(Vcountry
VNN
tp1561
a(V.
V.
tp1562
aa(lp1563
(VThe
VDT
tp1564
a(Vtreatment
VNN
tp1565
a(Vof
VIN
tp1566
a(Vjournalists
VNNS
tp1567
a(Vand
VCC
tp1568
a(Vauthors
VNNS
tp1569
a(Vin
VIN
tp1570
a(VBelarus
VNNP
tp1571
a(Vis
VVBZ
tp1572
a(Vscandalous
VJJ
tp1573
a(V.
V.
tp1574
aa(lp1575
(VPersonally
VRB
tp1576
a(VI
VPRP
tp1577
a(Vdo
VVBP
tp1578
a(Vnot
VRB
tp1579
a(Vbelieve
VVB
tp1580
a(Vthat
VIN
tp1581
a(Vthere
VEX
tp1582
a(Vcan
VMD
tp1583
a(Vbe
VVB
tp1584
a(Vany
VDT
tp1585
a(Vquestion
VNN
tp1586
a(Von
VIN
tp1587
a(Vthis
VDT
tp1588
a(Vpoint
VNN
tp1589
a(V,
V,
tp1590
a(Vbecause
VIN
tp1591
a(Vit
VPRP
tp1592
a(Vmeans
VVBZ
tp1593
a(Vthat
VIN
tp1594
a(V,
V,
tp1595
a(Vas
VIN
tp1596
a(Vpart
VNN
tp1597
a(Vof
VIN
tp1598
a(Vthe
VDT
tp1599
a(Veuro
VNN
tp1600
a(V,
V,
tp1601
a(Vone
VCD
tp1602
a(Vis
VVBZ
tp1603
a(Vobliged
VVBN
tp1604
a(Vto
VTO
tp1605
a(Vfollow
VVB
tp1606
a(Vmonetary
VJJ
tp1607
a(Vpolicy
VNN
tp1608
a(V,
V,
tp1609
a(Vbut
VCC
tp1610
a(Vwithout
VIN
tp1611
a(Vhaving
VVBG
tp1612
a(Vtaken
VVBN
tp1613
a(Vpart
VNN
tp1614
a(Vin
VIN
tp1615
a(Vits
VPRP$
tp1616
a(Vdefinition
VNN
tp1617
a(V.
V.
tp1618
aa(lp1619
(VIn
VIN
tp1620
a(Vsome
VDT
tp1621
a(Vregions
VNNS
tp1622
a(Vin
VIN
tp1623
a(VPoland
VNNP
tp1624
a(Vthe
VDT
tp1625
a(Vharvests
VNNS
tp1626
a(Vfell
VVBD
tp1627
a(Vby
VIN
tp1628
a(Vover
VIN
tp1629
a(Vtwenty
VCD
tp1630
a(Vpercent
VNN
tp1631
a(Vand
VCC
tp1632
a(Vhundreds
VNNS
tp1633
a(Vof
VIN
tp1634
a(Vthousands
VNNS
tp1635
a(Vof
VIN
tp1636
a(Vfarming
VVBG
tp1637
a(Vfamilies
VNNS
tp1638
a(Vfound
VVBN
tp1639
a(Vthemselves
VPRP
tp1640
a(Vin
VIN
tp1641
a(Va
VDT
tp1642
a(Vdesperate
VJJ
tp1643
a(Vsituation
VNN
tp1644
a(V.
V.
tp1645
aa(lp1646
(VHow
VWRB
tp1647
a(Vis
VVBZ
tp1648
a(Vthat
VIN
tp1649
a(Vpossible
VJJ
tp1650
a(V?
V.
tp1651
aa(lp1652
(VYour
VPRP$
tp1653
a(Vpolitical
VJJ
tp1654
a(Veloquence
VNN
tp1655
a(Vis
VVBZ
tp1656
a(Vvery
VRB
tp1657
a(Vimpressive
VJJ
tp1658
a(Vindeed
VRB
tp1659
a(V.
V.
tp1660
aa(lp1661
(VFor
VIN
tp1662
a(Vits
VPRP$
tp1663
a(Vpart
VNN
tp1664
a(V,
V,
tp1665
a(Vthe
VDT
tp1666
a(VGovernment
VNN
tp1667
a(Vis
VVBZ
tp1668
a(Vcaught
VVBN
tp1669
a(Vup
VRP
tp1670
a(Vin
VIN
tp1671
a(Va
VDT
tp1672
a(Vspiral
VNN
tp1673
a(Vof
VIN
tp1674
a(Vcorruption
VNN
tp1675
a(Vand
VCC
tp1676
a(Vinefficiency
VNN
tp1677
a(V.
V.
tp1678
aa(lp1679
(VIndeed
VRB
tp1680
a(V,
V,
tp1681
a(Vyoung
VJJ
tp1682
a(Vchildren
VNNS
tp1683
a(Vnow
VRB
tp1684
a(Vspend
VVBP
tp1685
a(Vmore
VJJR
tp1686
a(Vtime
VNN
tp1687
a(Vin
VIN
tp1688
a(Vfront
VNN
tp1689
a(Vof
VIN
tp1690
a(Vthe
VDT
tp1691
a(Vcomputer
VNN
tp1692
a(Vthan
VIN
tp1693
a(Vin
VIN
tp1694
a(Vfront
VNN
tp1695
a(Vof
VIN
tp1696
a(Vthe
VDT
tp1697
a(Vtelevision
VNN
tp1698
a(V.
V.
tp1699
aa(lp1700
(VI
VPRP
tp1701
a(Vwould
VMD
tp1702
a(Vjust
VRB
tp1703
a(Vlike
VVB
tp1704
a(Vto
VTO
tp1705
a(Vpoint
VVB
tp1706
a(Vout
VRP
tp1707
a(Vto
VTO
tp1708
a(Vhim
VPRP
tp1709
a(Vthat
VIN
tp1710
a(Vwe
VPRP
tp1711
a(Vare
VVBP
tp1712
a(Vnot
VRB
tp1713
a(Vat
VIN
tp1714
a(VWestminster
VNNP
tp1715
a(V.
V.
tp1716
aa(lp1717
(VRelating
VVBG
tp1718
a(Vto
VTO
tp1719
a(Vthe
VDT
tp1720
a(VPresident
VNNP
tp1721
a(Vof
VIN
tp1722
a(VRomania
VNNP
tp1723
a(V,
V,
tp1724
a(VMr
VNNP
tp1725
a(VTraian
VNNP
tp1726
a(VB\u0103sescu
VNNP
tp1727
a(V,
V,
tp1728
a(Vthe
VDT
tp1729
a(Vreport
VNN
tp1730
a(Vstates
VVBZ
tp1731
a(Vthat
VIN
tp1732
a(V&apos;
VNN
tp1733
a(Vhe
VPRP
tp1734
a(Vhas
VVBZ
tp1735
a(Vproven
VVBN
tp1736
a(Vto
VTO
tp1737
a(Vbe
VVB
tp1738
a(Vless
VRBR
tp1739
a(Vcontrolling
VVBG
tp1740
a(Vand
VCC
tp1741
a(Vmanipulative
VJJ
tp1742
a(Vof
VIN
tp1743
a(Vthe
VDT
tp1744
a(Vmedia
VNNS
tp1745
a(Vthan
VIN
tp1746
a(Vhis
VPRP$
tp1747
a(Vpredecessors.&apos;
VNN
tp1748
aa(lp1749
(VI
VPRP
tp1750
a(Vam
VVBP
tp1751
a(V88
VCD
tp1752
a(Vyears
VNNS
tp1753
a(Vold
VJJ
tp1754
a(V:
V:
tp1755
a(Vmy
VPRP$
tp1756
a(Vfuture
VNN
tp1757
a(Vis
VVBZ
tp1758
a(Vtoday
VNN
tp1759
a(V.
V.
tp1760
aa(lp1761
(VIt
VPRP
tp1762
a(Vmay
VMD
tp1763
a(Vhave
VVB
tp1764
a(Va
VDT
tp1765
a(Vbeneficial
VJJ
tp1766
a(Vimpact
VNN
tp1767
a(Vnot
VRB
tp1768
a(Vonly
VRB
tp1769
a(Von
VIN
tp1770
a(Vthe
VDT
tp1771
a(Vhost
VNN
tp1772
a(Vcountry
VNN
tp1773
a(V&apos;s
VVBZ
tp1774
a(Vcultural
VJJ
tp1775
a(Voffering
VNN
tp1776
a(V,
V,
tp1777
a(Vbut
VCC
tp1778
a(Von
VIN
tp1779
a(Vits
VPRP$
tp1780
a(Vrestaurant
VNN
tp1781
a(Vtrade
VNN
tp1782
a(Vtoo
VRB
tp1783
a(V.
V.
tp1784
aa(lp1785
(VThe
VDT
tp1786
a(Vworld
VNN
tp1787
a(Vchampionship
VNN
tp1788
a(Vis
VVBZ
tp1789
a(Vof
VIN
tp1790
a(Vinterest
VNN
tp1791
a(Vto
VTO
tp1792
a(Vpeople
VNNS
tp1793
a(Vall
VDT
tp1794
a(Vover
VIN
tp1795
a(Vthe
VDT
tp1796
a(Vworld
VNN
tp1797
a(Vand
VCC
tp1798
a(Vcertainly
VRB
tp1799
a(Vthroughout
VIN
tp1800
a(VEurope
VNNP
tp1801
a(V,
V,
tp1802
a(Vand
VCC
tp1803
a(Vthe
VDT
tp1804
a(Vnumber
VNN
tp1805
a(Vof
VIN
tp1806
a(Vseats
VNNS
tp1807
a(Vthat
VWDT
tp1808
a(Vhas
VVBZ
tp1809
a(Vbeen
VVBN
tp1810
a(Vmade
VVBN
tp1811
a(Vavailable
VJJ
tp1812
a(Vto
VTO
tp1813
a(VEuropean
VJJ
tp1814
a(Vfootball
VNN
tp1815
a(Vfans
VNNS
tp1816
a(Vis
VVBZ
tp1817
a(Vderisory
VJJ
tp1818
a(V.
V.
tp1819
aa(lp1820
(VPeople
VNNS
tp1821
a(Vcan
VMD
tp1822
a(Vthen
VRB
tp1823
a(Vcome
VVB
tp1824
a(Vin
VIN
tp1825
a(Vand
VCC
tp1826
a(Vgo
VVB
tp1827
a(Von
VIN
tp1828
a(Vthe
VDT
tp1829
a(Vrecord
VNN
tp1830
a(V.
V.
tp1831
aa(lp1832
(VWhere
VWRB
tp1833
a(Vthese
VDT
tp1834
a(Vare
VVBP
tp1835
a(Vconcerned
VJJ
tp1836
a(V,
V,
tp1837
a(Vwe
VPRP
tp1838
a(Vare
VVBP
tp1839
a(Vnow
VRB
tp1840
a(Vawaiting
VVBG
tp1841
a(Va
VDT
tp1842
a(Vcourt
VNN
tp1843
a(Vdecision
VNN
tp1844
a(V.
V.
tp1845
aa(lp1846
(VThe
VDT
tp1847
a(Vpreparatory
VJJ
tp1848
a(Vwork
VNN
tp1849
a(Vhas
VVBZ
tp1850
a(Vnot
VRB
tp1851
a(Vyet
VRB
tp1852
a(Vprogressed
VVBN
tp1853
a(Vfar
VRB
tp1854
a(Venough
VRB
tp1855
a(Vto
VTO
tp1856
a(Vallow
VVB
tp1857
a(Vit
VPRP
tp1858
a(Vto
VTO
tp1859
a(Vbecome
VVB
tp1860
a(Vfully
VRB
tp1861
a(Voperational
VJJ
tp1862
a(Vin
VIN
tp1863
a(VThe
VDT
tp1864
a(VHague
VNN
tp1865
a(V.
V.
tp1866
aa(lp1867
(V\u2013
VNN
tp1868
a(VMr
VNNP
tp1869
a(VPresident
VNNP
tp1870
a(V,
V,
tp1871
a(Von
VIN
tp1872
a(VTuesday
VNNP
tp1873
a(V12
VCD
tp1874
a(VJanuary
VNNP
tp1875
a(V,
V,
tp1876
a(Va
VDT
tp1877
a(Vmajor
VJJ
tp1878
a(Vrally
VNN
tp1879
a(Vwas
VVBD
tp1880
a(Vorganised
VVBN
tp1881
a(Vin
VIN
tp1882
a(Vthe
VDT
tp1883
a(Vtown
VNN
tp1884
a(Vof
VIN
tp1885
a(VRethymnon
VNNP
tp1886
a(V,
V,
tp1887
a(Vin
VIN
tp1888
a(VCrete
VNNP
tp1889
a(V,
V,
tp1890
a(Vagainst
VIN
tp1891
a(Vracism
VNN
tp1892
a(Vand
VCC
tp1893
a(Vxenophobia
VNN
tp1894
a(V,
V,
tp1895
a(Vfollowing
VVBG
tp1896
a(Vthe
VDT
tp1897
a(Vmurder
VNN
tp1898
a(Vof
VIN
tp1899
a(Va
VDT
tp1900
a(Vyoung
VJJ
tp1901
a(VAlbanian
VJJ
tp1902
a(Veconomic
VJJ
tp1903
a(Vimmigrant
VJJ
tp1904
a(V.
V.
tp1905
aa(lp1906
(VThen
VRB
tp1907
a(Vwe
VPRP
tp1908
a(Vare
VVBP
tp1909
a(Vpreparing
VVBG
tp1910
a(Vfor
VIN
tp1911
a(Venlargement
VNN
tp1912
a(Veastward
VRB
tp1913
a(V,
V,
tp1914
a(Vto
VTO
tp1915
a(Vcentral
VJJ
tp1916
a(VEurope
VNNP
tp1917
a(V,
V,
tp1918
a(Vwhich
VWDT
tp1919
a(Vis
VVBZ
tp1920
a(Vwhy
VWRB
tp1921
a(Vwe
VPRP
tp1922
a(Vmust
VMD
tp1923
a(Vmake
VVB
tp1924
a(Vsavings
VNNS
tp1925
a(V.
V.
tp1926
aa(lp1927
(VHow
VWRB
tp1928
a(Vlong
VRB
tp1929
a(Vwill
VMD
tp1930
a(Vit
VPRP
tp1931
a(Vtake
VVB
tp1932
a(Vbefore
VIN
tp1933
a(Vthey
VPRP
tp1934
a(Vare
VVBP
tp1935
a(Vable
VJJ
tp1936
a(Vto
VTO
tp1937
a(Vdo
VVB
tp1938
a(Vso
VRB
tp1939
a(V?
V.
tp1940
aa(lp1941
(VMehdi
VNNP
tp1942
a(VGhezali
VNNP
tp1943
a(V\u2019
VNN
tp1944
a(Vs
VVBZ
tp1945
a(Vfamily
VNN
tp1946
a(Vhas
VVBZ
tp1947
a(Vheard
VVBN
tp1948
a(Vnothing
VNN
tp1949
a(Vat
VIN
tp1950
a(Vall
VDT
tp1951
a(Vfrom
VIN
tp1952
a(Vhim
VPRP
tp1953
a(Vfor
VIN
tp1954
a(V13
VCD
tp1955
a(Vmonths
VNNS
tp1956
a(V.
V.
tp1957
aa(lp1958
(VTourism
VNNP
tp1959
a(Vtoday
VNN
tp1960
a(Vis
VVBZ
tp1961
a(Van
VDT
tp1962
a(Vundisputed
VJJ
tp1963
a(Vpromoter
VNN
tp1964
a(Vof
VIN
tp1965
a(Vdevelopment
VNN
tp1966
a(V,
V,
tp1967
a(Vand
VCC
tp1968
a(Vit
VPRP
tp1969
a(Vis
VVBZ
tp1970
a(Valso
VRB
tp1971
a(Va
VDT
tp1972
a(Vkey
VJJ
tp1973
a(Vpart
VNN
tp1974
a(Vof
VIN
tp1975
a(Vour
VPRP$
tp1976
a(Vdevelopment
VNN
tp1977
a(Vpolicy
VNN
tp1978
a(V.
V.
tp1979
aa(lp1980
(VWe
VPRP
tp1981
a(Vmust
VMD
tp1982
a(Vovercome
VVB
tp1983
a(Vthe
VDT
tp1984
a(Vcrisis
VNN
tp1985
a(Vof
VIN
tp1986
a(Vconfidence
VNN
tp1987
a(Vthat
VWDT
tp1988
a(Vundoubtedly
VRB
tp1989
a(Vexists
VVBZ
tp1990
a(V.
V.
tp1991
aa(lp1992
(VThis
VDT
tp1993
a(Vmeasure
VNN
tp1994
a(Vwill
VMD
tp1995
a(Vgive
VVB
tp1996
a(Vthem
VPRP
tp1997
a(Vsome
VDT
tp1998
a(Vnew
VJJ
tp1999
a(Vhope
VNN
tp2000
a(Vof
VIN
tp2001
a(Vearlier
VJJR
tp2002
a(Vtreatment
VNN
tp2003
a(V.
V.
tp2004
aa(lp2005
(VMr
VNNP
tp2006
a(VPresident
VNNP
tp2007
a(V,
V,
tp2008
a(VI
VPRP
tp2009
a(Vwish
VVBP
tp2010
a(Vto
VTO
tp2011
a(Vdraw
VVB
tp2012
a(Vyour
VPRP$
tp2013
a(Vattention
VNN
tp2014
a(Vto
VTO
tp2015
a(Vthe
VDT
tp2016
a(VGlobal
VNNP
tp2017
a(VSecurity
VNNP
tp2018
a(VFund
VNNP
tp2019
a(V,
V,
tp2020
a(Vset
VVBD
tp2021
a(Vup
VRP
tp2022
a(Vin
VIN
tp2023
a(Vthe
VDT
tp2024
a(Vearly
VJJ
tp2025
a(V1990s
VCD
tp2026
a(Vunder
VIN
tp2027
a(Vthe
VDT
tp2028
a(Vauspices
VNNS
tp2029
a(Vof
VIN
tp2030
a(VJacob
VNNP
tp2031
a(VRothschild
VNNP
tp2032
a(V.
V.
tp2033
aa(lp2034
(VLet
VVB
tp2035
a(Vme
VPRP
tp2036
a(Vgive
VVB
tp2037
a(V,
V,
tp2038
a(Vas
VIN
tp2039
a(Van
VDT
tp2040
a(Vexample
VNN
tp2041
a(V,
V,
tp2042
a(Va
VDT
tp2043
a(Vpedestrian
VJJ
tp2044
a(Varea
VNN
tp2045
a(Vin
VIN
tp2046
a(Vthe
VDT
tp2047
a(Vsmartest
VJJS
tp2048
a(Vpart
VNN
tp2049
a(Vof
VIN
tp2050
a(Va
VDT
tp2051
a(Vcity
VNN
tp2052
a(V.
V.
tp2053
aa(lp2054
(VThis
VDT
tp2055
a(Vnew
VJJ
tp2056
a(VDirective
VNNP
tp2057
a(Vmeans
VVBZ
tp2058
a(Vthat
VIN
tp2059
a(Vthe
VDT
tp2060
a(VMember
VNNP
tp2061
a(VStates
VNNPS
tp2062
a(Vwill
VMD
tp2063
a(Valso
VRB
tp2064
a(Vhave
VVB
tp2065
a(Vto
VTO
tp2066
a(Vset
VVB
tp2067
a(Vup
VRP
tp2068
a(Vparticle
VNN
tp2069
a(Vsampling
VNN
tp2070
a(Vpoints
VNNS
tp2071
a(Vin
VIN
tp2072
a(Vurban
VJJ
tp2073
a(Vareas
VNNS
tp2074
a(V.
V.
tp2075
aa(lp2076
(VCoral
VNN
tp2077
a(Vcan
VMD
tp2078
a(Vbe
VVB
tp2079
a(Vproperly
VRB
tp2080
a(Vpreserved
VVBN
tp2081
a(Vthrough
VIN
tp2082
a(Va
VDT
tp2083
a(Vsystem
VNN
tp2084
a(Vof
VIN
tp2085
a(Vrotating
VVBG
tp2086
a(Vthe
VDT
tp2087
a(Vprotected
VJJ
tp2088
a(Vareas
VNNS
tp2089
a(Vbetween
VIN
tp2090
a(Vproducer
VNN
tp2091
a(Vcountries
VNNS
tp2092
a(V.
V.
tp2093
aa(lp2094
(VYou
VPRP
tp2095
a(Vask
VVBP
tp2096
a(Vwhether
VIN
tp2097
a(Vthe
VDT
tp2098
a(VCommission
VNNP
tp2099
a(Vis
VVBZ
tp2100
a(Vconcerned
VVBN
tp2101
a(Vat
VIN
tp2102
a(Vthe
VDT
tp2103
a(VCourt
VNNP
tp2104
a(Vof
VIN
tp2105
a(VJustice
VNNP
tp2106
a(Vmaking
VVBG
tp2107
a(Va
VDT
tp2108
a(Vcertain
VJJ
tp2109
a(Vjudgement
VNN
tp2110
a(Vin
VIN
tp2111
a(Vone
VCD
tp2112
a(Vdirection
VNN
tp2113
a(Vor
VCC
tp2114
a(Vanother
VDT
tp2115
a(Vas
VIN
tp2116
a(Va
VDT
tp2117
a(Vresult
VNN
tp2118
a(Vof
VIN
tp2119
a(Vnon-compliance
VJJ
tp2120
a(Vwith
VIN
tp2121
a(VCommunity
VNNP
tp2122
a(Vlegislation
VNN
tp2123
a(V.
V.
tp2124
aa(lp2125
(VThe
VDT
tp2126
a(Vrapporteur
VNN
tp2127
a(Vand
VCC
tp2128
a(Vthe
VDT
tp2129
a(Vshadow
VNN
tp2130
a(Vrapporteurs
VVBZ
tp2131
a(Vworked
VVBN
tp2132
a(Vtogether
VRB
tp2133
a(Vto
VTO
tp2134
a(Vachieve
VVB
tp2135
a(Vthis
VDT
tp2136
a(Vundertaking
VNN
tp2137
a(Vtoo
VRB
tp2138
a(V.
V.
tp2139
aa(lp2140
(VAs
VIN
tp2141
a(Va
VDT
tp2142
a(Vcitizen
VNN
tp2143
a(Vof
VIN
tp2144
a(VPoland
VNNP
tp2145
a(V,
V,
tp2146
a(VI
VPRP
tp2147
a(Vvisited
VVBD
tp2148
a(Vyour
VPRP$
tp2149
a(Vcountry
VNN
tp2150
a(Vin
VIN
tp2151
a(V1976
VCD
tp2152
a(V.
V.
tp2153
a(VWhy
VWRB
tp2154
a(V?
V.
tp2155
aa(lp2156
(VAn
VDT
tp2157
a(Vhonest
VJJ
tp2158
a(Vsearch
VNN
tp2159
a(Vfor
VIN
tp2160
a(Vthe
VDT
tp2161
a(Vthings
VNNS
tp2162
a(Vwhich
VWDT
tp2163
a(Vunite
VVBP
tp2164
a(Vus
VPRP
tp2165
a(Vis
VVBZ
tp2166
a(Valso
VRB
tp2167
a(Va
VDT
tp2168
a(Vsearch
VNN
tp2169
a(Vfor
VIN
tp2170
a(Vour
VPRP$
tp2171
a(Vcentre
VNN
tp2172
a(V.
V.
tp2173
aa(lp2174
(VThey
VPRP
tp2175
a(Vhave
VVBP
tp2176
a(Vto
VTO
tp2177
a(Vproduce
VVB
tp2178
a(Vreal
VJJ
tp2179
a(Vchange
VNN
tp2180
a(V.
V.
tp2181
aa(lp2182
(VThis
VDT
tp2183
a(Vopens
VVBZ
tp2184
a(Vup
VRP
tp2185
a(Vthe
VDT
tp2186
a(Vpossibility
VNN
tp2187
a(Vof
VIN
tp2188
a(Vmanipulation
VNN
tp2189
a(V.
V.
tp2190
aa(lp2191
(VEurope
VNNP
tp2192
a(Vhas
VVBZ
tp2193
a(Vvery
VRB
tp2194
a(Vlittle
VJJ
tp2195
a(Vto
VTO
tp2196
a(Vlose
VVB
tp2197
a(Vif
VIN
tp2198
a(Vit
VPRP
tp2199
a(Vloses
VVBZ
tp2200
a(VIreland
VNNP
tp2201
a(V,
V,
tp2202
a(Vbut
VCC
tp2203
a(VIreland
VNNP
tp2204
a(Vhas
VVBZ
tp2205
a(Veverything
VNN
tp2206
a(Vto
VTO
tp2207
a(Vlose
VVB
tp2208
a(Vif
VIN
tp2209
a(Vit
VPRP
tp2210
a(Vloses
VVBZ
tp2211
a(VEurope
VNNP
tp2212
a(V.
V.
tp2213
aa(lp2214
(VIn
VIN
tp2215
a(Vthis
VDT
tp2216
a(Vway
VNN
tp2217
a(V,
V,
tp2218
a(Vthe
VDT
tp2219
a(Vimmune
VJJ
tp2220
a(Vdefence
VNN
tp2221
a(Vis
VVBZ
tp2222
a(Vweakened
VVBN
tp2223
a(V.
V.
tp2224
aa(lp2225
(VThe
VDT
tp2226
a(Vtask
VNN
tp2227
a(Vof
VIN
tp2228
a(Vcivil
VJJ
tp2229
a(Vsociety
VNN
tp2230
a(Vdoes
VVBZ
tp2231
a(Vnot
VRB
tp2232
a(Vlie
VVB
tp2233
a(Vsolely
VRB
tp2234
a(Vin
VIN
tp2235
a(Vtaking
VVBG
tp2236
a(Vpart
VNN
tp2237
a(Vin
VIN
tp2238
a(Velections
VNNS
tp2239
a(V.
V.
tp2240
aa.