(lp1
(lp2
(VThe
VDT
tp3
a(Vlegislation
VNN
tp4
a(Vdoes
VVBZ
tp5
a(Vnot
VRB
tp6
a(Vsolve
VVB
tp7
a(Vthis
VDT
tp8
a(Vproblem
VNN
tp9
a(V,
V,
tp10
a(Vand
VCC
tp11
a(Vin
VIN
tp12
a(Vspite
VNN
tp13
a(Vof
VIN
tp14
a(Vthe
VDT
tp15
a(Vrisk
VNN
tp16
a(Vof
VIN
tp17
a(Vinfection
VNN
tp18
a(V,
V,
tp19
a(Vno
VDT
tp20
a(Vone
VPRP
tp21
a(Vcan
VMD
tp22
a(Vforce
VVB
tp23
a(Va
VDT
tp24
a(Vperson
VNN
tp25
a(Vto
VTO
tp26
a(Vhave
VVB
tp27
a(Vtreatment
VNN
tp28
a(V.
V.
tp29
aa(lp30
(VThere
VEX
tp31
a(Vis
VVBZ
tp32
a(Va
VDT
tp33
a(Vnatural
VJJ
tp34
a(Vprinciple
VNN
tp35
a(Vthat
VIN
tp36
a(Vall
VDT
tp37
a(Vmen
VNNS
tp38
a(V,
V,
tp39
a(Vand
VCC
tp40
a(Vall
VDT
tp41
a(Vnation
VNN
tp42
a(Vstates
VNNS
tp43
a(V,
V,
tp44
a(Vare
VVBP
tp45
a(Vequal
VJJ
tp46
a(V,
V,
tp47
a(Vand
VCC
tp48
a(Vnational
VJJ
tp49
a(Vpreference
VNN
tp50
a(Vis
VVBZ
tp51
a(Va
VDT
tp52
a(Vfigment
VNN
tp53
a(Vof
VIN
tp54
a(Vthe
VDT
tp55
a(Vnineteenth
VJJ
tp56
a(Vcentury
VNN
tp57
a(V!
V.
tp58
aa(lp59
(VFinally
VRB
tp60
a(V,
V,
tp61
a(Vlet
VVB
tp62
a(Vus
VPRP
tp63
a(Vnot
VRB
tp64
a(Vforget
VVB
tp65
a(Vastronomy
VNN
tp66
a(Vand
VCC
tp67
a(Vspace
VNN
tp68
a(Vexploration
VNN
tp69
a(V.
V.
tp70
aa(lp71
(VThat
VDT
tp72
a(Vmust
VMD
tp73
a(Vbe
VVB
tp74
a(Vpart
VNN
tp75
a(Vof
VIN
tp76
a(Vour
VPRP$
tp77
a(Vworkaday
VJJ
tp78
a(Vlives
VNNS
tp79
a(V;
V:
tp80
a(Vit
VPRP
tp81
a(Vmust
VMD
tp82
a(Vbecome
VVB
tp83
a(Vour
VPRP$
tp84
a(Vdaily
VJJ
tp85
a(Vlabour
VNN
tp86
a(V.
V.
tp87
aa(lp88
(VIf
VIN
tp89
a(VI
VPRP
tp90
a(Vmay
VMD
tp91
a(V,
V,
tp92
a(VI
VPRP
tp93
a(Vshould
VMD
tp94
a(Vlike
VVB
tp95
a(Vto
VTO
tp96
a(Vmake
VVB
tp97
a(Vone
VCD
tp98
a(Vfurther
VJJ
tp99
a(Vcomment
VNN
tp100
a(Von
VIN
tp101
a(Vthe
VDT
tp102
a(Vbasis
VNN
tp103
a(Vof
VIN
tp104
a(Vmy
VPRP$
tp105
a(Vown
VJJ
tp106
a(Vexperience
VNN
tp107
a(Vof
VIN
tp108
a(Vpublic
VJJ
tp109
a(Vlife
VNN
tp110
a(Vin
VIN
tp111
a(VPoland
VNNP
tp112
a(V.
V.
tp113
aa(lp114
(VThe
VDT
tp115
a(VEuropean
VNNP
tp116
a(VParliament
VNNP
tp117
a(Vhas
VVBZ
tp118
a(Vespoused
VVBN
tp119
a(Vthe
VDT
tp120
a(Vfirst
VJJ
tp121
a(Vphilosophy
VNN
tp122
a(V.
V.
tp123
aa(lp124
(VWhy
VWRB
tp125
a(Vis
VVBZ
tp126
a(Vthat
VIN
tp127
a(V?
V.
tp128
a(VBecause
VIN
tp129
a(Vthe
VDT
tp130
a(Vnetwork
VNN
tp131
a(Vsystem
VNN
tp132
a(Vcan
VMD
tp133
a(Vbypass
VVB
tp134
a(Vthe
VDT
tp135
a(Vdemocratic
VJJ
tp136
a(Vsystem
VNN
tp137
a(Vor
VCC
tp138
a(Vbe
VVB
tp139
a(Vout
VIN
tp140
a(Vof
VIN
tp141
a(Vreach
VNN
tp142
a(Vof
VIN
tp143
a(Vdemocracy
VNN
tp144
a(V.
V.
tp145
aa(lp146
(VTurkmenistan
VNNP
tp147
a(Vis
VVBZ
tp148
a(Vone
VCD
tp149
a(Vof
VIN
tp150
a(Vthe
VDT
tp151
a(VCentral
VJJ
tp152
a(VAsian
VJJ
tp153
a(Vcountries
VNNS
tp154
a(Vthe
VDT
tp155
a(Vrapporteur
VNN
tp156
a(Vmentions
VVBZ
tp157
a(V.
V.
tp158
aa(lp159
(VA
VDT
tp160
a(Vnumber
VNN
tp161
a(Vof
VIN
tp162
a(Vcomments
VNNS
tp163
a(Von
VIN
tp164
a(Vthis
VDT
tp165
a(Vinitiative
VNN
tp166
a(Vtherefore
VRB
tp167
a(Vsuggest
VVBP
tp168
a(Vthemselves
VPRP
tp169
a(V.
V.
tp170
aa(lp171
(VUp
VIN
tp172
a(Vthe
VDT
tp173
a(Vpoint
VNN
tp174
a(Vat
VIN
tp175
a(Vwhich
VWDT
tp176
a(Vmeat
VNN
tp177
a(V,
V,
tp178
a(Vmilk
VNN
tp179
a(V,
V,
tp180
a(Vbread
VNN
tp181
a(Vand
VCC
tp182
a(Vother
VJJ
tp183
a(Vproducts
VNNS
tp184
a(Vare
VVBP
tp185
a(Vsold
VVBN
tp186
a(Vover
VIN
tp187
a(Vthe
VDT
tp188
a(Vshop
VNN
tp189
a(Vcounter
VRB
tp190
a(V,
V,
tp191
a(Vfeedingstuffs
VNNS
tp192
a(Vand
VCC
tp193
a(Vadditives
VNNS
tp194
a(Vare
VVBP
tp195
a(Vstructured
VVBN
tp196
a(V,
V,
tp197
a(Vmixed
VJJ
tp198
a(V,
V,
tp199
a(Vblended
VJJ
tp200
a(V,
V,
tp201
a(Vcut
VNN
tp202
a(Vand
VCC
tp203
a(Vtransported
VVBD
tp204
a(Vseveral
VJJ
tp205
a(Vtimes
VNNS
tp206
a(V.
V.
tp207
aa(lp208
(VThat
VDT
tp209
a(Vis
VVBZ
tp210
a(Vwhat
VWP
tp211
a(Vis
VVBZ
tp212
a(Vneeded
VVBN
tp213
a(V.
V.
tp214
aa(lp215
(VBut
VCC
tp216
a(Vunfortunately
VRB
tp217
a(Vit
VPRP
tp218
a(Vwas
VVBD
tp219
a(Vonly
VRB
tp220
a(Vone
VCD
tp221
a(Vstep
VNN
tp222
a(Vforward
VRB
tp223
a(Vand
VCC
tp224
a(Vtwo
VCD
tp225
a(Vsteps
VNNS
tp226
a(Vback
VRB
tp227
a(V.
V.
tp228
aa(lp229
(VThey
VPRP
tp230
a(Vdo
VVBP
tp231
a(Vnot
VRB
tp232
a(Vhave
VVB
tp233
a(Vto
VTO
tp234
a(Vadhere
VVB
tp235
a(Vto
VTO
tp236
a(Vthe
VDT
tp237
a(Vsame
VJJ
tp238
a(Vrules
VNNS
tp239
a(V.
V.
tp240
aa(lp241
(VWe
VPRP
tp242
a(Vbelieve
VVBP
tp243
a(Vthat
VIN
tp244
a(Vthe
VDT
tp245
a(Vpeople
VNNS
tp246
a(Vthemselves
VPRP
tp247
a(Vmust
VMD
tp248
a(Vbring
VVB
tp249
a(Vdown
VRP
tp250
a(Vthis
VDT
tp251
a(Vregime
VNN
tp252
a(V.
V.
tp253
aa(lp254
(VOf
VIN
tp255
a(Vthis
VDT
tp256
a(V,
V,
tp257
a(Varound
VIN
tp258
a(V20
VCD
tp259
a(V%
VNN
tp260
a(Vhas
VVBZ
tp261
a(Valready
VRB
tp262
a(Vbeen
VVBN
tp263
a(Vallocated
VVBN
tp264
a(Vto
VTO
tp265
a(Vspecific
VJJ
tp266
a(Vprojects
VNNS
tp267
a(V.
V.
tp268
aa(lp269
(VThere
VEX
tp270
a(Vare
VVBP
tp271
a(Vlimits
VNNS
tp272
a(Von
VIN
tp273
a(Vour
VPRP$
tp274
a(Vpower
VNN
tp275
a(Vto
VTO
tp276
a(Vachieve
VVB
tp277
a(Vsomething
VNN
tp278
a(V.
V.
tp279
aa(lp280
(VWe
VPRP
tp281
a(Vare
VVBP
tp282
a(Valso
VRB
tp283
a(Vconcerned
VVBN
tp284
a(Vabout
VIN
tp285
a(Vthe
VDT
tp286
a(Vconstant
VJJ
tp287
a(Vsmuggling
VNN
tp288
a(Vof
VIN
tp289
a(Vweapons
VNNS
tp290
a(Vinto
VIN
tp291
a(Vthe
VDT
tp292
a(Vcountry
VNN
tp293
a(Vto
VTO
tp294
a(Varm
VVB
tp295
a(Van
VDT
tp296
a(Villegal
VJJ
tp297
a(Vmilitia
VNN
tp298
a(V.
V.
tp299
aa(lp300
(VThe
VDT
tp301
a(Vtransatlantic
VNN
tp302
a(Vmarket
VNN
tp303
a(Vhas
VVBZ
tp304
a(Va
VDT
tp305
a(Vtrade
VNN
tp306
a(Vvolume
VNN
tp307
a(Vof
VIN
tp308
a(Varound
VIN
tp309
a(VEUR
V$
tp310
a(V2
VCD
tp311
a(Vbillion
VCD
tp312
a(Vper
VIN
tp313
a(Vday
VNN
tp314
a(V.
V.
tp315
aa(lp316
(VThis
VDT
tp317
a(Vwill
VMD
tp318
a(Vbe
VVB
tp319
a(Vdifficult
VJJ
tp320
a(Vto
VTO
tp321
a(Vachieve
VVB
tp322
a(V.
V.
tp323
aa(lp324
(VThey
VPRP
tp325
a(Vare
VVBP
tp326
a(Vthe
VDT
tp327
a(Vpeople
VNNS
tp328
a(Vwho
VWP
tp329
a(Vploughed
VVBD
tp330
a(Vthe
VDT
tp331
a(Vearth
VNN
tp332
a(Vamong
VIN
tp333
a(Vthe
VDT
tp334
a(Vhard
VJJ
tp335
a(Vrocks
VNNS
tp336
a(V;
V:
tp337
a(Vthey
VPRP
tp338
a(Vare
VVBP
tp339
a(Vheroes
VNNS
tp340
a(Vof
VIN
tp341
a(Vworking
VVBG
tp342
a(Vin
VIN
tp343
a(Vthe
VDT
tp344
a(Vmountain
VNN
tp345
a(Vwilderness
VNN
tp346
a(V.
V.
tp347
aa(lp348
(VSome
VDT
tp349
a(Vmight
VMD
tp350
a(Vsee
VVB
tp351
a(Vthis
VDT
tp352
a(Vas
VIN
tp353
a(Vevidence
VNN
tp354
a(Vof
VIN
tp355
a(Vaction
VNN
tp356
a(V.
V.
tp357
aa(lp358
(VIn
VIN
tp359
a(Vorder
VNN
tp360
a(Vfor
VIN
tp361
a(VFrance
VNNP
tp362
a(Vto
VTO
tp363
a(Vspeak
VVB
tp364
a(Vwith
VIN
tp365
a(Va
VDT
tp366
a(Vsingle
VJJ
tp367
a(Vvoice
VNN
tp368
a(V,
V,
tp369
a(Vit
VPRP
tp370
a(Vis
VVBZ
tp371
a(Vthe
VDT
tp372
a(Vvoice
VNN
tp373
a(Vof
VIN
tp374
a(Vthe
VDT
tp375
a(Vpeople
VNNS
tp376
a(Vwhich
VWDT
tp377
a(Vmust
VMD
tp378
a(Vbe
VVB
tp379
a(Vheard
VVBN
tp380
a(V.
V.
tp381
a(VThe
VDT
tp382
a(V&apos;
VJJ
tp383
a(Vblues
VNNS
tp384
a(V&apos;
VVBP
tp385
a(Vshowed
VVBD
tp386
a(Vus
VPRP
tp387
a(Vthe
VDT
tp388
a(Vway
VNN
tp389
a(V.
V.
tp390
aa(lp391
(Vin
VIN
tp392
a(Vwriting
VVBG
tp393
a(V.
V.
tp394
a(V-
V:
tp395
a(V(
VCD
tp396
a(VPL
VNN
tp397
a(V)
VCD
tp398
a(VIn
VIN
tp399
a(Vrecent
VJJ
tp400
a(Vyears
VNNS
tp401
a(V,
V,
tp402
a(Vmany
VJJ
tp403
a(Vnew
VJJ
tp404
a(Vfinancial
VJJ
tp405
a(Vproducts
VNNS
tp406
a(Vhave
VVBP
tp407
a(Vappeared
VVBN
tp408
a(Von
VIN
tp409
a(Vthe
VDT
tp410
a(Vmarket
VNN
tp411
a(V.
V.
tp412
aa(lp413
(VSince
VIN
tp414
a(Vthen
VRB
tp415
a(Vthe
VDT
tp416
a(VPoles
VNNPS
tp417
a(Vhave
VVBP
tp418
a(Vbeen
VVBN
tp419
a(Vsubjected
VVBN
tp420
a(Vto
VTO
tp421
a(Vdisgraceful
VJJ
tp422
a(Vpressure
VNN
tp423
a(V.
V.
tp424
aa(lp425
(VEven
VRB
tp426
a(Vtoday
VNN
tp427
a(V,
V,
tp428
a(Vbillions
VNNS
tp429
a(Vof
VIN
tp430
a(Vpeople
VNNS
tp431
a(Vhave
VVBP
tp432
a(Vno
VDT
tp433
a(Vaccess
VNN
tp434
a(Vto
VTO
tp435
a(Vwater
VNN
tp436
a(Vand
VCC
tp437
a(Vhundreds
VNNS
tp438
a(Vof
VIN
tp439
a(Vmillions
VNNS
tp440
a(Vare
VVBP
tp441
a(Vdying
VVBG
tp442
a(Vas
VIN
tp443
a(Va
VDT
tp444
a(Vresult
VNN
tp445
a(V.
V.
tp446
aa(lp447
(VLadies
VNNP
tp448
a(Vand
VCC
tp449
a(Vgentlemen
VNNS
tp450
a(V,
V,
tp451
a(Vit
VPRP
tp452
a(Vis
VVBZ
tp453
a(Vbetter
VJJR
tp454
a(Vto
VTO
tp455
a(Vlet
VVB
tp456
a(Vwell
VNN
tp457
a(Valone
VRB
tp458
a(V.
V.
tp459
aa(lp460
(VYes
VUH
tp461
a(V!
V.
tp462
aa(lp463
(VThese
VDT
tp464
a(Vaim
VNN
tp465
a(Vspecifically
VRB
tp466
a(Vto
VTO
tp467
a(Vpromote
VVB
tp468
a(Vheating
VNN
tp469
a(Vand
VCC
tp470
a(Vcooling
VVBG
tp471
a(Vthough
VIN
tp472
a(Vthe
VDT
tp473
a(Vuse
VNN
tp474
a(Vof
VIN
tp475
a(Vrenewable
VJJ
tp476
a(Venergy
VNN
tp477
a(Vsources
VNNS
tp478
a(Vand
VCC
tp479
a(Vheat
VNN
tp480
a(Vpumps
VNNS
tp481
a(V.
V.
tp482
aa(lp483
(VECHO
VNN
tp484
a(Vis
VVBZ
tp485
a(Valready
VRB
tp486
a(Vunder
VIN
tp487
a(Venormous
VJJ
tp488
a(Vstrain
VNN
tp489
a(V-
V:
tp490
a(Vup
VIN
tp491
a(Vto
VTO
tp492
a(V15
VCD
tp493
a(V,
V,
tp494
a(V000
VCD
tp495
a(Vcontracts
VNNS
tp496
a(Vin
VIN
tp497
a(V1995
VCD
tp498
a(Valone
VRB
tp499
a(V.
V.
tp500
aa(lp501
(VThis
VDT
tp502
a(Vbrings
VVBZ
tp503
a(Vhome
VNN
tp504
a(Vhow
VWRB
tp505
a(Vwidespread
VJJ
tp506
a(Vterrorism
VNN
tp507
a(Vand
VCC
tp508
a(Vthe
VDT
tp509
a(Veffects
VNNS
tp510
a(Vof
VIN
tp511
a(Vterrorism
VNN
tp512
a(Vhave
VVBP
tp513
a(Vbecome
VVBN
tp514
a(V.
V.
tp515
aa(lp516
(VA
VDT
tp517
a(Vpoor
VJJ
tp518
a(Vor
VCC
tp519
a(Vdeveloping
VVBG
tp520
a(Vcountry
VNN
tp521
a(Vcannot
VNN
tp522
a(Vsustain
VVBP
tp523
a(Va
VDT
tp524
a(Vbirth
VNN
tp525
a(Vrate
VNN
tp526
a(Vabove
VIN
tp527
a(Vtwo
VCD
tp528
a(Vchildren
VNNS
tp529
a(Vper
VIN
tp530
a(Vwoman
VNN
tp531
a(V.
V.
tp532
aa(lp533
(VIn
VIN
tp534
a(Vall
VDT
tp535
a(V,
V,
tp536
a(Vthe
VDT
tp537
a(Vfundamental
VJJ
tp538
a(Varrangements
VNNS
tp539
a(Vare
VVBP
tp540
a(Vas
VIN
tp541
a(Vstringent
VJJ
tp542
a(Vas
VIN
tp543
a(Vbefore
VRB
tp544
a(Vand
VCC
tp545
a(Vthere
VEX
tp546
a(Vare
VVBP
tp547
a(Vno
VDT
tp548
a(Vchanges
VNNS
tp549
a(Vwhich
VWDT
tp550
a(Vaffect
VVBP
tp551
a(Vthe
VDT
tp552
a(Vprinciple
VNN
tp553
a(Vof
VIN
tp554
a(Vbudgetary
VJJ
tp555
a(Vdiscipline
VNN
tp556
a(V.
V.
tp557
aa(lp558
(VMoreover
VRB
tp559
a(V,
V,
tp560
a(Vthis
VDT
tp561
a(Vis
VVBZ
tp562
a(Vonly
VRB
tp563
a(Vthe
VDT
tp564
a(Vbeginning
VNN
tp565
a(V.
V.
tp566
aa(lp567
(VNot
VRB
tp568
a(Veverything
VNN
tp569
a(Vdepends
VVBZ
tp570
a(Von
VIN
tp571
a(Vnominal
VJJ
tp572
a(Vwage
VNN
tp573
a(Vincreases
VNNS
tp574
a(V.
V.
tp575
aa(lp576
(VIn
VIN
tp577
a(Vmy
VPRP$
tp578
a(Vopinion
VNN
tp579
a(V,
V,
tp580
a(Vthe
VDT
tp581
a(VBureau
VNNP
tp582
a(Vshould
VMD
tp583
a(Vrule
VVB
tp584
a(Vthat
VIN
tp585
a(Va
VDT
tp586
a(Vreport
VNN
tp587
a(Vwhich
VWDT
tp588
a(Vhas
VVBZ
tp589
a(Vthese
VDT
tp590
a(Vcharacteristics
VNNS
tp591
a(Vis
VVBZ
tp592
a(Vinadmissible
VJJ
tp593
a(V.
V.
tp594
aa(lp595
(VThey
VPRP
tp596
a(Vare
VVBP
tp597
a(Vno
VRB
tp598
a(Vlonger
VRB
tp599
a(Vable
VJJ
tp600
a(Vto
VTO
tp601
a(Vfeed
VVB
tp602
a(Vtheir
VPRP$
tp603
a(Vanimals
VNNS
tp604
a(V.
V.
tp605
aa(lp606
(VMadam
VNNP
tp607
a(VPresident
VNNP
tp608
a(V,
V,
tp609
a(VI
VPRP
tp610
a(Voppose
VVBP
tp611
a(Vreligious
VJJ
tp612
a(Vpersecution
VNN
tp613
a(Vwherever
VWRB
tp614
a(Vit
VPRP
tp615
a(Voccurs
VVBZ
tp616
a(V.
V.
tp617
aa(lp618
(VWe
VPRP
tp619
a(Vare
VVBP
tp620
a(Vgoing
VVBG
tp621
a(Vin
VIN
tp622
a(Vthe
VDT
tp623
a(Vopposite
VJJ
tp624
a(Vdirection
VNN
tp625
a(V.
V.
tp626
aa(lp627
(VThe
VDT
tp628
a(Vproblem
VNN
tp629
a(Vareas
VNNS
tp630
a(Vdiffer
VVBP
tp631
a(Va
VDT
tp632
a(Vgreat
VJJ
tp633
a(Vdeal
VNN
tp634
a(V,
V,
tp635
a(Vand
VCC
tp636
a(Va
VDT
tp637
a(Vwide
VJJ
tp638
a(Vvariety
VNN
tp639
a(Vof
VIN
tp640
a(Vsectors
VNNS
tp641
a(Vare
VVBP
tp642
a(Vaffected
VVBN
tp643
a(V,
V,
tp644
a(Vbut
VCC
tp645
a(Vthe
VDT
tp646
a(Vlinks
VNNS
tp647
a(Vbetween
VIN
tp648
a(Vthem
VPRP
tp649
a(Vare
VVBP
tp650
a(Vobvious
VJJ
tp651
a(V.
V.
tp652
aa(lp653
(VPresident
VNNP
tp654
a(VMilosevic
VNNP
tp655
a(Vis
VVBZ
tp656
a(Vwavering
VVBG
tp657
a(Vat
VIN
tp658
a(Vthe
VDT
tp659
a(Vmoment
VNN
tp660
a(V,
V,
tp661
a(Vbut
VCC
tp662
a(Vhis
VPRP$
tp663
a(Vconcessions
VNNS
tp664
a(Vhave
VVBP
tp665
a(Vmade
VVBN
tp666
a(Vlittle
VJJ
tp667
a(Vimpression
VNN
tp668
a(Von
VIN
tp669
a(Vthe
VDT
tp670
a(Vdemonstrators
VNNS
tp671
a(V,
V,
tp672
a(Vand
VCC
tp673
a(Vhe
VPRP
tp674
a(Vobviously
VRB
tp675
a(Vstill
VRB
tp676
a(Vneeds
VVBZ
tp677
a(Va
VDT
tp678
a(Vlittle
VRB
tp679
a(Vmore
VRBR
tp680
a(Vencouragement
VNN
tp681
a(V.
V.
tp682
aa(lp683
(VAccording
VVBG
tp684
a(Vto
VTO
tp685
a(Vestimates
VNNS
tp686
a(V,
V,
tp687
a(Vthey
VPRP
tp688
a(Vcan
VMD
tp689
a(Vcover
VVB
tp690
a(Vthe
VDT
tp691
a(Vworld
VNN
tp692
a(V&apos;s
VNNS
tp693
a(Vfood
VNN
tp694
a(Vrequirements
VNNS
tp695
a(Vfor
VIN
tp696
a(Vjust
VRB
tp697
a(Va
VDT
tp698
a(Vmonth
VNN
tp699
a(Vand
VCC
tp700
a(Va
VDT
tp701
a(Vhalf
VNN
tp702
a(V.
V.
tp703
aa(lp704
(VWe
VPRP
tp705
a(Vhave
VVBP
tp706
a(Vtherefore
VRB
tp707
a(Vreduced
VVBN
tp708
a(Vthem
VPRP
tp709
a(Vpractically
VRB
tp710
a(Vby
VIN
tp711
a(Vhalf
VNN
tp712
a(V.
V.
tp713
aa(lp714
(VIn
VIN
tp715
a(VAugust
VNNP
tp716
a(V,
V,
tp717
a(Vjournalist
VNN
tp718
a(VMalik
VNNP
tp719
a(VAkhmedilov
VNNP
tp720
a(Vwas
VVBD
tp721
a(Vshot
VVBN
tp722
a(Vdead
VJJ
tp723
a(Vshortly
VRB
tp724
a(Vafter
VIN
tp725
a(Vleaving
VVBG
tp726
a(Vhis
VPRP$
tp727
a(Vhome
VNN
tp728
a(Vin
VIN
tp729
a(VDagestan
VNNP
tp730
a(V.
V.
tp731
aa(lp732
(VWho
VWP
tp733
a(Vshall
VMD
tp734
a(Vspeak
VVB
tp735
a(Vfor
VIN
tp736
a(Vyou
VPRP
tp737
a(V?
V.
tp738
aa(lp739
(VAnd
VCC
tp740
a(V,
V,
tp741
a(Vwhen
VWRB
tp742
a(Vit
VPRP
tp743
a(Vcomes
VVBZ
tp744
a(Vto
VTO
tp745
a(Venforcing
VVBG
tp746
a(Vthe
VDT
tp747
a(Vlaw
VNN
tp748
a(Vin
VIN
tp749
a(Vrelation
VNN
tp750
a(Vto
VTO
tp751
a(Vcompanies
VNNS
tp752
a(Vthat
VWDT
tp753
a(Vare
VVBP
tp754
a(Voperating
VVBG
tp755
a(Vin
VIN
tp756
a(Vtheir
VPRP$
tp757
a(Varea
VNN
tp758
a(V,
V,
tp759
a(Vthey
VPRP
tp760
a(Vare
VVBP
tp761
a(Vnegligent
VJJ
tp762
a(Vin
VIN
tp763
a(Vthat
VDT
tp764
a(Vrespect
VNN
tp765
a(Vas
VRB
tp766
a(Vwell
VRB
tp767
a(V.
V.
tp768
aa(lp769
(VThis
VDT
tp770
a(Vwas
VVBD
tp771
a(Vvery
VRB
tp772
a(Vlargely
VRB
tp773
a(Vmy
VPRP$
tp774
a(Vbrainchild
VNN
tp775
a(V,
V,
tp776
a(Vas
VIN
tp777
a(VMr
VNNP
tp778
a(VHans-Peter
VNNP
tp779
a(VMartin
VNNP
tp780
a(Vhas
VVBZ
tp781
a(Vjust
VRB
tp782
a(Vrecalled
VVBN
tp783
a(V.
V.
tp784
aa(lp785
(VFor
VIN
tp786
a(Vtoo
VRB
tp787
a(Vlong
VJJ
tp788
a(Vwe
VPRP
tp789
a(Vhave
VVBP
tp790
a(Vclosed
VVBN
tp791
a(Vour
VPRP$
tp792
a(Veyes
VNNS
tp793
a(Vto
VTO
tp794
a(Vwhat
VWP
tp795
a(Vwas
VVBD
tp796
a(Vgoing
VVBG
tp797
a(Von
VIN
tp798
a(Vin
VIN
tp799
a(VKenya
VNNP
tp800
a(V.
V.
tp801
aa(lp802
(VHe
VPRP
tp803
a(Vwas
VVBD
tp804
a(Vtaken
VVBN
tp805
a(Vto
VTO
tp806
a(Vhospital
VNN
tp807
a(Vwith
VIN
tp808
a(Va
VDT
tp809
a(Vcut
VNN
tp810
a(V.
V.
tp811
aa(lp812
(VThey
VPRP
tp813
a(Vshould
VMD
tp814
a(Vnot
VRB
tp815
a(Vsee
VVB
tp816
a(Veach
VDT
tp817
a(Vother
VJJ
tp818
a(Vas
VIN
tp819
a(Vcompetitors
VNNS
tp820
a(V,
V,
tp821
a(Vbut
VCC
tp822
a(Vas
VIN
tp823
a(Vpartners
VNNS
tp824
a(Vin
VIN
tp825
a(Va
VDT
tp826
a(Vcomprehensive
VJJ
tp827
a(VEuropean
VJJ
tp828
a(Vrailway
VNN
tp829
a(Vnetwork
VNN
tp830
a(V.
V.
tp831
aa(lp832
(VThinking
VVBG
tp833
a(Vabout
VIN
tp834
a(VGaza
VNNP
tp835
a(V,
V,
tp836
a(VIsrael
VNNP
tp837
a(Vdid
VVBD
tp838
a(Vnot
VRB
tp839
a(Vnegotiate
VVB
tp840
a(Vthere
VRB
tp841
a(V.
V.
tp842
aa(lp843
(VThe
VDT
tp844
a(VNortheast
VNNP
tp845
a(VAtlantic
VNNP
tp846
a(Vhas
VVBZ
tp847
a(Vone
VCD
tp848
a(Vof
VIN
tp849
a(Vthe
VDT
tp850
a(Vhighest
VJJS
tp851
a(Vshipping
VNN
tp852
a(Vlevels
VNNS
tp853
a(Vin
VIN
tp854
a(Vthe
VDT
tp855
a(Vworld
VNN
tp856
a(V,
V,
tp857
a(Vwith
VIN
tp858
a(Vall
VDT
tp859
a(Vof
VIN
tp860
a(Vthe
VDT
tp861
a(Vrisks
VNNS
tp862
a(Vand
VCC
tp863
a(Vconsequences
VNNS
tp864
a(Vthat
VIN
tp865
a(Vthat
VDT
tp866
a(Vimplies
VVBZ
tp867
a(V.
V.
tp868
aa(lp869
(VHowever
VRB
tp870
a(V,
V,
tp871
a(Vsome
VDT
tp872
a(Vbureaucratic
VJJ
tp873
a(Vobstacles
VNNS
tp874
a(Vremain
VVBP
tp875
a(Vin
VIN
tp876
a(Vplace
VNN
tp877
a(V,
V,
tp878
a(Vfor
VIN
tp879
a(Vexample
VNN
tp880
a(V,
V,
tp881
a(Vas
VIN
tp882
a(Vfar
VRB
tp883
a(Vas
VIN
tp884
a(Vcash
VNN
tp885
a(Vflow
VNN
tp886
a(Vis
VVBZ
tp887
a(Vconcerned
VVBN
tp888
a(V.
V.
tp889
aa(lp890
(VIn
VIN
tp891
a(Vmy
VPRP$
tp892
a(Vday
VNN
tp893
a(Vwe
VPRP
tp894
a(Vdid
VVBD
tp895
a(Vnot
VRB
tp896
a(Vhave
VVB
tp897
a(Vany
VDT
tp898
a(VTurks
VNNPS
tp899
a(Vor
VCC
tp900
a(VItalians
VNNPS
tp901
a(Vat
VIN
tp902
a(Vschool
VNN
tp903
a(V.
V.
tp904
aa(lp905
(VThe
VDT
tp906
a(Vburden
VNN
tp907
a(Vhas
VVBZ
tp908
a(Valready
VRB
tp909
a(Vbeen
VVBN
tp910
a(Vshared
VVBN
tp911
a(Vwithin
VIN
tp912
a(Vthe
VDT
tp913
a(VEU
VNNP
tp914
a(V.
V.
tp915
aa(lp916
(VShe
VPRP
tp917
a(Vthen
VRB
tp918
a(Vwent
VVBD
tp919
a(Vout
VIN
tp920
a(Vto
VTO
tp921
a(Vtry
VVB
tp922
a(Vto
VTO
tp923
a(Vget
VVB
tp924
a(Vsomething
VNN
tp925
a(Vto
VTO
tp926
a(Veat
VVB
tp927
a(Vat
VIN
tp928
a(Vnight
VNN
tp929
a(V,
V,
tp930
a(Vwith
VIN
tp931
a(Vher
VPRP$
tp932
a(Vcolleagues
VNNS
tp933
a(V-
V:
tp934
a(Vremember
VVB
tp935
a(Vshe
VPRP
tp936
a(Vwas
VVBD
tp937
a(Vusing
VVBG
tp938
a(Va
VDT
tp939
a(Vwheelchair
VNN
tp940
a(V.
V.
tp941
aa(lp942
(VThe
VDT
tp943
a(VCommission
VNNP
tp944
a(Vwas
VVBD
tp945
a(Vprepared
VVBN
tp946
a(Vto
VTO
tp947
a(Vaccept
VVB
tp948
a(Vthe
VDT
tp949
a(Vcommon
VJJ
tp950
a(Vposition
VNN
tp951
a(Vfor
VIN
tp952
a(Vtwo
VCD
tp953
a(Vreasons
VNNS
tp954
a(V.
V.
tp955
aa(lp956
(VThe
VDT
tp957
a(Vmost
VRBS
tp958
a(Vimportant
VJJ
tp959
a(Vlaws
VNNS
tp960
a(Von
VIN
tp961
a(Vwomen
VNNS
tp962
a(Vare
VVBP
tp963
a(Vthose
VDT
tp964
a(Vmaking
VVBG
tp965
a(Vup
VRP
tp966
a(Vwhat
VWP
tp967
a(Vis
VVBZ
tp968
a(Vknown
VVBN
tp969
a(Vas
VIN
tp970
a(Vcivil
VJJ
tp971
a(Vlaw
VNN
tp972
a(V.
V.
tp973
aa(lp974
(VThere
VEX
tp975
a(Vis
VVBZ
tp976
a(Vone
VCD
tp977
a(Vthing
VNN
tp978
a(VI
VPRP
tp979
a(Vam
VVBP
tp980
a(Vsure
VJJ
tp981
a(Vof
VIN
tp982
a(V,
V,
tp983
a(Vthough
VIN
tp984
a(V.
V.
tp985
aa(lp986
(VAt
VIN
tp987
a(Vthe
VDT
tp988
a(Vsame
VJJ
tp989
a(Vtime
VNN
tp990
a(V,
V,
tp991
a(Vit
VPRP
tp992
a(Vis
VVBZ
tp993
a(Vdisappearing
VVBG
tp994
a(Vfaster
VRBR
tp995
a(Vthan
VIN
tp996
a(Vever
VRB
tp997
a(Vbefore
VIN
tp998
a(Vin
VIN
tp999
a(Vhuman
VJJ
tp1000
a(Vhistory
VNN
tp1001
a(V.
V.
tp1002
a(VI
VPRP
tp1003
a(Vhave
VVBP
tp1004
a(Vsad
VJJ
tp1005
a(Vnews
VNN
tp1006
a(Vtonight
VNN
tp1007
a(V.
V.
tp1008
aa(lp1009
(VHis
VPRP$
tp1010
a(Vwife
VNN
tp1011
a(V,
V,
tp1012
a(VSvetlana
VNNP
tp1013
a(VZavadskaya
VNNP
tp1014
a(V,
V,
tp1015
a(Vis
VVBZ
tp1016
a(Von
VIN
tp1017
a(Vour
VPRP$
tp1018
a(Vdelegation
VNN
tp1019
a(V.
V.
tp1020
aa(lp1021
(VPresident
VNNP
tp1022
a(VObama
VNNP
tp1023
a(Valso
VRB
tp1024
a(Vended
VVBD
tp1025
a(Vthe
VDT
tp1026
a(Vuse
VNN
tp1027
a(Vof
VIN
tp1028
a(V&apos;
VNN
tp1029
a(Venhanced
VVBD
tp1030
a(V&apos;
VJJ
tp1031
a(Vinterrogation
VNN
tp1032
a(Vtechniques
VNNS
tp1033
a(Vby
VIN
tp1034
a(Vthe
VDT
tp1035
a(VCIA
VNNP
tp1036
a(V.
V.
tp1037
aa(lp1038
(VSome
VDT
tp1039
a(Vcritics
VNNS
tp1040
a(Vthink
VVBP
tp1041
a(Vand
VCC
tp1042
a(Vclaim
VVBP
tp1043
a(Vthat
VIN
tp1044
a(Vsugar
VNN
tp1045
a(Vis
VVBZ
tp1046
a(Vtoo
VRB
tp1047
a(Vexpensive
VJJ
tp1048
a(V,
V,
tp1049
a(Vhowever
VRB
tp1050
a(V.
V.
tp1051
aa(lp1052
(VScotland
VNNP
tp1053
a(V&apos;s
VNNS
tp1054
a(Vtraders
VNNS
tp1055
a(V,
V,
tp1056
a(Vfrom
VIN
tp1057
a(Vfish
VNN
tp1058
a(Vprocessors
VNNS
tp1059
a(Vto
VTO
tp1060
a(Vfarmers
VNNS
tp1061
a(V,
V,
tp1062
a(Vfrom
VIN
tp1063
a(Vmanufacturers
VNNS
tp1064
a(Vto
VTO
tp1065
a(Vthe
VDT
tp1066
a(Vtourism
VNN
tp1067
a(Vsector
VNN
tp1068
a(V,
V,
tp1069
a(Vare
VVBP
tp1070
a(Vbeing
VVBG
tp1071
a(Vforced
VVBN
tp1072
a(Vto
VTO
tp1073
a(Vcompete
VVB
tp1074
a(Vwith
VIN
tp1075
a(Vone
VCD
tp1076
a(Vhand
VNN
tp1077
a(Vtied
VVBN
tp1078
a(Vbehind
VRP
tp1079
a(Vtheir
VPRP$
tp1080
a(Vbacks
VNNS
tp1081
a(V.
V.
tp1082
aa(lp1083
(VThey
VPRP
tp1084
a(Vare
VVBP
tp1085
a(Vthe
VDT
tp1086
a(Vones
VNNS
tp1087
a(Vwho
VWP
tp1088
a(Vvote
VVBP
tp1089
a(Vfor
VIN
tp1090
a(Vus
VPRP
tp1091
a(V,
V,
tp1092
a(Vthey
VPRP
tp1093
a(Vhave
VVBP
tp1094
a(Vthe
VDT
tp1095
a(Vlast
VJJ
tp1096
a(Vword
VNN
tp1097
a(V.
V.
tp1098
aa(lp1099
(VIt
VPRP
tp1100
a(Vis
VVBZ
tp1101
a(Vnot
VRB
tp1102
a(Vby
VIN
tp1103
a(Vchance
VNN
tp1104
a(Vthat
VIN
tp1105
a(Vthe
VDT
tp1106
a(Vmechanism
VNN
tp1107
a(Vwas
VVBD
tp1108
a(Vestablished
VVBN
tp1109
a(V.
V.
tp1110
aa(lp1111
(VEverybody
VNN
tp1112
a(Vagrees
VVBZ
tp1113
a(Vthat
VIN
tp1114
a(Vwe
VPRP
tp1115
a(Vneed
VVBP
tp1116
a(Vto
VTO
tp1117
a(Vsimplify
VVB
tp1118
a(Vthe
VDT
tp1119
a(Vlicensing
VNN
tp1120
a(Vof
VIN
tp1121
a(Vmusic
VNN
tp1122
a(Vfor
VIN
tp1123
a(Vinternet
VNN
tp1124
a(Vdownloads
VNNS
tp1125
a(Vand
VCC
tp1126
a(Vmobile
VJJ
tp1127
a(Vphones
VNNS
tp1128
a(V.
V.
tp1129
aa(lp1130
(VYou
VPRP
tp1131
a(Vknow
VVBP
tp1132
a(V,
V,
tp1133
a(Vthere
VEX
tp1134
a(Vwere
VVBD
tp1135
a(Vconsiderable
VJJ
tp1136
a(Vproblems
VNNS
tp1137
a(Vwith
VIN
tp1138
a(Vthe
VDT
tp1139
a(VMeciar
VNNP
tp1140
a(VGovernment
VNNP
tp1141
a(Vwhen
VWRB
tp1142
a(Vprivatisation
VNN
tp1143
a(Vwent
VVBD
tp1144
a(Vahead
VRB
tp1145
a(V.
V.
tp1146
aa(lp1147
(VMr
VNNP
tp1148
a(VPresident
VNNP
tp1149
a(V,
V,
tp1150
a(Vthe
VDT
tp1151
a(Vdraft
VNN
tp1152
a(Vbudget
VNN
tp1153
a(Vfor
VIN
tp1154
a(V1999
VCD
tp1155
a(Vresembles
VVBZ
tp1156
a(Vthe
VDT
tp1157
a(Vpreliminary
VJJ
tp1158
a(Vdraft
VNN
tp1159
a(Vbudget
VNN
tp1160
a(Vclosely
VRB
tp1161
a(V.
V.
tp1162
aa(lp1163
(VSerious
VJJ
tp1164
a(Vproblems
VNNS
tp1165
a(V,
V,
tp1166
a(Vin
VIN
tp1167
a(Vparticular
VJJ
tp1168
a(Vthe
VDT
tp1169
a(Vlegal
VJJ
tp1170
a(Vstatus
VNN
tp1171
a(Vof
VIN
tp1172
a(Vnon-Muslim
VJJ
tp1173
a(Vcommunities
VNNS
tp1174
a(V,
V,
tp1175
a(Vproperty
VNN
tp1176
a(Vregistration
VNN
tp1177
a(Vand
VCC
tp1178
a(Vtraining
VNN
tp1179
a(Vof
VIN
tp1180
a(Vclergy
VNNS
tp1181
a(V,
V,
tp1182
a(Vremain
VVBP
tp1183
a(Vto
VTO
tp1184
a(Vbe
VVB
tp1185
a(Vsolved
VVBN
tp1186
a(V.
V.
tp1187
aa(lp1188
(VFirst
VRB
tp1189
a(V,
V,
tp1190
a(Vtake
VVB
tp1191
a(Vthe
VDT
tp1192
a(Vsize
VNN
tp1193
a(Vof
VIN
tp1194
a(Vthe
VDT
tp1195
a(Vtarget
VNN
tp1196
a(Venterprises
VNNS
tp1197
a(V.
V.
tp1198
aa(lp1199
(VThe
VDT
tp1200
a(Vsale
VNN
tp1201
a(Vof
VIN
tp1202
a(Vthe
VDT
tp1203
a(Vlive
VJJ
tp1204
a(VTV
VNN
tp1205
a(Vrights
VNNS
tp1206
a(Vto
VTO
tp1207
a(Vtwo
VCD
tp1208
a(Vrival
VJJ
tp1209
a(Vbroadcasters
VNNS
tp1210
a(Valready
VRB
tp1211
a(Vprovides
VVBZ
tp1212
a(Vconsumers
VNNS
tp1213
a(Vwith
VIN
tp1214
a(Va
VDT
tp1215
a(Vgreater
VJJR
tp1216
a(Vchoice
VNN
tp1217
a(Vthan
VIN
tp1218
a(Vbefore
VRB
tp1219
a(V.
V.
tp1220
aa(lp1221
(VThis
VDT
tp1222
a(Vwould
VMD
tp1223
a(Vnot
VRB
tp1224
a(Vbe
VVB
tp1225
a(Vthe
VDT
tp1226
a(Vfirst
VJJ
tp1227
a(Vtime
VNN
tp1228
a(Vthat
VIN
tp1229
a(Va
VDT
tp1230
a(VMember
VNNP
tp1231
a(Vhad
VVBD
tp1232
a(Venjoyed
VVBN
tp1233
a(Vprotection
VNN
tp1234
a(Vwhen
VWRB
tp1235
a(Vspeaking
VVBG
tp1236
a(V,
V,
tp1237
a(Vwriting
VVBG
tp1238
a(Vor
VCC
tp1239
a(Vintervening
VVBG
tp1240
a(Voutside
VJJ
tp1241
a(VParliament
VNNP
tp1242
a(V.
V.
tp1243
aa(lp1244
(VThen
VRB
tp1245
a(Vwe
VPRP
tp1246
a(Vcan
VMD
tp1247
a(Vdiscuss
VVB
tp1248
a(Vwhether
VIN
tp1249
a(Vthe
VDT
tp1250
a(Vconcerns
VNNS
tp1251
a(Vare
VVBP
tp1252
a(Vrelevant
VJJ
tp1253
a(Vor
VCC
tp1254
a(Vnot
VRB
tp1255
a(V.
V.
tp1256
aa(lp1257
(VIt
VPRP
tp1258
a(Vis
VVBZ
tp1259
a(Vof
VIN
tp1260
a(Vcourse
VNN
tp1261
a(Va
VDT
tp1262
a(Vgood
VJJ
tp1263
a(Vthing
VNN
tp1264
a(Vthat
VIN
tp1265
a(Vthey
VPRP
tp1266
a(Vwill
VMD
tp1267
a(Valso
VRB
tp1268
a(Venable
VVB
tp1269
a(Vus
VPRP
tp1270
a(Vto
VTO
tp1271
a(Vcreate
VVB
tp1272
a(Vjobs
VNNS
tp1273
a(Vin
VIN
tp1274
a(VEurope
VNNP
tp1275
a(V.
V.
tp1276
aa(lp1277
(VPermission
VNN
tp1278
a(Vfor
VIN
tp1279
a(Vsuch
VJJ
tp1280
a(Vactivities
VNNS
tp1281
a(Vin
VIN
tp1282
a(Vpublic
VNN
tp1283
a(Vcan
VMD
tp1284
a(V,
V,
tp1285
a(Vhowever
VRB
tp1286
a(V,
V,
tp1287
a(Vbe
VVB
tp1288
a(Vobtained
VVBN
tp1289
a(Vfrom
VIN
tp1290
a(Vthe
VDT
tp1291
a(VMinistry
VNNP
tp1292
a(Vfor
VIN
tp1293
a(VEducation
VNNP
tp1294
a(Vand
VCC
tp1295
a(VReligious
VNNP
tp1296
a(VAffairs
VNNP
tp1297
a(V.
V.
tp1298
aa(lp1299
(VIn
VIN
tp1300
a(VIreland
VNNP
tp1301
a(V,
V,
tp1302
a(Vsuicide
VNN
tp1303
a(Vis
VVBZ
tp1304
a(Vthe
VDT
tp1305
a(Vmost
VRBS
tp1306
a(Vcommon
VJJ
tp1307
a(Vcause
VNN
tp1308
a(Vof
VIN
tp1309
a(Vdeath
VNN
tp1310
a(Vin
VIN
tp1311
a(V18-24
VCD
tp1312
a(Vyear
VNN
tp1313
a(Volds
VNNS
tp1314
a(V.
V.
tp1315
aa(lp1316
(VYou
VPRP
tp1317
a(Vprovide
VVBP
tp1318
a(Vme
VPRP
tp1319
a(Vand
VCC
tp1320
a(Vthe
VDT
tp1321
a(VCommission
VNNP
tp1322
a(Vwith
VIN
tp1323
a(Vthe
VDT
tp1324
a(Vopportunity
VNN
tp1325
a(Vto
VTO
tp1326
a(Vpresent
VVB
tp1327
a(Vour
VPRP$
tp1328
a(Vposition
VNN
tp1329
a(Vagain
VRB
tp1330
a(V,
V,
tp1331
a(Vwhich
VWDT
tp1332
a(Vis
VVBZ
tp1333
a(Vundoubtedly
VRB
tp1334
a(Vnecessary
VJJ
tp1335
a(Vto
VTO
tp1336
a(Vavoid
VVB
tp1337
a(Vany
VDT
tp1338
a(Vmisunderstanding
VNN
tp1339
a(V.
V.
tp1340
aa(lp1341
(VYou
VPRP
tp1342
a(Vcould
VMD
tp1343
a(Vnot
VRB
tp1344
a(Vsay
VVB
tp1345
a(Vit
VPRP
tp1346
a(Vmore
VRBR
tp1347
a(Vsuccinctly
VRB
tp1348
a(V.
V.
tp1349
aa(lp1350
(VTomorrow
VNN
tp1351
a(V,
V,
tp1352
a(VI
VPRP
tp1353
a(Vhave
VVBP
tp1354
a(Va
VDT
tp1355
a(Vseminar
VNN
tp1356
a(Von
VIN
tp1357
a(VEast
VNNP
tp1358
a(VAfrica
VNNP
tp1359
a(V.
V.
tp1360
aa(lp1361
(VHow
VWRB
tp1362
a(Vdoes
VVBZ
tp1363
a(Vthe
VDT
tp1364
a(VCommission
VNNP
tp1365
a(Vintend
VVBP
tp1366
a(Vto
VTO
tp1367
a(Vovercome
VVB
tp1368
a(Vthis
VDT
tp1369
a(Vproblem
VNN
tp1370
a(Vin
VIN
tp1371
a(Vthe
VDT
tp1372
a(Vshort
VJJ
tp1373
a(Vterm
VNN
tp1374
a(V?
V.
tp1375
aa(lp1376
(VSome
VDT
tp1377
a(Vare
VVBP
tp1378
a(Vmore
VRBR
tp1379
a(Vsuccessful
VJJ
tp1380
a(Vthan
VIN
tp1381
a(Vothers
VNNS
tp1382
a(V.
V.
tp1383
aa(lp1384
(VIt
VPRP
tp1385
a(Vis
VVBZ
tp1386
a(Va
VDT
tp1387
a(Vproductive
VJJ
tp1388
a(Vrelationship
VNN
tp1389
a(Vand
VCC
tp1390
a(Vit
VPRP
tp1391
a(Vis
VVBZ
tp1392
a(Vone
VCD
tp1393
a(Vthat
VWDT
tp1394
a(Vrequires
VVBZ
tp1395
a(Vrecognition
VNN
tp1396
a(Vby
VIN
tp1397
a(Vboth
VDT
tp1398
a(Vsides
VNNS
tp1399
a(Vfrom
VIN
tp1400
a(Vtime
VNN
tp1401
a(Vto
VTO
tp1402
a(Vtime
VNN
tp1403
a(V.
V.
tp1404
aa(lp1405
(VThis
VDT
tp1406
a(Vis
VVBZ
tp1407
a(Vvery
VRB
tp1408
a(Vconfusing
VJJ
tp1409
a(V.
V.
tp1410
aa(lp1411
(VIsrael
VNNP
tp1412
a(Vis
VVBZ
tp1413
a(Va
VDT
tp1414
a(Vfriend
VNN
tp1415
a(Von
VIN
tp1416
a(Vthe
VDT
tp1417
a(Vwrong
VJJ
tp1418
a(Vtrack
VNN
tp1419
a(V.
V.
tp1420
aa(lp1421
(VIt
VPRP
tp1422
a(Vcompletely
VRB
tp1423
a(Vloses
VVBZ
tp1424
a(Vor
VCC
tp1425
a(Veven
VRB
tp1426
a(Vfails
VVBZ
tp1427
a(Vto
VTO
tp1428
a(Vinclude
VVB
tp1429
a(Vissues
VNNS
tp1430
a(Vwhich
VWDT
tp1431
a(Vmost
VRBS
tp1432
a(Vaffect
VVB
tp1433
a(Vordinary
VJJ
tp1434
a(Vpeople
VNNS
tp1435
a(Vin
VIN
tp1436
a(Vthe
VDT
tp1437
a(VCzech
VNNP
tp1438
a(VRepublic
VNNP
tp1439
a(Vand
VCC
tp1440
a(Vin
VIN
tp1441
a(VEurope
VNNP
tp1442
a(V.
V.
tp1443
aa(lp1444
(VIncidentally
VRB
tp1445
a(V,
V,
tp1446
a(Vover
VIN
tp1447
a(Vthe
VDT
tp1448
a(Vyears
VNNS
tp1449
a(V,
V,
tp1450
a(Vit
VPRP
tp1451
a(Vhas
VVBZ
tp1452
a(Vappeared
VVBN
tp1453
a(Vimmune
VJJ
tp1454
a(Vto
VTO
tp1455
a(Vdirect
VJJ
tp1456
a(Vinternational
VJJ
tp1457
a(Vefforts
VNNS
tp1458
a(Vtowards
VIN
tp1459
a(Vgradual
VJJ
tp1460
a(Vdemocratisation
VNN
tp1461
a(Vand
VCC
tp1462
a(Vreform
VNN
tp1463
a(V.
V.
tp1464
aa(lp1465
(VIt
VPRP
tp1466
a(Vis
VVBZ
tp1467
a(Vto
VTO
tp1468
a(Vthis
VDT
tp1469
a(Vdecision
VNN
tp1470
a(Vthat
VWDT
tp1471
a(V11
VCD
tp1472
a(Vcountries
VNNS
tp1473
a(V,
V,
tp1474
a(Vincluding
VVBG
tp1475
a(VUkraine
VNNP
tp1476
a(V,
V,
tp1477
a(VGeorgia
VNNP
tp1478
a(Vand
VCC
tp1479
a(VUzbekistan
VNNP
tp1480
a(V,
V,
tp1481
a(Vnow
VRB
tp1482
a(Vowe
VVBP
tp1483
a(Vtheir
VPRP$
tp1484
a(Vindependence
VNN
tp1485
a(V.
V.
tp1486
aa(lp1487
(VA
VDT
tp1488
a(Vsmall
VJJ
tp1489
a(Vsegment
VNN
tp1490
a(Vof
VIN
tp1491
a(Vour
VPRP$
tp1492
a(Vmarket
VNN
tp1493
a(Vhas
VVBZ
tp1494
a(Vbeen
VVBN
tp1495
a(Vtaken
VVBN
tp1496
a(Vover
VRP
tp1497
a(Vby
VIN
tp1498
a(Vprivate
VJJ
tp1499
a(Voperators
VNNS
tp1500
a(V.
V.
tp1501
aa(lp1502
(VNeither
VDT
tp1503
a(Vdid
VVBD
tp1504
a(Vyou
VPRP
tp1505
a(V.
V.
tp1506
a(VI
VPRP
tp1507
a(Vwonder
VVBP
tp1508
a(Vwhy
VWRB
tp1509
a(Vnot
VRB
tp1510
a(V?
V.
tp1511
aa(lp1512
(VAny
VDT
tp1513
a(Vhalf
VNN
tp1514
a(Vmeasure
VNN
tp1515
a(Vwill
VMD
tp1516
a(Vonly
VRB
tp1517
a(Vcreate
VVB
tp1518
a(Vdissatisfaction
VNN
tp1519
a(Vand
VCC
tp1520
a(Vunfairness
VNN
tp1521
a(V.
V.
tp1522
aa(lp1523
(VInformation
VNN
tp1524
a(Vdocuments
VNNS
tp1525
a(Vmust
VMD
tp1526
a(Vbecome
VVB
tp1527
a(Vmore
VRBR
tp1528
a(Vavailable
VJJ
tp1529
a(V.
V.
tp1530
aa(lp1531
(VUnfortunately
VRB
tp1532
a(V,
V,
tp1533
a(Vthese
VDT
tp1534
a(Vopportunities
VNNS
tp1535
a(Vwere
VVBD
tp1536
a(Vconsidered
VVBN
tp1537
a(Vto
VTO
tp1538
a(Vviolate
VVB
tp1539
a(Vcompetition
VNN
tp1540
a(Vrules
VNNS
tp1541
a(V.
V.
tp1542
aa(lp1543
(VThere
VEX
tp1544
a(Vthe
VDT
tp1545
a(Vproposed
VVBN
tp1546
a(Vamendments
VNNS
tp1547
a(Vto
VTO
tp1548
a(Vthe
VDT
tp1549
a(VPraesidium
VNN
tp1550
a(V&apos;s
VNNS
tp1551
a(Vdraft
VVBP
tp1552
a(Vconstitution
VNN
tp1553
a(Vare
VVBP
tp1554
a(Vnot
VRB
tp1555
a(Vtranslated
VVBN
tp1556
a(Vinto
VIN
tp1557
a(Vthe
VDT
tp1558
a(Vofficial
VJJ
tp1559
a(Vlanguages
VNNS
tp1560
a(Vof
VIN
tp1561
a(Vthe
VDT
tp1562
a(VEU
VNNP
tp1563
a(V.
V.
tp1564
aa(lp1565
(VHowever
VRB
tp1566
a(V,
V,
tp1567
a(VI
VPRP
tp1568
a(Vdo
VVBP
tp1569
a(Vnot
VRB
tp1570
a(Vhave
VVB
tp1571
a(Vthe
VDT
tp1572
a(Vsame
VJJ
tp1573
a(Vfavourable
VJJ
tp1574
a(Vattitude
VNN
tp1575
a(Vtowards
VIN
tp1576
a(Vthe
VDT
tp1577
a(Vcall
VNN
tp1578
a(Vfor
VIN
tp1579
a(Vthe
VDT
tp1580
a(Vcreation
VNN
tp1581
a(Vof
VIN
tp1582
a(Va
VDT
tp1583
a(Vformalized
VVBN
tp1584
a(V&apos;
VNNP
tp1585
a(VEurope
VNNP
tp1586
a(Vof
VIN
tp1587
a(Vthe
VDT
tp1588
a(Vregions
VNNS
tp1589
a(Vand
VCC
tp1590
a(Vmunicipalities
VNNS
tp1591
a(V&apos;
VVBP
tp1592
a(V.
V.
tp1593
aa(lp1594
(VIt
VPRP
tp1595
a(Vmust
VMD
tp1596
a(V.
V.
tp1597
aa(lp1598
(VIndependence
VNNP
tp1599
a(Vmeans
VVBZ
tp1600
a(Vour
VPRP$
tp1601
a(Vown
VJJ
tp1602
a(Vstrength
VNN
tp1603
a(V,
V,
tp1604
a(Vautonomous
VJJ
tp1605
a(Vstructures
VNNS
tp1606
a(Vand
VCC
tp1607
a(Vjobs
VNNS
tp1608
a(Vgeared
VVBN
tp1609
a(Vto
VTO
tp1610
a(Vthe
VDT
tp1611
a(Vfuture
VNN
tp1612
a(V.
V.
tp1613
aa(lp1614
(VThis
VDT
tp1615
a(Vblood
VNN
tp1616
a(Vtest
VNN
tp1617
a(Vis
VVBZ
tp1618
a(Vvery
VRB
tp1619
a(Vsimple
VJJ
tp1620
a(V,
V,
tp1621
a(Vroutine
VJJ
tp1622
a(Vand
VCC
tp1623
a(Vshould
VMD
tp1624
a(Vbe
VVB
tp1625
a(Vrecommended
VVBN
tp1626
a(Vfrom
VIN
tp1627
a(Vthe
VDT
tp1628
a(Vage
VNN
tp1629
a(Vof
VIN
tp1630
a(V50
VCD
tp1631
a(Vyears
VNNS
tp1632
a(Vin
VIN
tp1633
a(Vour
VPRP$
tp1634
a(Vtext
VNN
tp1635
a(V.
V.
tp1636
aa(lp1637
(VWith
VIN
tp1638
a(Vthe
VDT
tp1639
a(Vclosure
VNN
tp1640
a(Vof
VIN
tp1641
a(Vthis
VDT
tp1642
a(Vpower
VNN
tp1643
a(Vplant
VNN
tp1644
a(V,
V,
tp1645
a(VLithuania
VNNP
tp1646
a(Vwould
VMD
tp1647
a(Vbecome
VVB
tp1648
a(Vfully
VRB
tp1649
a(Vdependent
VJJ
tp1650
a(Von
VIN
tp1651
a(Vthe
VDT
tp1652
a(Vonly
VJJ
tp1653
a(Vsource
VNN
tp1654
a(V-
V:
tp1655
a(Vgas
VNN
tp1656
a(Vimported
VVBN
tp1657
a(Vfrom
VIN
tp1658
a(VRussia
VNNP
tp1659
a(V.
V.
tp1660
aa(lp1661
(VExplore
VVB
tp1662
a(Vyour
VPRP$
tp1663
a(Vmandate
VNN
tp1664
a(V.
V.
tp1665
aa(lp1666
(VI
VPRP
tp1667
a(Vwould
VMD
tp1668
a(Vnot
VRB
tp1669
a(Vwant
VVB
tp1670
a(Vto
VTO
tp1671
a(Vbe
VVB
tp1672
a(Vmore
VRBR
tp1673
a(Vspecific
VJJ
tp1674
a(Vthan
VIN
tp1675
a(Vthat
VDT
tp1676
a(V.
V.
tp1677
aa.