(lp1
(lp2
(VThis
VDT
tp3
a(Vinitiative
VNN
tp4
a(Vis
VVBZ
tp5
a(Vfar
VRB
tp6
a(Vfrom
VIN
tp7
a(Veasy
VJJ
tp8
a(Vfor
VIN
tp9
a(Va
VDT
tp10
a(Vcountry
VNN
tp11
a(Vthat
VWDT
tp12
a(Vis
VVBZ
tp13
a(Vpartially
VRB
tp14
a(Voccupied
VVBN
tp15
a(Vand
VCC
tp16
a(Vhas
VVBZ
tp17
a(V500
VCD
tp18
a(V000
VCD
tp19
a(VIDPs
VNNS
tp20
a(Vand
VCC
tp21
a(Vrefugees
VNNS
tp22
a(V.
V.
tp23
aa(lp24
(VThirdly
VRB
tp25
a(V,
V,
tp26
a(Vthere
VEX
tp27
a(Vare
VVBP
tp28
a(V21
VCD
tp29
a(Vprisoners
VNNS
tp30
a(Vcurrently
VRB
tp31
a(Vin
VIN
tp32
a(Vfederal
VJJ
tp33
a(Vdeath
VNN
tp34
a(Vrow
VNN
tp35
a(V:
V:
tp36
a(V14
VCD
tp37
a(Vare
VVBP
tp38
a(Vblack
VJJ
tp39
a(V,
V,
tp40
a(V5
VCD
tp41
a(Vare
VVBP
tp42
a(Vwhite
VJJ
tp43
a(V,
V,
tp44
a(Vone
VCD
tp45
a(Vis
VVBZ
tp46
a(VAsian
VJJ
tp47
a(Vand
VCC
tp48
a(Vone
VCD
tp49
a(Vis
VVBZ
tp50
a(VLatino
VNNP
tp51
a(V.
V.
tp52
aa(lp53
(VThat
VDT
tp54
a(Vis
VVBZ
tp55
a(Vwhy
VWRB
tp56
a(Vthings
VNNS
tp57
a(Vdo
VVBP
tp58
a(Vnot
VRB
tp59
a(Valways
VRB
tp60
a(Vbalance
VVB
tp61
a(Vout
VRP
tp62
a(V.
V.
tp63
aa(lp64
(VSo
VRB
tp65
a(Vthere
VEX
tp66
a(Vare
VVBP
tp67
a(Vvulnerable
VJJ
tp68
a(Vecosystems
VNNS
tp69
a(V-
V:
tp70
a(Vas
VIN
tp71
a(Vshown
VVBN
tp72
a(Vby
VIN
tp73
a(Vscientific
VJJ
tp74
a(Vevidence
VNN
tp75
a(V-
V:
tp76
a(Vat
VIN
tp77
a(Vthat
VDT
tp78
a(Vdepth
VNN
tp79
a(V.
V.
tp80
aa(lp81
(VThis
VDT
tp82
a(Vis
VVBZ
tp83
a(Vtrue
VJJ
tp84
a(Vfor
VIN
tp85
a(Vvarious
VJJ
tp86
a(Vother
VJJ
tp87
a(Vimprovements
VNNS
tp88
a(Vthat
VIN
tp89
a(Vwe
VPRP
tp90
a(Vwould
VMD
tp91
a(Vprefer
VVB
tp92
a(Vto
VTO
tp93
a(Vsee
VVB
tp94
a(Vmade
VVBN
tp95
a(Vto
VTO
tp96
a(Vthe
VDT
tp97
a(Vtext
VNN
tp98
a(V.
V.
tp99
aa(lp100
(VIt
VPRP
tp101
a(Valso
VRB
tp102
a(Vcauses
VVBZ
tp103
a(Vmajor
VJJ
tp104
a(Vfinancial
VJJ
tp105
a(Vdamage
VNN
tp106
a(Vand
VCC
tp107
a(Vgreat
VJJ
tp108
a(Vsuffering
VNN
tp109
a(V.
V.
tp110
aa(lp111
(VToday
VNN
tp112
a(V,
V,
tp113
a(Vin
VIN
tp114
a(Vaddition
VNN
tp115
a(Vto
VTO
tp116
a(Vits
VPRP$
tp117
a(Vgoods
VNNS
tp118
a(V,
V,
tp119
a(Vthe
VDT
tp120
a(VUS
VNNP
tp121
a(Vis
VVBZ
tp122
a(Vexporting
VVBG
tp123
a(Vall
VDT
tp124
a(Vits
VPRP$
tp125
a(Vworst
VJJS
tp126
a(Vaspects
VNNS
tp127
a(Vinto
VIN
tp128
a(Vour
VPRP$
tp129
a(Vcountries
VNNS
tp130
a(V,
V,
tp131
a(Valthough
VIN
tp132
a(Vthe
VDT
tp133
a(Vreal
VJJ
tp134
a(VAmerican
VJJ
tp135
a(Vpeople
VNNS
tp136
a(Vreject
VVBP
tp137
a(Vthem
VPRP
tp138
a(V:
V:
tp139
a(Vfast
VJJ
tp140
a(Vfood
VNN
tp141
a(V,
V,
tp142
a(Vrap
VNN
tp143
a(V,
V,
tp144
a(Vethnic
VJJ
tp145
a(Vbands
VNNS
tp146
a(V,
V,
tp147
a(Vand
VCC
tp148
a(Vto
VTO
tp149
a(Vsum
VVB
tp150
a(Vit
VPRP
tp151
a(Vup
VRP
tp152
a(Vin
VIN
tp153
a(Va
VDT
tp154
a(Vword
VNN
tp155
a(V,
V,
tp156
a(Vthe
VDT
tp157
a(V&apos;
VJJ
tp158
a(Vraptaglang
VNN
tp159
a(V&apos;
VNN
tp160
a(Vculture
VNN
tp161
a(V.
V.
tp162
aa(lp163
(VWhen
VWRB
tp164
a(VSpain
VNNP
tp165
a(Vand
VCC
tp166
a(VPortugal
VNNP
tp167
a(Vjoined
VVBD
tp168
a(Vthe
VDT
tp169
a(VCommunity
VNNP
tp170
a(V,
V,
tp171
a(VParliament
VNNP
tp172
a(Vraised
VVBD
tp173
a(Vthe
VDT
tp174
a(Vceilings
VNNS
tp175
a(Vfor
VIN
tp176
a(Vbudgetary
VJJ
tp177
a(Vincreases
VNNS
tp178
a(Vthat
VWDT
tp179
a(Vwere
VVBD
tp180
a(Vestablished
VVBN
tp181
a(Vin
VIN
tp182
a(Vthe
VDT
tp183
a(VMRI
VNNP
tp184
a(V.
V.
tp185
aa(lp186
(VWith
VIN
tp187
a(Vregard
VNN
tp188
a(Vto
VTO
tp189
a(Vfunding
VNN
tp190
a(Vfor
VIN
tp191
a(Vhealth
VNN
tp192
a(V,
V,
tp193
a(VI
VPRP
tp194
a(Vhave
VVBP
tp195
a(Vwelcomed
VVBN
tp196
a(Vthe
VDT
tp197
a(Vmodifications
VNNS
tp198
a(Vhere
VRB
tp199
a(Vand
VCC
tp200
a(Vwould
VMD
tp201
a(Vthank
VVB
tp202
a(VMr
VNNP
tp203
a(VCaudron
VNNP
tp204
a(Vfor
VIN
tp205
a(Vhis
VPRP$
tp206
a(Vconcern
VNN
tp207
a(V,
V,
tp208
a(Vbecause
VIN
tp209
a(Vhuman
VJJ
tp210
a(Vgenome
VNN
tp211
a(Vresearch
VNN
tp212
a(Vcannot
VNN
tp213
a(Vbe
VVB
tp214
a(Vthe
VDT
tp215
a(Vonly
VJJ
tp216
a(Vstrand
VNN
tp217
a(Vof
VIN
tp218
a(Vhealth
VNN
tp219
a(Vresearch
VNN
tp220
a(Vfunded
VVBN
tp221
a(Vby
VIN
tp222
a(Vthe
VDT
tp223
a(VEU
VNNP
tp224
a(V.
V.
tp225
aa(lp226
(VThis
VDT
tp227
a(Vis
VVBZ
tp228
a(Vwhat
VWP
tp229
a(Vhappens
VVBZ
tp230
a(Vto
VTO
tp231
a(Vthe
VDT
tp232
a(Vmajority
VNN
tp233
a(Vof
VIN
tp234
a(Vthem
VPRP
tp235
a(V.
V.
tp236
aa(lp237
(VWe
VPRP
tp238
a(Vhave
VVBP
tp239
a(Vto
VTO
tp240
a(Vput
VVB
tp241
a(Vgreat
VJJ
tp242
a(Vemphasis
VNN
tp243
a(Von
VIN
tp244
a(Vthe
VDT
tp245
a(Vfact
VNN
tp246
a(Vthat
VIN
tp247
a(Vviolence
VNN
tp248
a(Vagainst
VIN
tp249
a(Vwomen
VNNS
tp250
a(Vis
VVBZ
tp251
a(Valways
VRB
tp252
a(Vpunishable
VJJ
tp253
a(V.
V.
tp254
aa(lp255
(VI
VPRP
tp256
a(Vam
VVBP
tp257
a(Valso
VRB
tp258
a(Vpleased
VVBN
tp259
a(Vthat
VIN
tp260
a(Vthe
VDT
tp261
a(VUnion
VNNP
tp262
a(Vhas
VVBZ
tp263
a(Vcommitted
VVBN
tp264
a(Vitself
VPRP
tp265
a(Vto
VTO
tp266
a(Vsending
VVBG
tp267
a(Va
VDT
tp268
a(Vlong-term
VJJ
tp269
a(Vobservation
VNN
tp270
a(Vmission
VNN
tp271
a(Vto
VTO
tp272
a(Vmonitor
VVB
tp273
a(Vthe
VDT
tp274
a(Velections
VNNS
tp275
a(Vtaking
VVBG
tp276
a(Vplace
VNN
tp277
a(Vthis
VDT
tp278
a(VNovember
VNNP
tp279
a(V,
V,
tp280
a(Vthus
VRB
tp281
a(Vensuring
VVBG
tp282
a(Vthat
VIN
tp283
a(Vevery
VDT
tp284
a(VMauritanian
VJJ
tp285
a(Vcitizen
VNN
tp286
a(Vcan
VMD
tp287
a(Vexercise
VVB
tp288
a(Vhis
VPRP$
tp289
a(Vor
VCC
tp290
a(Vher
VPRP$
tp291
a(Vvoting
VNN
tp292
a(Vrights
VNNS
tp293
a(V.
V.
tp294
aa(lp295
(VBut
VCC
tp296
a(Vit
VPRP
tp297
a(Vforgot
VVBD
tp298
a(Vone
VCD
tp299
a(Vthing
VNN
tp300
a(V:
V:
tp301
a(Vto
VTO
tp302
a(Vinclude
VVB
tp303
a(Vitself
VPRP
tp304
a(V.
V.
tp305
aa(lp306
(VThe
VDT
tp307
a(VCzech
VNNP
tp308
a(VPresidency
VNNP
tp309
a(Vhad
VVBD
tp310
a(Vtwo
VCD
tp311
a(Vfaces
VNNS
tp312
a(Vand
VCC
tp313
a(Vsymbolically
VRB
tp314
a(Vit
VPRP
tp315
a(Vhad
VVBD
tp316
a(Vtwo
VCD
tp317
a(Vpremiers
VNNS
tp318
a(V.
V.
tp319
aa(lp320
(VOnce
VRB
tp321
a(Vagain
VRB
tp322
a(Vthe
VDT
tp323
a(Vcart
VNN
tp324
a(Vhas
VVBZ
tp325
a(Vbeen
VVBN
tp326
a(Vput
VVBN
tp327
a(Vbefore
VIN
tp328
a(Vthe
VDT
tp329
a(Vhorse
VNN
tp330
a(V.
V.
tp331
aa(lp332
(VFor
VIN
tp333
a(Vthe
VDT
tp334
a(Vsake
VNN
tp335
a(Vof
VIN
tp336
a(Vthat
VDT
tp337
a(V,
V,
tp338
a(Vwe
VPRP
tp339
a(V,
V,
tp340
a(Vas
VIN
tp341
a(VEuropeans
VNNPS
tp342
a(V,
V,
tp343
a(Vcannot
VNN
tp344
a(Vtolerate
VVBP
tp345
a(Vthe
VDT
tp346
a(Vrepeated
VVBN
tp347
a(Vremarks
VNNS
tp348
a(Vmade
VVBN
tp349
a(Vby
VIN
tp350
a(Vthe
VDT
tp351
a(VPresident
VNNP
tp352
a(Vof
VIN
tp353
a(VIran
VNNP
tp354
a(Vdenying
VVBG
tp355
a(Vthe
VDT
tp356
a(VHolocaust
VNNP
tp357
a(V,
V,
tp358
a(Vlaying
VVBG
tp359
a(Vclaim
VNN
tp360
a(Vto
VTO
tp361
a(Va
VDT
tp362
a(Vmyth
VNN
tp363
a(Vand
VCC
tp364
a(Vcalling
VVBG
tp365
a(Vfor
VIN
tp366
a(Vthe
VDT
tp367
a(Vdisappearance
VNN
tp368
a(Vof
VIN
tp369
a(VIsrael
VNNP
tp370
a(V.
V.
tp371
aa(lp372
(VThis
VDT
tp373
a(Vmatter
VNN
tp374
a(Vneeds
VVBZ
tp375
a(Vto
VTO
tp376
a(Vbe
VVB
tp377
a(Vexplained
VVBN
tp378
a(V.
V.
tp379
aa(lp380
(VWe
VPRP
tp381
a(Vhave
VVBP
tp382
a(Vthe
VDT
tp383
a(Vnecessary
VJJ
tp384
a(Vinstruments
VNNS
tp385
a(Vavailable
VJJ
tp386
a(Vto
VTO
tp387
a(Vus
VPRP
tp388
a(Vtoday
VNN
tp389
a(V.
V.
tp390
aa(lp391
(VHow
VWRB
tp392
a(Vare
VVBP
tp393
a(Vthe
VDT
tp394
a(Vdiscussions
VNNS
tp395
a(Vgoing
VVBG
tp396
a(V?
V.
tp397
aa(lp398
(VMr
VNNP
tp399
a(VPresident
VNNP
tp400
a(V,
V,
tp401
a(Vthere
VEX
tp402
a(Vis
VVBZ
tp403
a(Vmuch
VJJ
tp404
a(Vtalk
VNN
tp405
a(Vabout
VIN
tp406
a(Vbuzz
VNN
tp407
a(Vwords
VNNS
tp408
a(Vhere
VRB
tp409
a(Vtoday
VNN
tp410
a(V,
V,
tp411
a(Vbut
VCC
tp412
a(Vthe
VDT
tp413
a(Vkey
VJJ
tp414
a(Vbuzz
VNN
tp415
a(Vword
VNN
tp416
a(Vis
VVBZ
tp417
a(Vthe
VDT
tp418
a(Vfirst
VJJ
tp419
a(Vword
VNN
tp420
a(Vup
VRP
tp421
a(Von
VIN
tp422
a(Vthe
VDT
tp423
a(Vboard
VNN
tp424
a(V:
V:
tp425
a(Vprevention
VNN
tp426
a(V.
V.
tp427
aa(lp428
(VIn
VIN
tp429
a(Vorder
VNN
tp430
a(Vto
VTO
tp431
a(Vbecome
VVB
tp432
a(Vthe
VDT
tp433
a(Vcitadel
VNN
tp434
a(Vof
VIN
tp435
a(Vinnovation
VNN
tp436
a(V,
V,
tp437
a(Vwe
VPRP
tp438
a(Vmust
VMD
tp439
a(Vsacrifice
VVB
tp440
a(Vthe
VDT
tp441
a(Vbureaucracy
VNN
tp442
a(Vthat
VWDT
tp443
a(Vdoes
VVBZ
tp444
a(Vnot
VRB
tp445
a(Vallow
VVB
tp446
a(Vfor
VIN
tp447
a(Vfunds
VNNS
tp448
a(Vto
VTO
tp449
a(Vflow
VVB
tp450
a(Vto
VTO
tp451
a(Vresearchers
VNNS
tp452
a(Vand
VCC
tp453
a(Ventrepreneurs
VNNS
tp454
a(V.
V.
tp455
aa(lp456
(VJust
VRB
tp457
a(Vthis
VDT
tp458
a(Vweek
VNN
tp459
a(V,
V,
tp460
a(Vour
VPRP$
tp461
a(Vcustoms
VNNS
tp462
a(Vand
VCC
tp463
a(Vborder
VNN
tp464
a(Vprotection
VNN
tp465
a(V,
V,
tp466
a(Vusing
VVBG
tp467
a(Vpassenger
VNN
tp468
a(Vinformation
VNN
tp469
a(Vdata
VNNS
tp470
a(V,
V,
tp471
a(Vapprehended
VVBD
tp472
a(Va
VDT
tp473
a(Vsuspect
VNN
tp474
a(Vin
VIN
tp475
a(Vthe
VDT
tp476
a(Vattempted
VVBN
tp477
a(Vbombing
VNN
tp478
a(Vof
VIN
tp479
a(VNew
VNNP
tp480
a(VYork
VNNP
tp481
a(V&apos;s
VNNS
tp482
a(VTimes
VNNP
tp483
a(VSquare
VNNP
tp484
a(Vas
VIN
tp485
a(Vhe
VPRP
tp486
a(Vsought
VVBD
tp487
a(Vto
VTO
tp488
a(Vflee
VVB
tp489
a(Vthe
VDT
tp490
a(Vcountry
VNN
tp491
a(V.
V.
tp492
aa(lp493
(VIt
VPRP
tp494
a(Vwould
VMD
tp495
a(Vbe
VVB
tp496
a(Va
VDT
tp497
a(Vblocking
VVBG
tp498
a(Vvalue
VNN
tp499
a(V,
V,
tp500
a(Va
VDT
tp501
a(Vblocking
VVBG
tp502
a(Vthreshold
VNN
tp503
a(V.
V.
tp504
aa(lp505
(VThis
VDT
tp506
a(Vdraft
VNN
tp507
a(Vhas
VVBZ
tp508
a(Vbeen
VVBN
tp509
a(Vdistributed
VVBN
tp510
a(V.
V.
tp511
aa(lp512
(VCzechs
VNNPS
tp513
a(V,
V,
tp514
a(VJews
VNNPS
tp515
a(Vand
VCC
tp516
a(Vpeople
VNNS
tp517
a(Vfrom
VIN
tp518
a(Vthe
VDT
tp519
a(VNetherlands
VNNP
tp520
a(Vemigrated
VVBD
tp521
a(Vto
VTO
tp522
a(VPoland
VNNP
tp523
a(Vin
VIN
tp524
a(Vthe
VDT
tp525
a(V16th
VJJ
tp526
a(Vcentury
VNN
tp527
a(Vnot
VRB
tp528
a(Vbecause
VIN
tp529
a(Vour
VPRP$
tp530
a(Vcountry
VNN
tp531
a(Vwas
VVBD
tp532
a(Va
VDT
tp533
a(Vdemocracy
VNN
tp534
a(V,
V,
tp535
a(Vbut
VCC
tp536
a(Vbecause
VIN
tp537
a(Vall
VDT
tp538
a(Vreligions
VNNS
tp539
a(Vcould
VMD
tp540
a(Vbe
VVB
tp541
a(Vpractised
VVBN
tp542
a(Vin
VIN
tp543
a(Vcomplete
VJJ
tp544
a(Vfreedom
VNN
tp545
a(Vin
VIN
tp546
a(VPoland
VNNP
tp547
a(V.
V.
tp548
aa(lp549
(VHowever
VRB
tp550
a(V,
V,
tp551
a(Vit
VPRP
tp552
a(Vis
VVBZ
tp553
a(Vextremely
VRB
tp554
a(Vfrustrating
VJJ
tp555
a(Vthat
VIN
tp556
a(Vnearly
VRB
tp557
a(V200
VCD
tp558
a(Vmen
VNNS
tp559
a(Vremain
VVBP
tp560
a(Vthere
VEX
tp561
a(V.
V.
tp562
aa(lp563
(VPurely
VRB
tp564
a(Von
VIN
tp565
a(Vprinciple
VNN
tp566
a(V,
V,
tp567
a(Vhowever
VRB
tp568
a(V,
V,
tp569
a(Vwe
VPRP
tp570
a(Vdo
VVBP
tp571
a(Vnot
VRB
tp572
a(Vbelieve
VVB
tp573
a(Vthat
VIN
tp574
a(Vnuclear
VJJ
tp575
a(Vweapons
VNNS
tp576
a(Vare
VVBP
tp577
a(Vjustified
VJJ
tp578
a(V.
V.
tp579
aa(lp580
(VCan
VMD
tp581
a(Vyou
VPRP
tp582
a(Vtell
VVB
tp583
a(Vus
VPRP
tp584
a(Vwhat
VWP
tp585
a(Vthe
VDT
tp586
a(Vposition
VNN
tp587
a(Vof
VIN
tp588
a(Vthe
VDT
tp589
a(VEuropean
VNNP
tp590
a(VUnion
VNNP
tp591
a(Vwill
VMD
tp592
a(Vbe
VVB
tp593
a(Vin
VIN
tp594
a(VSt
VNNP
tp595
a(VPetersburg
VNNP
tp596
a(V?
V.
tp597
aa(lp598
(VThe
VDT
tp599
a(Vpeople
VNNS
tp600
a(Vof
VIN
tp601
a(VEurope
VNNP
tp602
a(Vexpect
VVBP
tp603
a(Vmore
VRBR
tp604
a(V.
V.
tp605
aa(lp606
(VI
VPRP
tp607
a(Vsay
VVBP
tp608
a(Vthis
VDT
tp609
a(Valso
VRB
tp610
a(Vfrom
VIN
tp611
a(Vthe
VDT
tp612
a(Vpoint
VNN
tp613
a(Vof
VIN
tp614
a(Vview
VNN
tp615
a(Vof
VIN
tp616
a(VSaxony
VNNP
tp617
a(V,
V,
tp618
a(Va
VDT
tp619
a(Vregion
VNN
tp620
a(Vof
VIN
tp621
a(VGermany
VNNP
tp622
a(Vclose
VRB
tp623
a(Vto
VTO
tp624
a(VPoland
VNNP
tp625
a(Vand
VCC
tp626
a(Vthe
VDT
tp627
a(VCzech
VNNP
tp628
a(VRepublic
VNNP
tp629
a(V.
V.
tp630
aa(lp631
(VAll
VPDT
tp632
a(Vthe
VDT
tp633
a(Vmain
VJJ
tp634
a(Vgroups
VNNS
tp635
a(Vin
VIN
tp636
a(Vthis
VDT
tp637
a(VHouse
VNNP
tp638
a(Vwant
VVBP
tp639
a(Vto
VTO
tp640
a(Vdiscuss
VVB
tp641
a(Vthe
VDT
tp642
a(Vprinciple
VNN
tp643
a(V.
V.
tp644
aa(lp645
(VIf
VIN
tp646
a(Vthese
VDT
tp647
a(Vforecasts
VNNS
tp648
a(Vare
VVBP
tp649
a(Vrealised
VVBN
tp650
a(V,
V,
tp651
a(Vthen
VRB
tp652
a(VEMU
VNNP
tp653
a(Vis
VVBZ
tp654
a(Vpossible
VJJ
tp655
a(Vwith
VIN
tp656
a(Vten
VCD
tp657
a(VMember
VNNP
tp658
a(VStates
VNNPS
tp659
a(Von
VIN
tp660
a(V1
VCD
tp661
a(VJanuary
VNNP
tp662
a(V1999
VCD
tp663
a(V,
V,
tp664
a(Veven
VRB
tp665
a(Vif
VIN
tp666
a(V3.0
VCD
tp667
a(V%
VNN
tp668
a(Vis
VVBZ
tp669
a(Vmaintained
VVBN
tp670
a(Vas
VIN
tp671
a(Vthe
VDT
tp672
a(Vbudget
VNN
tp673
a(Vcriterion
VNN
tp674
a(V.
V.
tp675
aa(lp676
(VBecause
VIN
tp677
a(Vwe
VPRP
tp678
a(Vlike
VVBP
tp679
a(Vto
VTO
tp680
a(Vtax
VNN
tp681
a(Vand
VCC
tp682
a(Vwe
VPRP
tp683
a(Vlike
VVBP
tp684
a(Vto
VTO
tp685
a(Vregulate
VVB
tp686
a(V.
V.
tp687
aa(lp688
(VIn
VIN
tp689
a(Vthe
VDT
tp690
a(Vpast
VJJ
tp691
a(Vmy
VPRP$
tp692
a(Vcountry
VNN
tp693
a(Vhas
VVBZ
tp694
a(Vsuffered
VVBN
tp695
a(Vfrom
VIN
tp696
a(Van
VDT
tp697
a(Vinflux
VNN
tp698
a(Vof
VIN
tp699
a(Vrevolutionary
VJJ
tp700
a(Velements
VNNS
tp701
a(Vfrom
VIN
tp702
a(Va
VDT
tp703
a(Vforeign
VJJ
tp704
a(Vcountry
VNN
tp705
a(V,
V,
tp706
a(Vso
VRB
tp707
a(Vto
VTO
tp708
a(Vspeak
VVB
tp709
a(V,
V,
tp710
a(Vbut
VCC
tp711
a(Vat
VIN
tp712
a(Vno
VDT
tp713
a(Vpoint
VNN
tp714
a(Vwas
VVBD
tp715
a(Vthere
VEX
tp716
a(Vany
VDT
tp717
a(Vpossibility
VNN
tp718
a(Vthat
VIN
tp719
a(Vwe
VPRP
tp720
a(Vcould
VMD
tp721
a(Vhave
VVB
tp722
a(Vupset
VVBN
tp723
a(Vthe
VDT
tp724
a(Vinternational
VJJ
tp725
a(Vorder
VNN
tp726
a(Vby
VIN
tp727
a(Vignoring
VVBG
tp728
a(Vfrontiers
VNNS
tp729
a(V.
V.
tp730
aa(lp731
(VSince
VIN
tp732
a(Vthen
VRB
tp733
a(V,
V,
tp734
a(Vit
VPRP
tp735
a(Vhas
VVBZ
tp736
a(Vbeen
VVBN
tp737
a(Vcut
VVBN
tp738
a(Vshort
VJJ
tp739
a(Vor
VCC
tp740
a(Vrescheduled
VVBN
tp741
a(Von
VIN
tp742
a(Vabout
VIN
tp743
a(Vevery
VDT
tp744
a(Vsecond
VJJ
tp745
a(Vor
VCC
tp746
a(Vthird
VJJ
tp747
a(Voccasion
VNN
tp748
a(V.
V.
tp749
aa(lp750
(VIt
VPRP
tp751
a(Vis
VVBZ
tp752
a(Vimportant
VJJ
tp753
a(Vnot
VRB
tp754
a(Vto
VTO
tp755
a(Vconfuse
VVB
tp756
a(Vthe
VDT
tp757
a(Vattitudes
VNNS
tp758
a(Vrepresented
VVBN
tp759
a(Vby
VIN
tp760
a(VTurkish
VJJ
tp761
a(Vdiplomats
VNNS
tp762
a(Vand
VCC
tp763
a(Vcertain
VJJ
tp764
a(Vintellectuals
VNNS
tp765
a(Vand
VCC
tp766
a(Vpoliticians
VNNS
tp767
a(Vwith
VIN
tp768
a(Vthose
VDT
tp769
a(Vfound
VVBN
tp770
a(Vin
VIN
tp771
a(Vthe
VDT
tp772
a(Vrest
VNN
tp773
a(Vof
VIN
tp774
a(VTurkey
VNNP
tp775
a(V\u2019
VCD
tp776
a(Vs
VNNS
tp777
a(Vvery
VRB
tp778
a(Vclass-divided
VJJ
tp779
a(Vsociety
VNN
tp780
a(V.
V.
tp781
aa(lp782
(VAt
VIN
tp783
a(Vpresent
VJJ
tp784
a(Vthey
VPRP
tp785
a(Vstand
VVBP
tp786
a(Vat
VIN
tp787
a(Vmore
VJJR
tp788
a(Vthan
VIN
tp789
a(VEUR
V$
tp790
a(V60
VCD
tp791
a(Vbillion
VCD
tp792
a(V.
V.
tp793
aa(lp794
(VThen
VRB
tp795
a(Vcame
VVBD
tp796
a(Va
VDT
tp797
a(Vperiod
VNN
tp798
a(Vof
VIN
tp799
a(Vrapid
VJJ
tp800
a(Vredevelopment
VNN
tp801
a(V.
V.
tp802
aa(lp803
(VWe
VPRP
tp804
a(Vsee
VVBP
tp805
a(Vsimilar
VJJ
tp806
a(Vpackages
VNNS
tp807
a(Vin
VIN
tp808
a(VAmerica
VNNP
tp809
a(V.
V.
tp810
aa(lp811
(VYou
VPRP
tp812
a(Vtalked
VVBD
tp813
a(Vabout
VIN
tp814
a(Vthe
VDT
tp815
a(Vfact
VNN
tp816
a(Vthat
VIN
tp817
a(Vit
VPRP
tp818
a(Vwas
VVBD
tp819
a(Va
VDT
tp820
a(Vlie
VNN
tp821
a(Vto
VTO
tp822
a(Vbelieve
VVB
tp823
a(Vthat
VIN
tp824
a(Vthe
VDT
tp825
a(Vnation
VNN
tp826
a(Vstate
VNN
tp827
a(Vcould
VMD
tp828
a(Vexist
VVB
tp829
a(Vin
VIN
tp830
a(Vthe
VDT
tp831
a(V21st-century
VJJ
tp832
a(Vglobalised
VJJ
tp833
a(Vworld
VNN
tp834
a(V.
V.
tp835
aa(lp836
(VHe
VPRP
tp837
a(Vwas
VVBD
tp838
a(Vlinked
VVBN
tp839
a(Vto
VTO
tp840
a(Vus
VPRP
tp841
a(Vlive
VVBP
tp842
a(Vfrom
VIN
tp843
a(VChina
VNNP
tp844
a(Vby
VIN
tp845
a(Vtelephone
VNN
tp846
a(V.
V.
tp847
aa(lp848
(VBMW
VNNP
tp849
a(V\u2013
VVBD
tp850
a(Vthe
VDT
tp851
a(Vowners
VNNS
tp852
a(Vof
VIN
tp853
a(Vthat
VDT
tp854
a(Vplant
VNN
tp855
a(V,
V,
tp856
a(Va
VDT
tp857
a(VGerman
VJJ
tp858
a(Vcompany
VNN
tp859
a(V\u2013
VNN
tp860
a(Vis
VVBZ
tp861
a(Vinvesting
VVBG
tp862
a(VGBP
VNN
tp863
a(V250
VCD
tp864
a(Vmillion
VCD
tp865
a(Vto
VTO
tp866
a(Vmake
VVB
tp867
a(Va
VDT
tp868
a(Vnew
VJJ
tp869
a(Vcar
VNN
tp870
a(Vthere
VRB
tp871
a(Vand
VCC
tp872
a(Vwe
VPRP
tp873
a(Vthank
VVBP
tp874
a(VBMW
VNNP
tp875
a(Vfor
VIN
tp876
a(Vthat
VDT
tp877
a(V.
V.
tp878
aa(lp879
(VOnce
VRB
tp880
a(Vagain
VRB
tp881
a(V,
V,
tp882
a(Vthe
VDT
tp883
a(VCommission
VNNP
tp884
a(Vis
VVBZ
tp885
a(Vthe
VDT
tp886
a(Vguardian
VNN
tp887
a(Vof
VIN
tp888
a(Vthe
VDT
tp889
a(Vtreaties
VNNS
tp890
a(Vand
VCC
tp891
a(Vof
VIN
tp892
a(Veverything
VNN
tp893
a(Vit
VPRP
tp894
a(Vhas
VVBZ
tp895
a(Vpresented
VVBN
tp896
a(Vin
VIN
tp897
a(Vdirectives
VNNS
tp898
a(V.
V.
tp899
aa(lp900
(VPeople
VNNS
tp901
a(Vwill
VMD
tp902
a(Vsay
VVB
tp903
a(Vto
VTO
tp904
a(Vme
VPRP
tp905
a(V:
V:
tp906
a(VWell
VUH
tp907
a(V,
V,
tp908
a(Vyes
VUH
tp909
a(V,
V,
tp910
a(Vyou
VPRP
tp911
a(Vwere
VVBD
tp912
a(Vfirst
VRB
tp913
a(V.
V.
tp914
aa(lp915
(VAll
VPDT
tp916
a(Vthis
VDT
tp917
a(Vis
VVBZ
tp918
a(Vnow
VRB
tp919
a(Vat
VIN
tp920
a(Vrisk
VNN
tp921
a(Vif
VIN
tp922
a(Vchildren
VNNS
tp923
a(V&apos;s
VNNS
tp924
a(Vprogrammes
VNNS
tp925
a(Vare
VVBP
tp926
a(Vdenied
VVBN
tp927
a(Vfunding
VNN
tp928
a(V.
V.
tp929
aa(lp930
(VWe
VPRP
tp931
a(Vare
VVBP
tp932
a(Vbeing
VVBG
tp933
a(Vtold
VVBD
tp934
a(V&apos;
VJJ
tp935
a(VYes
VUH
tp936
a(V,
V,
tp937
a(Vit
VPRP
tp938
a(V&apos;s
VVBZ
tp939
a(Va
VDT
tp940
a(Vgood
VJJ
tp941
a(Videa
VNN
tp942
a(V,
V,
tp943
a(Vbut
VCC
tp944
a(Vwe
VPRP
tp945
a(Vneed
VVBP
tp946
a(Vto
VTO
tp947
a(Vwait
VVB
tp948
a(Va
VDT
tp949
a(Vlittle
VJJ
tp950
a(Vwhile
VIN
tp951
a(Vlonger.&apos;
VNN
tp952
aa(lp953
(VThis
VDT
tp954
a(Vall
VDT
tp955
a(Vgoes
VVBZ
tp956
a(Vto
VTO
tp957
a(Vshow
VVB
tp958
a(Vthat
VIN
tp959
a(Vin
VIN
tp960
a(Vthe
VDT
tp961
a(Vyears
VNNS
tp962
a(Vto
VTO
tp963
a(Vcome
VVB
tp964
a(Vhundreds
VNNS
tp965
a(Vof
VIN
tp966
a(Vmillions
VNNS
tp967
a(Vof
VIN
tp968
a(Vprivate
VJJ
tp969
a(Vcars
VNNS
tp970
a(Vwill
VMD
tp971
a(Vappear
VVB
tp972
a(Von
VIN
tp973
a(Vthe
VDT
tp974
a(Vroads
VNNS
tp975
a(Vof
VIN
tp976
a(Vthe
VDT
tp977
a(Vemergent
VJJ
tp978
a(Vnations
VNNS
tp979
a(V-
V:
tp980
a(VChina
VNNP
tp981
a(V,
V,
tp982
a(VIndia
VNNP
tp983
a(V,
V,
tp984
a(Vother
VJJ
tp985
a(VAsian
VJJ
tp986
a(Vcountries
VNNS
tp987
a(V,
V,
tp988
a(VSouth
VNNP
tp989
a(VAmerica
VNNP
tp990
a(Vand
VCC
tp991
a(Vthe
VDT
tp992
a(VAfrican
VJJ
tp993
a(Vstates
VNNS
tp994
a(V.
V.
tp995
aa(lp996
(VThe
VDT
tp997
a(VInstitute
VNNP
tp998
a(Vcurrently
VRB
tp999
a(Vhas
VVBZ
tp1000
a(Vjust
VRB
tp1001
a(Va
VDT
tp1002
a(Vdirector
VNN
tp1003
a(Vand
VCC
tp1004
a(Van
VDT
tp1005
a(Vassistant
VNN
tp1006
a(V.
V.
tp1007
aa(lp1008
(VOnly
VRB
tp1009
a(Vone
VCD
tp1010
a(Vmanager
VNN
tp1011
a(Vhas
VVBZ
tp1012
a(Vparticipated
VVBN
tp1013
a(Vin
VIN
tp1014
a(Vgender
VNN
tp1015
a(Vtraining
VNN
tp1016
a(V,
V,
tp1017
a(Vand
VCC
tp1018
a(Vfor
VIN
tp1019
a(Vhalf
VPDT
tp1020
a(Va
VDT
tp1021
a(Vday
VNN
tp1022
a(V.
V.
tp1023
aa(lp1024
(VWe
VPRP
tp1025
a(Vare
VVBP
tp1026
a(Vsupporters
VNNS
tp1027
a(Vof
VIN
tp1028
a(Vthis
VDT
tp1029
a(Vform
VNN
tp1030
a(Vof
VIN
tp1031
a(Vvetting
VNN
tp1032
a(Vof
VIN
tp1033
a(Vthe
VDT
tp1034
a(VMembers
VNNS
tp1035
a(Vof
VIN
tp1036
a(Vthe
VDT
tp1037
a(VCommission
VNNP
tp1038
a(Vbefore
VIN
tp1039
a(Vthey
VPRP
tp1040
a(Vtake
VVBP
tp1041
a(Voffice
VNN
tp1042
a(V,
V,
tp1043
a(Vbut
VCC
tp1044
a(Vwe
VPRP
tp1045
a(Vdo
VVBP
tp1046
a(Vnot
VRB
tp1047
a(Vthink
VVB
tp1048
a(Vthat
VIN
tp1049
a(Vpeople
VNNS
tp1050
a(Vshould
VMD
tp1051
a(Vonly
VRB
tp1052
a(Vbe
VVB
tp1053
a(Veligible
VJJ
tp1054
a(Vfor
VIN
tp1055
a(Va
VDT
tp1056
a(Vpost
VNN
tp1057
a(Vin
VIN
tp1058
a(Vthe
VDT
tp1059
a(VCommission
VNNP
tp1060
a(Vif
VIN
tp1061
a(Vthey
VPRP
tp1062
a(Vare
VVBP
tp1063
a(Vcurrent
VJJ
tp1064
a(Vor
VCC
tp1065
a(Vformer
VJJ
tp1066
a(VMembers
VNNS
tp1067
a(Vof
VIN
tp1068
a(Vthe
VDT
tp1069
a(VEuropean
VNNP
tp1070
a(VParliament
VNNP
tp1071
a(V.
V.
tp1072
aa(lp1073
(VOne
VCD
tp1074
a(Vcontroversial
VJJ
tp1075
a(Vpoint
VNN
tp1076
a(Vremains
VVBZ
tp1077
a(V:
V:
tp1078
a(Vthe
VDT
tp1079
a(VEuropean
VJJ
tp1080
a(Vpatent
VNN
tp1081
a(V.
V.
tp1082
aa(lp1083
(VThe
VDT
tp1084
a(VEuropean
VNNP
tp1085
a(VParliament
VNNP
tp1086
a(Vis
VVBZ
tp1087
a(Vconvinced
VVBN
tp1088
a(Vthat
VIN
tp1089
a(VSyria
VNNP
tp1090
a(Vcan
VMD
tp1091
a(Vplay
VVB
tp1092
a(Va
VDT
tp1093
a(Vpositive
VJJ
tp1094
a(Vrole
VNN
tp1095
a(Vin
VIN
tp1096
a(Vthe
VDT
tp1097
a(VMiddle
VNNP
tp1098
a(VEast
VNNP
tp1099
a(V,
V,
tp1100
a(Vand
VCC
tp1101
a(Vparticularly
VRB
tp1102
a(Vin
VIN
tp1103
a(Vthe
VDT
tp1104
a(VMediterranean
VNNP
tp1105
a(VUnion
VNNP
tp1106
a(V.
V.
tp1107
aa(lp1108
(VThat
VDT
tp1109
a(Vwould
VMD
tp1110
a(Vmean
VVB
tp1111
a(V,
V,
tp1112
a(Vwith
VIN
tp1113
a(Vregard
VNN
tp1114
a(Vto
VTO
tp1115
a(Vmaritime
VVB
tp1116
a(Vsafety
VNN
tp1117
a(V,
V,
tp1118
a(Vthat
VIN
tp1119
a(Vwe
VPRP
tp1120
a(Vshould
VMD
tp1121
a(Vcontinue
VVB
tp1122
a(Vin
VIN
tp1123
a(Vthe
VDT
tp1124
a(Vdirection
VNN
tp1125
a(Vyou
VPRP
tp1126
a(Vhave
VVBP
tp1127
a(Vtaken
VVBN
tp1128
a(V,
V,
tp1129
a(Vwhich
VWDT
tp1130
a(VI
VPRP
tp1131
a(Vbelieve
VVBP
tp1132
a(Vto
VTO
tp1133
a(Vbe
VVB
tp1134
a(Vthe
VDT
tp1135
a(Vright
VJJ
tp1136
a(Vone
VCD
tp1137
a(V.
V.
tp1138
aa(lp1139
(VParliament
VNNP
tp1140
a(V&apos;s
VVBZ
tp1141
a(Vreport
VNN
tp1142
a(V,
V,
tp1143
a(Vlike
VIN
tp1144
a(Vthat
VDT
tp1145
a(Vof
VIN
tp1146
a(Vthe
VDT
tp1147
a(VEuropean
VNNP
tp1148
a(VTrade
VNNP
tp1149
a(VUnion
VNNP
tp1150
a(VConfederation
VNNP
tp1151
a(V,
V,
tp1152
a(Vdraws
VVBZ
tp1153
a(Vattention
VNN
tp1154
a(Vto
VTO
tp1155
a(Vthis
VDT
tp1156
a(Vpoint
VNN
tp1157
a(V.
V.
tp1158
aa(lp1159
(VThe
VDT
tp1160
a(VEuropean
VJJ
tp1161
a(Vfleet
VNN
tp1162
a(Vin
VIN
tp1163
a(Vthe
VDT
tp1164
a(VCanary-Saharan
VNNP
tp1165
a(VBanks
VNNP
tp1166
a(Vhas
VVBZ
tp1167
a(Vnot
VRB
tp1168
a(Vtaken
VVBN
tp1169
a(Vto
VTO
tp1170
a(Vsea
VNN
tp1171
a(Vfor
VIN
tp1172
a(Va
VDT
tp1173
a(Vyear
VNN
tp1174
a(Vnow
VRB
tp1175
a(Vand
VCC
tp1176
a(Vthousands
VNNS
tp1177
a(Vof
VIN
tp1178
a(Vworkers
VNNS
tp1179
a(Vare
VVBP
tp1180
a(Vgrounded
VVBN
tp1181
a(V.
V.
tp1182
aa(lp1183
(V&apos;Let
VVB
tp1184
a(Vus
VPRP
tp1185
a(Vshare
VVB
tp1186
a(Vthem
VPRP
tp1187
a(Vout
VRP
tp1188
a(Vfairly
VRB
tp1189
a(V,
V,
tp1190
a(V&apos;
VNN
tp1191
a(Vsaid
VVBD
tp1192
a(Vthe
VDT
tp1193
a(Volder
VJJR
tp1194
a(Vbrother
VNN
tp1195
a(V,
V,
tp1196
a(Vto
VTO
tp1197
a(Vwhich
VWDT
tp1198
a(Vthe
VDT
tp1199
a(Vyounger
VJJR
tp1200
a(Vone
VCD
tp1201
a(Vreplied
VVBD
tp1202
a(V,
V,
tp1203
a(V&apos;
VIN
tp1204
a(VI
VPRP
tp1205
a(Vwould
VMD
tp1206
a(Vrather
VRB
tp1207
a(Vwe
VPRP
tp1208
a(Vshared
VVBD
tp1209
a(Vthem
VPRP
tp1210
a(Vequally.&apos;
VNN
tp1211
aa(lp1212
(VPlayers
VNNS
tp1213
a(Vin
VIN
tp1214
a(VEuropean
VJJ
tp1215
a(Vagriculture
VNN
tp1216
a(Vhave
VVBP
tp1217
a(Vdemonstrated
VVBN
tp1218
a(Vthat
VIN
tp1219
a(Vthey
VPRP
tp1220
a(Vare
VVBP
tp1221
a(Vamenable
VJJ
tp1222
a(Vto
VTO
tp1223
a(Vreform
VNN
tp1224
a(V.
V.
tp1225
aa(lp1226
(VAlthough
VIN
tp1227
a(Vto
VTO
tp1228
a(Vbe
VVB
tp1229
a(Vdeplored
VVBN
tp1230
a(V,
V,
tp1231
a(Vdiscriminatory
VJJ
tp1232
a(Vcomments
VNNS
tp1233
a(Vdo
VVBP
tp1234
a(Vnot
VRB
tp1235
a(Vnecessarily
VRB
tp1236
a(Vfuel
VVB
tp1237
a(V&apos;
VNN
tp1238
a(Vhatred
VNN
tp1239
a(Vand
VCC
tp1240
a(Vviolence
VNN
tp1241
a(V&apos;
VNN
tp1242
a(V.
V.
tp1243
aa(lp1244
(VWe
VPRP
tp1245
a(Vmust
VMD
tp1246
a(Vaim
VVB
tp1247
a(Vfor
VIN
tp1248
a(Vboth
VDT
tp1249
a(Vand
VCC
tp1250
a(Vstatus
VNN
tp1251
a(V.
V.
tp1252
aa(lp1253
(VTo
VTO
tp1254
a(Vsomeone
VNN
tp1255
a(Vlike
VIN
tp1256
a(Vme
VPRP
tp1257
a(V,
V,
tp1258
a(Va
VDT
tp1259
a(Vlayperson
VNN
tp1260
a(Vin
VIN
tp1261
a(Vthe
VDT
tp1262
a(Vfield
VNN
tp1263
a(Vof
VIN
tp1264
a(Vexplosive
VJJ
tp1265
a(Vatmospheres
VNNS
tp1266
a(V,
V,
tp1267
a(Vthis
VDT
tp1268
a(Vcould
VMD
tp1269
a(Vmean
VVB
tp1270
a(Vanything
VNN
tp1271
a(V.
V.
tp1272
aa(lp1273
(VMany
VJJ
tp1274
a(Vquarters
VNNS
tp1275
a(Vpoint
VVBP
tp1276
a(Vto
VTO
tp1277
a(Vthe
VDT
tp1278
a(Vimportant
VJJ
tp1279
a(Vrole
VNN
tp1280
a(Vof
VIN
tp1281
a(Vthe
VDT
tp1282
a(Vmilitary
VJJ
tp1283
a(Vin
VIN
tp1284
a(Vguarding
VVBG
tp1285
a(Vthe
VDT
tp1286
a(Vsecular
VJJ
tp1287
a(VState
VNN
tp1288
a(V.
V.
tp1289
aa(lp1290
(VI
VPRP
tp1291
a(Vwas
VVBD
tp1292
a(Vtrying
VVBG
tp1293
a(Vto
VTO
tp1294
a(Vbe
VVB
tp1295
a(Vgenerous
VJJ
tp1296
a(V,
V,
tp1297
a(Vbut
VCC
tp1298
a(Vthe
VDT
tp1299
a(VRules
VNNS
tp1300
a(Vof
VIN
tp1301
a(VProcedure
VNNP
tp1302
a(Vare
VVBP
tp1303
a(Vclear
VJJ
tp1304
a(V.
V.
tp1305
aa(lp1306
(VBut
VCC
tp1307
a(V&apos;
VJJ
tp1308
a(Vdomestic
VJJ
tp1309
a(Vaction
VNN
tp1310
a(V&apos;
VNN
tp1311
a(Vis
VVBZ
tp1312
a(Vnot
VRB
tp1313
a(Venough
VRB
tp1314
a(V.
V.
tp1315
aa(lp1316
(VOne-sided
VJJ
tp1317
a(Vpressure
VNN
tp1318
a(VI
VPRP
tp1319
a(Vregard
VVBP
tp1320
a(Vas
VIN
tp1321
a(Vunfair
VJJ
tp1322
a(V,
V,
tp1323
a(Vfor
VIN
tp1324
a(V,
V,
tp1325
a(Vat
VIN
tp1326
a(Vthe
VDT
tp1327
a(Vend
VNN
tp1328
a(Vof
VIN
tp1329
a(Vthe
VDT
tp1330
a(Vday
VNN
tp1331
a(V,
V,
tp1332
a(Vthis
VDT
tp1333
a(Vis
VVBZ
tp1334
a(Vabout
VIN
tp1335
a(Va
VDT
tp1336
a(Vpart
VNN
tp1337
a(Vof
VIN
tp1338
a(Va
VDT
tp1339
a(Vnation
VNN
tp1340
a(V\u2013
VVBD
tp1341
a(Vthe
VDT
tp1342
a(VTurkish
VJJ
tp1343
a(VCypriots
VNNS
tp1344
a(V\u2013
VVBP
tp1345
a(Vwho
VWP
tp1346
a(Vreally
VRB
tp1347
a(Vhave
VVBP
tp1348
a(Vlost
VVBN
tp1349
a(Vout
VRP
tp1350
a(V,
V,
tp1351
a(Vwho
VWP
tp1352
a(Vhave
VVBP
tp1353
a(Vnot
VRB
tp1354
a(Vmanaged
VVBN
tp1355
a(Vto
VTO
tp1356
a(Vobtain
VVB
tp1357
a(Vwhat
VWP
tp1358
a(Vis
VVBZ
tp1359
a(Vrightfully
VRB
tp1360
a(Vtheirs
VJJ
tp1361
a(V.
V.
tp1362
aa(lp1363
(VI
VPRP
tp1364
a(Vbelieve
VVBP
tp1365
a(Vthe
VDT
tp1366
a(Vposition
VNN
tp1367
a(Vproposed
VVBN
tp1368
a(Vin
VIN
tp1369
a(Vthis
VDT
tp1370
a(Vresolution
VNN
tp1371
a(Vmeets
VVBZ
tp1372
a(Vthose
VDT
tp1373
a(Vcriteria
VNNS
tp1374
a(V.
V.
tp1375
aa(lp1376
(VWe
VPRP
tp1377
a(Vare
VVBP
tp1378
a(Vhelping
VVBG
tp1379
a(Vto
VTO
tp1380
a(Vbuild
VVB
tp1381
a(Va
VDT
tp1382
a(Vhealthy
VJJ
tp1383
a(V,
V,
tp1384
a(Vharmonious
VJJ
tp1385
a(Vsociety
VNN
tp1386
a(V.
V.
tp1387
aa(lp1388
(VWhen
VWRB
tp1389
a(VI
VPRP
tp1390
a(Vsee
VVBP
tp1391
a(V,
V,
tp1392
a(Vtoo
VRB
tp1393
a(V,
V,
tp1394
a(Vthat
VIN
tp1395
a(Vthere
VEX
tp1396
a(Vare
VVBP
tp1397
a(Vmoves
VNNS
tp1398
a(Vto
VTO
tp1399
a(Vban
VVB
tp1400
a(Vthe
VDT
tp1401
a(Vgoverning
VVBG
tp1402
a(Vparty
VNN
tp1403
a(V,
V,
tp1404
a(Vjust
VRB
tp1405
a(Vlike
VIN
tp1406
a(Vthat
VDT
tp1407
a(V,
V,
tp1408
a(Vand
VCC
tp1409
a(Vthen
VRB
tp1410
a(Va
VDT
tp1411
a(Vcouple
VNN
tp1412
a(Vof
VIN
tp1413
a(Vweeks
VNNS
tp1414
a(Vlater
VRB
tp1415
a(V,
V,
tp1416
a(Vit
VPRP
tp1417
a(Vstarts
VVBZ
tp1418
a(Vup
VRP
tp1419
a(Vagain
VRB
tp1420
a(Vunder
VIN
tp1421
a(Va
VDT
tp1422
a(Vdifferent
VJJ
tp1423
a(Vname
VNN
tp1424
a(Vwithout
VIN
tp1425
a(Vcertain
VJJ
tp1426
a(Vpersons
VNNS
tp1427
a(Vwho
VWP
tp1428
a(Vare
VVBP
tp1429
a(Vno
VRB
tp1430
a(Vlonger
VRB
tp1431
a(Vwelcome
VVB
tp1432
a(Vin
VIN
tp1433
a(Vpolitics
VNNS
tp1434
a(V,
V,
tp1435
a(Vthen
VRB
tp1436
a(Vthis
VDT
tp1437
a(Vmeans
VVBZ
tp1438
a(Vthat
VIN
tp1439
a(V...
V:
tp1440
aa(lp1441
(VWe
VPRP
tp1442
a(Vbelieve
VVBP
tp1443
a(Vit
VPRP
tp1444
a(Vis
VVBZ
tp1445
a(Vessential
VJJ
tp1446
a(Vthat
VIN
tp1447
a(Vwe
VPRP
tp1448
a(Valso
VRB
tp1449
a(Vhighlight
VVBP
tp1450
a(Vthe
VDT
tp1451
a(Vcase
VNN
tp1452
a(Vof
VIN
tp1453
a(Vrural
VJJ
tp1454
a(Vareas
VNNS
tp1455
a(Vand
VCC
tp1456
a(Vareas
VNNS
tp1457
a(Vdependent
VJJ
tp1458
a(Von
VIN
tp1459
a(Vfishing
VNN
tp1460
a(V.
V.
tp1461
aa(lp1462
(VHowever
VRB
tp1463
a(V,
V,
tp1464
a(Vthere
VEX
tp1465
a(Vis
VVBZ
tp1466
a(Va
VDT
tp1467
a(Vcaveat
VNN
tp1468
a(V;
V:
tp1469
a(Vit
VPRP
tp1470
a(Vis
VVBZ
tp1471
a(Vcontained
VVBN
tp1472
a(Vat
VIN
tp1473
a(Vthe
VDT
tp1474
a(Vend
VNN
tp1475
a(Vof
VIN
tp1476
a(Vthe
VDT
tp1477
a(Vexplanatory
VJJ
tp1478
a(Vstatement
VNN
tp1479
a(Vto
VTO
tp1480
a(Vmy
VPRP$
tp1481
a(Vreport
VNN
tp1482
a(Vand
VCC
tp1483
a(Vset
VVBN
tp1484
a(Vout
VRP
tp1485
a(Vin
VIN
tp1486
a(Vmore
VJJR
tp1487
a(Vdetail
VNN
tp1488
a(Vin
VIN
tp1489
a(Vour
VPRP$
tp1490
a(Vchairman
VNN
tp1491
a(V\u2019
VCD
tp1492
a(Vs
VNNS
tp1493
a(Vmotion
VNN
tp1494
a(Vfor
VIN
tp1495
a(Va
VDT
tp1496
a(Vresolution
VNN
tp1497
a(V.
V.
tp1498
aa(lp1499
(VAnd
VCC
tp1500
a(Vby
VIN
tp1501
a(Vwhom
VWP
tp1502
a(V?
V.
tp1503
aa(lp1504
(VIt
VPRP
tp1505
a(Vis
VVBZ
tp1506
a(Vincomprehensible
VNN
tp1507
a(Vthat
VIN
tp1508
a(VPrime
VNNP
tp1509
a(VMinister
VNNP
tp1510
a(VNetanyahu
VNNP
tp1511
a(Vhas
VVBZ
tp1512
a(Vrefused
VVBN
tp1513
a(Vappeals
VNNS
tp1514
a(Vfrom
VIN
tp1515
a(Vall
VDT
tp1516
a(Vof
VIN
tp1517
a(VIsrael
VNNP
tp1518
a(V&apos;s
VNNS
tp1519
a(Vallies
VNNS
tp1520
a(Vto
VTO
tp1521
a(Vstop
VVB
tp1522
a(Vthe
VDT
tp1523
a(Vsettlements
VNNS
tp1524
a(V.
V.
tp1525
a(VSimply
VRB
tp1526
a(Vto
VTO
tp1527
a(Vstop
VVB
tp1528
a(Vthem
VPRP
tp1529
a(V.
V.
tp1530
aa(lp1531
(VThis
VDT
tp1532
a(Vissue
VNN
tp1533
a(Vof
VIN
tp1534
a(Vthe
VDT
tp1535
a(VGreek
VJJ
tp1536
a(Vaccounts
VNNS
tp1537
a(Vwas
VVBD
tp1538
a(Vaddressed
VVBN
tp1539
a(Vseveral
VJJ
tp1540
a(Vtimes
VNNS
tp1541
a(Vin
VIN
tp1542
a(Veuro
VNN
tp1543
a(Varea
VNN
tp1544
a(Vmeetings
VNNS
tp1545
a(V.
V.
tp1546
aa(lp1547
(VThere
VEX
tp1548
a(Vare
VVBP
tp1549
a(Vtwo
VCD
tp1550
a(Vconflicting
VJJ
tp1551
a(Vtheories
VNNS
tp1552
a(V,
V,
tp1553
a(Vtherefore
VRB
tp1554
a(V:
V:
tp1555
aa(lp1556
(VIf
VIN
tp1557
a(Vthe
VDT
tp1558
a(VState
VNN
tp1559
a(Vin
VIN
tp1560
a(Vquestion
VNN
tp1561
a(Vis
VVBZ
tp1562
a(Va
VDT
tp1563
a(Vvery
VRB
tp1564
a(Vminor
VJJ
tp1565
a(Vone
VCD
tp1566
a(V,
V,
tp1567
a(Vit
VPRP
tp1568
a(Vis
VVBZ
tp1569
a(Vquickly
VRB
tp1570
a(Vcondemned
VVBN
tp1571
a(V.
V.
tp1572
aa(lp1573
(VIt
VPRP
tp1574
a(Vdirectly
VRB
tp1575
a(Vinfluences
VVBZ
tp1576
a(Vtrade
VNN
tp1577
a(Vthrough
VIN
tp1578
a(Vsupply
VNN
tp1579
a(V,
V,
tp1580
a(Vwhich
VWDT
tp1581
a(Vit
VPRP
tp1582
a(Vrestricts
VVBZ
tp1583
a(V.
V.
tp1584
aa(lp1585
(VIf
VIN
tp1586
a(Vthere
VEX
tp1587
a(Vwere
VVBD
tp1588
a(Vonly
VRB
tp1589
a(V100
VCD
tp1590
a(Vpeople
VNNS
tp1591
a(Vliving
VVBG
tp1592
a(Von
VIN
tp1593
a(Vthis
VDT
tp1594
a(Vearth
VNN
tp1595
a(V,
V,
tp1596
a(V15
VCD
tp1597
a(Vwould
VMD
tp1598
a(Vbe
VVB
tp1599
a(Villiterate
VJJ
tp1600
a(V.
V.
tp1601
aa(lp1602
(VEnterprises
VNNPS
tp1603
a(Vare
VVBP
tp1604
a(Vnot
VRB
tp1605
a(Van
VDT
tp1606
a(Vabstract
VJJ
tp1607
a(Vconcept
VNN
tp1608
a(V,
V,
tp1609
a(Vand
VCC
tp1610
a(Vgetting
VVBG
tp1611
a(Vinvolved
VJJ
tp1612
a(Vmeans
VNNS
tp1613
a(Vmaking
VVBG
tp1614
a(Vfreedom
VNN
tp1615
a(Va
VDT
tp1616
a(Vreality
VNN
tp1617
a(V.
V.
tp1618
aa(lp1619
(VThis
VDT
tp1620
a(Vbegs
VVBZ
tp1621
a(Vthe
VDT
tp1622
a(Vquestion
VNN
tp1623
a(V:
V:
tp1624
a(Vwhy
VWRB
tp1625
a(V?
V.
tp1626
aa(lp1627
(VIn
VIN
tp1628
a(Vthe
VDT
tp1629
a(Vold
VJJ
tp1630
a(Vsociety
VNN
tp1631
a(Vpower
VNN
tp1632
a(Vwas
VVBD
tp1633
a(Vunequally
VRB
tp1634
a(Vdivided
VVBN
tp1635
a(Vbetween
VIN
tp1636
a(Vthose
VDT
tp1637
a(Vwho
VWP
tp1638
a(Vhad
VVBD
tp1639
a(Vaccess
VNN
tp1640
a(Vto
VTO
tp1641
a(Vmoney
VNN
tp1642
a(Vand
VCC
tp1643
a(Vthose
VDT
tp1644
a(Vwho
VWP
tp1645
a(Vdid
VVBD
tp1646
a(Vnot
VRB
tp1647
a(V.
V.
tp1648
aa(lp1649
(VIt
VPRP
tp1650
a(Vis
VVBZ
tp1651
a(Vinevitable
VJJ
tp1652
a(Vthat
VIN
tp1653
a(Vwe
VPRP
tp1654
a(Vcannot
VVBP
tp1655
a(Vall
VDT
tp1656
a(Vbe
VVB
tp1657
a(Vcompletely
VRB
tp1658
a(Vsatisfied
VVBN
tp1659
a(Vwith
VIN
tp1660
a(Vwhat
VWP
tp1661
a(Vemerged
VVBD
tp1662
a(Vfrom
VIN
tp1663
a(Vthe
VDT
tp1664
a(Vnegotiations
VNNS
tp1665
a(V,
V,
tp1666
a(Vbut
VCC
tp1667
a(VI
VPRP
tp1668
a(Vcan
VMD
tp1669
a(Voffer
VVB
tp1670
a(Vyou
VPRP
tp1671
a(Vsome
VDT
tp1672
a(Vconsolation
VNN
tp1673
a(V.
V.
tp1674
aa(lp1675
(VI
VPRP
tp1676
a(Vshould
VMD
tp1677
a(Vnot
VRB
tp1678
a(Vlike
VVB
tp1679
a(Vto
VTO
tp1680
a(Vbe
VVB
tp1681
a(Va
VDT
tp1682
a(Vparty
VNN
tp1683
a(Vto
VTO
tp1684
a(Vthat
VDT
tp1685
a(V,
V,
tp1686
a(Vand
VCC
tp1687
a(VI
VPRP
tp1688
a(Vam
VVBP
tp1689
a(Vglad
VJJ
tp1690
a(Vthat
VIN
tp1691
a(Vmany
VJJ
tp1692
a(Vof
VIN
tp1693
a(Vthose
VDT
tp1694
a(Vpresent
VJJ
tp1695
a(Vin
VIN
tp1696
a(Vthe
VDT
tp1697
a(VHouse
VNNP
tp1698
a(Vtoday
VNN
tp1699
a(Vhave
VVBP
tp1700
a(Vsaid
VVBD
tp1701
a(Vthe
VDT
tp1702
a(Vsame
VJJ
tp1703
a(Vthing
VNN
tp1704
a(V.
V.
tp1705
aa(lp1706
(VFourthly
VRB
tp1707
a(V,
V,
tp1708
a(VGovernor
VNN
tp1709
a(VRyan
VNNP
tp1710
a(Vof
VIN
tp1711
a(VIllinois
VNNP
tp1712
a(V,
V,
tp1713
a(Vas
VIN
tp1714
a(Vwe
VPRP
tp1715
a(Vhave
VVBP
tp1716
a(Vheard
VVBN
tp1717
a(Valready
VRB
tp1718
a(V,
V,
tp1719
a(Vhas
VVBZ
tp1720
a(Vimposed
VVBN
tp1721
a(Va
VDT
tp1722
a(Vmoratorium
VNN
tp1723
a(Von
VIN
tp1724
a(Vthe
VDT
tp1725
a(Vdeath
VNN
tp1726
a(Vsentence
VNN
tp1727
a(Vin
VIN
tp1728
a(Vhis
VPRP$
tp1729
a(Vstate
VNN
tp1730
a(Vbecause
VIN
tp1731
a(Vof
VIN
tp1732
a(Vits
VPRP$
tp1733
a(Vappalling
VJJ
tp1734
a(Vrecord
VNN
tp1735
a(Vof
VIN
tp1736
a(Vwrongful
VJJ
tp1737
a(Vconvictions
VNNS
tp1738
a(V.
V.
tp1739
aa(lp1740
(VTo
VTO
tp1741
a(Vsay
VVB
tp1742
a(Votherwise
VRB
tp1743
a(Vwould
VMD
tp1744
a(Vbe
VVB
tp1745
a(Vto
VTO
tp1746
a(Vlie
VVB
tp1747
a(V.
V.
tp1748
aa(lp1749
(VI
VPRP
tp1750
a(Vshall
VMD
tp1751
a(Vtherefore
VRB
tp1752
a(Vnot
VRB
tp1753
a(Vgo
VVB
tp1754
a(Vinto
VIN
tp1755
a(Vthe
VDT
tp1756
a(Vmatter
VNN
tp1757
a(Vin
VIN
tp1758
a(Vany
VDT
tp1759
a(Vfurther
VJJ
tp1760
a(Vdetail
VNN
tp1761
a(V,
V,
tp1762
a(Vbut
VCC
tp1763
a(Vwill
VMD
tp1764
a(Vuse
VVB
tp1765
a(Vmy
VPRP$
tp1766
a(Vtwo
VCD
tp1767
a(Vminutes
VNNS
tp1768
a(Vto
VTO
tp1769
a(Vgive
VVB
tp1770
a(Vmy
VPRP$
tp1771
a(Vviews
VNNS
tp1772
a(Von
VIN
tp1773
a(Vset
VNN
tp1774
a(Vaside
VRB
tp1775
a(Vas
VIN
tp1776
a(Va
VDT
tp1777
a(Vwhole
VNN
tp1778
a(V.
V.
tp1779
aa(lp1780
(VThis
VDT
tp1781
a(Vall-Ireland
VJJ
tp1782
a(Vteam
VNN
tp1783
a(Vwon
VVBD
tp1784
a(Vthe
VDT
tp1785
a(VSix
VCD
tp1786
a(VNations
VNNS
tp1787
a(V-
V:
tp1788
a(Vthe
VDT
tp1789
a(VGrand
VNNP
tp1790
a(VSlam
VNNP
tp1791
a(V.
V.
tp1792
aa(lp1793
(VMost
VJJS
tp1794
a(Vparents
VNNS
tp1795
a(Vdo
VVBP
tp1796
a(Vnot
VRB
tp1797
a(Vknow
VVB
tp1798
a(Vthat
VIN
tp1799
a(Vfilters
VNNS
tp1800
a(Vexist
VVBP
tp1801
a(Vand
VCC
tp1802
a(Vthat
VIN
tp1803
a(Vthey
VPRP
tp1804
a(Vhave
VVBP
tp1805
a(Vthe
VDT
tp1806
a(Vpossibility
VNN
tp1807
a(Vto
VTO
tp1808
a(Vuse
VVB
tp1809
a(Vthese
VDT
tp1810
a(Vfilters
VNNS
tp1811
a(V.
V.
tp1812
aa(lp1813
(VWe
VPRP
tp1814
a(Vmust
VMD
tp1815
a(Vtherefore
VRB
tp1816
a(Vexercise
VVB
tp1817
a(Vgreater
VJJR
tp1818
a(Vstringency
VNN
tp1819
a(Vin
VIN
tp1820
a(Vconnection
VNN
tp1821
a(Vwith
VIN
tp1822
a(Vthe
VDT
tp1823
a(Vau
VNN
tp1824
a(Vpair
VNN
tp1825
a(Vscheme
VNN
tp1826
a(V.
V.
tp1827
aa(lp1828
(VWhat
VWP
tp1829
a(Vis
VVBZ
tp1830
a(Vimportant
VJJ
tp1831
a(Vfor
VIN
tp1832
a(Vthe
VDT
tp1833
a(Vallocation
VNN
tp1834
a(Vof
VIN
tp1835
a(Vloans
VNNS
tp1836
a(Vis
VVBZ
tp1837
a(Vthe
VDT
tp1838
a(Vmatter
VNN
tp1839
a(Vof
VIN
tp1840
a(Vcash
VNN
tp1841
a(Vflow
VNN
tp1842
a(V.
V.
tp1843
aa(lp1844
(VIt
VPRP
tp1845
a(Vsays
VVBZ
tp1846
a(Vthat
VIN
tp1847
a(Vthe
VDT
tp1848
a(Veuro
VNN
tp1849
a(V&apos;s
VNNS
tp1850
a(Vcreation
VNN
tp1851
a(Vhas
VVBZ
tp1852
a(Vnot
VRB
tp1853
a(Vproduced
VVBN
tp1854
a(Vthe
VDT
tp1855
a(Vknock-on
VJJ
tp1856
a(Vbenefits
VNNS
tp1857
a(Vexpected
VVBN
tp1858
a(V.
V.
tp1859
aa(lp1860
(VPeople
VNNS
tp1861
a(Vpay
VVBP
tp1862
a(Vthe
VDT
tp1863
a(Vmanufacturer
VNN
tp1864
a(Vfor
VIN
tp1865
a(Vthese
VDT
tp1866
a(Vappliances
VNNS
tp1867
a(Vof
VIN
tp1868
a(Vcourse
VNN
tp1869
a(V,
V,
tp1870
a(Vbut
VCC
tp1871
a(Vthey
VPRP
tp1872
a(Vwould
VMD
tp1873
a(Vrather
VRB
tp1874
a(Vnot
VRB
tp1875
a(Vhave
VVB
tp1876
a(Vto
VTO
tp1877
a(Vpay
VVB
tp1878
a(Vthose
VDT
tp1879
a(Vwhose
VWP$
tp1880
a(Vwork
VNN
tp1881
a(Vthey
VPRP
tp1882
a(Vare
VVBP
tp1883
a(Vappropriating
VVBG
tp1884
a(Vin
VIN
tp1885
a(Vthe
VDT
tp1886
a(Vprocess
VNN
tp1887
a(V.
V.
tp1888
aa(lp1889
(VIt
VPRP
tp1890
a(Vis
VVBZ
tp1891
a(Vhigh
VJJ
tp1892
a(Vtime
VNN
tp1893
a(V,
V,
tp1894
a(V21
VCD
tp1895
a(Vyears
VNNS
tp1896
a(Vafter
VIN
tp1897
a(Vthe
VDT
tp1898
a(Vreunification
VNN
tp1899
a(Vof
VIN
tp1900
a(VEurope
VNNP
tp1901
a(V,
V,
tp1902
a(Vto
VTO
tp1903
a(Vput
VVB
tp1904
a(Van
VDT
tp1905
a(Vend
VNN
tp1906
a(Vto
VTO
tp1907
a(Vvisas
VNNS
tp1908
a(Vfor
VIN
tp1909
a(Vinhabitants
VNNS
tp1910
a(Vof
VIN
tp1911
a(VEurope
VNNP
tp1912
a(Vwho
VWP
tp1913
a(Vwould
VMD
tp1914
a(Vlike
VVB
tp1915
a(Vto
VTO
tp1916
a(Vtravel
VVB
tp1917
a(Vwithin
VIN
tp1918
a(Vthe
VDT
tp1919
a(VEU
VNNP
tp1920
a(V.
V.
tp1921
aa(lp1922
(VYou
VPRP
tp1923
a(Vsaid
VVBD
tp1924
a(V,
V,
tp1925
a(Vregarding
VVBG
tp1926
a(Vemployment
VNN
tp1927
a(V,
V,
tp1928
a(Vthat
VIN
tp1929
a(Vsome
VDT
tp1930
a(VMember
VNNP
tp1931
a(VStates
VNNPS
tp1932
a(Vdid
VVBD
tp1933
a(Vnot
VRB
tp1934
a(Vattend
VVB
tp1935
a(Vthe
VDT
tp1936
a(VPrague
VNNP
tp1937
a(VSummit
VNNP
tp1938
a(V.
V.
tp1939
aa(lp1940
(VNaturally
VRB
tp1941
a(V,
V,
tp1942
a(Vall
VPDT
tp1943
a(Vthis
VDT
tp1944
a(Vwill
VMD
tp1945
a(Vrequire
VVB
tp1946
a(Vadequate
VJJ
tp1947
a(Vfinancial
VJJ
tp1948
a(Vresources
VNNS
tp1949
a(Vto
VTO
tp1950
a(Vbe
VVB
tp1951
a(Vprovided
VVBN
tp1952
a(V,
V,
tp1953
a(Vwith
VIN
tp1954
a(Va
VDT
tp1955
a(Vview
VNN
tp1956
a(Vto
VTO
tp1957
a(Venabling
VVBG
tp1958
a(Vcoherent
VJJ
tp1959
a(Vaction
VNN
tp1960
a(Vto
VTO
tp1961
a(Vbe
VVB
tp1962
a(Vtaken
VVBN
tp1963
a(Vto
VTO
tp1964
a(Vcombat
VVB
tp1965
a(Vthis
VDT
tp1966
a(Vdisease
VNN
tp1967
a(V.
V.
tp1968
aa(lp1969
(VAs
VIN
tp1970
a(Va
VDT
tp1971
a(Vfarmer
VNN
tp1972
a(V,
V,
tp1973
a(Vthe
VDT
tp1974
a(Vsoil
VNN
tp1975
a(Vis
VVBZ
tp1976
a(Vmy
VPRP$
tp1977
a(Vlife
VNN
tp1978
a(V.
V.
tp1979
aa(lp1980
(VIn
VIN
tp1981
a(V1998
VCD
tp1982
a(Vand
VCC
tp1983
a(V1999
VCD
tp1984
a(VEUR
V$
tp1985
a(V3.8
VCD
tp1986
a(Vmillion
VCD
tp1987
a(Vwas
VVBD
tp1988
a(Vgranted
VVBN
tp1989
a(Vto
VTO
tp1990
a(VKyrgyzstan
VNNP
tp1991
a(Vand
VCC
tp1992
a(VTajikistan
VNNP
tp1993
a(Vreceived
VVBD
tp1994
a(Vover
VIN
tp1995
a(VEUR
V$
tp1996
a(V35
VCD
tp1997
a(Vmillion
VCD
tp1998
a(V,
V,
tp1999
a(Vmainly
VRB
tp2000
a(Vfor
VIN
tp2001
a(Vfood
VNN
tp2002
a(V,
V,
tp2003
a(Vmedical
VJJ
tp2004
a(Vsupplies
VNNS
tp2005
a(V,
V,
tp2006
a(Vwater
VNN
tp2007
a(Vand
VCC
tp2008
a(Vsanitation
VNN
tp2009
a(V.
V.
tp2010
aa(lp2011
(VA
VDT
tp2012
a(Vfurther
VRBR
tp2013
a(V,
V,
tp2014
a(Vimportant
VJJ
tp2015
a(Vmatter
VNN
tp2016
a(Vfor
VIN
tp2017
a(Vrelations
VNNS
tp2018
a(Vbetween
VIN
tp2019
a(Vthe
VDT
tp2020
a(VEuropean
VNNP
tp2021
a(VUnion
VNNP
tp2022
a(Vand
VCC
tp2023
a(VRussia
VNNP
tp2024
a(Vis
VVBZ
tp2025
a(Vthe
VDT
tp2026
a(Vquestion
VNN
tp2027
a(Vof
VIN
tp2028
a(Vthe
VDT
tp2029
a(VEastern
VNNP
tp2030
a(VPartnership
VNNP
tp2031
a(V.
V.
tp2032
aa(lp2033
(VI
VPRP
tp2034
a(Vhope
VVBP
tp2035
a(Vthat
VIN
tp2036
a(Vthese
VDT
tp2037
a(Videas
VNNS
tp2038
a(Vare
VVBP
tp2039
a(Vfollowed
VVBN
tp2040
a(Vup
VRP
tp2041
a(Vand
VCC
tp2042
a(Vthat
VIN
tp2043
a(Vthe
VDT
tp2044
a(Vreport
VNN
tp2045
a(Vdoes
VVBZ
tp2046
a(Vnot
VRB
tp2047
a(Vturn
VVB
tp2048
a(Vout
VRP
tp2049
a(Vto
VTO
tp2050
a(Vhave
VVB
tp2051
a(Vbeen
VVBN
tp2052
a(Va
VDT
tp2053
a(Vmere
VJJ
tp2054
a(Vpaper
VNN
tp2055
a(Vexercise
VNN
tp2056
a(V.
V.
tp2057
aa(lp2058
(VYou
VPRP
tp2059
a(Vmust
VMD
tp2060
a(Vmake
VVB
tp2061
a(Vpeace
VNN
tp2062
a(Vwith
VIN
tp2063
a(Vyour
VPRP$
tp2064
a(Venemy
VNN
tp2065
a(V,
V,
tp2066
a(Vnot
VRB
tp2067
a(Vwith
VIN
tp2068
a(Vyour
VPRP$
tp2069
a(Vfriend
VNN
tp2070
a(V.
V.
tp2071
aa(lp2072
(VA
VDT
tp2073
a(Vgreat
VJJ
tp2074
a(Vdeal
VNN
tp2075
a(Vhas
VVBZ
tp2076
a(Vbeen
VVBN
tp2077
a(Vsaid
VVBN
tp2078
a(Vabout
VIN
tp2079
a(Vprevention
VNN
tp2080
a(V,
V,
tp2081
a(Vprotection
VNN
tp2082
a(Vand
VCC
tp2083
a(Vmaritime
VNN
tp2084
a(Vborders
VNNS
tp2085
a(V,
V,
tp2086
a(Vreferring
VVBG
tp2087
a(Vto
VTO
tp2088
a(Vthe
VDT
tp2089
a(VMediterranean
VNNP
tp2090
a(V.
V.
tp2091
aa(lp2092
(VAlmost
VRB
tp2093
a(Vone
VCD
tp2094
a(Vin
VIN
tp2095
a(V20
VCD
tp2096
a(Vpeople
VNNS
tp2097
a(Vover
VIN
tp2098
a(Vthe
VDT
tp2099
a(Vage
VNN
tp2100
a(Vof
VIN
tp2101
a(V65
VCD
tp2102
a(Vand
VCC
tp2103
a(Vone
VCD
tp2104
a(Vin
VIN
tp2105
a(Vfive
VCD
tp2106
a(Vover
VIN
tp2107
a(V80
VCD
tp2108
a(Vsuffer
VVBP
tp2109
a(Vfrom
VIN
tp2110
a(Vdementia
VNN
tp2111
a(V.
V.
tp2112
aa.