(lp1
(lp2
(VThese
VDT
tp3
a(Vdifficulties
VNNS
tp4
a(Vare
VVBP
tp5
a(Vnot
VRB
tp6
a(Vsurprising
VJJ
tp7
a(V.
V.
tp8
aa(lp9
(VIt
VPRP
tp10
a(Vis
VVBZ
tp11
a(Vthe
VDT
tp12
a(Vfurthest
VJJS
tp13
a(Vpoint
VNN
tp14
a(Vbefore
VIN
tp15
a(Vyou
VPRP
tp16
a(Vgo
VVBP
tp17
a(Vto
VTO
tp18
a(Vthe
VDT
tp19
a(VUnited
VNNP
tp20
a(VStates
VNNPS
tp21
a(V.
V.
tp22
aa(lp23
(VThat
VDT
tp24
a(Vwill
VMD
tp25
a(Vnot
VRB
tp26
a(Vbe
VVB
tp27
a(Vovercomplicating
VVBG
tp28
a(Vthings
VNNS
tp29
a(Vbecause
VIN
tp30
a(Vit
VPRP
tp31
a(Vought
VMD
tp32
a(Vto
VTO
tp33
a(Vbe
VVB
tp34
a(Vthe
VDT
tp35
a(Vnumber
VNN
tp36
a(Vone
VCD
tp37
a(Vinitiative
VNN
tp38
a(V.
V.
tp39
aa(lp40
(VWe
VPRP
tp41
a(Vknow
VVBP
tp42
a(Vthat
VIN
tp43
a(V14
VCD
tp44
a(V%
VNN
tp45
a(Vof
VIN
tp46
a(Vthe
VDT
tp47
a(VMembers
VNNS
tp48
a(Vfrom
VIN
tp49
a(Vthe
VDT
tp50
a(Vnew
VJJ
tp51
a(VMember
VNNP
tp52
a(VStates
VNNPS
tp53
a(Vhere
VRB
tp54
a(Vnow
VRB
tp55
a(Vare
VVBP
tp56
a(Vwomen
VNNS
tp57
a(V.
V.
tp58
aa(lp59
(VThat
VDT
tp60
a(Vis
VVBZ
tp61
a(Vmore
VJJR
tp62
a(Vthan
VIN
tp63
a(Va
VDT
tp64
a(Vquarter
VNN
tp65
a(Vof
VIN
tp66
a(Vall
VDT
tp67
a(VSchengen
VNNP
tp68
a(Vvisas
VNNS
tp69
a(Vissued
VVBD
tp70
a(Vworldwide
VRB
tp71
a(V.
V.
tp72
aa(lp73
(VThe
VDT
tp74
a(VPresidency
VNNP
tp75
a(Vdid
VVBD
tp76
a(Vnot
VRB
tp77
a(Vagree
VVB
tp78
a(Vwith
VIN
tp79
a(Vthese
VDT
tp80
a(Vviews
VNNS
tp81
a(V.
V.
tp82
aa(lp83
(VIn
VIN
tp84
a(V2000
VCD
tp85
a(V,
V,
tp86
a(Vthe
VDT
tp87
a(Vemployment
VNN
tp88
a(Vrate
VNN
tp89
a(Vreached
VVBD
tp90
a(V63.2
VCD
tp91
a(V%
VNN
tp92
a(V.
V.
tp93
aa(lp94
(VIt
VPRP
tp95
a(Vis
VVBZ
tp96
a(Vnot
VRB
tp97
a(Vrocket
VNN
tp98
a(Vscience
VNN
tp99
a(V.
V.
tp100
aa(lp101
(Von
VIN
tp102
a(Vthe
VDT
tp103
a(Vsituation
VNN
tp104
a(Vin
VIN
tp105
a(VIraq
VNNP
tp106
a(V.
V.
tp107
aa(lp108
(VWe
VPRP
tp109
a(Vwelcome
VVBP
tp110
a(Vthe
VDT
tp111
a(Vadoption
VNN
tp112
a(Vof
VIN
tp113
a(Vthe
VDT
tp114
a(VLaw
VNN
tp115
a(Von
VIN
tp116
a(VFoundations
VNNS
tp117
a(V.
V.
tp118
aa(lp119
(VThis
VDT
tp120
a(Vcurrently
VRB
tp121
a(Vremains
VVBZ
tp122
a(Vopen
VJJ
tp123
a(V.
V.
tp124
aa(lp125
(VOver
VIN
tp126
a(Vthirty
VCD
tp127
a(Vyears
VNNS
tp128
a(V!
V.
tp129
aa(lp130
(VI
VPRP
tp131
a(Vthink
VVBP
tp132
a(Vit
VPRP
tp133
a(Vought
VMD
tp134
a(Vto
VTO
tp135
a(Vhave
VVB
tp136
a(Vpacked
VVBN
tp137
a(Vits
VPRP$
tp138
a(Vbags
VNNS
tp139
a(Vimmediately
VRB
tp140
a(V.
V.
tp141
aa(lp142
(VTo
VTO
tp143
a(Vachieve
VVB
tp144
a(Vthis
VDT
tp145
a(Vobjective
VNN
tp146
a(VI
VPRP
tp147
a(Vfeel
VVBP
tp148
a(Vthat
VIN
tp149
a(Vit
VPRP
tp150
a(Vis
VVBZ
tp151
a(Vvery
VRB
tp152
a(Vimportant
VJJ
tp153
a(Vto
VTO
tp154
a(Vestablish
VVB
tp155
a(Vstrict
VJJ
tp156
a(Vcontrols
VNNS
tp157
a(Vand
VCC
tp158
a(Vdetermine
VVB
tp159
a(Vresponsibility
VNN
tp160
a(Vat
VIN
tp161
a(Vall
VDT
tp162
a(Vlevels
VNNS
tp163
a(Vof
VIN
tp164
a(Vmanufacturing
VNN
tp165
a(V,
V,
tp166
a(Vdistribution
VNN
tp167
a(Vand
VCC
tp168
a(Vsales
VNNS
tp169
a(V.
V.
tp170
aa(lp171
(VIn
VIN
tp172
a(Vaddition
VNN
tp173
a(Vto
VTO
tp174
a(Vcooperation
VNN
tp175
a(Vin
VIN
tp176
a(Veconomic
VJJ
tp177
a(V,
V,
tp178
a(Venvironmental
VJJ
tp179
a(Vand
VCC
tp180
a(Vinfrastructure
VNN
tp181
a(Vmatters
VNNS
tp182
a(V,
V,
tp183
a(Vthe
VDT
tp184
a(VUnion
VNNP
tp185
a(Vand
VCC
tp186
a(Vthe
VDT
tp187
a(VBaltic
VJJ
tp188
a(Vstates
VNNS
tp189
a(Vought
VMD
tp190
a(Vto
VTO
tp191
a(Vcooperate
VVB
tp192
a(Vin
VIN
tp193
a(Vthe
VDT
tp194
a(Vfight
VNN
tp195
a(Vagainst
VIN
tp196
a(Vinternational
VJJ
tp197
a(Vcrime
VNN
tp198
a(V.
V.
tp199
aa(lp200
(VThe
VDT
tp201
a(Vauthorities
VNNS
tp202
a(Vare
VVBP
tp203
a(Vsystematically
VRB
tp204
a(Vpersecuting
VVBG
tp205
a(Vopposition
VNN
tp206
a(Vactivists
VNNS
tp207
a(V.
V.
tp208
aa(lp209
(VLadies
VNNP
tp210
a(Vand
VCC
tp211
a(Vgentlemen
VNNS
tp212
a(V,
V,
tp213
a(Vuniversities
VNNS
tp214
a(Vare
VVBP
tp215
a(Vnot
VRB
tp216
a(Vgrocery
VNN
tp217
a(Vstores
VNNS
tp218
a(V.
V.
tp219
aa(lp220
(VAnd
VCC
tp221
a(Vthe
VDT
tp222
a(VChinese
VJJ
tp223
a(Vmust
VMD
tp224
a(Vbe
VVB
tp225
a(Vable
VJJ
tp226
a(Vto
VTO
tp227
a(Vspeak
VVB
tp228
a(Vout
VRP
tp229
a(V.
V.
tp230
aa(lp231
(VControls
VNNP
tp232
a(Vrequire
VVBP
tp233
a(Vrules
VNNS
tp234
a(V,
V,
tp235
a(Vfor
VIN
tp236
a(Vwhich
VWDT
tp237
a(Vthe
VDT
tp238
a(Vconditions
VNNS
tp239
a(Vwere
VVBD
tp240
a(Vcreated
VVBN
tp241
a(Vwhen
VWRB
tp242
a(Vthe
VDT
tp243
a(Vnew
VJJ
tp244
a(Vand
VCC
tp245
a(Vfully
VRB
tp246
a(Vrecast
VVBN
tp247
a(VFinancial
VNNP
tp248
a(VRegulation
VNNP
tp249
a(Ventered
VVBD
tp250
a(Vinto
VIN
tp251
a(Vforce
VNN
tp252
a(Von
VIN
tp253
a(V1
VCD
tp254
a(VJanuary
VNNP
tp255
a(V.
V.
tp256
aa(lp257
(VI
VPRP
tp258
a(Vtherefore
VRB
tp259
a(Vvoted
VVBD
tp260
a(Vagainst
VIN
tp261
a(Vthe
VDT
tp262
a(Vmotion
VNN
tp263
a(Vfor
VIN
tp264
a(Va
VDT
tp265
a(Vresolution
VNN
tp266
a(V.
V.
tp267
aa(lp268
(VThis
VDT
tp269
a(Vis
VVBZ
tp270
a(VTNT
VNNP
tp271
a(V&apos;s
VNNS
tp272
a(Vinterpretation
VNN
tp273
a(V.
V.
tp274
aa(lp275
(VWhere
VWRB
tp276
a(Vare
VVBP
tp277
a(Vtreatments
VNNS
tp278
a(Vbeing
VVBG
tp279
a(Vperformed
VVBN
tp280
a(Vbest
VJJS
tp281
a(V?
V.
tp282
aa(lp283
(VThe
VDT
tp284
a(Vonly
VJJ
tp285
a(Vparallel
VNN
tp286
a(Vto
VTO
tp287
a(Vthe
VDT
tp288
a(Vpractice
VNN
tp289
a(Vof
VIN
tp290
a(V&apos;
VJJ
tp291
a(Vuntouchability
VNN
tp292
a(V&apos;
VNN
tp293
a(Vwas
VVBD
tp294
a(VApartheid
VNN
tp295
a(Vin
VIN
tp296
a(VSouth
VNNP
tp297
a(VAfrica.&apos;
VNNP
tp298
aa(lp299
(VThe
VDT
tp300
a(Vprivate
VJJ
tp301
a(Vremarks
VNNS
tp302
a(Vof
VIN
tp303
a(Vthe
VDT
tp304
a(VBritish
VJJ
tp305
a(VAmbassador
VNNP
tp306
a(Vin
VIN
tp307
a(VTel
VNNP
tp308
a(VAviv
VNNP
tp309
a(Vhave
VVBP
tp310
a(Vbeen
VVBN
tp311
a(Vreported
VVBN
tp312
a(Vin
VIN
tp313
a(Vthe
VDT
tp314
a(VIsraeli
VJJ
tp315
a(Vmedia
VNNS
tp316
a(V.
V.
tp317
aa(lp318
(VI
VPRP
tp319
a(Vthink
VVBP
tp320
a(Vthat
VIN
tp321
a(V,
V,
tp322
a(Vif
VIN
tp323
a(Va
VDT
tp324
a(Vperson
VNN
tp325
a(Vdoes
VVBZ
tp326
a(Vnot
VRB
tp327
a(Vmake
VVB
tp328
a(Va
VDT
tp329
a(Vgood
VJJ
tp330
a(Vimpression
VNN
tp331
a(Von
VIN
tp332
a(Vhis
VPRP$
tp333
a(Vor
VCC
tp334
a(Vher
VPRP$
tp335
a(Vown
VJJ
tp336
a(VMembers
VNNS
tp337
a(Vthere
VRB
tp338
a(Vshould
VMD
tp339
a(Vbe
VVB
tp340
a(Vlittle
VJJ
tp341
a(Vchance
VNN
tp342
a(Vof
VIN
tp343
a(Vthat
VDT
tp344
a(Vperson
VNN
tp345
a(Vbeing
VVBG
tp346
a(Vposted
VVBN
tp347
a(Vabroad
VRB
tp348
a(V.
V.
tp349
aa(lp350
(VThe
VDT
tp351
a(Vcitizens
VNNS
tp352
a(V&apos;
VVBP
tp353
a(Vinitiative
VNN
tp354
a(Vis
VVBZ
tp355
a(Vlike
VIN
tp356
a(Va
VDT
tp357
a(Vnewborn
VJJ
tp358
a(Vbaby
VNN
tp359
a(V.
V.
tp360
aa(lp361
(VCalendar
VNN
tp362
a(Vof
VIN
tp363
a(Vpart-sessions
VNNS
tp364
a(Vfor
VIN
tp365
a(V2008
VCD
tp366
aa(lp367
(VIt
VPRP
tp368
a(Vcan
VMD
tp369
a(Vbe
VVB
tp370
a(Vcured
VVBN
tp371
a(V,
V,
tp372
a(Vit
VPRP
tp373
a(Vcan
VMD
tp374
a(Vbe
VVB
tp375
a(Vtreated
VVBN
tp376
a(Vand
VCC
tp377
a(Vmillions
VNNS
tp378
a(Vof
VIN
tp379
a(Vour
VPRP$
tp380
a(Vfellow
VJJ
tp381
a(Vcitizens
VNNS
tp382
a(Vcan
VMD
tp383
a(Vlead
VVB
tp384
a(Vfull
VJJ
tp385
a(Vand
VCC
tp386
a(Vfulfilled
VVBD
tp387
a(Vlives
VNNS
tp388
a(Vif
VIN
tp389
a(Vwe
VPRP
tp390
a(V...
V:
tp391
aa(lp392
(VSolving
VVBG
tp393
a(Vthis
VDT
tp394
a(Vproblem
VNN
tp395
a(Vrequires
VVBZ
tp396
a(Vcustoms
VNNS
tp397
a(Vsystems
VNNS
tp398
a(Vthat
VWDT
tp399
a(Vare
VVBP
tp400
a(Velectronic
VJJ
tp401
a(Vand
VCC
tp402
a(Vinterconnected
VJJ
tp403
a(V.
V.
tp404
aa(lp405
(VThis
VDT
tp406
a(Vsearch
VNN
tp407
a(Vfor
VIN
tp408
a(Vthe
VDT
tp409
a(Vroots
VNNS
tp410
a(Vof
VIN
tp411
a(Vour
VPRP$
tp412
a(Videntity
VNN
tp413
a(Vdoes
VVBZ
tp414
a(Vnot
VRB
tp415
a(Vmean
VVB
tp416
a(Vcreating
VVBG
tp417
a(Vdivisions
VNNS
tp418
a(V.
V.
tp419
aa(lp420
(VThree
VCD
tp421
a(Vquarters
VNNS
tp422
a(Vof
VIN
tp423
a(Vthe
VDT
tp424
a(Vpopulation
VNN
tp425
a(Vsuffer
VVBP
tp426
a(Vfrom
VIN
tp427
a(VAIDS
VNNP
tp428
a(V/
V:
tp429
a(VHIV
VNN
tp430
a(Vin
VIN
tp431
a(VSub-Saharan
VNNP
tp432
a(VAfrica
VNNP
tp433
a(V.
V.
tp434
aa(lp435
(VThe
VDT
tp436
a(Vfact
VNN
tp437
a(Vthat
VIN
tp438
a(Vmany
VJJ
tp439
a(Vwho
VWP
tp440
a(Voppose
VVBP
tp441
a(VPresident
VNNP
tp442
a(VMusharraf
VNNP
tp443
a(Vwere
VVBD
tp444
a(Velected
VVBN
tp445
a(Vsurely
VRB
tp446
a(Vspeaks
VVBZ
tp447
a(Vfor
VIN
tp448
a(Vitself
VPRP
tp449
a(V.
V.
tp450
aa(lp451
(VIn
VIN
tp452
a(Vthe
VDT
tp453
a(Vfinal
VJJ
tp454
a(Vanalysis
VNN
tp455
a(V,
V,
tp456
a(Vevery
VDT
tp457
a(Vone
VCD
tp458
a(Vof
VIN
tp459
a(Vthem
VPRP
tp460
a(Valways
VRB
tp461
a(Vtook
VVBD
tp462
a(Vwhatever
VWDT
tp463
a(Vwas
VVBD
tp464
a(Vstill
VRB
tp465
a(Vleft
VVBN
tp466
a(Vand
VCC
tp467
a(Vthis
VDT
tp468
a(Vcould
VMD
tp469
a(Vno
VRB
tp470
a(Vlonger
VRB
tp471
a(Vbe
VVB
tp472
a(Vreplaced
VVBN
tp473
a(Vat
VIN
tp474
a(Vthe
VDT
tp475
a(Vend
VNN
tp476
a(V.
V.
tp477
aa(lp478
(VThe
VDT
tp479
a(VEuropean
VJJ
tp480
a(VConstitution
VNNP
tp481
a(Vis
VVBZ
tp482
a(Va
VDT
tp483
a(Vstep
VNN
tp484
a(Vforward
VRB
tp485
a(Vin
VIN
tp486
a(Vthat
VDT
tp487
a(Vsubsidiarity
VNN
tp488
a(Vis
VVBZ
tp489
a(Vreinforced
VVBN
tp490
a(V,
V,
tp491
a(Vand
VCC
tp492
a(Vin
VIN
tp493
a(Vthat
VDT
tp494
a(Vit
VPRP
tp495
a(Vmakes
VVBZ
tp496
a(Vreference
VNN
tp497
a(V,
V,
tp498
a(Vfor
VIN
tp499
a(Vthe
VDT
tp500
a(Vfirst
VJJ
tp501
a(Vtime
VNN
tp502
a(V,
V,
tp503
a(Vto
VTO
tp504
a(Vlocal
VJJ
tp505
a(Vgovernance
VNN
tp506
a(V.
V.
tp507
aa(lp508
(VThat
VDT
tp509
a(Vissue
VNN
tp510
a(Vshould
VMD
tp511
a(Vkeep
VVB
tp512
a(Vyou
VPRP
tp513
a(Vbusy
VJJ
tp514
a(Vover
VIN
tp515
a(Vthe
VDT
tp516
a(Vcoming
VVBG
tp517
a(Vfortnight
VNN
tp518
a(V.
V.
tp519
aa(lp520
(VTheir
VPRP$
tp521
a(Vsocial
VJJ
tp522
a(Vstatus
VNN
tp523
a(Vis
VVBZ
tp524
a(Vlow
VJJ
tp525
a(Vand
VCC
tp526
a(Vviolence
VNN
tp527
a(Vagainst
VIN
tp528
a(Vwomen
VNNS
tp529
a(Vis
VVBZ
tp530
a(Vwidespread
VJJ
tp531
a(V.
V.
tp532
aa(lp533
(VSomething
VNN
tp534
a(Vhad
VVBD
tp535
a(Vto
VTO
tp536
a(Vhappen
VVB
tp537
a(V.
V.
tp538
aa(lp539
(VDefenders
VNNS
tp540
a(Vof
VIN
tp541
a(Vunlinked
VJJ
tp542
a(Vaid
VNN
tp543
a(Vargue
VVBP
tp544
a(Vthat
VIN
tp545
a(Vcontrol
VNN
tp546
a(Vis
VVBZ
tp547
a(Veasier
VJJR
tp548
a(Vwith
VIN
tp549
a(Vsuch
VJJ
tp550
a(Vaid
VNN
tp551
a(V.
V.
tp552
aa(lp553
(VDr
VNNP
tp554
a(VAyman
VNNP
tp555
a(VNour
VNNP
tp556
a(Vwas
VVBD
tp557
a(Vsentenced
VVBN
tp558
a(Vto
VTO
tp559
a(Vfive
VCD
tp560
a(Vyears
VNNS
tp561
a(V\u2019
VRB
tp562
a(Vimprisonment
VNN
tp563
a(Vfor
VIN
tp564
a(Vthe
VDT
tp565
a(Valleged
VJJ
tp566
a(Vcrime
VNN
tp567
a(Vof
VIN
tp568
a(Vfalsifying
VVBG
tp569
a(Vhis
VPRP$
tp570
a(Vpolitical
VJJ
tp571
a(Vparty
VNN
tp572
a(V\u2019
VNN
tp573
a(Vs
VVBZ
tp574
a(Vregistration
VNN
tp575
a(Vdocuments
VNNS
tp576
a(V.
V.
tp577
aa(lp578
(VEurope
VNNP
tp579
a(Vhas
VVBZ
tp580
a(Vmany
VJJ
tp581
a(Vcultures
VNNS
tp582
a(V.
V.
tp583
aa(lp584
(VI
VPRP
tp585
a(Vhave
VVBP
tp586
a(Vnever
VRB
tp587
a(Vseen
VVBN
tp588
a(Va
VDT
tp589
a(Vcow
VNN
tp590
a(Vby
VIN
tp591
a(Va
VDT
tp592
a(Vditch
VNN
tp593
a(V,
V,
tp594
a(Vlooking
VVBG
tp595
a(Vfor
VIN
tp596
a(Vfish
VNN
tp597
a(V.
V.
tp598
aa(lp599
(VThere
VEX
tp600
a(Vare
VVBP
tp601
a(Vother
VJJ
tp602
a(Vexamples
VNNS
tp603
a(V,
V,
tp604
a(Vand
VCC
tp605
a(Vthey
VPRP
tp606
a(Vshould
VMD
tp607
a(Vnot
VRB
tp608
a(Vbe
VVB
tp609
a(Vrepeated
VVBN
tp610
a(V.
V.
tp611
aa(lp612
(VMoreover
VRB
tp613
a(V,
V,
tp614
a(Vit
VPRP
tp615
a(Vtakes
VVBZ
tp616
a(Vno
VDT
tp617
a(Vaccount
VNN
tp618
a(Vof
VIN
tp619
a(Vall
VPDT
tp620
a(Vthose
VDT
tp621
a(Vpeople
VNNS
tp622
a(Vwho
VWP
tp623
a(Vare
VVBP
tp624
a(Vnot
VRB
tp625
a(Vable
VJJ
tp626
a(Vto
VTO
tp627
a(Vpay
VVB
tp628
a(Vlarge
VJJ
tp629
a(Vsums
VNNS
tp630
a(Vof
VIN
tp631
a(Vmoney
VNN
tp632
a(V.
V.
tp633
aa(lp634
(VIt
VPRP
tp635
a(Valso
VRB
tp636
a(Vconcluded
VVBD
tp637
a(Vthat
VIN
tp638
a(Vthe
VDT
tp639
a(Vsiege
VNN
tp640
a(Vof
VIN
tp641
a(VGaza
VNNP
tp642
a(Vis
VVBZ
tp643
a(Vtantamount
VJJ
tp644
a(Vto
VTO
tp645
a(Vcollective
VJJ
tp646
a(Vpunishment
VNN
tp647
a(Vof
VIN
tp648
a(Vthe
VDT
tp649
a(V1.5m
VCD
tp650
a(Vpopulation
VNN
tp651
a(V,
V,
tp652
a(Vcontrary
VJJ
tp653
a(Vto
VTO
tp654
a(Vinternational
VJJ
tp655
a(Vlaw
VNN
tp656
a(V.
V.
tp657
aa(lp658
(VIf
VIN
tp659
a(Vthis
VDT
tp660
a(Vwere
VVBD
tp661
a(Vnot
VRB
tp662
a(Vthe
VDT
tp663
a(Vcase
VNN
tp664
a(V,
V,
tp665
a(VI
VPRP
tp666
a(Vdo
VVBP
tp667
a(Vnot
VRB
tp668
a(Vthink
VVB
tp669
a(Vthere
VEX
tp670
a(Vwould
VMD
tp671
a(Vbe
VVB
tp672
a(Vmuch
VJJ
tp673
a(Vdifference
VNN
tp674
a(Vbetween
VIN
tp675
a(Vus
VPRP
tp676
a(Vand
VCC
tp677
a(VChina
VNNP
tp678
a(V.
V.
tp679
aa(lp680
(VThis
VDT
tp681
a(VParliament
VNNP
tp682
a(Vmust
VMD
tp683
a(Vprotect
VVB
tp684
a(Vthe
VDT
tp685
a(Vhealth
VNN
tp686
a(Vand
VCC
tp687
a(Vquality
VNN
tp688
a(Vof
VIN
tp689
a(Vlife
VNN
tp690
a(Vof
VIN
tp691
a(Vthe
VDT
tp692
a(Vpeople
VNNS
tp693
a(Vthat
VIN
tp694
a(Vwe
VPRP
tp695
a(Vrepresent
VVBP
tp696
a(V.
V.
tp697
aa(lp698
(VWe
VPRP
tp699
a(Vwill
VMD
tp700
a(Vhave
VVB
tp701
a(Vto
VTO
tp702
a(Vhave
VVB
tp703
a(Vin-depth
VJJ
tp704
a(Vdiscussions
VNNS
tp705
a(Vof
VIN
tp706
a(Vthese
VDT
tp707
a(Vissues
VNNS
tp708
a(Vtoo
VRB
tp709
a(V.
V.
tp710
aa(lp711
(VI
VPRP
tp712
a(Vreplied
VVBD
tp713
a(Vto
VTO
tp714
a(Vmy
VPRP$
tp715
a(Vfriend
VNN
tp716
a(V,
V,
tp717
a(V&apos;
VNN
tp718
a(VI
VPRP
tp719
a(Vthink
VVBP
tp720
a(Vyou
VPRP
tp721
a(Vare
VVBP
tp722
a(Vbeing
VVBG
tp723
a(Vunfair
VJJ
tp724
a(V.
V.
tp725
aa(lp726
(VIn
VIN
tp727
a(Vother
VJJ
tp728
a(Vwords
VNNS
tp729
a(V,
V,
tp730
a(Vit
VPRP
tp731
a(Vmust
VMD
tp732
a(Vbe
VVB
tp733
a(Vwell
VRB
tp734
a(Vmanaged
VVBN
tp735
a(V.
V.
tp736
aa(lp737
(VBy
VIN
tp738
a(Vdoing
VVBG
tp739
a(Vso
VRB
tp740
a(V,
V,
tp741
a(Vthey
VPRP
tp742
a(Vhave
VVBP
tp743
a(Vcontributed
VVBN
tp744
a(Vto
VTO
tp745
a(Vthe
VDT
tp746
a(Veconomic
VJJ
tp747
a(Vgrowth
VNN
tp748
a(Vof
VIN
tp749
a(Vthese
VDT
tp750
a(Vcountries
VNNS
tp751
a(V.
V.
tp752
aa(lp753
(VIndonesia
VNNP
tp754
aa(lp755
(VThe
VDT
tp756
a(Vradioactivity
VNN
tp757
a(Vof
VIN
tp758
a(Vthat
VDT
tp759
a(Vmaterial
VNN
tp760
a(Vtakes
VVBZ
tp761
a(Va
VDT
tp762
a(Vlong
VJJ
tp763
a(Vtime
VNN
tp764
a(Vto
VTO
tp765
a(Vdiminish
VVB
tp766
a(Vand
VCC
tp767
a(Vcan
VMD
tp768
a(Vlast
VVB
tp769
a(Vfor
VIN
tp770
a(Vtens
VNNS
tp771
a(Vof
VIN
tp772
a(Vthousands
VNNS
tp773
a(Vof
VIN
tp774
a(Vyears
VNNS
tp775
a(Vat
VIN
tp776
a(Va
VDT
tp777
a(Vlower
VJJR
tp778
a(Vlevel
VNN
tp779
a(V.
V.
tp780
aa(lp781
(VThis
VDT
tp782
a(Vweek
VNN
tp783
a(Vwe
VPRP
tp784
a(Vhad
VVBD
tp785
a(Vthe
VDT
tp786
a(VVice-President
VNNP
tp787
a(Vof
VIN
tp788
a(Vthe
VDT
tp789
a(VNational
VNNP
tp790
a(VFarmers
VNNP
tp791
a(V&apos;
VNN
tp792
a(Vs
VVBZ
tp793
a(VUnion
VNNP
tp794
a(V,
V,
tp795
a(VTim
VNNP
tp796
a(VBennett
VNNP
tp797
a(V,
V,
tp798
a(Vhere
VRB
tp799
a(V.
V.
tp800
aa(lp801
(VIt
VPRP
tp802
a(Vis
VVBZ
tp803
a(Vestimated
VVBN
tp804
a(Vthat
VIN
tp805
a(Vcattle
VNNS
tp806
a(Vrearing
VVBG
tp807
a(Vis
VVBZ
tp808
a(Vresponsible
VJJ
tp809
a(Vfor
VIN
tp810
a(V80
VCD
tp811
a(V%
VNN
tp812
a(Vof
VIN
tp813
a(Villegal
VJJ
tp814
a(Vdeforestation
VNN
tp815
a(V.
V.
tp816
aa(lp817
(VThe
VDT
tp818
a(Vjoint
VJJ
tp819
a(Vresolution
VNN
tp820
a(Vupholds
VVBZ
tp821
a(VEU
VNNP
tp822
a(Vpolicy
VNN
tp823
a(V,
V,
tp824
a(Vwhich
VWDT
tp825
a(Vis
VVBZ
tp826
a(Vexploiting
VVBG
tp827
a(Vthe
VDT
tp828
a(Vcrisis
VNN
tp829
a(Vin
VIN
tp830
a(Vthe
VDT
tp831
a(VCaucasus
VNNP
tp832
a(V.
V.
tp833
aa(lp834
(VAt
VIN
tp835
a(Vthe
VDT
tp836
a(Vtime
VNN
tp837
a(V,
V,
tp838
a(Vit
VPRP
tp839
a(Vwas
VVBD
tp840
a(Vnot
VRB
tp841
a(Vpossible
VJJ
tp842
a(Vto
VTO
tp843
a(Vsay
VVB
tp844
a(Vmore
VRBR
tp845
a(V.
V.
tp846
aa(lp847
(VLabour
VNN
tp848
a(Vcost
VNN
tp849
a(Vindex
VNN
tp850
aa(lp851
(VIt
VPRP
tp852
a(Vsounds
VVBZ
tp853
a(Vlike
VIN
tp854
a(Va
VDT
tp855
a(Vgood
VJJ
tp856
a(Videa
VNN
tp857
a(V,
V,
tp858
a(Vbut
VCC
tp859
a(Vin
VIN
tp860
a(Vpractice
VNN
tp861
a(Vall
VPDT
tp862
a(Vthese
VDT
tp863
a(Vcriteria
VNNS
tp864
a(Vdepend
VVBP
tp865
a(Von
VIN
tp866
a(Vjudgment
VNN
tp867
a(V,
V,
tp868
a(Vas
VIN
tp869
a(VMr
VNNP
tp870
a(VAlmunia
VNNP
tp871
a(Vhas
VVBZ
tp872
a(Vjust
VRB
tp873
a(Vexplained
VVBN
tp874
a(V.
V.
tp875
aa(lp876
(VIt
VPRP
tp877
a(Vwas
VVBD
tp878
a(Vagreed
VVBN
tp879
a(Vwith
VIN
tp880
a(Vthe
VDT
tp881
a(Vrapporteur
VNN
tp882
a(Vthat
VIN
tp883
a(Vthe
VDT
tp884
a(Vword
VNN
tp885
a(V&apos;
VNN
tp886
a(Vand
VCC
tp887
a(V&apos;
VNN
tp888
a(Vwould
VMD
tp889
a(Vbe
VVB
tp890
a(Vreplaced
VVBN
tp891
a(Vby
VIN
tp892
a(V&apos;
VNN
tp893
a(Vor
VCC
tp894
a(V&apos;
VNN
tp895
a(V.
V.
tp896
aa(lp897
(VIt
VPRP
tp898
a(Vis
VVBZ
tp899
a(Vessential
VJJ
tp900
a(Vto
VTO
tp901
a(Vimpose
VVB
tp902
a(Vbans
VNNS
tp903
a(Von
VIN
tp904
a(Vexperiments
VNNS
tp905
a(Vand
VCC
tp906
a(Vmarketing
VNN
tp907
a(V.
V.
tp908
aa(lp909
(VAt
VIN
tp910
a(Vthe
VDT
tp911
a(Vsame
VJJ
tp912
a(Vtime
VNN
tp913
a(V,
V,
tp914
a(Vthe
VDT
tp915
a(Vorganisation
VNN
tp916
a(Vstates
VVBZ
tp917
a(Vthat
VIN
tp918
a(Vthere
VEX
tp919
a(Vare
VVBP
tp920
a(Vwell-founded
VJJ
tp921
a(Vsuspicions
VNNS
tp922
a(Vthat
VIN
tp923
a(Va
VDT
tp924
a(Vconsiderable
VJJ
tp925
a(Vnumber
VNN
tp926
a(Vof
VIN
tp927
a(Vthose
VDT
tp928
a(Vbeing
VVBG
tp929
a(Vheld
VVBN
tp930
a(Vsuffered
VVBN
tp931
a(Vcruel
VJJ
tp932
a(V,
V,
tp933
a(Vinhuman
VJJ
tp934
a(Vor
VCC
tp935
a(Vdegrading
VJJ
tp936
a(Vtreatment
VNN
tp937
a(Vimmediately
VRB
tp938
a(Vafter
VIN
tp939
a(Vand
VCC
tp940
a(Vduring
VIN
tp941
a(Vtheir
VPRP$
tp942
a(Varrests
VNNS
tp943
a(V.
V.
tp944
aa(lp945
(VWe
VPRP
tp946
a(Vare
VVBP
tp947
a(Vnot
VRB
tp948
a(Vrecommending
VVBG
tp949
a(Vany
VDT
tp950
a(Vencroachment
VNN
tp951
a(Von
VIN
tp952
a(Vthe
VDT
tp953
a(Vrole
VNN
tp954
a(Vof
VIN
tp955
a(VESA
VNNP
tp956
a(V.
V.
tp957
aa(lp958
(VIt
VPRP
tp959
a(Vhappens
VVBZ
tp960
a(Vvery
VRB
tp961
a(Vquickly
VRB
tp962
a(V.
V.
tp963
aa(lp964
(VI
VPRP
tp965
a(Vnaturally
VRB
tp966
a(Vnote
VVBP
tp967
a(Vwhat
VWP
tp968
a(Vyou
VPRP
tp969
a(Vsay
VVBP
tp970
a(V,
V,
tp971
a(VMr
VNNP
tp972
a(VCrowley
VNNP
tp973
a(V.
V.
tp974
aa(lp975
(VBut
VCC
tp976
a(Vin
VIN
tp977
a(Vthose
VDT
tp978
a(Vpolling
VNN
tp979
a(Vstations
VNNS
tp980
a(V,
V,
tp981
a(Vthe
VDT
tp982
a(Voutgoing
VJJ
tp983
a(Vpresident
VNN
tp984
a(Vobtained
VVBN
tp985
a(Vless
VJJR
tp986
a(Vthan
VIN
tp987
a(V10
VCD
tp988
a(V%
VNN
tp989
a(Vof
VIN
tp990
a(Vthe
VDT
tp991
a(Vvote
VNN
tp992
a(V.
V.
tp993
aa(lp994
(VAs
VIN
tp995
a(Vthe
VDT
tp996
a(Vlaw
VNN
tp997
a(Vstands
VVBZ
tp998
a(Vat
VIN
tp999
a(Vpresent
VJJ
tp1000
a(V,
V,
tp1001
a(Vonly
VRB
tp1002
a(Vthe
VDT
tp1003
a(Vinstitution
VNN
tp1004
a(Vas
VIN
tp1005
a(Va
VDT
tp1006
a(Vwhole
VNN
tp1007
a(Vcan
VMD
tp1008
a(Vbe
VVB
tp1009
a(Vsanctioned
VVBN
tp1010
a(V.
V.
tp1011
aa(lp1012
(VWe
VPRP
tp1013
a(Vshould
VMD
tp1014
a(Vpublicise
VVB
tp1015
a(Vthis
VDT
tp1016
a(Vas
VIN
tp1017
a(Va
VDT
tp1018
a(Vreally
VRB
tp1019
a(Vgreat
VJJ
tp1020
a(Vsuccess
VNN
tp1021
a(Vfor
VIN
tp1022
a(VEuropean
VJJ
tp1023
a(Vdevelopment
VNN
tp1024
a(V.
V.
tp1025
aa(lp1026
(VLast
VJJ
tp1027
a(Vweek
VNN
tp1028
a(V,
V,
tp1029
a(VI
VPRP
tp1030
a(Vwas
VVBD
tp1031
a(Vwith
VIN
tp1032
a(Vthe
VDT
tp1033
a(Vdelegation
VNN
tp1034
a(Vin
VIN
tp1035
a(VWashington
VNNP
tp1036
a(Vwhere
VWRB
tp1037
a(Va
VDT
tp1038
a(Vtangible
VJJ
tp1039
a(Vchange
VNN
tp1040
a(Vis
VVBZ
tp1041
a(Vunderway
VNN
tp1042
a(V.
V.
tp1043
aa(lp1044
(VThis
VDT
tp1045
a(Vevening
VNN
tp1046
a(V,
V,
tp1047
a(Vwe
VPRP
tp1048
a(Vare
VVBP
tp1049
a(Vdiscussing
VVBG
tp1050
a(Vthe
VDT
tp1051
a(Vdecline
VNN
tp1052
a(Vin
VIN
tp1053
a(Vbee
VNN
tp1054
a(Vstocks
VNNS
tp1055
a(V.
V.
tp1056
aa(lp1057
(VI
VPRP
tp1058
a(Vhave
VVBP
tp1059
a(Vraised
VVBN
tp1060
a(Vit
VPRP
tp1061
a(Vin
VIN
tp1062
a(VTehran
VNNP
tp1063
a(V,
V,
tp1064
a(Vas
VRB
tp1065
a(Vwell
VRB
tp1066
a(Vas
VIN
tp1067
a(Vat
VIN
tp1068
a(Vmeetings
VNNS
tp1069
a(Voutside
VIN
tp1070
a(VTehran
VNNP
tp1071
a(V.
V.
tp1072
aa(lp1073
(VThe
VDT
tp1074
a(Vothers
VNNS
tp1075
a(Vcan
VMD
tp1076
a(Vlearn
VVB
tp1077
a(Vfrom
VIN
tp1078
a(Vthese
VDT
tp1079
a(Vtwo
VCD
tp1080
a(Vcountries
VNNS
tp1081
a(V.
V.
tp1082
aa(lp1083
(VAnd
VCC
tp1084
a(Vwhat
VWP
tp1085
a(Velse
VRB
tp1086
a(V?
V.
tp1087
aa(lp1088
(VThey
VPRP
tp1089
a(Vworked
VVBD
tp1090
a(Vfifteen
VCD
tp1091
a(Vhours
VNNS
tp1092
a(Va
VDT
tp1093
a(Vday
VNN
tp1094
a(V.
V.
tp1095
aa(lp1096
(VWhat
VWP
tp1097
a(Vdoes
VVBZ
tp1098
a(Vthis
VDT
tp1099
a(Vcome
VVBN
tp1100
a(Vdown
VRP
tp1101
a(Vto
VTO
tp1102
a(V?
V.
tp1103
aa(lp1104
(VThis
VDT
tp1105
a(Vis
VVBZ
tp1106
a(Vpay-as-you-go
VJJ
tp1107
a(Vcitizenship
VNN
tp1108
a(V.
V.
tp1109
aa(lp1110
(VI
VPRP
tp1111
a(Vam
VVBP
tp1112
a(Vhappy
VJJ
tp1113
a(Vto
VTO
tp1114
a(Vnote
VVB
tp1115
a(Vthat
VIN
tp1116
a(Vwe
VPRP
tp1117
a(Vare
VVBP
tp1118
a(Vapproaching
VVBG
tp1119
a(Vthe
VDT
tp1120
a(Vtarget
VNN
tp1121
a(Vin
VIN
tp1122
a(Vthe
VDT
tp1123
a(Vbest
VJJS
tp1124
a(Vpossible
VJJ
tp1125
a(Vconditions
VNNS
tp1126
a(V.
V.
tp1127
aa(lp1128
(VInitially
VRB
tp1129
a(V,
V,
tp1130
a(Vthe
VDT
tp1131
a(VCommission
VNNP
tp1132
a(V&apos;s
VNNS
tp1133
a(Vdraft
VVBP
tp1134
a(Vproposed
VVBN
tp1135
a(Vcreating
VVBG
tp1136
a(Vsecure
VJJ
tp1137
a(Vwebsites
VNNS
tp1138
a(V.
V.
tp1139
aa(lp1140
(VMobility
VNN
tp1141
a(Vis
VVBZ
tp1142
a(Vimportant
VJJ
tp1143
a(V,
V,
tp1144
a(Vas
VIN
tp1145
a(Vstated
VVBN
tp1146
a(Vat
VIN
tp1147
a(Vthe
VDT
tp1148
a(Vworkshop
VNN
tp1149
a(Vin
VIN
tp1150
a(VPrague
VNNP
tp1151
a(V.
V.
tp1152
aa(lp1153
(VI
VPRP
tp1154
a(Vam
VVBP
tp1155
a(Vwell
VRB
tp1156
a(Vaware
VJJ
tp1157
a(Vof
VIN
tp1158
a(Vthe
VDT
tp1159
a(Vfact
VNN
tp1160
a(Vthat
VIN
tp1161
a(Vsince
VIN
tp1162
a(Vthen
VRB
tp1163
a(Vthere
VEX
tp1164
a(Vhas
VVBZ
tp1165
a(Vbeen
VVBN
tp1166
a(Van
VDT
tp1167
a(Vinformal
VJJ
tp1168
a(Vmeeting
VNN
tp1169
a(Vbetween
VIN
tp1170
a(Vthe
VDT
tp1171
a(Vlabour
VNN
tp1172
a(Vmarket
VNN
tp1173
a(Vministers
VNNS
tp1174
a(Vin
VIN
tp1175
a(VRotterdam
VNNP
tp1176
a(V.
V.
tp1177
aa(lp1178
(VThis
VDT
tp1179
a(Vis
VVBZ
tp1180
a(Va
VDT
tp1181
a(Vdecision
VNN
tp1182
a(Vthat
VWDT
tp1183
a(VParliament
VNNP
tp1184
a(Vtook
VVBD
tp1185
a(Von
VRP
tp1186
a(VMonday
VNNP
tp1187
a(V.
V.
tp1188
aa(lp1189
(VNow
VRB
tp1190
a(Vit
VPRP
tp1191
a(Vhas
VVBZ
tp1192
a(Vto
VTO
tp1193
a(Vbe
VVB
tp1194
a(Vput
VVBN
tp1195
a(Vinto
VIN
tp1196
a(Vpractice
VNN
tp1197
a(V.
V.
tp1198
aa(lp1199
(VTheir
VPRP$
tp1200
a(Vvotes
VNNS
tp1201
a(Vwill
VMD
tp1202
a(Vbring
VVB
tp1203
a(Vto
VTO
tp1204
a(Vbear
VVB
tp1205
a(Vthe
VDT
tp1206
a(Vvery
VJJ
tp1207
a(Vchanges
VNNS
tp1208
a(Vthey
VPRP
tp1209
a(Vmost
VRBS
tp1210
a(Vfear
VVBP
tp1211
a(V.
V.
tp1212
aa(lp1213
(VAtypical
VJJ
tp1214
a(VCreutzfeldt-Jakob
VNN
tp1215
a(Vis
VVBZ
tp1216
a(Va
VDT
tp1217
a(Vterrifying
VJJ
tp1218
a(Vdisease
VNN
tp1219
a(Vwhich
VWDT
tp1220
a(Vaffects
VVBZ
tp1221
a(Vyoung
VJJ
tp1222
a(Vmen
VNNS
tp1223
a(Vor
VCC
tp1224
a(Vwomen
VNNS
tp1225
a(Vof
VIN
tp1226
a(Varound
VIN
tp1227
a(Vtwenty
VCD
tp1228
a(Vyears
VNNS
tp1229
a(Vof
VIN
tp1230
a(Vage
VNN
tp1231
a(V.
V.
tp1232
aa(lp1233
(VHe
VPRP
tp1234
a(Venjoyed
VVBD
tp1235
a(Vrace-going
VJJ
tp1236
a(Vand
VCC
tp1237
a(Vobviously
VRB
tp1238
a(Vwas
VVBD
tp1239
a(Va
VDT
tp1240
a(Vman
VNN
tp1241
a(Vto
VTO
tp1242
a(Vplace
VVB
tp1243
a(Va
VDT
tp1244
a(Vbet
VNN
tp1245
a(V.
V.
tp1246
aa(lp1247
(VThis
VDT
tp1248
a(Vis
VVBZ
tp1249
a(Va
VDT
tp1250
a(Vcrucial
VJJ
tp1251
a(Vpoint
VNN
tp1252
a(Vfor
VIN
tp1253
a(Vus
VPRP
tp1254
a(V.
V.
tp1255
aa(lp1256
(VThere
VEX
tp1257
a(Vis
VVBZ
tp1258
a(Vcertain
VJJ
tp1259
a(Vto
VTO
tp1260
a(Vbe
VVB
tp1261
a(Vchaos
VNN
tp1262
a(V.
V.
tp1263
aa(lp1264
(VI
VPRP
tp1265
a(Vhave
VVBP
tp1266
a(Valso
VRB
tp1267
a(Vheard
VVBN
tp1268
a(Vit
VPRP
tp1269
a(Vwithin
VIN
tp1270
a(Vthe
VDT
tp1271
a(VCouncil
VNNP
tp1272
a(V.
V.
tp1273
aa(lp1274
(VWe
VPRP
tp1275
a(Valso
VRB
tp1276
a(Vhave
VVBP
tp1277
a(Vone
VCD
tp1278
a(Vof
VIN
tp1279
a(Vthe
VDT
tp1280
a(Vhighest
VJJS
tp1281
a(Vmobile
VJJ
tp1282
a(Vpenetration
VNN
tp1283
a(Vrates
VNNS
tp1284
a(V.
V.
tp1285
aa(lp1286
(VThere
VEX
tp1287
a(Vare
VVBP
tp1288
a(Vmore
VJJR
tp1289
a(Vand
VCC
tp1290
a(Vmore
VJJR
tp1291
a(Vof
VIN
tp1292
a(Vthem
VPRP
tp1293
a(V.
V.
tp1294
aa(lp1295
(VIt
VPRP
tp1296
a(Vwas
VVBD
tp1297
a(Vwritten
VVBN
tp1298
a(Vand
VCC
tp1299
a(Vsigned
VVBN
tp1300
a(Vin
VIN
tp1301
a(V1957
VCD
tp1302
a(Vand
VCC
tp1303
a(Vit
VPRP
tp1304
a(Vbears
VVBZ
tp1305
a(Vall
VPDT
tp1306
a(Vthe
VDT
tp1307
a(Vhallmarks
VNNS
tp1308
a(Vof
VIN
tp1309
a(Vthe
VDT
tp1310
a(Vphilosophy
VNN
tp1311
a(Vand
VCC
tp1312
a(Vexpectations
VNNS
tp1313
a(Vof
VIN
tp1314
a(Vthat
VDT
tp1315
a(Vtime
VNN
tp1316
a(Vwhich
VWDT
tp1317
a(Vare
VVBP
tp1318
a(Vno
VRB
tp1319
a(Vlonger
VRB
tp1320
a(Vapplicable
VJJ
tp1321
a(V.
V.
tp1322
aa(lp1323
(VWe
VPRP
tp1324
a(Vmust
VMD
tp1325
a(Vimprove
VVB
tp1326
a(Vroad
VNN
tp1327
a(Vsafety
VNN
tp1328
a(Vin
VIN
tp1329
a(Vthe
VDT
tp1330
a(VEU
VNNP
tp1331
a(V.
V.
tp1332
aa(lp1333
(VIn
VIN
tp1334
a(Vinformation
VNN
tp1335
a(Vtechnology
VNN
tp1336
a(V,
V,
tp1337
a(Vthe
VDT
tp1338
a(Vscreen
VNN
tp1339
a(Vis
VVBZ
tp1340
a(Vomnipresent
VJJ
tp1341
a(V.
V.
tp1342
aa(lp1343
(VThe
VDT
tp1344
a(Vcrisis
VNN
tp1345
a(Vis
VVBZ
tp1346
a(Vfar
VRB
tp1347
a(Vfrom
VIN
tp1348
a(Vat
VIN
tp1349
a(Van
VDT
tp1350
a(Vend
VNN
tp1351
a(V.
V.
tp1352
aa(lp1353
(VWe
VPRP
tp1354
a(Vall
VDT
tp1355
a(Vknow
VVBP
tp1356
a(Vthat
VIN
tp1357
a(Vthe
VDT
tp1358
a(Vincubation
VNN
tp1359
a(Vperiod
VNN
tp1360
a(Vcan
VMD
tp1361
a(Vlast
VVB
tp1362
a(Vfrom
VIN
tp1363
a(V10
VCD
tp1364
a(Vto
VTO
tp1365
a(V20
VCD
tp1366
a(Vyears
VNNS
tp1367
a(V.
V.
tp1368
aa(lp1369
(VWe
VPRP
tp1370
a(Vshould
VMD
tp1371
a(Vhave
VVB
tp1372
a(Vconfidence
VNN
tp1373
a(Vin
VIN
tp1374
a(VUkraine
VNNP
tp1375
a(V.
V.
tp1376
aa(lp1377
(VAt
VIN
tp1378
a(Vthe
VDT
tp1379
a(Vsame
VJJ
tp1380
a(Vtime
VNN
tp1381
a(V,
V,
tp1382
a(Vthere
VEX
tp1383
a(Vis
VVBZ
tp1384
a(Vno
VDT
tp1385
a(Vsatisfactory
VJJ
tp1386
a(Vanswer
VNN
tp1387
a(Vto
VTO
tp1388
a(Vthe
VDT
tp1389
a(Vquestion
VNN
tp1390
a(Vof
VIN
tp1391
a(Vwhether
VIN
tp1392
a(Vthe
VDT
tp1393
a(VEuropean
VJJ
tp1394
a(VCommission
VNNP
tp1395
a(Vshould
VMD
tp1396
a(Vintervene
VVB
tp1397
a(Vin
VIN
tp1398
a(Vurban
VJJ
tp1399
a(Vtransport
VNN
tp1400
a(V.
V.
tp1401
aa(lp1402
(VThe
VDT
tp1403
a(Vproduct
VNN
tp1404
a(Vdefinition
VNN
tp1405
a(Vproposed
VVBN
tp1406
a(Vis
VVBZ
tp1407
a(Vcomparable
VJJ
tp1408
a(Vwith
VIN
tp1409
a(Vthat
VDT
tp1410
a(Vof
VIN
tp1411
a(Va
VDT
tp1412
a(Vregistered
VVBN
tp1413
a(Vdesignation
VNN
tp1414
a(Vof
VIN
tp1415
a(Vorigin
VNN
tp1416
a(V.
V.
tp1417
aa(lp1418
(VI
VPRP
tp1419
a(Vcould
VMD
tp1420
a(Vgive
VVB
tp1421
a(Vyou
VPRP
tp1422
a(Vdozens
VNNS
tp1423
a(Vof
VIN
tp1424
a(Vexamples
VNNS
tp1425
a(Vof
VIN
tp1426
a(Vthis
VDT
tp1427
a(Vfrom
VIN
tp1428
a(Vrecent
VJJ
tp1429
a(Vhistory
VNN
tp1430
a(V,
V,
tp1431
a(Vnot
VRB
tp1432
a(Vonly
VRB
tp1433
a(Vin
VIN
tp1434
a(VEurope
VNNP
tp1435
a(Vbut
VCC
tp1436
a(Vin
VIN
tp1437
a(Vother
VJJ
tp1438
a(Vparts
VNNS
tp1439
a(Vof
VIN
tp1440
a(Vthe
VDT
tp1441
a(Vworld
VNN
tp1442
a(V.
V.
tp1443
aa(lp1444
(VThey
VPRP
tp1445
a(Vare
VVBP
tp1446
a(Vmore
VRBR
tp1447
a(Vexpensive
VJJ
tp1448
a(Vthan
VIN
tp1449
a(Vthe
VDT
tp1450
a(VFrench
VNNP
tp1451
a(V.
V.
tp1452
aa(lp1453
(VTherefore
VRB
tp1454
a(Vthe
VDT
tp1455
a(Vpeace
VNN
tp1456
a(Vprocess
VNN
tp1457
a(Vmust
VMD
tp1458
a(Vcontinue
VVB
tp1459
a(V.
V.
tp1460
aa.