(lp1
(lp2
(VLet
VVB
tp3
a(Vme
VPRP
tp4
a(Vturn
VVB
tp5
a(Vnow
VRB
tp6
a(Vto
VTO
tp7
a(Vthree
VCD
tp8
a(Vquestions
VNNS
tp9
a(V.
V.
tp10
aa(lp11
(VIt
VPRP
tp12
a(Vhas
VVBZ
tp13
a(Vbeen
VVBN
tp14
a(Vsaid
VVBD
tp15
a(Vthat
VIN
tp16
a(Vdemocracy
VNN
tp17
a(Vis
VVBZ
tp18
a(Vnot
VRB
tp19
a(Va
VDT
tp20
a(Vproduct
VNN
tp21
a(Vthat
VWDT
tp22
a(Vcan
VMD
tp23
a(Vbe
VVB
tp24
a(Vexported
VVBN
tp25
a(V.
V.
tp26
aa(lp27
(VCustoms
VNNS
tp28
a(Vplay
VVBP
tp29
a(Va
VDT
tp30
a(Vmajor
VJJ
tp31
a(Vrole
VNN
tp32
a(Vin
VIN
tp33
a(Vcombating
VVBG
tp34
a(Vcounterfeiting
VNN
tp35
a(V.
V.
tp36
aa(lp37
(VThis
VDT
tp38
a(Vdid
VVBD
tp39
a(Vnot
VRB
tp40
a(Vstart
VVB
tp41
a(Vyesterday
VNN
tp42
a(V,
V,
tp43
a(Vbut
VCC
tp44
a(Va
VDT
tp45
a(Vweek
VNN
tp46
a(Vago
VRB
tp47
a(Vnow
VRB
tp48
a(V.
V.
tp49
aa(lp50
(VI
VPRP
tp51
a(Vthink
VVBP
tp52
a(Vthat
VIN
tp53
a(Vwe
VPRP
tp54
a(Vshould
VMD
tp55
a(Vtake
VVB
tp56
a(Vthis
VDT
tp57
a(Vpath
VNN
tp58
a(Vto
VTO
tp59
a(Vencourage
VVB
tp60
a(Vour
VPRP$
tp61
a(VIrish
VJJ
tp62
a(Vfriends
VNNS
tp63
a(Vand
VCC
tp64
a(Vthat
VIN
tp65
a(V,
V,
tp66
a(Vin
VIN
tp67
a(Vdoing
VVBG
tp68
a(Vso
VRB
tp69
a(V,
V,
tp70
a(Vwe
VPRP
tp71
a(Vshould
VMD
tp72
a(Vhave
VVB
tp73
a(Va
VDT
tp74
a(Vschedule
VNN
tp75
a(Vin
VIN
tp76
a(Vmind
VNN
tp77
a(Vto
VTO
tp78
a(Vavoid
VVB
tp79
a(Vthe
VDT
tp80
a(Vpossibility
VNN
tp81
a(Vof
VIN
tp82
a(Vus
VPRP
tp83
a(Vfalling
VVBG
tp84
a(Vbehind
VIN
tp85
a(Vas
VIN
tp86
a(Va
VDT
tp87
a(Vresult
VNN
tp88
a(Vof
VIN
tp89
a(Vthe
VDT
tp90
a(VBritish
VJJ
tp91
a(Velections
VNNS
tp92
a(Vbeing
VVBG
tp93
a(Vbrought
VVBN
tp94
a(Vforward
VRB
tp95
a(V.
V.
tp96
aa(lp97
(VSo
VIN
tp98
a(Vwe
VPRP
tp99
a(Vwant
VVBP
tp100
a(Vsupplementary
VJJ
tp101
a(Vanalyses
VNNS
tp102
a(Vtaken
VVBN
tp103
a(Vinto
VIN
tp104
a(Vaccount
VNN
tp105
a(V,
V,
tp106
a(Vwe
VPRP
tp107
a(Vwant
VVBP
tp108
a(Vfirmer
VJJR
tp109
a(Vcommitments
VNNS
tp110
a(V,
V,
tp111
a(Vwe
VPRP
tp112
a(Vwant
VVBP
tp113
a(Va
VDT
tp114
a(Vspecific
VJJ
tp115
a(Vpoint
VNN
tp116
a(Vabout
VIN
tp117
a(Vstrengthening
VVBG
tp118
a(Vemployment
VNN
tp119
a(Vand
VCC
tp120
a(Vsocial
VJJ
tp121
a(Vcohesion
VNN
tp122
a(Vin
VIN
tp123
a(Vthe
VDT
tp124
a(Vinformation
VNN
tp125
a(Vsociety
VNN
tp126
a(V-
V:
tp127
a(Vbecause
VIN
tp128
a(Vthere
VEX
tp129
a(Vis
VVBZ
tp130
a(Vnothing
VNN
tp131
a(Vabout
VIN
tp132
a(Vthat
VDT
tp133
a(Vin
VIN
tp134
a(Vthe
VDT
tp135
a(VCommission
VNNP
tp136
a(V&apos;
VNN
tp137
a(Vs
VVBZ
tp138
a(Vcommunication
VNN
tp139
a(V-
V:
tp140
a(Vand
VCC
tp141
a(Vwe
VPRP
tp142
a(Vwant
VVBP
tp143
a(Va
VDT
tp144
a(Vstrategy
VNN
tp145
a(Vwith
VIN
tp146
a(Vguidelines
VNNS
tp147
a(V,
V,
tp148
a(Vrecommendations
VNNS
tp149
a(Vand
VCC
tp150
a(Vindicators
VNNS
tp151
a(V.
V.
tp152
aa(lp153
(VTo
VTO
tp154
a(Vput
VVB
tp155
a(Vit
VPRP
tp156
a(Vbluntly
VRB
tp157
a(V,
V,
tp158
a(Vwe
VPRP
tp159
a(Vwere
VVBD
tp160
a(Vdisappointed
VVBN
tp161
a(Vwith
VIN
tp162
a(Vour
VPRP$
tp163
a(Vpartners
VNNS
tp164
a(V&apos;
VVBP
tp165
a(Vpriorities
VNNS
tp166
a(V,
V,
tp167
a(Von
VIN
tp168
a(Vboth
VDT
tp169
a(Veducation
VNN
tp170
a(Vand
VCC
tp171
a(Vhealth
VNN
tp172
a(V,
V,
tp173
a(Vin
VIN
tp174
a(Vthe
VDT
tp175
a(Vplanning
VNN
tp176
a(Vof
VIN
tp177
a(Vwhat
VWP
tp178
a(Vwe
VPRP
tp179
a(Vare
VVBP
tp180
a(Vdoing
VVBG
tp181
a(Vcountry
VNN
tp182
a(Vby
VIN
tp183
a(Vcountry
VNN
tp184
a(V.
V.
tp185
aa(lp186
(VMore
VJJR
tp187
a(Vthan
VIN
tp188
a(V600
VCD
tp189
a(V000
VCD
tp190
a(Vjobs
VNNS
tp191
a(Vhave
VVBP
tp192
a(Vbeen
VVBN
tp193
a(Vlost
VVBN
tp194
a(Vin
VIN
tp195
a(Vthe
VDT
tp196
a(Vsector
VNN
tp197
a(Vover
VIN
tp198
a(Vthe
VDT
tp199
a(Vlast
VJJ
tp200
a(Vsix
VCD
tp201
a(Vyears
VNNS
tp202
a(Vand
VCC
tp203
a(V,
V,
tp204
a(Vaccording
VVBG
tp205
a(Vto
VTO
tp206
a(Vforecasts
VNNS
tp207
a(V,
V,
tp208
a(Vmore
VJJR
tp209
a(Vthan
VIN
tp210
a(V800
VCD
tp211
a(V000
VCD
tp212
a(Vwill
VMD
tp213
a(Vbe
VVB
tp214
a(Vlost
VVBN
tp215
a(Vin
VIN
tp216
a(Vthe
VDT
tp217
a(Vshort
VJJ
tp218
a(Vterm
VNN
tp219
a(V.
V.
tp220
aa(lp221
(VAfter
VIN
tp222
a(Vall
VDT
tp223
a(V,
V,
tp224
a(Vthat
VDT
tp225
a(Vis
VVBZ
tp226
a(Vwhat
VWP
tp227
a(VParliament
VNNP
tp228
a(Vwanted
VVBD
tp229
a(V.
V.
tp230
aa(lp231
(VThe
VDT
tp232
a(Vtruth
VNN
tp233
a(Vis
VVBZ
tp234
a(Vthat
VIN
tp235
a(Vsouthern
VJJ
tp236
a(VAlbania
VNNP
tp237
a(Vis
VVBZ
tp238
a(Vthe
VDT
tp239
a(Vstronghold
VNN
tp240
a(Vof
VIN
tp241
a(Va
VDT
tp242
a(Vmafia
VNN
tp243
a(Vwhich
VWDT
tp244
a(V,
V,
tp245
a(Vtogether
VRB
tp246
a(Vwith
VIN
tp247
a(Vthe
VDT
tp248
a(VKGB
VNNP
tp249
a(V,
V,
tp250
a(Vlargely
VRB
tp251
a(Vcontrolled
VVBD
tp252
a(Vthe
VDT
tp253
a(Vpyramid
VNN
tp254
a(Vinvestment
VNN
tp255
a(Vschemes
VNNS
tp256
a(V.
V.
tp257
aa(lp258
(VThe
VDT
tp259
a(Vmain
VJJ
tp260
a(Vreason
VNN
tp261
a(Vfor
VIN
tp262
a(Vthis
VDT
tp263
a(Vis
VVBZ
tp264
a(Vthat
VIN
tp265
a(Vthe
VDT
tp266
a(Vrelationship
VNN
tp267
a(Vbetween
VIN
tp268
a(Vemployees
VNNS
tp269
a(Vand
VCC
tp270
a(Vemployers
VNNS
tp271
a(Vcan
VMD
tp272
a(Vnever
VRB
tp273
a(Vbe
VVB
tp274
a(Vequal
VJJ
tp275
a(V.
V.
tp276
aa(lp277
(VIn
VIN
tp278
a(Vthe
VDT
tp279
a(Vrecitals
VNNS
tp280
a(Vin
VIN
tp281
a(Vparticular
VJJ
tp282
a(V,
V,
tp283
a(Vit
VPRP
tp284
a(Vis
VVBZ
tp285
a(Vapparent
VJJ
tp286
a(Vthat
VIN
tp287
a(Vthis
VDT
tp288
a(Vwill
VMD
tp289
a(Vbe
VVB
tp290
a(Va
VDT
tp291
a(Vtest
VNN
tp292
a(Vphase
VNN
tp293
a(Vwhich
VWDT
tp294
a(Vby
VIN
tp295
a(Vno
VDT
tp296
a(Vmeans
VNNS
tp297
a(Vprecludes
VVBZ
tp298
a(Vthe
VDT
tp299
a(Voption
VNN
tp300
a(Vof
VIN
tp301
a(Vcloser
VJJR
tp302
a(Vcooperation
VNN
tp303
a(Vin
VIN
tp304
a(Vfuture
VNN
tp305
a(V.
V.
tp306
aa(lp307
(VAs
VIN
tp308
a(VI
VPRP
tp309
a(Vsaid
VVBD
tp310
a(Vin
VIN
tp311
a(Vthis
VDT
tp312
a(VChamber
VNNP
tp313
a(Vyesterday
VNN
tp314
a(Vand
VCC
tp315
a(Vat
VIN
tp316
a(Vother
VJJ
tp317
a(Vtimes
VNNS
tp318
a(Vrecently
VRB
tp319
a(V,
V,
tp320
a(Vas
VIN
tp321
a(VPresident
VNNP
tp322
a(Vof
VIN
tp323
a(Vthe
VDT
tp324
a(VCommission
VNNP
tp325
a(V,
V,
tp326
a(Vmy
VPRP$
tp327
a(Vparty
VNN
tp328
a(Vwill
VMD
tp329
a(Vbe
VVB
tp330
a(VEurope
VNNP
tp331
a(Vand
VCC
tp332
a(Vit
VPRP
tp333
a(Vwill
VMD
tp334
a(Vbe
VVB
tp335
a(Vmade
VVBN
tp336
a(Vup
VRP
tp337
a(Vof
VIN
tp338
a(Vall
VPDT
tp339
a(Vthose
VDT
tp340
a(Vwho
VWP
tp341
a(Vwant
VVBP
tp342
a(Vto
VTO
tp343
a(Vcome
VVB
tp344
a(Von
VIN
tp345
a(Vthis
VDT
tp346
a(Vexciting
VJJ
tp347
a(Vjourney
VNN
tp348
a(Vto
VTO
tp349
a(Vmake
VVB
tp350
a(Va
VDT
tp351
a(Vunited
VVBN
tp352
a(VEurope
VNNP
tp353
a(V.
V.
tp354
aa(lp355
(VIt
VPRP
tp356
a(Vis
VVBZ
tp357
a(Vbecoming
VVBG
tp358
a(Vthe
VDT
tp359
a(Vappraiser
VNN
tp360
a(Vof
VIN
tp361
a(Veverything
VNN
tp362
a(V,
V,
tp363
a(Vespecially
VRB
tp364
a(Vwhen
VWRB
tp365
a(Vit
VPRP
tp366
a(Vcomes
VVBZ
tp367
a(Vto
VTO
tp368
a(Vhuman
VJJ
tp369
a(Vrights
VNNS
tp370
a(V,
V,
tp371
a(Vat
VIN
tp372
a(Va
VDT
tp373
a(Vtime
VNN
tp374
a(Vwhen
VWRB
tp375
a(Va
VDT
tp376
a(Vhuge
VJJ
tp377
a(Vnetwork
VNN
tp378
a(Vof
VIN
tp379
a(Vdictatorship
VNN
tp380
a(V,
V,
tp381
a(Vrepression
VNN
tp382
a(Vand
VCC
tp383
a(Vpolice
VNN
tp384
a(Vstates
VNNS
tp385
a(Vis
VVBZ
tp386
a(Vunfolding
VVBG
tp387
a(Vin
VIN
tp388
a(Vthe
VDT
tp389
a(VEU
VNNP
tp390
a(Vitself
VPRP
tp391
a(V.
V.
tp392
aa(lp393
(VThis
VDT
tp394
a(Vhas
VVBZ
tp395
a(Valready
VRB
tp396
a(Vhappened
VVBN
tp397
a(V,
V,
tp398
a(Vfor
VIN
tp399
a(Vexample
VNN
tp400
a(V,
V,
tp401
a(Vin
VIN
tp402
a(Vgreenhouses
VNNS
tp403
a(Vin
VIN
tp404
a(Vthe
VDT
tp405
a(Vnorthern
VJJ
tp406
a(Vcountries
VNNS
tp407
a(V,
V,
tp408
a(Vand
VCC
tp409
a(Vthere
VEX
tp410
a(Vare
VVBP
tp411
a(Vno
VDT
tp412
a(Vproblems
VNNS
tp413
a(Vwith
VIN
tp414
a(Vusing
VVBG
tp415
a(Vthe
VDT
tp416
a(Valternatives
VNNS
tp417
a(V.
V.
tp418
aa(lp419
(VThe
VDT
tp420
a(Vtests
VNNS
tp421
a(Vincluded
VVBD
tp422
a(Va
VDT
tp423
a(Vswimming
VNN
tp424
a(Vtest
VNN
tp425
a(Vand
VCC
tp426
a(Va
VDT
tp427
a(Vrowing
VNN
tp428
a(Vtest
VNN
tp429
a(V,
V,
tp430
a(Valthough
VIN
tp431
a(VI
VPRP
tp432
a(Vam
VVBP
tp433
a(Vafraid
VJJ
tp434
a(Vthat
VIN
tp435
a(Vit
VPRP
tp436
a(Vwas
VVBD
tp437
a(Vcustomary
VJJ
tp438
a(Vto
VTO
tp439
a(Vtip
VVB
tp440
a(Vthe
VDT
tp441
a(Vman
VNN
tp442
a(Vholding
VVBG
tp443
a(Vthe
VDT
tp444
a(Voars
VNNS
tp445
a(Vso
VIN
tp446
a(Vthat
VIN
tp447
a(Vhe
VPRP
tp448
a(Vrowed
VVBD
tp449
a(Vinstead
VRB
tp450
a(Vof
VIN
tp451
a(Vthe
VDT
tp452
a(Vaspiring
VJJ
tp453
a(Vsailor
VNN
tp454
a(V.
V.
tp455
aa(lp456
(VFaced
VVBN
tp457
a(Vwith
VIN
tp458
a(Vthis
VDT
tp459
a(Vtype
VNN
tp460
a(Vof
VIN
tp461
a(Vbarbaric
VJJ
tp462
a(Vact
VNN
tp463
a(V,
V,
tp464
a(Veven
VRB
tp465
a(Vgreater
VJJR
tp466
a(Vbarbarism
VNN
tp467
a(Vis
VVBZ
tp468
a(Vhard
VJJ
tp469
a(Vto
VTO
tp470
a(Vimagine
VVB
tp471
a(V.
V.
tp472
aa(lp473
(VHow
VWRB
tp474
a(Vwill
VMD
tp475
a(Vthe
VDT
tp476
a(VCouncil
VNNP
tp477
a(Vmonitor
VVB
tp478
a(Vthe
VDT
tp479
a(Vsituation
VNN
tp480
a(V?
V.
tp481
aa(lp482
(VIt
VPRP
tp483
a(Vis
VVBZ
tp484
a(Vabout
VIN
tp485
a(Vinteraction
VNN
tp486
a(V,
V,
tp487
a(Vfreedom
VNN
tp488
a(Vof
VIN
tp489
a(Vexpression
VNN
tp490
a(V,
V,
tp491
a(Vcreativity
VNN
tp492
a(Vand
VCC
tp493
a(Vcreative
VJJ
tp494
a(Vzest
VNN
tp495
a(V.
V.
tp496
aa(lp497
(VThis
VDT
tp498
a(Vmeans
VVBZ
tp499
a(Vthere
VEX
tp500
a(Vwould
VMD
tp501
a(Vbe
VVB
tp502
a(Vno
VDT
tp503
a(Vlegal
VJJ
tp504
a(Vproceedings
VNNS
tp505
a(Vin
VIN
tp506
a(Vwhich
VWDT
tp507
a(Vto
VTO
tp508
a(Vpresent
VJJ
tp509
a(Vevidence
VNN
tp510
a(V.
V.
tp511
aa(lp512
(VThere
VEX
tp513
a(Vare
VVBP
tp514
a(Vvarious
VJJ
tp515
a(Vreasons
VNNS
tp516
a(Vfor
VIN
tp517
a(Vthe
VDT
tp518
a(Vhealth
VNN
tp519
a(Vinequalities
VNNS
tp520
a(Vbetween
VIN
tp521
a(Vpopulation
VNN
tp522
a(Vgroups
VNNS
tp523
a(V.
V.
tp524
aa(lp525
(VSimilar
VJJ
tp526
a(Vmechanisms
VNNS
tp527
a(Vfor
VIN
tp528
a(Vadjusting
VVBG
tp529
a(Vpay
VNN
tp530
a(Vaccording
VVBG
tp531
a(Vto
VTO
tp532
a(Vthe
VDT
tp533
a(Vlocation
VNN
tp534
a(Vof
VIN
tp535
a(Vthe
VDT
tp536
a(Vworkplace
VNN
tp537
a(Valready
VRB
tp538
a(Vexist
VVBP
tp539
a(Vfor
VIN
tp540
a(VEuropean
VJJ
tp541
a(Vofficials
VNNS
tp542
a(V,
V,
tp543
a(Vand
VCC
tp544
a(Vare
VVBP
tp545
a(Vconsidered
VVBN
tp546
a(Vfair
VJJ
tp547
a(V.
V.
tp548
aa(lp549
(VThe
VDT
tp550
a(Vsector
VNN
tp551
a(Valso
VRB
tp552
a(Vneeds
VVBZ
tp553
a(Vto
VTO
tp554
a(Vbe
VVB
tp555
a(Vgiven
VVBN
tp556
a(Vsome
VDT
tp557
a(Vcertainty
VNN
tp558
a(V.
V.
tp559
aa(lp560
(VZoos
VNNS
tp561
a(Vare
VVBP
tp562
a(Vunessential
VJJ
tp563
a(Vin
VIN
tp564
a(Vthis
VDT
tp565
a(Vso-called
VJJ
tp566
a(Vcivilized
VJJ
tp567
a(Vworld
VNN
tp568
a(Vof
VIN
tp569
a(Vtoday
VNN
tp570
a(V.
V.
tp571
aa(lp572
(VI
VPRP
tp573
a(Vwould
VMD
tp574
a(Vlike
VVB
tp575
a(Vto
VTO
tp576
a(Vsee
VVB
tp577
a(Va
VDT
tp578
a(Vcoherent
VJJ
tp579
a(Vand
VCC
tp580
a(Vuniform
VJJ
tp581
a(VEuropean
VJJ
tp582
a(Vstrategy
VNN
tp583
a(Vof
VIN
tp584
a(Vequal
VJJ
tp585
a(Vtreatment
VNN
tp586
a(V.
V.
tp587
aa(lp588
(VWhich
VWDT
tp589
a(Vof
VIN
tp590
a(Vthe
VDT
tp591
a(Vamendments
VNNS
tp592
a(Vdoes
VVBZ
tp593
a(VMr
VNNP
tp594
a(VMonti
VNNP
tp595
a(Vaccept
VVB
tp596
a(V?
V.
tp597
aa(lp598
(VWe
VPRP
tp599
a(Vneed
VVBP
tp600
a(Vto
VTO
tp601
a(Vcarry
VVB
tp602
a(Von
VRP
tp603
a(Vgiving
VVBG
tp604
a(Vclose
VJJ
tp605
a(Vattention
VNN
tp606
a(Vto
VTO
tp607
a(Vour
VPRP$
tp608
a(Vactivities
VNNS
tp609
a(Voutside
VIN
tp610
a(Vthe
VDT
tp611
a(VUnion
VNNP
tp612
a(V,
V,
tp613
a(Vfirstly
VRB
tp614
a(Vbecause
VIN
tp615
a(Vthere
VEX
tp616
a(Vare
VVBP
tp617
a(Vmany
VJJ
tp618
a(Vviolent
VJJ
tp619
a(Vregional
VJJ
tp620
a(Vconflicts
VNNS
tp621
a(Vwhich
VWDT
tp622
a(Vwe
VPRP
tp623
a(Vcannot
VVBP
tp624
a(Vignore
VVB
tp625
a(V,
V,
tp626
a(Vsecondly
VRB
tp627
a(Vbecause
VIN
tp628
a(Vwe
VPRP
tp629
a(Vneed
VVBP
tp630
a(Vto
VTO
tp631
a(Vstay
VVB
tp632
a(Valert
VJJ
tp633
a(Vto
VTO
tp634
a(Vprotect
VVB
tp635
a(Vthe
VDT
tp636
a(VUnion
VNNP
tp637
a(V&apos;s
VNNS
tp638
a(Vinterests
VNNS
tp639
a(Vas
VIN
tp640
a(Va
VDT
tp641
a(Vmajor
VJJ
tp642
a(Veconomic
VJJ
tp643
a(Vpower
VNN
tp644
a(V,
V,
tp645
a(Vand
VCC
tp646
a(Vthirdly
VRB
tp647
a(Vbecause
VIN
tp648
a(Vthe
VDT
tp649
a(Vrelationship
VNN
tp650
a(Vbetween
VIN
tp651
a(Vpolitics
VNNS
tp652
a(Vand
VCC
tp653
a(Veconomics
VNNS
tp654
a(Vin
VIN
tp655
a(Vinternational
VJJ
tp656
a(Vrelations
VNNS
tp657
a(Vhas
VVBZ
tp658
a(Vbecome
VVBN
tp659
a(Vmuch
VRB
tp660
a(Vmore
VRBR
tp661
a(Vcomplicated
VJJ
tp662
a(V.
V.
tp663
aa(lp664
(VThe
VDT
tp665
a(Vaim
VNN
tp666
a(Vof
VIN
tp667
a(Vmodern
VJJ
tp668
a(Vterrorism
VNN
tp669
a(Vis
VVBZ
tp670
a(Vto
VTO
tp671
a(Vdestroy
VVB
tp672
a(Vthe
VDT
tp673
a(Vcivilisation
VNN
tp674
a(Vin
VIN
tp675
a(Vwhich
VWDT
tp676
a(Vwe
VPRP
tp677
a(Vlive
VVBP
tp678
a(V.
V.
tp679
aa(lp680
(VThe
VDT
tp681
a(Vsatellite
VNN
tp682
a(Vshould
VMD
tp683
a(Vbe
VVB
tp684
a(Vplaced
VVBN
tp685
a(Von
VIN
tp686
a(Vits
VPRP$
tp687
a(Vfinal
VJJ
tp688
a(Vorbit
VNN
tp689
a(Varound
VIN
tp690
a(Vseven
VCD
tp691
a(Vhours
VNNS
tp692
a(Vafter
VIN
tp693
a(Vthe
VDT
tp694
a(Vlaunch
VNN
tp695
a(V,
V,
tp696
a(Vand
VCC
tp697
a(Vit
VPRP
tp698
a(Vwill
VMD
tp699
a(Vbe
VVB
tp700
a(Vcontrolled
VVBN
tp701
a(Vdirectly
VRB
tp702
a(Vfrom
VIN
tp703
a(Vthe
VDT
tp704
a(VFucino
VNNP
tp705
a(VControl
VNNP
tp706
a(VCentre
VNNP
tp707
a(Vin
VIN
tp708
a(VItaly
VNNP
tp709
a(V.
V.
tp710
aa(lp711
(VBut
VCC
tp712
a(Vthen
VRB
tp713
a(Vit
VPRP
tp714
a(V&apos;s
VVBZ
tp715
a(Vthe
VDT
tp716
a(VState
VNN
tp717
a(Vwhich
VWDT
tp718
a(Vsells
VVBZ
tp719
a(Vit
VPRP
tp720
a(V.
V.
tp721
aa(lp722
(VIt
VPRP
tp723
a(Vlimits
VVBZ
tp724
a(Vitself
VPRP
tp725
a(Vto
VTO
tp726
a(Vproposing
VVBG
tp727
a(Vsome
VDT
tp728
a(Vpalliative
VJJ
tp729
a(Vcare
VNN
tp730
a(Vfor
VIN
tp731
a(Vthe
VDT
tp732
a(Vprinciples
VNNS
tp733
a(Vset
VVBN
tp734
a(Vout
VRP
tp735
a(Vin
VIN
tp736
a(Vthe
VDT
tp737
a(VCommission
VNNP
tp738
a(Vcommunication
VNN
tp739
a(V.
V.
tp740
aa(lp741
(VI
VPRP
tp742
a(Vhave
VVBP
tp743
a(Valready
VRB
tp744
a(Vreplied
VVBN
tp745
a(Vto
VTO
tp746
a(Vhim
VPRP
tp747
a(V,
V,
tp748
a(Vasking
VVBG
tp749
a(Vto
VTO
tp750
a(Vsee
VVB
tp751
a(Vhim
VPRP
tp752
a(Vin
VIN
tp753
a(Vorder
VNN
tp754
a(Vto
VTO
tp755
a(Vlet
VVB
tp756
a(Vhim
VPRP
tp757
a(Vknow
VVB
tp758
a(Vthat
VIN
tp759
a(Vthis
VDT
tp760
a(Varrangement
VNN
tp761
a(Vdoes
VVBZ
tp762
a(Vnot
VRB
tp763
a(Vmeet
VVB
tp764
a(Vthe
VDT
tp765
a(Vwishes
VNNS
tp766
a(Vof
VIN
tp767
a(Vour
VPRP$
tp768
a(VAssembly
VNN
tp769
a(Vat
VIN
tp770
a(Vall
VDT
tp771
a(V.
V.
tp772
aa(lp773
(VWould
VMD
tp774
a(Vit
VPRP
tp775
a(Vnot
VRB
tp776
a(Vmake
VVB
tp777
a(Vsense
VNN
tp778
a(V,
V,
tp779
a(Vtherefore
VRB
tp780
a(V,
V,
tp781
a(Vto
VTO
tp782
a(Vshift
VVB
tp783
a(Vthe
VDT
tp784
a(Vbudget
VNN
tp785
a(V&apos;s
VNNS
tp786
a(Vattention
VNN
tp787
a(Vto
VTO
tp788
a(Vfishing
VNN
tp789
a(Vregions
VNNS
tp790
a(Vthat
VWDT
tp791
a(Vhave
VVBP
tp792
a(Vbeen
VVBN
tp793
a(Vself-sufficient
VJJ
tp794
a(Vto
VTO
tp795
a(Vdate
VNN
tp796
a(V?
V.
tp797
aa(lp798
(VWe
VPRP
tp799
a(Vhave
VVBP
tp800
a(Vbeen
VVBN
tp801
a(Vtalking
VVBG
tp802
a(Vabout
VIN
tp803
a(Vthis
VDT
tp804
a(Vfor
VIN
tp805
a(Vyears
VNNS
tp806
a(V,
V,
tp807
a(Vbut
VCC
tp808
a(Vif
VIN
tp809
a(Vyou
VPRP
tp810
a(Vlook
VVBP
tp811
a(Vat
VIN
tp812
a(VEU
VNNP
tp813
a(Vlaw
VNN
tp814
a(Vit
VPRP
tp815
a(Vis
VVBZ
tp816
a(Vnot
VRB
tp817
a(Vthere
VRB
tp818
a(V.
V.
tp819
aa(lp820
(VAlthough
VIN
tp821
a(Vthere
VEX
tp822
a(Vwas
VVBD
tp823
a(Vno
VDT
tp824
a(Vban
VNN
tp825
a(Von
VIN
tp826
a(Vlearning
VVBG
tp827
a(VFrench
VJJ
tp828
a(Vor
VCC
tp829
a(VEnglish
VJJ
tp830
a(Vin
VIN
tp831
a(Vthe
VDT
tp832
a(Vregion
VNN
tp833
a(V,
V,
tp834
a(Vthere
VEX
tp835
a(Vwas
VVBD
tp836
a(Vcertainly
VRB
tp837
a(Vlack
VNN
tp838
a(Vof
VIN
tp839
a(Vmotivation
VNN
tp840
a(V.
V.
tp841
aa(lp842
(VThis
VDT
tp843
a(Vslogan
VNN
tp844
a(Vcan
VMD
tp845
a(Vbe
VVB
tp846
a(Vinterpreted
VVBN
tp847
a(Vin
VIN
tp848
a(Vdifferent
VJJ
tp849
a(Vways
VNNS
tp850
a(V,
V,
tp851
a(Vdepending
VVBG
tp852
a(Von
VIN
tp853
a(Vone
VCD
tp854
a(V&apos;s
VNNS
tp855
a(Vpolitical
VJJ
tp856
a(Vand
VCC
tp857
a(Vpersonal
VJJ
tp858
a(Vexperience
VNN
tp859
a(V.
V.
tp860
aa(lp861
(VLack
VNN
tp862
a(Vof
VIN
tp863
a(Vknowledge
VNN
tp864
a(Vof
VIN
tp865
a(VCommunity
VNNP
tp866
a(Vlaw
VNN
tp867
a(Vamongst
VIN
tp868
a(Vlawyers
VNNS
tp869
a(V,
V,
tp870
a(Vjudges
VNNS
tp871
a(Vand
VCC
tp872
a(Vpublic
VJJ
tp873
a(Vprosecutors
VNNS
tp874
a(Vis
VVBZ
tp875
a(Vnot
VRB
tp876
a(Vjust
VRB
tp877
a(Va
VDT
tp878
a(Vproblem
VNN
tp879
a(Vfor
VIN
tp880
a(Vthe
VDT
tp881
a(Vprofessionalism
VNN
tp882
a(Vof
VIN
tp883
a(Vthese
VDT
tp884
a(Vprofessions
VNNS
tp885
a(V,
V,
tp886
a(Vbut
VCC
tp887
a(Valso
VRB
tp888
a(Va
VDT
tp889
a(Vrisk
VNN
tp890
a(Vfor
VIN
tp891
a(Vthe
VDT
tp892
a(Vordinary
VJJ
tp893
a(Vcitizen
VNN
tp894
a(V,
V,
tp895
a(Vfor
VIN
tp896
a(Vbusinesses
VNNS
tp897
a(Vand
VCC
tp898
a(Vfor
VIN
tp899
a(Vthe
VDT
tp900
a(Vfunctioning
VNN
tp901
a(Vof
VIN
tp902
a(Vthe
VDT
tp903
a(Vinternal
VJJ
tp904
a(Vmarket
VNN
tp905
a(V.
V.
tp906
aa(lp907
(VA
VDT
tp908
a(Vhypocrite
VNN
tp909
a(Vwho
VWP
tp910
a(Vis
VVBZ
tp911
a(Vdependent
VJJ
tp912
a(Von
VIN
tp913
a(Vsomething
VNN
tp914
a(V-
V:
tp915
a(Von
VIN
tp916
a(Vthose
VDT
tp917
a(Vcheap
VJJ
tp918
a(Vgoods
VNNS
tp919
a(Vfrom
VIN
tp920
a(VChina
VNNP
tp921
a(V.
V.
tp922
aa(lp923
(VThey
VPRP
tp924
a(Vhave
VVBP
tp925
a(Vno
VDT
tp926
a(Vtents
VNNS
tp927
a(V,
V,
tp928
a(Vfood
VNN
tp929
a(Vor
VCC
tp930
a(Vwater
VNN
tp931
a(V.
V.
tp932
aa(lp933
(VThe
VDT
tp934
a(Voriginal
VJJ
tp935
a(Vpromise
VNN
tp936
a(Vwas
VVBD
tp937
a(Vfor
VIN
tp938
a(Vsome
VDT
tp939
a(VEUR
V$
tp940
a(V30
VCD
tp941
a(Vmillion
VCD
tp942
a(V.
V.
tp943
aa(lp944
(VPencils
VNNS
tp945
a(Vhave
VVBP
tp946
a(Veven
VRB
tp947
a(Vbeen
VVBN
tp948
a(Vconfiscated
VVBN
tp949
a(Vfrom
VIN
tp950
a(Vschools
VNNS
tp951
a(Vbecause
VIN
tp952
a(Vit
VPRP
tp953
a(Vis
VVBZ
tp954
a(Vsaid
VVBD
tp955
a(Vthat
VIN
tp956
a(VSaddam
VNNP
tp957
a(VHussein
VNNP
tp958
a(Vwould
VMD
tp959
a(Vmake
VVB
tp960
a(Vatomic
VJJ
tp961
a(Vbombs
VNNS
tp962
a(Vfrom
VIN
tp963
a(Vgraphite
VNN
tp964
a(Vmines
VNNS
tp965
a(V!
V.
tp966
aa(lp967
(VThat
VDT
tp968
a(Vwould
VMD
tp969
a(Vexplain
VVB
tp970
a(Vsome
VDT
tp971
a(Vof
VIN
tp972
a(Vthe
VDT
tp973
a(Voutbursts
VNNS
tp974
a(Vthat
VIN
tp975
a(Vhe
VPRP
tp976
a(Vmay
VMD
tp977
a(Vhave
VVB
tp978
a(Vsensed
VVBN
tp979
a(Vbehind
VIN
tp980
a(Vhim
VPRP
tp981
a(V.
V.
tp982
aa(lp983
(VWe
VPRP
tp984
a(Vdo
VVBP
tp985
a(Vnot
VRB
tp986
a(Vthink
VVB
tp987
a(Vthat
VIN
tp988
a(Vthe
VDT
tp989
a(Vbest
VJJS
tp990
a(Vapproach
VNN
tp991
a(Vhas
VVBZ
tp992
a(Vbeen
VVBN
tp993
a(Vtaken
VVBN
tp994
a(V.
V.
tp995
aa(lp996
(VI
VPRP
tp997
a(Vwant
VVBP
tp998
a(Vto
VTO
tp999
a(Vprotest
VVB
tp1000
a(Vvery
VRB
tp1001
a(Vstrongly
VRB
tp1002
a(Vabout
VIN
tp1003
a(Vthis
VDT
tp1004
a(V.
V.
tp1005
aa(lp1006
(VThe
VDT
tp1007
a(Vold
VJJ
tp1008
a(Vgames
VNNS
tp1009
a(Vbetween
VIN
tp1010
a(Vempires
VNNS
tp1011
a(Vare
VVBP
tp1012
a(Vat
VIN
tp1013
a(Vwork
VNN
tp1014
a(V,
V,
tp1015
a(Vand
VCC
tp1016
a(Vthe
VDT
tp1017
a(Vvictim
VNN
tp1018
a(Vis
VVBZ
tp1019
a(Vnot
VRB
tp1020
a(Vjust
VRB
tp1021
a(Vthe
VDT
tp1022
a(VAlgerian
VNNP
tp1023
a(Vpeople
VNNS
tp1024
a(V,
V,
tp1025
a(Vbut
VCC
tp1026
a(VAlgeria
VNNP
tp1027
a(Vitself
VPRP
tp1028
a(V,
V,
tp1029
a(Vand
VCC
tp1030
a(Vits
VPRP$
tp1031
a(Voldest
VJJS
tp1032
a(Vand
VCC
tp1033
a(Vultimately
VRB
tp1034
a(Vmost
VRBS
tp1035
a(Vfaithful
VJJ
tp1036
a(Vfriends
VNNS
tp1037
a(V.
V.
tp1038
aa(lp1039
(VAnd
VCC
tp1040
a(Vany
VDT
tp1041
a(Vremaining
VVBG
tp1042
a(Vskeletons
VNNS
tp1043
a(V,
V,
tp1044
a(VI
VPRP
tp1045
a(Vintend
VVBP
tp1046
a(Vto
VTO
tp1047
a(Vleave
VVB
tp1048
a(Vthem
VPRP
tp1049
a(Vin
VIN
tp1050
a(Vthe
VDT
tp1051
a(Vcupboard
VNN
tp1052
a(V.
V.
tp1053
aa(lp1054
(VIn
VIN
tp1055
a(Vthe
VDT
tp1056
a(Vfield
VNN
tp1057
a(Vof
VIN
tp1058
a(Vfinancial
VJJ
tp1059
a(Vmanagement
VNN
tp1060
a(V,
V,
tp1061
a(Vwe
VPRP
tp1062
a(Vhad
VVBD
tp1063
a(Vcentral
VJJ
tp1064
a(Vcontrol
VNN
tp1065
a(Vof
VIN
tp1066
a(Vcommitments
VNNS
tp1067
a(Vand
VCC
tp1068
a(Vpayments
VNNS
tp1069
a(V.
V.
tp1070
aa(lp1071
(VIf
VIN
tp1072
a(Vdata
VNNS
tp1073
a(Vare
VVBP
tp1074
a(Vshared
VVBN
tp1075
a(Vand
VCC
tp1076
a(Vstored
VVBN
tp1077
a(V,
V,
tp1078
a(Vthe
VDT
tp1079
a(Vdangers
VNNS
tp1080
a(Vof
VIN
tp1081
a(Va
VDT
tp1082
a(Vnasty
VJJ
tp1083
a(Vfate
VNN
tp1084
a(V,
V,
tp1085
a(Vas
VIN
tp1086
a(Vhappened
VVBN
tp1087
a(Vto
VTO
tp1088
a(VMaher
VNNP
tp1089
a(VArrar
VNNP
tp1090
a(V,
V,
tp1091
a(Vrendered
VVBD
tp1092
a(Vto
VTO
tp1093
a(Vtorture
VVB
tp1094
a(Vfor
VIN
tp1095
a(Vseven
VCD
tp1096
a(Vmonths
VNNS
tp1097
a(Vafter
VIN
tp1098
a(Vbeing
VVBG
tp1099
a(Vpicked
VVBN
tp1100
a(Vup
VRP
tp1101
a(Vat
VIN
tp1102
a(VJFK
VNNP
tp1103
a(VAirport
VNNP
tp1104
a(V,
V,
tp1105
a(Vcannot
VNN
tp1106
a(Vbe
VVB
tp1107
a(Vregarded
VVBN
tp1108
a(Vas
VIN
tp1109
a(Vfanciful
VJJ
tp1110
a(V.
V.
tp1111
aa(lp1112
(VWe
VPRP
tp1113
a(Vcan
VMD
tp1114
a(Vnow
VRB
tp1115
a(Vfill
VVB
tp1116
a(Vquite
VRB
tp1117
a(Va
VDT
tp1118
a(Vbookshelf
VNN
tp1119
a(Vwith
VIN
tp1120
a(Vthe
VDT
tp1121
a(Vsuccesses
VNNS
tp1122
a(Vand
VCC
tp1123
a(Valso
VRB
tp1124
a(Vthe
VDT
tp1125
a(Vproblems
VNNS
tp1126
a(V.
V.
tp1127
aa(lp1128
(VThe
VDT
tp1129
a(Vsystem
VNN
tp1130
a(Vhas
VVBZ
tp1131
a(Vto
VTO
tp1132
a(Vbe
VVB
tp1133
a(Vclear
VJJ
tp1134
a(Vand
VCC
tp1135
a(Vtransparent
VJJ
tp1136
a(V.
V.
tp1137
aa(lp1138
(VWith
VIN
tp1139
a(Va
VDT
tp1140
a(Vrapid
VJJ
tp1141
a(Vreaction
VNN
tp1142
a(Vunit
VNN
tp1143
a(Vto
VTO
tp1144
a(Vtackle
VVB
tp1145
a(Vcommunicable
VJJ
tp1146
a(Vdisease
VNN
tp1147
a(Vwe
VPRP
tp1148
a(Vcan
VMD
tp1149
a(Vact
VVB
tp1150
a(Vmuch
VRB
tp1151
a(Vmore
VRBR
tp1152
a(Veffectively
VRB
tp1153
a(V.
V.
tp1154
aa(lp1155
(VThat
VDT
tp1156
a(Vis
VVBZ
tp1157
a(Vproof
VNN
tp1158
a(Vthat
VIN
tp1159
a(Vthe
VDT
tp1160
a(Vwind
VNN
tp1161
a(Vof
VIN
tp1162
a(Vfreedom
VNN
tp1163
a(Vis
VVBZ
tp1164
a(Vnow
VRB
tp1165
a(Vblowing
VVBG
tp1166
a(Vagainst
VIN
tp1167
a(Vthe
VDT
tp1168
a(Vtheocracies
VNNS
tp1169
a(Vin
VIN
tp1170
a(Vthe
VDT
tp1171
a(VMiddle
VNNP
tp1172
a(VEast
VNNP
tp1173
a(Vand
VCC
tp1174
a(Vin
VIN
tp1175
a(Vthe
VDT
tp1176
a(VArab
VNNP
tp1177
a(Vcountries
VNNS
tp1178
a(V,
V,
tp1179
a(Vtoo
VRB
tp1180
a(V,
V,
tp1181
a(Vand
VCC
tp1182
a(Vthat
VIN
tp1183
a(Vit
VPRP
tp1184
a(Vis
VVBZ
tp1185
a(Vour
VPRP$
tp1186
a(Vjob
VNN
tp1187
a(Vto
VTO
tp1188
a(Vhelp
VVB
tp1189
a(Vthem
VPRP
tp1190
a(V.
V.
tp1191
aa(lp1192
(VIt
VPRP
tp1193
a(Vis
VVBZ
tp1194
a(Vnot
VRB
tp1195
a(V,
V,
tp1196
a(Vin
VIN
tp1197
a(Vany
VDT
tp1198
a(Vcase
VNN
tp1199
a(V,
V,
tp1200
a(Vbecause
VIN
tp1201
a(Van
VDT
tp1202
a(VAssociation
VNNP
tp1203
a(VAgreement
VNN
tp1204
a(Vwould
VMD
tp1205
a(Vgive
VVB
tp1206
a(Va
VDT
tp1207
a(Vgovernment
VNN
tp1208
a(Vor
VCC
tp1209
a(Va
VDT
tp1210
a(Vcountry
VNN
tp1211
a(Vsome
VDT
tp1212
a(Vkind
VNN
tp1213
a(Vof
VIN
tp1214
a(Vcarte
VNN
tp1215
a(Vblanche
VNN
tp1216
a(Vto
VTO
tp1217
a(Vdo
VVB
tp1218
a(Vwhatever
VWDT
tp1219
a(Vit
VPRP
tp1220
a(Vlikes
VVBZ
tp1221
a(V.
V.
tp1222
aa(lp1223
(VThis
VDT
tp1224
a(Vreform
VNN
tp1225
a(V,
V,
tp1226
a(Vas
VIN
tp1227
a(Vyou
VPRP
tp1228
a(Vwell
VRB
tp1229
a(Vknow
VVBP
tp1230
a(V,
V,
tp1231
a(Vimplies
VVBZ
tp1232
a(Va
VDT
tp1233
a(Vsubstantial
VJJ
tp1234
a(Vchange
VNN
tp1235
a(V,
V,
tp1236
a(Va
VDT
tp1237
a(Vfundamental
VJJ
tp1238
a(Vchange
VNN
tp1239
a(Vof
VIN
tp1240
a(Vorientation
VNN
tp1241
a(V,
V,
tp1242
a(Va
VDT
tp1243
a(Vchange
VNN
tp1244
a(Vwhich
VWDT
tp1245
a(Vis
VVBZ
tp1246
a(Vnot
VRB
tp1247
a(Vjust
VRB
tp1248
a(Vterminological
VJJ
tp1249
a(V,
V,
tp1250
a(Vbut
VCC
tp1251
a(Vwhich
VWDT
tp1252
a(Vis
VVBZ
tp1253
a(Vfundamental
VJJ
tp1254
a(V.
V.
tp1255
aa(lp1256
(VMr
VNNP
tp1257
a(VPresident
VNNP
tp1258
a(V,
V,
tp1259
a(VI
VPRP
tp1260
a(Vmust
VMD
tp1261
a(Vconfess
VVB
tp1262
a(Vto
VTO
tp1263
a(Vbeing
VVBG
tp1264
a(Vquite
VRB
tp1265
a(Vastonished
VJJ
tp1266
a(V!
V.
tp1267
aa(lp1268
(VSecondly
VRB
tp1269
a(V,
V,
tp1270
a(VI
VPRP
tp1271
a(Vshould
VMD
tp1272
a(Vlike
VVB
tp1273
a(Vto
VTO
tp1274
a(Vstress
VNN
tp1275
a(Vthat
VWDT
tp1276
a(Vreducing
VVBG
tp1277
a(Vthe
VDT
tp1278
a(Vprice
VNN
tp1279
a(Vof
VIN
tp1280
a(Vsugar
VNN
tp1281
a(Vover
VIN
tp1282
a(Va
VDT
tp1283
a(Vlonger
VJJR
tp1284
a(Vperiod
VNN
tp1285
a(Vwould
VMD
tp1286
a(Vwork
VVB
tp1287
a(Vto
VTO
tp1288
a(Vthe
VDT
tp1289
a(Vadvantage
VNN
tp1290
a(Vof
VIN
tp1291
a(Vless
VJJR
tp1292
a(Vcompetitive
VJJ
tp1293
a(Vbusinesses
VNNS
tp1294
a(V,
V,
tp1295
a(Vand
VCC
tp1296
a(Vhelp
VVB
tp1297
a(Vperpetuate
VVB
tp1298
a(Vdistortions
VNNS
tp1299
a(Vin
VIN
tp1300
a(Vthe
VDT
tp1301
a(Vsugar
VNN
tp1302
a(Vmarket
VNN
tp1303
a(V.
V.
tp1304
aa(lp1305
(VI
VPRP
tp1306
a(Vconcur
VVBP
tp1307
a(Ventirely
VRB
tp1308
a(V.
V.
tp1309
aa(lp1310
(VI
VPRP
tp1311
a(Vam
VVBP
tp1312
a(Vpleased
VJJ
tp1313
a(Vthat
VIN
tp1314
a(Vyou
VPRP
tp1315
a(Vshare
VVBP
tp1316
a(Vmy
VPRP$
tp1317
a(Vviews
VNNS
tp1318
a(V.
V.
tp1319
aa(lp1320
(VAll
VPDT
tp1321
a(Vthose
VDT
tp1322
a(Vliving
VVBG
tp1323
a(Vin
VIN
tp1324
a(Vthe
VDT
tp1325
a(Vcoal-mining
VJJ
tp1326
a(Vareas
VNNS
tp1327
a(Vare
VVBP
tp1328
a(Vlosing
VVBG
tp1329
a(Vout
VRP
tp1330
a(V.
V.
tp1331
aa(lp1332
(VYou
VPRP
tp1333
a(Vwill
VMD
tp1334
a(Vtell
VVB
tp1335
a(Vme
VPRP
tp1336
a(Vthat
VIN
tp1337
a(VIsrael
VNNP
tp1338
a(Vhas
VVBZ
tp1339
a(Va
VDT
tp1340
a(Vdemocracy
VNN
tp1341
a(V,
V,
tp1342
a(Vwhile
VIN
tp1343
a(VIran
VNNP
tp1344
a(Vhas
VVBZ
tp1345
a(Va
VDT
tp1346
a(Vdictatorship
VNN
tp1347
a(V.
V.
tp1348
aa(lp1349
(VIn
VIN
tp1350
a(VEgypt
VNNP
tp1351
a(V,
V,
tp1352
a(Varound
VIN
tp1353
a(V10
VCD
tp1354
a(V%
VNN
tp1355
a(Vof
VIN
tp1356
a(Vthe
VDT
tp1357
a(Vpopulation
VNN
tp1358
a(V,
V,
tp1359
a(Veight
VCD
tp1360
a(Vmillion
VCD
tp1361
a(V,
V,
tp1362
a(Vare
VVBP
tp1363
a(VCoptic
VJJ
tp1364
a(VChristians
VNNS
tp1365
a(V,
V,
tp1366
a(Vand
VCC
tp1367
a(Vit
VPRP
tp1368
a(Vis
VVBZ
tp1369
a(Vfor
VIN
tp1370
a(Vthat
VDT
tp1371
a(Vprecise
VJJ
tp1372
a(Vreason
VNN
tp1373
a(Vthat
VIN
tp1374
a(Vthey
VPRP
tp1375
a(Vare
VVBP
tp1376
a(Va
VDT
tp1377
a(Vformer
VJJ
tp1378
a(Vmajority
VNN
tp1379
a(V.
V.
tp1380
aa(lp1381
(VSome
VDT
tp1382
a(Vpeople
VNNS
tp1383
a(Vargue
VVBP
tp1384
a(Vthat
VIN
tp1385
a(Vthe
VDT
tp1386
a(Vnumbers
VNNS
tp1387
a(Vdo
VVBP
tp1388
a(Vnot
VRB
tp1389
a(Vwork
VVB
tp1390
a(V.
V.
tp1391
aa(lp1392
(VTo
VTO
tp1393
a(Vdate
VNN
tp1394
a(V,
V,
tp1395
a(Vall
VPDT
tp1396
a(Vthe
VDT
tp1397
a(Vnational
VJJ
tp1398
a(Vschemes
VNNS
tp1399
a(Vreviewed
VVBN
tp1400
a(Von
VIN
tp1401
a(Vthis
VDT
tp1402
a(Vbasis
VNN
tp1403
a(Vhave
VVBP
tp1404
a(Vbeen
VVBN
tp1405
a(Vaccepted
VVBN
tp1406
a(Vby
VIN
tp1407
a(Vthe
VDT
tp1408
a(VCommission
VNNP
tp1409
a(V.
V.
tp1410
aa(lp1411
(VIn
VIN
tp1412
a(VPoland
VNNP
tp1413
a(Vonly
VRB
tp1414
a(V1
VCD
tp1415
a(V%
VNN
tp1416
a(Vof
VIN
tp1417
a(Vpeople
VNNS
tp1418
a(Vwith
VIN
tp1419
a(VMS
VNN
tp1420
a(Vare
VVBP
tp1421
a(Vtreated
VVBN
tp1422
a(Vwith
VIN
tp1423
a(Vdisease-modifying
VJJ
tp1424
a(Vdrugs
VNNS
tp1425
a(V,
V,
tp1426
a(Vcompared
VVBN
tp1427
a(Vto
VTO
tp1428
a(V50
VCD
tp1429
a(V%
VNN
tp1430
a(Vin
VIN
tp1431
a(VSweden
VNNP
tp1432
a(V.
V.
tp1433
aa(lp1434
(VSending
VVBG
tp1435
a(Vinformation
VNN
tp1436
a(Vused
VVBN
tp1437
a(Vto
VTO
tp1438
a(Vmean
VVB
tp1439
a(Vputting
VVBG
tp1440
a(Vit
VPRP
tp1441
a(Vin
VIN
tp1442
a(Vthe
VDT
tp1443
a(Vpost
VNN
tp1444
a(Vand
VCC
tp1445
a(Vwaiting
VVBG
tp1446
a(Varound
VRP
tp1447
a(Vfor
VIN
tp1448
a(Vit
VPRP
tp1449
a(Vto
VTO
tp1450
a(Varrive
VVB
tp1451
a(V;
V:
tp1452
a(Vnow
VRB
tp1453
a(Vemail
VNN
tp1454
a(Vgets
VVBZ
tp1455
a(Vto
VTO
tp1456
a(Vwhere
VWRB
tp1457
a(Vit
VPRP
tp1458
a(Vis
VVBZ
tp1459
a(Vgoing
VVBG
tp1460
a(Vin
VIN
tp1461
a(Vdifferent
VJJ
tp1462
a(Vparts
VNNS
tp1463
a(Vof
VIN
tp1464
a(Vthe
VDT
tp1465
a(Vworld
VNN
tp1466
a(Vin
VIN
tp1467
a(Vseconds
VNNS
tp1468
a(V.
V.
tp1469
aa(lp1470
(VWomen
VNNS
tp1471
a(Vmust
VMD
tp1472
a(Vhave
VVB
tp1473
a(Vgeneral
VJJ
tp1474
a(Vaccess
VNN
tp1475
a(Vto
VTO
tp1476
a(Vemployment
VNN
tp1477
a(Vat
VIN
tp1478
a(Vall
VDT
tp1479
a(Vlevels
VNNS
tp1480
a(Vof
VIN
tp1481
a(Vadministration
VNN
tp1482
a(Vand
VCC
tp1483
a(Vthe
VDT
tp1484
a(Vopportunity
VNN
tp1485
a(Vto
VTO
tp1486
a(Vcarry
VVB
tp1487
a(Vout
VRP
tp1488
a(Vall
VDT
tp1489
a(Vpublic
VJJ
tp1490
a(Vfunctions
VNNS
tp1491
a(V.
V.
tp1492
aa(lp1493
(VIt
VPRP
tp1494
a(Vis
VVBZ
tp1495
a(Valso
VRB
tp1496
a(Vclear
VJJ
tp1497
a(Vthat
VIN
tp1498
a(Vthe
VDT
tp1499
a(Vaccess
VNN
tp1500
a(Vproblem
VNN
tp1501
a(Vis
VVBZ
tp1502
a(Va
VDT
tp1503
a(Vreal
VJJ
tp1504
a(Vone
VCD
tp1505
a(V,
V,
tp1506
a(Vpartly
VRB
tp1507
a(Vbecause
VIN
tp1508
a(Vof
VIN
tp1509
a(Vpolitics
VNNS
tp1510
a(Vin
VIN
tp1511
a(VAfghanistan
VNNP
tp1512
a(V.
V.
tp1513
aa(lp1514
(VNo-one
VJJ
tp1515
a(Vasked
VVBD
tp1516
a(Vus
VPRP
tp1517
a(V!
V.
tp1518
aa(lp1519
(VWe
VPRP
tp1520
a(Vhave
VVBP
tp1521
a(Vmade
VVBN
tp1522
a(Van
VDT
tp1523
a(Virreversible
VJJ
tp1524
a(Vcommitment
VNN
tp1525
a(Vto
VTO
tp1526
a(Vreforming
VVBG
tp1527
a(Vour
VPRP$
tp1528
a(Vjudicial
VJJ
tp1529
a(Vsystem
VNN
tp1530
a(Vand
VCC
tp1531
a(V,
V,
tp1532
a(Vthrough
VIN
tp1533
a(Vstrong
VJJ
tp1534
a(Vcollaboration
VNN
tp1535
a(Vwith
VIN
tp1536
a(VEuropean
VJJ
tp1537
a(Vinstitutions
VNNS
tp1538
a(V,
V,
tp1539
a(Vwe
VPRP
tp1540
a(Vcreated
VVBD
tp1541
a(Vand
VCC
tp1542
a(Vare
VVBP
tp1543
a(Vnow
VRB
tp1544
a(Vfunding
VVBG
tp1545
a(Va
VDT
tp1546
a(Vcomprehensive
VJJ
tp1547
a(Vmulti-year
VJJ
tp1548
a(Vprogramme
VNN
tp1549
a(V.
V.
tp1550
aa(lp1551
(VIn
VIN
tp1552
a(VSicily
VNNP
tp1553
a(V,
V,
tp1554
a(Vtrains
VNNS
tp1555
a(Vstill
VRB
tp1556
a(Vrun
VVBP
tp1557
a(Von
VIN
tp1558
a(Vsingle
VJJ
tp1559
a(Vtracks
VNNS
tp1560
a(V,
V,
tp1561
a(Vlike
VIN
tp1562
a(Vin
VIN
tp1563
a(Vthe
VDT
tp1564
a(Vtime
VNN
tp1565
a(Vof
VIN
tp1566
a(VKing
VNNP
tp1567
a(VVittorio
VNNP
tp1568
a(VEmmanuele
VNNP
tp1569
a(V.
V.
tp1570
aa(lp1571
(VI
VPRP
tp1572
a(Vasked
VVBD
tp1573
a(Vhim
VPRP
tp1574
a(Vwhether
VIN
tp1575
a(Vhe
VPRP
tp1576
a(Vliked
VVBD
tp1577
a(Vliving
VVBG
tp1578
a(Vin
VIN
tp1579
a(VFrance
VNNP
tp1580
a(V.
V.
tp1581
aa(lp1582
(VOn
VIN
tp1583
a(V14
VCD
tp1584
a(VFebruary
VNNP
tp1585
a(Vthe
VDT
tp1586
a(Vpress
VNN
tp1587
a(Vwere
VVBD
tp1588
a(Vallowed
VVBN
tp1589
a(Vto
VTO
tp1590
a(Vwitness
VNN
tp1591
a(Vthe
VDT
tp1592
a(Vinauguration
VNN
tp1593
a(Vand
VCC
tp1594
a(Vsee
VVB
tp1595
a(Vthe
VDT
tp1596
a(Vaccused
VVBN
tp1597
a(Vbut
VCC
tp1598
a(Vwe
VPRP
tp1599
a(Vunderstand
VVBP
tp1600
a(Vthat
VIN
tp1601
a(Vthe
VDT
tp1602
a(Vproceedings
VNNS
tp1603
a(Vwill
VMD
tp1604
a(Vbe
VVB
tp1605
a(Vheld
VVBN
tp1606
a(Vin
VIN
tp1607
a(Vcamera
VNN
tp1608
a(V.
V.
tp1609
aa(lp1610
(VThe
VDT
tp1611
a(Vquality
VNN
tp1612
a(Vof
VIN
tp1613
a(Vhis
VPRP$
tp1614
a(Videas
VNNS
tp1615
a(V,
V,
tp1616
a(Vhis
VPRP$
tp1617
a(Vopen
VJJ
tp1618
a(Vspirit
VNN
tp1619
a(Vand
VCC
tp1620
a(Vreadiness
VNN
tp1621
a(Vto
VTO
tp1622
a(Vengage
VVB
tp1623
a(Vin
VIN
tp1624
a(Vdialogue
VNN
tp1625
a(V,
V,
tp1626
a(Vand
VCC
tp1627
a(Vhis
VPRP$
tp1628
a(Vintelligence
VNN
tp1629
a(Vin
VIN
tp1630
a(Vextracting
VVBG
tp1631
a(Vthe
VDT
tp1632
a(Vbest
VJJS
tp1633
a(Vcompromises
VNNS
tp1634
a(Vhave
VVBP
tp1635
a(Vbeen
VVBN
tp1636
a(Vvital
VJJ
tp1637
a(Vin
VIN
tp1638
a(Vachieving
VVBG
tp1639
a(Vthis
VDT
tp1640
a(V.
V.
tp1641
aa(lp1642
(VGreat
VJJ
tp1643
a(Vemphasis
VNN
tp1644
a(Vmust
VMD
tp1645
a(Vbe
VVB
tp1646
a(Vlaid
VVBN
tp1647
a(Von
VIN
tp1648
a(Vthis
VDT
tp1649
a(V,
V,
tp1650
a(Vwhile
VIN
tp1651
a(Vthe
VDT
tp1652
a(Vimportance
VNN
tp1653
a(Vof
VIN
tp1654
a(Vthe
VDT
tp1655
a(VEcofin
VNNP
tp1656
a(VCouncil
VNNP
tp1657
a(Vmust
VMD
tp1658
a(Vbe
VVB
tp1659
a(Vbalanced
VVBN
tp1660
a(Vout
VRP
tp1661
a(V.
V.
tp1662
aa(lp1663
(VThe
VDT
tp1664
a(Vsecond
VJJ
tp1665
a(Vissue
VNN
tp1666
a(Vis
VVBZ
tp1667
a(Vthe
VDT
tp1668
a(Vneed
VNN
tp1669
a(Vto
VTO
tp1670
a(Vcontrol
VVB
tp1671
a(Vadvertising
VNN
tp1672
a(Vslots
VNNS
tp1673
a(V,
V,
tp1674
a(Vand
VCC
tp1675
a(VI
VPRP
tp1676
a(Vtherefore
VRB
tp1677
a(Vfully
VRB
tp1678
a(Vsupport
VVB
tp1679
a(Vthe
VDT
tp1680
a(Vrapporteur
VNN
tp1681
a(Vwhen
VWRB
tp1682
a(Vshe
VPRP
tp1683
a(Vbacks
VVBZ
tp1684
a(Vthe
VDT
tp1685
a(VCommission
VNNP
tp1686
a(V&apos;
VNN
tp1687
a(Vs
VVBZ
tp1688
a(Vstrategy
VNN
tp1689
a(Vof
VIN
tp1690
a(Vcarrying
VVBG
tp1691
a(Vout
VRP
tp1692
a(Va
VDT
tp1693
a(Vstudy
VNN
tp1694
a(Von
VIN
tp1695
a(Vthe
VDT
tp1696
a(Vrepercussions
VNNS
tp1697
a(Vof
VIN
tp1698
a(Vtelevision
VNN
tp1699
a(Vadvertising
VNN
tp1700
a(Vand
VCC
tp1701
a(VTV
VNN
tp1702
a(Vshopping
VNN
tp1703
a(Vtechniques
VNNS
tp1704
a(Von
VIN
tp1705
a(Vminors
VNNS
tp1706
a(V.
V.
tp1707
aa(lp1708
(VIf
VIN
tp1709
a(Vwe
VPRP
tp1710
a(Vaccomplish
VVBP
tp1711
a(Vthis
VDT
tp1712
a(Vbreakthrough
VNN
tp1713
a(V,
V,
tp1714
a(VI
VPRP
tp1715
a(Vwill
VMD
tp1716
a(Vbe
VVB
tp1717
a(Vthe
VDT
tp1718
a(Vfirst
VJJ
tp1719
a(Vto
VTO
tp1720
a(Vextend
VVB
tp1721
a(Vmy
VPRP$
tp1722
a(Vbest
VJJS
tp1723
a(Vwishes
VNNS
tp1724
a(Vto
VTO
tp1725
a(VMrs
VNNP
tp1726
a(Vde
VIN
tp1727
a(VPalacio
VNNP
tp1728
a(Vin
VIN
tp1729
a(Vthis
VDT
tp1730
a(Vconnection
VNN
tp1731
a(V.
V.
tp1732
aa(lp1733
(VI
VPRP
tp1734
a(Vmyself
VPRP
tp1735
a(Vhave
VVBP
tp1736
a(Vbeen
VVBN
tp1737
a(Vinvolved
VVBN
tp1738
a(Vin
VIN
tp1739
a(Vthe
VDT
tp1740
a(Vcommittee
VNN
tp1741
a(Vof
VIN
tp1742
a(Vinquiry
VNN
tp1743
a(Von
VIN
tp1744
a(Vtransit
VNN
tp1745
a(Vtraffic
VNN
tp1746
a(V.
V.
tp1747
aa(lp1748
(VAs
VIN
tp1749
a(Vthe
VDT
tp1750
a(Vsaying
VVBG
tp1751
a(Vgoes
VVBZ
tp1752
a(V,
V,
tp1753
a(Vnobody
VNN
tp1754
a(Vis
VVBZ
tp1755
a(Vperfect
VJJ
tp1756
a(V.
V.
tp1757
aa(lp1758
(VIt
VPRP
tp1759
a(Vis
VVBZ
tp1760
a(Vwith
VIN
tp1761
a(Vthis
VDT
tp1762
a(Vaim
VNN
tp1763
a(Vin
VIN
tp1764
a(Vmind
VNN
tp1765
a(Vthat
VIN
tp1766
a(Vwe
VPRP
tp1767
a(Vpropose
VVBP
tp1768
a(Vanother
VDT
tp1769
a(VNorth-South
VJJ
tp1770
a(Vdialogue
VNN
tp1771
a(Vbased
VVBN
tp1772
a(Vupon
VIN
tp1773
a(Vconfidence
VNN
tp1774
a(V,
V,
tp1775
a(Vhonesty
VNN
tp1776
a(Vand
VCC
tp1777
a(Vthe
VDT
tp1778
a(Vprotection
VNN
tp1779
a(Vof
VIN
tp1780
a(Vour
VPRP$
tp1781
a(Vreciprocal
VJJ
tp1782
a(Vvital
VJJ
tp1783
a(Vinterests
VNNS
tp1784
a(V.
V.
tp1785
aa(lp1786
(VWhereas
VIN
tp1787
a(Vin
VIN
tp1788
a(V1986
VCD
tp1789
a(V,
V,
tp1790
a(Vit
VPRP
tp1791
a(Vtook
VVBD
tp1792
a(Vfive
VCD
tp1793
a(Vhours
VNNS
tp1794
a(Vto
VTO
tp1795
a(Vproduce
VVB
tp1796
a(Va
VDT
tp1797
a(Vton
VNN
tp1798
a(Vof
VIN
tp1799
a(Vsteel
VNN
tp1800
a(V,
V,
tp1801
a(Vnowadays
VRB
tp1802
a(Vit
VPRP
tp1803
a(Vtakes
VVBZ
tp1804
a(Vonly
VRB
tp1805
a(Vthree
VCD
tp1806
a(V.
V.
tp1807
aa(lp1808
(VThat
VDT
tp1809
a(Vis
VVBZ
tp1810
a(Valso
VRB
tp1811
a(Vexplained
VVBN
tp1812
a(Vin
VIN
tp1813
a(Vthe
VDT
tp1814
a(Vpaper
VNN
tp1815
a(Vfrom
VIN
tp1816
a(Vthe
VDT
tp1817
a(VCommission
VNNP
tp1818
a(V,
V,
tp1819
a(Vwhich
VWDT
tp1820
a(Vis
VVBZ
tp1821
a(Vnow
VRB
tp1822
a(Vout
VRP
tp1823
a(Vfor
VIN
tp1824
a(Vconsultation
VNN
tp1825
a(Vamong
VIN
tp1826
a(Vthe
VDT
tp1827
a(VMember
VNNP
tp1828
a(VStates
VNNPS
tp1829
a(V.
V.
tp1830
aa(lp1831
(VThe
VDT
tp1832
a(Vnumber
VNN
tp1833
a(Vof
VIN
tp1834
a(Vvehicles
VNNS
tp1835
a(Vstolen
VVBN
tp1836
a(Veach
VDT
tp1837
a(Vyear
VNN
tp1838
a(Vin
VIN
tp1839
a(Vthe
VDT
tp1840
a(VMember
VNNP
tp1841
a(VStates
VNNPS
tp1842
a(Vof
VIN
tp1843
a(Vthe
VDT
tp1844
a(VEuropean
VNNP
tp1845
a(VUnion
VNNP
tp1846
a(Vis
VVBZ
tp1847
a(Vcurrently
VRB
tp1848
a(Vestimated
VVBN
tp1849
a(Vat
VIN
tp1850
a(V1.2
VCD
tp1851
a(Vmillion
VCD
tp1852
a(V.
V.
tp1853
aa(lp1854
(VReport
VNNP
tp1855
a(V:
V:
tp1856
a(VJan
VNNP
tp1857
a(VMulder
VNNP
tp1858
aa(lp1859
(VThis
VDT
tp1860
a(Vis
VVBZ
tp1861
a(Vthe
VDT
tp1862
a(Vchallenge
VNN
tp1863
a(Vof
VIN
tp1864
a(Vpast
VNN
tp1865
a(V,
V,
tp1866
a(Vand
VCC
tp1867
a(Vabove
VIN
tp1868
a(Vall
VDT
tp1869
a(V,
V,
tp1870
a(Vfuture
VJJ
tp1871
a(Vnegotiations
VNNS
tp1872
a(V.
V.
tp1873
aa(lp1874
(VThe
VDT
tp1875
a(VCouncil
VNNP
tp1876
a(Vendorsed
VVBD
tp1877
a(Vthe
VDT
tp1878
a(Vcommunication
VNN
tp1879
a(Vlast
VJJ
tp1880
a(Vweek
VNN
tp1881
a(Vand
VCC
tp1882
a(Vwelcomed
VVBD
tp1883
a(Vand
VCC
tp1884
a(Vreinforced
VVBD
tp1885
a(Vthe
VDT
tp1886
a(Vcommitments
VNNS
tp1887
a(Vit
VPRP
tp1888
a(Vmakes
VVBZ
tp1889
a(V.
V.
tp1890
aa(lp1891
(VThe
VDT
tp1892
a(Vtruth
VNN
tp1893
a(Vis
VVBZ
tp1894
a(V,
V,
tp1895
a(Vhowever
VRB
tp1896
a(V,
V,
tp1897
a(Vthat
VIN
tp1898
a(Vthey
VPRP
tp1899
a(Vhave
VVBP
tp1900
a(Vdone
VVBN
tp1901
a(Vwhat
VWP
tp1902
a(Vother
VJJ
tp1903
a(Vtwins
VNNS
tp1904
a(Vshould
VMD
tp1905
a(Vdo
VVB
tp1906
a(V.
V.
tp1907
aa(lp1908
(VSalva
VNNP
tp1909
a(VKiir
VNNP
tp1910
a(Vtells
VVBZ
tp1911
a(Vus
VPRP
tp1912
a(Vthat
VIN
tp1913
a(Vif
VIN
tp1914
a(Vhe
VPRP
tp1915
a(Vwere
VVBD
tp1916
a(Vto
VTO
tp1917
a(Vsign
VVB
tp1918
a(Vthe
VDT
tp1919
a(VRome
VNNP
tp1920
a(VStatute
VNNP
tp1921
a(Vtoday
VNN
tp1922
a(V,
V,
tp1923
a(Vhe
VPRP
tp1924
a(Vwould
VMD
tp1925
a(Vbe
VVB
tp1926
a(Vrequired
VVBN
tp1927
a(Vto
VTO
tp1928
a(Varrest
VVB
tp1929
a(VPresident
VNNP
tp1930
a(Val-Bashir
VNNP
tp1931
a(Vthe
VDT
tp1932
a(Vnext
VJJ
tp1933
a(Vtime
VNN
tp1934
a(Vhe
VPRP
tp1935
a(Vcomes
VVBZ
tp1936
a(Vto
VTO
tp1937
a(Vvisit
VVB
tp1938
a(V.
V.
tp1939
aa(lp1940
(VThey
VPRP
tp1941
a(Vshould
VMD
tp1942
a(Vnot
VRB
tp1943
a(Vbe
VVB
tp1944
a(Vallowed
VVBN
tp1945
a(Vto
VTO
tp1946
a(Vsucceed
VVB
tp1947
a(V.
V.
tp1948
aa(lp1949
(VThe
VDT
tp1950
a(Vrules
VNNS
tp1951
a(Von
VIN
tp1952
a(Vtraining
VNN
tp1953
a(Vexaminers
VNNS
tp1954
a(Vwill
VMD
tp1955
a(Valso
VRB
tp1956
a(Vbe
VVB
tp1957
a(Vharmonised
VVBN
tp1958
a(V.
V.
tp1959
aa(lp1960
(VHowever
VRB
tp1961
a(V,
V,
tp1962
a(Vin
VIN
tp1963
a(Vthe
VDT
tp1964
a(Vmeantime
VNN
tp1965
a(V,
V,
tp1966
a(Vwith
VIN
tp1967
a(Va
VDT
tp1968
a(Vview
VNN
tp1969
a(Vto
VTO
tp1970
a(Vaddressing
VVBG
tp1971
a(Vthis
VDT
tp1972
a(Vcrisis
VNN
tp1973
a(V,
V,
tp1974
a(Vwe
VPRP
tp1975
a(Vhave
VVBP
tp1976
a(Vcreated
VVBN
tp1977
a(Vthe
VDT
tp1978
a(VEFSF
VNN
tp1979
a(Vand
VCC
tp1980
a(Vthe
VDT
tp1981
a(VESFS
VNNP
tp1982
a(V.
V.
tp1983
aa(lp1984
(VMay
VNNP
tp1985
a(VGod
VNNP
tp1986
a(Vprevent
VVB
tp1987
a(Va
VDT
tp1988
a(Vdisaster
VNN
tp1989
a(Vin
VIN
tp1990
a(VLondon
VNNP
tp1991
a(V,
V,
tp1992
a(VMilan
VNNP
tp1993
a(Vor
VCC
tp1994
a(VBrussels
VNNP
tp1995
a(Vsuch
VJJ
tp1996
a(Vas
VIN
tp1997
a(Vthat
VDT
tp1998
a(Vcaused
VVBN
tp1999
a(Vby
VIN
tp2000
a(VArab
VNNP
tp2001
a(Vfanaticism
VNN
tp2002
a(Von
VIN
tp2003
a(VSeptember
VNNP
tp2004
a(V11
VCD
tp2005
a(Vin
VIN
tp2006
a(VManhattan
VNNP
tp2007
a(V.
V.
tp2008
aa(lp2009
(VThis
VDT
tp2010
a(Vremark
VNN
tp2011
a(Vregarding
VVBG
tp2012
a(VTajikistan
VNNP
tp2013
a(V&apos;
VNN
tp2014
a(Vs
VVBZ
tp2015
a(Vdemocratic
VJJ
tp2016
a(Vstatus
VNN
tp2017
a(Vdoes
VVBZ
tp2018
a(Vnot
VRB
tp2019
a(Vdetract
VVB
tp2020
a(Vfrom
VIN
tp2021
a(Vthe
VDT
tp2022
a(Vfact
VNN
tp2023
a(Vthat
VIN
tp2024
a(Vquite
VRB
tp2025
a(Va
VDT
tp2026
a(Vfew
VJJ
tp2027
a(Vchanges
VNNS
tp2028
a(Vhave
VVBP
tp2029
a(Valready
VRB
tp2030
a(Vtaken
VVBN
tp2031
a(Vplace
VNN
tp2032
a(V.
V.
tp2033
aa(lp2034
(VIn
VIN
tp2035
a(Vthe
VDT
tp2036
a(Vrough
VJJ
tp2037
a(Vsketch
VNN
tp2038
a(Vwe
VPRP
tp2039
a(Vhave
VVBP
tp2040
a(Von
VIN
tp2041
a(Vour
VPRP$
tp2042
a(Vmap
VNN
tp2043
a(Vit
VPRP
tp2044
a(Vis
VVBZ
tp2045
a(Vnot
VRB
tp2046
a(Vclear
VJJ
tp2047
a(Vwhether
VIN
tp2048
a(Vit
VPRP
tp2049
a(Vgoes
VVBZ
tp2050
a(Va
VDT
tp2051
a(Vlittle
VJJ
tp2052
a(Vfurther
VJJ
tp2053
a(Vnorth
VNN
tp2054
a(Vor
VCC
tp2055
a(Va
VDT
tp2056
a(Vlittle
VJJ
tp2057
a(Vfurther
VJJ
tp2058
a(Vsouth
VNN
tp2059
a(V.
V.
tp2060
aa(lp2061
(VIn
VIN
tp2062
a(Vview
VNN
tp2063
a(Vof
VIN
tp2064
a(Vthe
VDT
tp2065
a(Voutgoing
VJJ
tp2066
a(VCommission
VNNP
tp2067
a(V\u2019
VCD
tp2068
a(Vs
VNNS
tp2069
a(Vattitude
VNN
tp2070
a(Vto
VTO
tp2071
a(VPoland
VNNP
tp2072
a(V,
V,
tp2073
a(Vand
VCC
tp2074
a(Vthe
VDT
tp2075
a(Vunfair
VJJ
tp2076
a(Vconditions
VNNS
tp2077
a(Vupon
VIN
tp2078
a(Vwhich
VWDT
tp2079
a(Vwe
VPRP
tp2080
a(Vwere
VVBD
tp2081
a(Vadmitted
VVBN
tp2082
a(Vinto
VIN
tp2083
a(Vthe
VDT
tp2084
a(VEU
VNNP
tp2085
a(V,
V,
tp2086
a(Vwhich
VWDT
tp2087
a(Vdiffered
VVBD
tp2088
a(Vgreatly
VRB
tp2089
a(Vfrom
VIN
tp2090
a(Vthose
VDT
tp2091
a(Vgranted
VVBN
tp2092
a(Vto
VTO
tp2093
a(Vthe
VDT
tp2094
a(VGerman
VJJ
tp2095
a(VDemocratic
VJJ
tp2096
a(VRepublic
VNNP
tp2097
a(V,
V,
tp2098
a(Vthere
VEX
tp2099
a(Vis
VVBZ
tp2100
a(Vevery
VDT
tp2101
a(Vreason
VNN
tp2102
a(Vfor
VIN
tp2103
a(Vus
VPRP
tp2104
a(Vto
VTO
tp2105
a(Vhave
VVB
tp2106
a(Vthe
VDT
tp2107
a(Vgravest
VJJS
tp2108
a(Vreservations
VNNS
tp2109
a(Vabout
VIN
tp2110
a(Vthe
VDT
tp2111
a(VEuropean
VJJ
tp2112
a(VCommission
VNNP
tp2113
a(Vas
VIN
tp2114
a(Van
VDT
tp2115
a(Vinstitution
VNN
tp2116
a(V.
V.
tp2117
aa(lp2118
(VLike
VIN
tp2119
a(Vthe
VDT
tp2120
a(VMongols
VNNPS
tp2121
a(Vof
VIN
tp2122
a(VOuter
VNNP
tp2123
a(VMongolia
VNNP
tp2124
a(V,
V,
tp2125
a(Vthe
VDT
tp2126
a(VUyghurs
VNNP
tp2127
a(Vor
VCC
tp2128
a(Vthe
VDT
tp2129
a(VTurkmen
VJJ
tp2130
a(Vpeople
VNNS
tp2131
a(Vof
VIN
tp2132
a(VXinjiang
VNNP
tp2133
a(V,
V,
tp2134
a(VTibet
VNNP
tp2135
a(Vis
VVBZ
tp2136
a(Vsuffering
VVBG
tp2137
a(Vthis
VDT
tp2138
a(Voppression
VNN
tp2139
a(Vthat
VWDT
tp2140
a(Vseeks
VVBZ
tp2141
a(Vto
VTO
tp2142
a(Vdestroy
VVB
tp2143
a(Vits
VPRP$
tp2144
a(Videntity
VNN
tp2145
a(V.
V.
tp2146
aa(lp2147
(VAnd
VCC
tp2148
a(Vyou
VPRP
tp2149
a(Vhave
VVBP
tp2150
a(Valready
VRB
tp2151
a(Vmentioned
VVBN
tp2152
a(Va
VDT
tp2153
a(Vnumber
VNN
tp2154
a(Vof
VIN
tp2155
a(Vthings
VNNS
tp2156
a(V.
V.
tp2157
aa(lp2158
(VIt
VPRP
tp2159
a(Vis
VVBZ
tp2160
a(Vtime
VNN
tp2161
a(Vto
VTO
tp2162
a(Vstop
VVB
tp2163
a(Vthis
VDT
tp2164
a(Vtheatrical
VJJ
tp2165
a(Vperformance
VNN
tp2166
a(V.
V.
tp2167
aa(lp2168
(VBut
VCC
tp2169
a(Vit
VPRP
tp2170
a(Vis
VVBZ
tp2171
a(Vprecisely
VRB
tp2172
a(Von
VIN
tp2173
a(Vthis
VDT
tp2174
a(Vcount
VNN
tp2175
a(Vthat
VIN
tp2176
a(Va
VDT
tp2177
a(Vliberal
VJJ
tp2178
a(Veconomy
VNN
tp2179
a(Vfalls
VVBZ
tp2180
a(Vdown
VRP
tp2181
a(V,
V,
tp2182
a(Vwhich
VWDT
tp2183
a(Vconcentrates
VVBZ
tp2184
a(Vall
VDT
tp2185
a(Vactivity
VNN
tp2186
a(Vin
VIN
tp2187
a(Vareas
VNNS
tp2188
a(Vwith
VIN
tp2189
a(Va
VDT
tp2190
a(Vfavourable
VJJ
tp2191
a(Vlocation
VNN
tp2192
a(Vfor
VIN
tp2193
a(Vtraffic
VNN
tp2194
a(V.
V.
tp2195
aa(lp2196
(VI
VPRP
tp2197
a(Vstrongly
VRB
tp2198
a(Vhope
VVBP
tp2199
a(Vthis
VDT
tp2200
a(Vproject
VNN
tp2201
a(Vwill
VMD
tp2202
a(Vbe
VVB
tp2203
a(Vresumed
VVBN
tp2204
a(Vat
VIN
tp2205
a(Vfull
VJJ
tp2206
a(Vspeed
VNN
tp2207
a(Vin
VIN
tp2208
a(V2008
VCD
tp2209
a(V.
V.
tp2210
aa(lp2211
(VBut
VCC
tp2212
a(Vgenerally
VRB
tp2213
a(V,
V,
tp2214
a(Vshould
VMD
tp2215
a(Vwe
VPRP
tp2216
a(Vnot
VRB
tp2217
a(Vreduce
VVB
tp2218
a(VVAT
VNN
tp2219
a(Von
VIN
tp2220
a(Vwaste
VNN
tp2221
a(Vtreatment
VNN
tp2222
a(Vto
VTO
tp2223
a(Vthe
VDT
tp2224
a(Vlowest
VJJS
tp2225
a(Vpossible
VJJ
tp2226
a(Vlevel
VNN
tp2227
a(V,
V,
tp2228
a(Vor
VCC
tp2229
a(Veven
VRB
tp2230
a(Vcreate
VVB
tp2231
a(Vthe
VDT
tp2232
a(Vconditions
VNNS
tp2233
a(Vfor
VIN
tp2234
a(Va
VDT
tp2235
a(Vsufficient
VJJ
tp2236
a(Vupgrading
VNN
tp2237
a(Vof
VIN
tp2238
a(Vrecycled
VJJ
tp2239
a(Vproducts
VNNS
tp2240
a(Vwhich
VWDT
tp2241
a(Vwould
VMD
tp2242
a(Vthen
VRB
tp2243
a(Vbe
VVB
tp2244
a(Vable
VJJ
tp2245
a(Vto
VTO
tp2246
a(Vcompete
VVB
tp2247
a(Vwith
VIN
tp2248
a(Vnew
VJJ
tp2249
a(Vproducts
VNNS
tp2250
a(Vwhich
VWDT
tp2251
a(Vare
VVBP
tp2252
a(Voften
VRB
tp2253
a(Vcheaper
VJJR
tp2254
a(V?
V.
tp2255
aa.