(lp1
(lp2
(VBig
VJJ
tp3
a(Vcompanies
VNNS
tp4
a(Vhave
VVBP
tp5
a(Vbeen
VVBN
tp6
a(Vfiring
VNN
tp7
a(Vpeople
VNNS
tp8
a(Vfor
VIN
tp9
a(Vthe
VDT
tp10
a(Vlast
VJJ
tp11
a(Vtwo
VCD
tp12
a(Vyears
VNNS
tp13
a(Vand
VCC
tp14
a(Vthey
VPRP
tp15
a(Vwill
VMD
tp16
a(Vcontinue
VVB
tp17
a(Vto
VTO
tp18
a(Vdo
VVB
tp19
a(Vso
VRB
tp20
a(V.
V.
tp21
aa(lp22
(VIt
VPRP
tp23
a(Valso
VRB
tp24
a(Vties
VVBZ
tp25
a(Vin
VIN
tp26
a(Vwith
VIN
tp27
a(Vmilitary
VJJ
tp28
a(Vcapabilities
VNNS
tp29
a(V.
V.
tp30
aa(lp31
(VThis
VDT
tp32
a(Vmay
VMD
tp33
a(Vmean
VVB
tp34
a(Vthousands
VNNS
tp35
a(Vof
VIN
tp36
a(Vhuman
VJJ
tp37
a(Vlives
VNNS
tp38
a(Vbeing
VVBG
tp39
a(Vsaved
VVBN
tp40
a(V.
V.
tp41
aa(lp42
(VShe
VPRP
tp43
a(Vis
VVBZ
tp44
a(Valive
VJJ
tp45
a(V(
VRB
tp46
a(Vremember
VVBP
tp47
a(Vthat
VIN
tp48
a(Vone
VCD
tp49
a(V!
V.
tp50
a(V)
VSYM
tp51
aa(lp52
(VAnd
VCC
tp53
a(Vtogether
VRB
tp54
a(Vwe
VPRP
tp55
a(Vwill
VMD
tp56
a(Vhave
VVB
tp57
a(Vto
VTO
tp58
a(Vgive
VVB
tp59
a(Vpriority
VNN
tp60
a(Vto
VTO
tp61
a(Vthose
VDT
tp62
a(Veducation
VNN
tp63
a(Vand
VCC
tp64
a(Vprevention
VNN
tp65
a(Vprogrammes
VNNS
tp66
a(Vwhich
VWDT
tp67
a(Vwill
VMD
tp68
a(Vbring
VVB
tp69
a(Vabout
VIN
tp70
a(Va
VDT
tp71
a(Vreduction
VNN
tp72
a(Vin
VIN
tp73
a(Vdemand
VNN
tp74
a(V.
V.
tp75
aa(lp76
(VOn
VIN
tp77
a(Vtop
VNN
tp78
a(Vof
VIN
tp79
a(Vthis
VDT
tp80
a(V,
V,
tp81
a(Vthere
VEX
tp82
a(Vis
VVBZ
tp83
a(Van
VDT
tp84
a(Vincreasing
VVBG
tp85
a(Vawareness
VNN
tp86
a(Vof
VIN
tp87
a(Vthe
VDT
tp88
a(Vclimate
VNN
tp89
a(Vchange
VNN
tp90
a(Vagenda
VNN
tp91
a(V.
V.
tp92
aa(lp93
(VThank
VVB
tp94
a(Vyou
VPRP
tp95
a(V,
V,
tp96
a(VCommissioner
VNNP
tp97
a(V,
V,
tp98
a(Vand
VCC
tp99
a(Vthank
VVB
tp100
a(Vyou
VPRP
tp101
a(Vfor
VIN
tp102
a(Vthe
VDT
tp103
a(Vmanner
VNN
tp104
a(Vin
VIN
tp105
a(Vwhich
VWDT
tp106
a(Vwe
VPRP
tp107
a(Vhave
VVBP
tp108
a(Vbeen
VVBN
tp109
a(Vable
VJJ
tp110
a(Vto
VTO
tp111
a(Vconduct
VVB
tp112
a(Vthese
VDT
tp113
a(Vlast
VJJ
tp114
a(Vquestions
VNNS
tp115
a(V.
V.
tp116
aa(lp117
(VOn
VIN
tp118
a(Vthe
VDT
tp119
a(Vother
VJJ
tp120
a(Vhand
VNN
tp121
a(V,
V,
tp122
a(Vwe
VPRP
tp123
a(Vhave
VVBP
tp124
a(Vthe
VDT
tp125
a(Vscrappy
VJJ
tp126
a(Varrangements
VNNS
tp127
a(Von
VIN
tp128
a(Va
VDT
tp129
a(VThursday
VNNP
tp130
a(Vafternoon
VNN
tp131
a(V,
V,
tp132
a(Vwhen
VWRB
tp133
a(Vtime
VNN
tp134
a(Vis
VVBZ
tp135
a(Vwasted
VVBN
tp136
a(V.
V.
tp137
aa(lp138
(VWhat
VWP
tp139
a(VI
VPRP
tp140
a(Vwanted
VVBD
tp141
a(Vto
VTO
tp142
a(Vsay
VVB
tp143
a(Vwas
VVBD
tp144
a(Vthat
VIN
tp145
a(Veven
VRB
tp146
a(Vthough
VRB
tp147
a(V,
V,
tp148
a(Vaccording
VVBG
tp149
a(Vto
VTO
tp150
a(Vthe
VDT
tp151
a(Vinformation
VNN
tp152
a(Vavailable
VJJ
tp153
a(V,
V,
tp154
a(Vthe
VDT
tp155
a(Vpossibility
VNN
tp156
a(Vof
VIN
tp157
a(Van
VDT
tp158
a(Vimminent
VJJ
tp159
a(Vattack
VNN
tp160
a(Vby
VIN
tp161
a(VIsraeli
VJJ
tp162
a(Vforces
VNNS
tp163
a(Vin
VIN
tp164
a(Vthe
VDT
tp165
a(VGaza
VNNP
tp166
a(VStrip
VNNP
tp167
a(Vcannot
VNN
tp168
a(Vbe
VVB
tp169
a(Vdiscounted
VVBN
tp170
a(V,
V,
tp171
a(Vnever
VRB
tp172
a(Vmind
VVB
tp173
a(Vthe
VDT
tp174
a(Vcarnage
VNN
tp175
a(Vthat
VWDT
tp176
a(Vwill
VMD
tp177
a(Vunleash
VVB
tp178
a(V,
V,
tp179
a(Veven
VRB
tp180
a(Vthough
VIN
tp181
a(Vthe
VDT
tp182
a(Vruling
VNN
tp183
a(VLikud
VNNP
tp184
a(Vparty
VNN
tp185
a(Vin
VIN
tp186
a(VIsrael
VNNP
tp187
a(Vis
VVBZ
tp188
a(Vopen
VJJ
tp189
a(Vin
VIN
tp190
a(Vits
VPRP$
tp191
a(Vopposition
VNN
tp192
a(Vto
VTO
tp193
a(Vthe
VDT
tp194
a(Vcreation
VNN
tp195
a(Vof
VIN
tp196
a(Va
VDT
tp197
a(VPalestinian
VJJ
tp198
a(Vstate
VNN
tp199
a(Vand
VCC
tp200
a(Vhas
VVBZ
tp201
a(Vpassed
VVBN
tp202
a(Va
VDT
tp203
a(Vresolution
VNN
tp204
a(Vto
VTO
tp205
a(Vthat
VDT
tp206
a(Veffect
VNN
tp207
a(Vand
VCC
tp208
a(V13
VCD
tp209
a(VPalestinian
VJJ
tp210
a(Vfighters
VNNS
tp211
a(Vhave
VVBP
tp212
a(Vbeen
VVBN
tp213
a(Vexpelled
VVBN
tp214
a(Vfrom
VIN
tp215
a(Vtheir
VPRP$
tp216
a(Vhomeland
VNN
tp217
a(Vas
VIN
tp218
a(Vterrorists
VNNS
tp219
a(Vat
VIN
tp220
a(VSharon
VNNP
tp221
a(V&apos;s
VNNS
tp222
a(Vinsistence
VNN
tp223
a(V,
V,
tp224
a(Vthe
VDT
tp225
a(VCouncil
VNNP
tp226
a(Vhas
VVBZ
tp227
a(Vstill
VRB
tp228
a(Vnot
VRB
tp229
a(Vreached
VVBN
tp230
a(Va
VDT
tp231
a(Vdecision
VNN
tp232
a(Vand
VCC
tp233
a(VI
VPRP
tp234
a(Vhave
VVBP
tp235
a(Vno
VDT
tp236
a(Videa
VNN
tp237
a(Vwhich
VWDT
tp238
a(Vcountries
VNNS
tp239
a(Vthe
VDT
tp240
a(VCouncil
VNNP
tp241
a(Vwill
VMD
tp242
a(Vfinally
VRB
tp243
a(Vdecide
VVB
tp244
a(Vshould
VMD
tp245
a(Vaccept
VVB
tp246
a(Vthese
VDT
tp247
a(Vfighters
VNNS
tp248
a(V.
V.
tp249
aa(lp250
(VAnd
VCC
tp251
a(Vwe
VPRP
tp252
a(Vhave
VVBP
tp253
a(Vstill
VRB
tp254
a(Vto
VTO
tp255
a(Vfind
VVB
tp256
a(Van
VDT
tp257
a(Vanswer
VNN
tp258
a(Vto
VTO
tp259
a(Vthem
VPRP
tp260
a(V.
V.
tp261
aa(lp262
(VThe
VDT
tp263
a(Vrestructuring
VNN
tp264
a(Vaid
VNN
tp265
a(Vis
VVBZ
tp266
a(Valso
VRB
tp267
a(Vcompletely
VRB
tp268
a(Vsuperfluous
VJJ
tp269
a(V.
V.
tp270
aa(lp271
(VIn
VIN
tp272
a(Vthe
VDT
tp273
a(Vpast
VNN
tp274
a(V,
V,
tp275
a(Vwe
VPRP
tp276
a(Valways
VRB
tp277
a(Vfollowed
VVBD
tp278
a(Vthe
VDT
tp279
a(VAmericans
VNNPS
tp280
a(V,
V,
tp281
a(Vtrailing
VVBG
tp282
a(Vthem
VPRP
tp283
a(Vby
VIN
tp284
a(Vfive
VCD
tp285
a(Vto
VTO
tp286
a(Vten
VCD
tp287
a(Vyears
VNNS
tp288
a(V.
V.
tp289
aa(lp290
(VThe
VDT
tp291
a(VUnited
VNNP
tp292
a(VStates
VNNPS
tp293
a(Vitself
VPRP
tp294
a(Vhas
VVBZ
tp295
a(Vnot
VRB
tp296
a(Vharmonised
VVBN
tp297
a(Vits
VPRP$
tp298
a(Vlegislation
VNN
tp299
a(V,
V,
tp300
a(Vfor
VIN
tp301
a(Vexample
VNN
tp302
a(V.
V.
tp303
aa(lp304
(VBy
VIN
tp305
a(Vthe
VDT
tp306
a(Vtime
VNN
tp307
a(Vthe
VDT
tp308
a(Vlight
VNN
tp309
a(Vof
VIN
tp310
a(Va
VDT
tp311
a(Vstar
VNN
tp312
a(Vreaches
VVBZ
tp313
a(Vus
VPRP
tp314
a(V,
V,
tp315
a(Vthe
VDT
tp316
a(Vstar
VNN
tp317
a(Vhas
VVBZ
tp318
a(Valready
VRB
tp319
a(Vdied
VVBN
tp320
a(V.
V.
tp321
aa(lp322
(VWe
VPRP
tp323
a(Vneed
VVBP
tp324
a(Vto
VTO
tp325
a(Vabolish
VVB
tp326
a(Vpoverty
VNN
tp327
a(Vin
VIN
tp328
a(Vthe
VDT
tp329
a(Vworld
VNN
tp330
a(V.
V.
tp331
aa(lp332
(VWe
VPRP
tp333
a(Vneed
VVBP
tp334
a(Vto
VTO
tp335
a(Vdevelop
VVB
tp336
a(Va
VDT
tp337
a(VEuropean
VJJ
tp338
a(Videntity
VNN
tp339
a(Vin
VIN
tp340
a(Vsecurity
VNN
tp341
a(Vand
VCC
tp342
a(Vdefence
VNN
tp343
a(V.
V.
tp344
aa(lp345
(VAlternatively
VRB
tp346
a(V,
V,
tp347
a(Vthey
VPRP
tp348
a(Vmight
VMD
tp349
a(Vdecide
VVB
tp350
a(Vto
VTO
tp351
a(Vlook
VVB
tp352
a(Vafter
VIN
tp353
a(Vtheir
VPRP$
tp354
a(Vparents
VNNS
tp355
a(Vor
VCC
tp356
a(Vgrandparents
VNNS
tp357
a(V,
V,
tp358
a(Vwhich
VWDT
tp359
a(Vagain
VRB
tp360
a(Vputs
VVBZ
tp361
a(Volder
VJJR
tp362
a(Vwomen
VNNS
tp363
a(Vin
VIN
tp364
a(Va
VDT
tp365
a(Vsituation
VNN
tp366
a(Vwhere
VWRB
tp367
a(Vthey
VPRP
tp368
a(Vare
VVBP
tp369
a(Vunable
VJJ
tp370
a(Vto
VTO
tp371
a(Vreturn
VVB
tp372
a(Vto
VTO
tp373
a(Vwork
VVB
tp374
a(V.
V.
tp375
aa(lp376
(VSome
VDT
tp377
a(Vof
VIN
tp378
a(Vthese
VDT
tp379
a(Vare
VVBP
tp380
a(Vdetailed
VJJ
tp381
a(Vbelow
VIN
tp382
a(V.
V.
tp383
aa(lp384
(VAriane
VNNP
tp385
aa(lp386
(VOf
VIN
tp387
a(Vcourse
VNN
tp388
a(Vit
VPRP
tp389
a(Vis
VVBZ
tp390
a(Va
VDT
tp391
a(Vterrorist
VJJ
tp392
a(Vorganisation
VNN
tp393
a(V,
V,
tp394
a(Vand
VCC
tp395
a(Vwe
VPRP
tp396
a(Vare
VVBP
tp397
a(Vall
VDT
tp398
a(Vperfectly
VRB
tp399
a(Vaware
VJJ
tp400
a(Vof
VIN
tp401
a(Vthe
VDT
tp402
a(Vfact
VNN
tp403
a(V.
V.
tp404
aa(lp405
(VFarmers
VNNS
tp406
a(Vare
VVBP
tp407
a(Vlosing
VVBG
tp408
a(Vout
VRP
tp409
a(Vbecause
VIN
tp410
a(Vthey
VPRP
tp411
a(Vdo
VVBP
tp412
a(Vnot
VRB
tp413
a(Vreceive
VVB
tp414
a(Va
VDT
tp415
a(Vfair
VJJ
tp416
a(Vshare
VNN
tp417
a(Vof
VIN
tp418
a(Vthe
VDT
tp419
a(Vretail
VJJ
tp420
a(Vmilk
VNN
tp421
a(Vprice
VNN
tp422
a(V.
V.
tp423
aa(lp424
(VOnly
VRB
tp425
a(Vthe
VDT
tp426
a(Vvital
VJJ
tp427
a(Vareas
VNNS
tp428
a(Vcan
VMD
tp429
a(Vreceive
VVB
tp430
a(Vpublic
VJJ
tp431
a(Vfunding
VNN
tp432
a(V.
V.
tp433
aa(lp434
(VThis
VDT
tp435
a(Vis
VVBZ
tp436
a(Va
VDT
tp437
a(Vgreat
VJJ
tp438
a(Vjoy
VNN
tp439
a(V.
V.
tp440
aa(lp441
(VThat
VDT
tp442
a(Vis
VVBZ
tp443
a(Vnot
VRB
tp444
a(Vmy
VPRP$
tp445
a(Vposition
VNN
tp446
a(Vat
VIN
tp447
a(Vall
VDT
tp448
a(V.
V.
tp449
aa(lp450
(VWe
VPRP
tp451
a(Vwanted
VVBD
tp452
a(Vto
VTO
tp453
a(Vsee
VVB
tp454
a(Vthe
VDT
tp455
a(Vweapons
VNNS
tp456
a(Vinspectors
VNNS
tp457
a(Vreturn
VVBP
tp458
a(Vto
VTO
tp459
a(VIraq
VNNP
tp460
a(V.
V.
tp461
aa(lp462
(VWe
VPRP
tp463
a(Vare
VVBP
tp464
a(Vfighting
VVBG
tp465
a(Vagainst
VIN
tp466
a(Vmilitary
VJJ
tp467
a(Vjurisdiction
VNN
tp468
a(Vand
VCC
tp469
a(Vfor
VIN
tp470
a(Vthe
VDT
tp471
a(Vrule
VNN
tp472
a(Vof
VIN
tp473
a(Vlaw
VNN
tp474
a(V,
V,
tp475
a(Vwhich
VWDT
tp476
a(Vis
VVBZ
tp477
a(Vnot
VRB
tp478
a(Vcompatible
VJJ
tp479
a(Vwith
VIN
tp480
a(Vmilitary
VJJ
tp481
a(Vjurisdiction
VNN
tp482
a(V.
V.
tp483
aa(lp484
(VSince
VIN
tp485
a(Vthe
VDT
tp486
a(Vbreakup
VNN
tp487
a(Vof
VIN
tp488
a(Vthe
VDT
tp489
a(VSoviet
VNNP
tp490
a(VUnion
VNNP
tp491
a(V,
V,
tp492
a(Vthese
VDT
tp493
a(Vtwo
VCD
tp494
a(Vregions
VNNS
tp495
a(Vhave
VVBP
tp496
a(Vnot
VRB
tp497
a(Vin
VIN
tp498
a(Vpractice
VNN
tp499
a(Vbeen
VVBN
tp500
a(Vpart
VNN
tp501
a(Vof
VIN
tp502
a(VGeorgia
VNNP
tp503
a(V.
V.
tp504
aa(lp505
(VThis
VDT
tp506
a(Vwas
VVBD
tp507
a(Vin
VIN
tp508
a(V1991
VCD
tp509
a(V,
V,
tp510
a(Vat
VIN
tp511
a(Vthe
VDT
tp512
a(VEcofin
VNNP
tp513
a(VCouncil
VNNP
tp514
a(V.
V.
tp515
aa(lp516
(VLadies
VNNP
tp517
a(Vand
VCC
tp518
a(Vgentlemen
VNNS
tp519
a(V,
V,
tp520
a(Vthat
VDT
tp521
a(Vis
VVBZ
tp522
a(Vhow
VWRB
tp523
a(Vit
VPRP
tp524
a(Vshould
VMD
tp525
a(Vbe
VVB
tp526
a(V.
V.
tp527
aa(lp528
(VThey
VPRP
tp529
a(Vhave
VVBP
tp530
a(Venormous
VJJ
tp531
a(Vcreative
VJJ
tp532
a(Vpotential
VNN
tp533
a(V.
V.
tp534
aa(lp535
(VI
VPRP
tp536
a(Vremember
VVBP
tp537
a(V,
V,
tp538
a(Vand
VCC
tp539
a(VI
VPRP
tp540
a(Vwill
VMD
tp541
a(Vnever
VRB
tp542
a(Vforget
VVB
tp543
a(V,
V,
tp544
a(Vhow
VWRB
tp545
a(V,
V,
tp546
a(Vin
VIN
tp547
a(VTel
VNNP
tp548
a(VAviv
VNNP
tp549
a(Vairport
VNN
tp550
a(V,
V,
tp551
a(Von
VIN
tp552
a(V6
VCD
tp553
a(VDecember
VNNP
tp554
a(V,
V,
tp555
a(Vlate
VRB
tp556
a(Vat
VIN
tp557
a(Vnight
VNN
tp558
a(V,
V,
tp559
a(Vtogether
VRB
tp560
a(Vwith
VIN
tp561
a(Vthe
VDT
tp562
a(VUnited
VNNP
tp563
a(VStates
VNNPS
tp564
a(V&apos;
VNN
tp565
a(Vrepresentative
VNN
tp566
a(V,
V,
tp567
a(VGeneral
VNNP
tp568
a(VZinni
VNNP
tp569
a(V,
V,
tp570
a(Vwe
VPRP
tp571
a(Vwere
VVBD
tp572
a(Vthinking
VVBG
tp573
a(Vabout
VIN
tp574
a(Vthe
VDT
tp575
a(Vplan
VNN
tp576
a(Vto
VTO
tp577
a(Vimplement
VVB
tp578
a(Vthe
VDT
tp579
a(VTenet
VNNP
tp580
a(Vplan
VNN
tp581
a(Vand
VCC
tp582
a(Vthe
VDT
tp583
a(Vimplementation
VNN
tp584
a(Vof
VIN
tp585
a(Vthe
VDT
tp586
a(VMitchell
VNNP
tp587
a(Vplan
VNN
tp588
a(V.
V.
tp589
aa(lp590
(VSo
VRB
tp591
a(Vwhat
VWP
tp592
a(Vdo
VVBP
tp593
a(Vyou
VPRP
tp594
a(Vprefer
VVB
tp595
a(V?
V.
tp596
aa(lp597
(VHow
VWRB
tp598
a(Vdoes
VVBZ
tp599
a(Vthis
VDT
tp600
a(Vsilly
VJJ
tp601
a(Vsituation
VNN
tp602
a(Varise
VVBP
tp603
a(Vbetween
VIN
tp604
a(VParliament
VNNP
tp605
a(Vand
VCC
tp606
a(Vthe
VDT
tp607
a(VMember
VNNP
tp608
a(VStates
VNNPS
tp609
a(V?
V.
tp610
aa(lp611
(VI
VPRP
tp612
a(Vam
VVBP
tp613
a(Vnot
VRB
tp614
a(Van
VDT
tp615
a(Vexpert
VNN
tp616
a(Vin
VIN
tp617
a(Vchemistry
VNN
tp618
a(V.
V.
tp619
aa(lp620
(VThat
VDT
tp621
a(Vis
VVBZ
tp622
a(Vexactly
VRB
tp623
a(Vwhat
VWP
tp624
a(Vthe
VDT
tp625
a(VEU
VNNP
tp626
a(Vis
VVBZ
tp627
a(Vplanning
VVBG
tp628
a(Vto
VTO
tp629
a(Vdo
VVB
tp630
a(V,
V,
tp631
a(Vand
VCC
tp632
a(Vthe
VDT
tp633
a(VCommission
VNNP
tp634
a(Vwill
VMD
tp635
a(Vcome
VVB
tp636
a(Vforward
VRB
tp637
a(Vwith
VIN
tp638
a(Vthe
VDT
tp639
a(Vappropriate
VJJ
tp640
a(Vproposals
VNNS
tp641
a(Vshortly
VRB
tp642
a(V.
V.
tp643
aa(lp644
(VThe
VDT
tp645
a(Vconditions
VNNS
tp646
a(Vupon
VIN
tp647
a(Vwhich
VWDT
tp648
a(VPoland
VNNP
tp649
a(Vand
VCC
tp650
a(Vthe
VDT
tp651
a(Vother
VJJ
tp652
a(VEastern
VNNP
tp653
a(VBloc
VNNP
tp654
a(Vcountries
VNNS
tp655
a(Vwere
VVBD
tp656
a(Vaccepted
VVBN
tp657
a(Vwere
VVBD
tp658
a(Vmuch
VRB
tp659
a(Vworse
VJJR
tp660
a(V,
V,
tp661
a(Vas
VRB
tp662
a(Vwell
VRB
tp663
a(Vas
VIN
tp664
a(Vbeing
VVBG
tp665
a(Vunjust
VJJ
tp666
a(V.
V.
tp667
aa(lp668
(VIn
VIN
tp669
a(Vmy
VPRP$
tp670
a(Vview
VNN
tp671
a(Vthey
VPRP
tp672
a(Vare
VVBP
tp673
a(Vstill
VRB
tp674
a(Vvalid
VJJ
tp675
a(V,
V,
tp676
a(Vbut
VCC
tp677
a(VI
VPRP
tp678
a(Vthink
VVBP
tp679
a(Vthat
VIN
tp680
a(V,
V,
tp681
a(Vrealistically
VRB
tp682
a(V,
V,
tp683
a(Vthe
VDT
tp684
a(Vtime
VNN
tp685
a(Vis
VVBZ
tp686
a(Vnot
VRB
tp687
a(Vright
VJJ
tp688
a(V.
V.
tp689
a(VWe
VPRP
tp690
a(Vhave
VVBP
tp691
a(Vmade
VVBN
tp692
a(Vfriendly
VJJ
tp693
a(Vgestures
VNNS
tp694
a(Vtowards
VIN
tp695
a(VIsrael
VNNP
tp696
a(V.
V.
tp697
aa(lp698
(VWe
VPRP
tp699
a(Vcannot
VVBP
tp700
a(Vforce
VNN
tp701
a(Vpeople
VNNS
tp702
a(Vto
VTO
tp703
a(Vaccept
VVB
tp704
a(Vit
VPRP
tp705
a(V.
V.
tp706
aa(lp707
(VTensions
VNNS
tp708
a(Varose
VVBD
tp709
a(Vfrom
VIN
tp710
a(Vtime
VNN
tp711
a(Vto
VTO
tp712
a(Vtime
VNN
tp713
a(V,
V,
tp714
a(Vsuch
VJJ
tp715
a(Vas
VIN
tp716
a(Vin
VIN
tp717
a(V1992
VCD
tp718
a(Vand
VCC
tp719
a(V1993
VCD
tp720
a(V,
V,
tp721
a(Vand
VCC
tp722
a(Valso
VRB
tp723
a(Vin
VIN
tp724
a(Vthe
VDT
tp725
a(Vearly
VJJ
tp726
a(Vstages
VNNS
tp727
a(Vof
VIN
tp728
a(VEMS
VNNP
tp729
a(V.
V.
tp730
aa(lp731
(VI
VPRP
tp732
a(Vspoke
VVBD
tp733
a(Vto
VTO
tp734
a(Vmany
VJJ
tp735
a(Vpeople
VNNS
tp736
a(Von
VIN
tp737
a(Vthe
VDT
tp738
a(Vstreets
VNNS
tp739
a(V.
V.
tp740
aa(lp741
(VThe
VDT
tp742
a(VBelgian
VJJ
tp743
a(VPresidency
VNNP
tp744
a(Vis
VVBZ
tp745
a(Vstriving
VVBG
tp746
a(Vto
VTO
tp747
a(Vmaintain
VVB
tp748
a(Vthe
VDT
tp749
a(Vintensive
VJJ
tp750
a(Vpace
VNN
tp751
a(Vof
VIN
tp752
a(Vnegotiations
VNNS
tp753
a(V.
V.
tp754
aa(lp755
(VNow
VRB
tp756
a(Vif
VIN
tp757
a(Vwe
VPRP
tp758
a(Vare
VVBP
tp759
a(Vlooking
VVBG
tp760
a(Vat
VIN
tp761
a(Vsouth-east
VJJ
tp762
a(VAsia
VNNP
tp763
a(V,
V,
tp764
a(Vcan
VMD
tp765
a(Vthe
VDT
tp766
a(VCommissioner
VNNP
tp767
a(Vreassure
VVB
tp768
a(Vme
VPRP
tp769
a(Vthat
VIN
tp770
a(Vsomebody
VNN
tp771
a(Vis
VVBZ
tp772
a(Vstill
VRB
tp773
a(Vlooking
VVBG
tp774
a(Vat
VIN
tp775
a(Vwhat
VWP
tp776
a(Vis
VVBZ
tp777
a(Vhappening
VVBG
tp778
a(Vin
VIN
tp779
a(VBrazil
VNNP
tp780
a(V?
V.
tp781
aa(lp782
(VHowever
VRB
tp783
a(V,
V,
tp784
a(Vthey
VPRP
tp785
a(Vare
VVBP
tp786
a(Vnot
VRB
tp787
a(Vthe
VDT
tp788
a(Vonly
VJJ
tp789
a(Vones
VNNS
tp790
a(Vinvolved
VVBN
tp791
a(V.
V.
tp792
aa(lp793
(VAt
VIN
tp794
a(Vthat
VDT
tp795
a(Vmoment
VNN
tp796
a(V,
V,
tp797
a(Vwe
VPRP
tp798
a(Vhad
VVBD
tp799
a(Va
VDT
tp800
a(Vproblem
VNN
tp801
a(Voutside
VIN
tp802
a(Vwith
VIN
tp803
a(Va
VDT
tp804
a(Vsmall
VJJ
tp805
a(Vgroup
VNN
tp806
a(Vof
VIN
tp807
a(Vpeople
VNNS
tp808
a(Vwho
VWP
tp809
a(Vdo
VVBP
tp810
a(Vnot
VRB
tp811
a(Vagree
VVB
tp812
a(Vwith
VIN
tp813
a(Vthe
VDT
tp814
a(Vsituation
VNN
tp815
a(Vin
VIN
tp816
a(Vthe
VDT
tp817
a(VTurkish
VJJ
tp818
a(Vprisons
VNNS
tp819
a(V.
V.
tp820
aa(lp821
(VThere
VEX
tp822
a(Vis
VVBZ
tp823
a(Va
VDT
tp824
a(Vconsiderable
VJJ
tp825
a(Vneed
VNN
tp826
a(Vto
VTO
tp827
a(Vimprove
VVB
tp828
a(Vthe
VDT
tp829
a(Vlegislation
VNN
tp830
a(V.
V.
tp831
aa(lp832
(VNobody
VNN
tp833
a(Velse
VRB
tp834
a(Vcould
VMD
tp835
a(Vdiscuss
VVB
tp836
a(Vthis
VDT
tp837
a(Vreport
VNN
tp838
a(Vas
VRB
tp839
a(Vwell
VRB
tp840
a(Vas
VIN
tp841
a(Vhe
VPRP
tp842
a(Vcould.&apos;
VVBD
tp843
aa(lp844
(VConsumer
VNN
tp845
a(Vprotection
VNN
tp846
a(Vmust
VMD
tp847
a(Vbe
VVB
tp848
a(Vincreased
VVBN
tp849
a(Veven
VRB
tp850
a(Vmore
VRBR
tp851
a(Vin
VIN
tp852
a(Vorder
VNN
tp853
a(Vto
VTO
tp854
a(Vcreate
VVB
tp855
a(Va
VDT
tp856
a(Vfoundation
VNN
tp857
a(Vof
VIN
tp858
a(Vtrust
VNN
tp859
a(Vbetween
VIN
tp860
a(Vseller
VNN
tp861
a(Vand
VCC
tp862
a(Vconsumer
VNN
tp863
a(V.
V.
tp864
aa(lp865
(VThe
VDT
tp866
a(Vresult
VNN
tp867
a(Vis
VVBZ
tp868
a(Vthat
VIN
tp869
a(Vwe
VPRP
tp870
a(Vhave
VVBP
tp871
a(Vflown
VVBN
tp872
a(Vin
VIN
tp873
a(Vthe
VDT
tp874
a(Vright
VJJ
tp875
a(Vdirection
VNN
tp876
a(Vbut
VCC
tp877
a(Vhave
VVBP
tp878
a(Vlanded
VVBN
tp879
a(Vwell
VRB
tp880
a(Vshort
VJJ
tp881
a(Vof
VIN
tp882
a(Vthe
VDT
tp883
a(Vrunway
VNN
tp884
a(V.
V.
tp885
aa(lp886
(VI
VPRP
tp887
a(Vwent
VVBD
tp888
a(Vto
VTO
tp889
a(Vthe
VDT
tp890
a(Vseaside
VNN
tp891
a(Vand
VCC
tp892
a(Vgot
VVBD
tp893
a(Va
VDT
tp894
a(Vnice
VJJ
tp895
a(Vtan
VNN
tp896
a(V.
V.
tp897
aa(lp898
(VWe
VPRP
tp899
a(Vimmediately
VRB
tp900
a(Vexpressed
VVBD
tp901
a(Vour
VPRP$
tp902
a(Vwillingness
VNN
tp903
a(Vto
VTO
tp904
a(Vcontribute
VVB
tp905
a(Vin
VIN
tp906
a(Vconcrete
VJJ
tp907
a(Vways
VNNS
tp908
a(Vto
VTO
tp909
a(Va
VDT
tp910
a(Vdurable
VJJ
tp911
a(Vceasefire
VNN
tp912
a(V.
V.
tp913
aa(lp914
(VThe
VDT
tp915
a(VEU
VNNP
tp916
a(Vmust
VMD
tp917
a(Vaddress
VVB
tp918
a(Vthe
VDT
tp919
a(Vfight
VNN
tp920
a(Vagainst
VIN
tp921
a(Vimpunity
VNN
tp922
a(Vin
VIN
tp923
a(Vall
VDT
tp924
a(Vits
VPRP$
tp925
a(Vrelations
VNNS
tp926
a(Vwith
VIN
tp927
a(VMexico
VNNP
tp928
a(V.
V.
tp929
aa(lp930
(VWe
VPRP
tp931
a(Vlive
VVBP
tp932
a(Vin
VIN
tp933
a(Va
VDT
tp934
a(Vvery
VRB
tp935
a(Vpeculiar
VJJ
tp936
a(Vtime
VNN
tp937
a(Vin
VIN
tp938
a(Vthe
VDT
tp939
a(Vhistory
VNN
tp940
a(Vof
VIN
tp941
a(Vthe
VDT
tp942
a(Vunited
VVBN
tp943
a(VEurope
VNNP
tp944
a(V.
V.
tp945
aa(lp946
(VMoreover
VRB
tp947
a(V,
V,
tp948
a(Vaccording
VVBG
tp949
a(Vto
VTO
tp950
a(Vsome
VDT
tp951
a(Vexperts
VNNS
tp952
a(Von
VIN
tp953
a(Vsecurity
VNN
tp954
a(Vpolicy
VNN
tp955
a(V,
V,
tp956
a(Vthe
VDT
tp957
a(Vtrue
VJJ
tp958
a(Vamount
VNN
tp959
a(Vthey
VPRP
tp960
a(Vare
VVBP
tp961
a(Vspending
VVBG
tp962
a(Von
VIN
tp963
a(Varmaments
VNNS
tp964
a(Vwill
VMD
tp965
a(Vbe
VVB
tp966
a(Vthree
VCD
tp967
a(Vtimes
VNNS
tp968
a(Vthis
VDT
tp969
a(Vsum
VNN
tp970
a(V.
V.
tp971
aa(lp972
(VI
VPRP
tp973
a(Vwelcome
VVBP
tp974
a(Vrecent
VJJ
tp975
a(Vstatements
VNNS
tp976
a(Vfrom
VIN
tp977
a(Vsome
VDT
tp978
a(Vhigh
VJJ
tp979
a(Vstreet
VNN
tp980
a(Vretailers
VNNS
tp981
a(Vin
VIN
tp982
a(VScotland
VNNP
tp983
a(Vthat
VIN
tp984
a(Vthey
VPRP
tp985
a(Vwill
VMD
tp986
a(Vbe
VVB
tp987
a(Vaccepting
VVBG
tp988
a(Veuros
VNNS
tp989
a(Vin
VIN
tp990
a(Vtheir
VPRP$
tp991
a(Vtills
VNNS
tp992
a(V,
V,
tp993
a(Valongside
VIN
tp994
a(Vsterling
VNN
tp995
a(V,
V,
tp996
a(Vfrom
VIN
tp997
a(V2002
VCD
tp998
a(V.
V.
tp999
aa(lp1000
(VHere
VRB
tp1001
a(VI
VPRP
tp1002
a(Vsee
VVBP
tp1003
a(Vcause
VVB
tp1004
a(Vfor
VIN
tp1005
a(Voptimism
VNN
tp1006
a(V,
V,
tp1007
a(Vbased
VVBN
tp1008
a(Von
VIN
tp1009
a(Venhancing
VVBG
tp1010
a(Vour
VPRP$
tp1011
a(Vpartnership
VNN
tp1012
a(V.
V.
tp1013
aa(lp1014
(VWe
VPRP
tp1015
a(Vwill
VMD
tp1016
a(Vfollow
VVB
tp1017
a(Vits
VPRP$
tp1018
a(Vactivity
VNN
tp1019
a(Vclosely
VRB
tp1020
a(V.
V.
tp1021
aa(lp1022
(VYesterday
VNN
tp1023
a(V,
V,
tp1024
a(Vanother
VDT
tp1025
a(V25
VCD
tp1026
a(Vwere
VVBD
tp1027
a(Vkilled
VVBN
tp1028
a(Vin
VIN
tp1029
a(Vvarious
VJJ
tp1030
a(Vclashes
VNNS
tp1031
a(V.
V.
tp1032
aa(lp1033
(VThe
VDT
tp1034
a(Vmanufacturer
VNN
tp1035
a(V?
V.
tp1036
aa(lp1037
(VHe
VPRP
tp1038
a(Vappealed
VVBD
tp1039
a(Vto
VTO
tp1040
a(Vpolitical
VJJ
tp1041
a(Vleaders
VNNS
tp1042
a(Vto
VTO
tp1043
a(Vcombat
VVB
tp1044
a(Vmanipulation
VNN
tp1045
a(Vbased
VVBN
tp1046
a(Von
VIN
tp1047
a(Vpeople
VNNS
tp1048
a(V&apos;s
VNNS
tp1049
a(Vfears
VNNS
tp1050
a(Vand
VCC
tp1051
a(Vthe
VDT
tp1052
a(Virrational
VJJ
tp1053
a(Varguments
VNNS
tp1054
a(Vwhich
VWDT
tp1055
a(Vhe
VPRP
tp1056
a(Vbelieves
VVBZ
tp1057
a(Vhave
VVBP
tp1058
a(Vallowed
VVBN
tp1059
a(Vpopulism
VNN
tp1060
a(Vto
VTO
tp1061
a(Vthrive
VVB
tp1062
a(Vin
VIN
tp1063
a(Vmany
VJJ
tp1064
a(Vcountries
VNNS
tp1065
a(V.
V.
tp1066
aa(lp1067
(VIs
VVBZ
tp1068
a(Vthis
VDT
tp1069
a(Vso
VRB
tp1070
a(Vsurprising
VJJ
tp1071
a(Vfor
VIN
tp1072
a(Va
VDT
tp1073
a(Vliberal
VJJ
tp1074
a(VEurope
VNNP
tp1075
a(Vwhich
VWDT
tp1076
a(Varms
VNNS
tp1077
a(Vthe
VDT
tp1078
a(VAnkara
VNNP
tp1079
a(Vdictatorship
VNN
tp1080
a(Vwith
VIN
tp1081
a(Vcombat
VNN
tp1082
a(Vhelicopters
VNNS
tp1083
a(V,
V,
tp1084
a(Vwhile
VIN
tp1085
a(Vat
VIN
tp1086
a(Vthe
VDT
tp1087
a(Vsame
VJJ
tp1088
a(Vtime
VNN
tp1089
a(Vrejecting
VVBG
tp1090
a(VKurdish
VJJ
tp1091
a(Vrefugees
VNNS
tp1092
a(V?
V.
tp1093
aa(lp1094
(VWe
VPRP
tp1095
a(Vhave
VVBP
tp1096
a(Vgiven
VVBN
tp1097
a(Vthem
VPRP
tp1098
a(Vfurther
VJJ
tp1099
a(Vinformation
VNN
tp1100
a(V.
V.
tp1101
aa(lp1102
(VIt
VPRP
tp1103
a(Vis
VVBZ
tp1104
a(Va
VDT
tp1105
a(Vletter
VNN
tp1106
a(Vaddressed
VVBD
tp1107
a(Vto
VTO
tp1108
a(Vthe
VDT
tp1109
a(VChairman
VNNP
tp1110
a(Vof
VIN
tp1111
a(Vthe
VDT
tp1112
a(VForeign
VNNP
tp1113
a(VAffairs
VNNP
tp1114
a(VCommittee
VNNP
tp1115
a(Vof
VIN
tp1116
a(Vthe
VDT
tp1117
a(VUnited
VNNP
tp1118
a(VStates
VNNPS
tp1119
a(VSenate
VNNP
tp1120
a(Vby
VIN
tp1121
a(Vthe
VDT
tp1122
a(VSecretary
VNNP
tp1123
a(Vof
VIN
tp1124
a(VState
VNNP
tp1125
a(V.
V.
tp1126
aa(lp1127
(VThis
VDT
tp1128
a(Vweek
VNN
tp1129
a(Vhas
VVBZ
tp1130
a(Vseen
VVBN
tp1131
a(Vsome
VDT
tp1132
a(V1
VCD
tp1133
a(V,
V,
tp1134
a(V400
VCD
tp1135
a(Vjobs
VNNS
tp1136
a(Vlost
VVBN
tp1137
a(Vin
VIN
tp1138
a(Vthe
VDT
tp1139
a(Vfootwear
VNN
tp1140
a(Vindustry
VNN
tp1141
a(Vin
VIN
tp1142
a(VEngland
VNNP
tp1143
a(Vto
VTO
tp1144
a(Vlow-cost
VJJ
tp1145
a(Vproducers
VNNS
tp1146
a(Voverseas
VRB
tp1147
a(V.
V.
tp1148
aa(lp1149
(VThe
VDT
tp1150
a(VHouse
VNNP
tp1151
a(Vcan
VMD
tp1152
a(Vbe
VVB
tp1153
a(Vassured
VVBN
tp1154
a(Vthat
VIN
tp1155
a(Von
VIN
tp1156
a(Vevery
VDT
tp1157
a(Voccasion
VNN
tp1158
a(Vthat
VWDT
tp1159
a(Vmeetings
VNNS
tp1160
a(Vof
VIN
tp1161
a(Vthis
VDT
tp1162
a(Vtype
VNN
tp1163
a(Vtake
VVB
tp1164
a(Vplace
VNN
tp1165
a(V,
V,
tp1166
a(Vthese
VDT
tp1167
a(Vissues
VNNS
tp1168
a(Vare
VVBP
tp1169
a(Vraised
VVBN
tp1170
a(V.
V.
tp1171
aa(lp1172
(VThe
VDT
tp1173
a(VPresident
VNNP
tp1174
a(Vwas
VVBD
tp1175
a(Vthe
VDT
tp1176
a(Vfirst
VJJ
tp1177
a(Vto
VTO
tp1178
a(Vrefer
VVB
tp1179
a(Vto
VTO
tp1180
a(Vthe
VDT
tp1181
a(Vterms
VNNS
tp1182
a(Vof
VIN
tp1183
a(VArticle
VNNP
tp1184
a(V6
VCD
tp1185
a(Vof
VIN
tp1186
a(Vthe
VDT
tp1187
a(VTreaty
VNNP
tp1188
a(Vin
VIN
tp1189
a(Vconnection
VNN
tp1190
a(Vwith
VIN
tp1191
a(Vthe
VDT
tp1192
a(VHaider
VNNP
tp1193
a(Vcase
VNN
tp1194
a(V.
V.
tp1195
aa(lp1196
(VThere
VEX
tp1197
a(Vare
VVBP
tp1198
a(Vonly
VRB
tp1199
a(V3
VCD
tp1200
a(Vmillion
VCD
tp1201
a(VChristians
VNNS
tp1202
a(Vin
VIN
tp1203
a(VPakistan
VNNP
tp1204
a(V&apos;s
VNNS
tp1205
a(Vpopulation
VNN
tp1206
a(Vof
VIN
tp1207
a(V160
VCD
tp1208
a(Vmillion
VCD
tp1209
a(V.
V.
tp1210
aa(lp1211
(VThe
VDT
tp1212
a(VWTO
VNNP
tp1213
a(Vappeal
VNN
tp1214
a(Vpanel
VNN
tp1215
a(Vhas
VVBZ
tp1216
a(Vjust
VRB
tp1217
a(Vconfirmed
VVBN
tp1218
a(Vthe
VDT
tp1219
a(Vinitial
VJJ
tp1220
a(Vconclusions
VNNS
tp1221
a(V,
V,
tp1222
a(Vby
VIN
tp1223
a(Vrejecting
VVBG
tp1224
a(Vthe
VDT
tp1225
a(VCommission
VNNP
tp1226
a(V&apos;s
VNNS
tp1227
a(Vappeal
VNN
tp1228
a(V.
V.
tp1229
aa(lp1230
(V.
V.
tp1231
a(VCuba
VNNP
tp1232
a(Vis
VVBZ
tp1233
a(Vproof
VNN
tp1234
a(Vthat
VIN
tp1235
a(Vin
VIN
tp1236
a(Vthe
VDT
tp1237
a(Vwestern
VJJ
tp1238
a(Vworld
VNN
tp1239
a(Vnot
VRB
tp1240
a(Vall
VDT
tp1241
a(Vof
VIN
tp1242
a(Vthe
VDT
tp1243
a(Vwalls
VNNS
tp1244
a(Vof
VIN
tp1245
a(Vshame
VNN
tp1246
a(Vhave
VVBP
tp1247
a(Vcome
VVBN
tp1248
a(Vdown
VRP
tp1249
a(V.
V.
tp1250
aa(lp1251
(VCivil
VJJ
tp1252
a(Vsociety
VNN
tp1253
a(Vis
VVBZ
tp1254
a(Vin
VIN
tp1255
a(Vdire
VJJ
tp1256
a(Vcircumstances
VNNS
tp1257
a(Vthere
VRB
tp1258
a(V.
V.
tp1259
aa(lp1260
(VSo
VRB
tp1261
a(Vthere
VEX
tp1262
a(Vmust
VMD
tp1263
a(Vbe
VVB
tp1264
a(Vguidance
VNN
tp1265
a(Vin
VIN
tp1266
a(Vthose
VDT
tp1267
a(Vareas
VNNS
tp1268
a(Vas
VRB
tp1269
a(Vwell
VRB
tp1270
a(V.
V.
tp1271
aa(lp1272
(VSpace
VNN
tp1273
a(Vis
VVBZ
tp1274
a(Vour
VPRP$
tp1275
a(Vnew
VJJ
tp1276
a(VEuropean
VJJ
tp1277
a(Vfrontier
VNN
tp1278
a(V.
V.
tp1279
aa(lp1280
(VHe
VPRP
tp1281
a(Vwas
VVBD
tp1282
a(Varrested
VVBN
tp1283
a(V.
V.
tp1284
aa(lp1285
(VThat
VDT
tp1286
a(Vis
VVBZ
tp1287
a(Vthe
VDT
tp1288
a(Vbest
VJJS
tp1289
a(Vof
VIN
tp1290
a(Vboth
VDT
tp1291
a(Vworlds
VNNS
tp1292
a(V.
V.
tp1293
aa(lp1294
a(lp1295
(VWe
VPRP
tp1296
a(Vonly
VRB
tp1297
a(Vhave
VVBP
tp1298
a(V40
VCD
tp1299
a(Vminutes
VNNS
tp1300
a(V.
V.
tp1301
aa(lp1302
(VEqual
VNNP
tp1303
a(Vrights
VNNS
tp1304
a(Vare
VVBP
tp1305
a(Vthe
VDT
tp1306
a(Vkey
VJJ
tp1307
a(Vissue
VNN
tp1308
a(V.
V.
tp1309
a(VMr
VNNP
tp1310
a(VLindblad
VNNP
tp1311
a(V,
V,
tp1312
a(Vthe
VDT
tp1313
a(Vstate
VNN
tp1314
a(Vsecretary
VNN
tp1315
a(V,
V,
tp1316
a(Vmentioned
VVBD
tp1317
a(Vthat
VIN
tp1318
a(Vequality
VNN
tp1319
a(Vof
VIN
tp1320
a(Vrights
VNNS
tp1321
a(Vwas
VVBD
tp1322
a(Vthe
VDT
tp1323
a(Vbudget
VNN
tp1324
a(V&apos;s
VNNS
tp1325
a(Vfundamental
VJJ
tp1326
a(Vprinciple
VNN
tp1327
a(V.
V.
tp1328
aa(lp1329
(V(
VNN
tp1330
a(VThe
VDT
tp1331
a(VPresident
VNNP
tp1332
a(Vnoted
VVBD
tp1333
a(Vthat
VIN
tp1334
a(Vmore
VJJR
tp1335
a(Vthan
VIN
tp1336
a(V12
VCD
tp1337
a(VMembers
VNNS
tp1338
a(Vrose
VVBD
tp1339
a(Vto
VTO
tp1340
a(Voppose
VVB
tp1341
a(Vmoving
VVBG
tp1342
a(Vthe
VDT
tp1343
a(Voral
VJJ
tp1344
a(Vamendment
VNN
tp1345
a(V)
VNN
tp1346
aa(lp1347
(VThe
VDT
tp1348
a(VCommission
VNNP
tp1349
a(Vcan
VMD
tp1350
a(Vand
VCC
tp1351
a(Vmust
VMD
tp1352
a(Vtake
VVB
tp1353
a(Vaction
VNN
tp1354
a(Vin
VIN
tp1355
a(Vaccordance
VNN
tp1356
a(Vwith
VIN
tp1357
a(Vthe
VDT
tp1358
a(Vrules
VNNS
tp1359
a(V,
V,
tp1360
a(Vwhich
VWDT
tp1361
a(Vhave
VVBP
tp1362
a(Vthree
VCD
tp1363
a(Vdifferent
VJJ
tp1364
a(Vspheres
VNNS
tp1365
a(Vof
VIN
tp1366
a(Vapplication
VNN
tp1367
a(V:
V:
tp1368
a(Vagreements
VNNS
tp1369
a(Vor
VCC
tp1370
a(Vcartel
VNN
tp1371
a(Vagreements
VNNS
tp1372
a(Vwhich
VWDT
tp1373
a(Vare
VVBP
tp1374
a(Vgenerally
VRB
tp1375
a(Vprohibited
VVBN
tp1376
a(V,
V,
tp1377
a(Vabuse
VNN
tp1378
a(Vof
VIN
tp1379
a(Va
VDT
tp1380
a(Vdominant
VJJ
tp1381
a(Vmarket
VNN
tp1382
a(Vposition
VNN
tp1383
a(V,
V,
tp1384
a(Vand
VCC
tp1385
a(Vpublic
VJJ
tp1386
a(Vsubsidies
VNNS
tp1387
a(V.
V.
tp1388
aa(lp1389
(VSome
VDT
tp1390
a(V100
VCD
tp1391
a(V000
VCD
tp1392
a(Vworkers
VNNS
tp1393
a(Vtook
VVBD
tp1394
a(Vpart
VNN
tp1395
a(V,
V,
tp1396
a(Vmaking
VVBG
tp1397
a(Vit
VPRP
tp1398
a(Vthe
VDT
tp1399
a(Vbiggest
VJJS
tp1400
a(Vdemonstration
VNN
tp1401
a(Vsince
VIN
tp1402
a(Vthe
VDT
tp1403
a(V1980s
VNNS
tp1404
a(V.
V.
tp1405
aa(lp1406
(VThere
VEX
tp1407
a(Vare
VVBP
tp1408
a(Vquite
VRB
tp1409
a(Va
VDT
tp1410
a(Vfew
VJJ
tp1411
a(Vversions
VNNS
tp1412
a(V,
V,
tp1413
a(Vhowever
VRB
tp1414
a(V.
V.
tp1415
aa(lp1416
(VThat
VDT
tp1417
a(Vis
VVBZ
tp1418
a(Va
VDT
tp1419
a(Vgood
VJJ
tp1420
a(Vthing
VNN
tp1421
a(Vin
VIN
tp1422
a(Vdefence
VNN
tp1423
a(Vof
VIN
tp1424
a(Vthe
VDT
tp1425
a(Vmobility
VNN
tp1426
a(Vof
VIN
tp1427
a(Vemployees
VNNS
tp1428
a(V.
V.
tp1429
aa(lp1430
(VMore
VJJR
tp1431
a(Vthan
VIN
tp1432
a(V2
VCD
tp1433
a(V000
VCD
tp1434
a(Vimplements
VVBZ
tp1435
a(Vwere
VVBD
tp1436
a(Vconfiscated
VVBN
tp1437
a(V.
V.
tp1438
aa(lp1439
(VIn
VIN
tp1440
a(Vconcrete
VJJ
tp1441
a(Vterms
VNNS
tp1442
a(V,
V,
tp1443
a(Vthis
VDT
tp1444
a(Vis
VVBZ
tp1445
a(Vabout
VIN
tp1446
a(Vselling
VVBG
tp1447
a(Vproducts
VNNS
tp1448
a(Vbelow
VIN
tp1449
a(Vcost
VNN
tp1450
a(V.
V.
tp1451
aa(lp1452
(VLiving
VVBG
tp1453
a(Vstandards
VNNS
tp1454
a(Vhave
VVBP
tp1455
a(Vgone
VVBN
tp1456
a(Vup
VRP
tp1457
a(V,
V,
tp1458
a(VChile
VNNP
tp1459
a(V&apos;s
VVBZ
tp1460
a(Vgrowth
VNN
tp1461
a(Vrate
VNN
tp1462
a(Vis
VVBZ
tp1463
a(Vfar
VRB
tp1464
a(Vhigher
VJJR
tp1465
a(Vthan
VIN
tp1466
a(Vthat
VDT
tp1467
a(Vof
VIN
tp1468
a(Vother
VJJ
tp1469
a(VLatin
VJJ
tp1470
a(VAmerican
VJJ
tp1471
a(Vcountries
VNNS
tp1472
a(V,
V,
tp1473
a(Vand
VCC
tp1474
a(VI
VPRP
tp1475
a(Vjust
VRB
tp1476
a(Vhope
VVBP
tp1477
a(Vthat
VIN
tp1478
a(Vthis
VDT
tp1479
a(Vpolicy
VNN
tp1480
a(Vcatches
VVBZ
tp1481
a(Von
VIN
tp1482
a(Vin
VIN
tp1483
a(Vthem
VPRP
tp1484
a(Vas
VRB
tp1485
a(Vwell
VRB
tp1486
a(V.
V.
tp1487
aa(lp1488
(VSocial
VNNP
tp1489
a(Vequilibrium
VNN
tp1490
a(Vserves
VVBZ
tp1491
a(Vthe
VDT
tp1492
a(Vinterests
VNNS
tp1493
a(Vof
VIN
tp1494
a(Vthe
VDT
tp1495
a(Vwhole
VNN
tp1496
a(Vof
VIN
tp1497
a(Vsociety
VNN
tp1498
a(V.
V.
tp1499
aa(lp1500
(V-
V:
tp1501
a(V(
VNN
tp1502
a(VSK
VNN
tp1503
a(V)
VCD
tp1504
a(VAccording
VVBG
tp1505
a(Vto
VTO
tp1506
a(Vresearch
VNN
tp1507
a(Vfrom
VIN
tp1508
a(Vthe
VDT
tp1509
a(VInstitute
VNNP
tp1510
a(Vof
VIN
tp1511
a(VSociology
VNNP
tp1512
a(Vat
VIN
tp1513
a(Vthe
VDT
tp1514
a(VSlovak
VNNP
tp1515
a(VAcademy
VNNP
tp1516
a(Vof
VIN
tp1517
a(VSciences
VNNPS
tp1518
a(V,
V,
tp1519
a(VSlovak
VJJ
tp1520
a(Vinhabitants
VNNS
tp1521
a(Vof
VIN
tp1522
a(VHungarian
VJJ
tp1523
a(Vorigin
VNN
tp1524
a(Vare
VVBP
tp1525
a(Vproud
VJJ
tp1526
a(Vto
VTO
tp1527
a(Vbe
VVB
tp1528
a(Vcitizens
VNNS
tp1529
a(Vof
VIN
tp1530
a(Vthe
VDT
tp1531
a(VSlovak
VNNP
tp1532
a(VRepublic
VNNP
tp1533
a(V.
V.
tp1534
aa(lp1535
(VYou
VPRP
tp1536
a(Vhave
VVBP
tp1537
a(Vused
VVBN
tp1538
a(Vthe
VDT
tp1539
a(Vfollowing
VVBG
tp1540
a(Vwords
VNNS
tp1541
a(V:
V:
tp1542
a(V&apos;
VVB
tp1543
a(VGive
VVB
tp1544
a(Vme
VPRP
tp1545
a(Vmore
VJJR
tp1546
a(Vtime
VNN
tp1547
a(Vto
VTO
tp1548
a(Vdiscuss
VVB
tp1549
a(Vthis
VDT
tp1550
a(Vwith
VIN
tp1551
a(Vthe
VDT
tp1552
a(Vother
VJJ
tp1553
a(Vmembers
VNNS
tp1554
a(Vof
VIN
tp1555
a(Vthe
VDT
tp1556
a(VCouncil
VNNP
tp1557
a(V.
V.
tp1558
aa(lp1559
(VAt
VIN
tp1560
a(Vthe
VDT
tp1561
a(Vsame
VJJ
tp1562
a(Vtime
VNN
tp1563
a(V,
V,
tp1564
a(Vaccording
VVBG
tp1565
a(Vto
VTO
tp1566
a(Vthe
VDT
tp1567
a(Vformer
VJJ
tp1568
a(VNATO
VNNP
tp1569
a(Vcommander-in-chief
VNN
tp1570
a(VWesley
VNNP
tp1571
a(VClark
VNNP
tp1572
a(V,
V,
tp1573
a(Vpreparations
VNNS
tp1574
a(Vare
VVBP
tp1575
a(Vin
VIN
tp1576
a(Vhand
VNN
tp1577
a(Vfor
VIN
tp1578
a(Va
VDT
tp1579
a(Vwar
VNN
tp1580
a(Vagainst
VIN
tp1581
a(VIran
VNNP
tp1582
a(V.
V.
tp1583
aa(lp1584
(VEurope
VNNP
tp1585
a(Vhas
VVBZ
tp1586
a(Vbeen
VVBN
tp1587
a(V,
V,
tp1588
a(Vis
VVBZ
tp1589
a(Vand
VCC
tp1590
a(Vwill
VMD
tp1591
a(Vremain
VVB
tp1592
a(Va
VDT
tp1593
a(Vcradle
VNN
tp1594
a(Vof
VIN
tp1595
a(Vglobal
VJJ
tp1596
a(Vcivilisation
VNN
tp1597
a(V,
V,
tp1598
a(Veducation
VNN
tp1599
a(V,
V,
tp1600
a(Vresearch
VNN
tp1601
a(Vand
VCC
tp1602
a(Vculture
VNN
tp1603
a(V.
V.
tp1604
aa(lp1605
(VWe
VPRP
tp1606
a(VHungarians
VNNPS
tp1607
a(Vcan
VMD
tp1608
a(Vreally
VRB
tp1609
a(Vunderstand
VVB
tp1610
a(Vthe
VDT
tp1611
a(Vimportance
VNN
tp1612
a(Vof
VIN
tp1613
a(Vthis
VDT
tp1614
a(V,
V,
tp1615
a(Vsince
VIN
tp1616
a(Vhundreds
VNNS
tp1617
a(Vof
VIN
tp1618
a(Vthousands
VNNS
tp1619
a(Vof
VIN
tp1620
a(Vour
VPRP$
tp1621
a(Vcompatriots
VNNS
tp1622
a(Vwere
VVBD
tp1623
a(Vtaken
VVBN
tp1624
a(Vin
VRP
tp1625
a(Vby
VIN
tp1626
a(Vmany
VJJ
tp1627
a(Vcountries
VNNS
tp1628
a(Vof
VIN
tp1629
a(Vthe
VDT
tp1630
a(Vworld
VNN
tp1631
a(Vafter
VIN
tp1632
a(Vthe
VDT
tp1633
a(V1956
VCD
tp1634
a(Vuprising
VNN
tp1635
a(V.
V.
tp1636
aa(lp1637
(V(
VNN
tp1638
a(VSV
VNN
tp1639
a(V)
VCD
tp1640
a(VThe
VDT
tp1641
a(Voral
VJJ
tp1642
a(Vamendment
VNN
tp1643
a(Vconcerns
VVBZ
tp1644
a(Vthe
VDT
tp1645
a(Vdeletion
VNN
tp1646
a(Vof
VIN
tp1647
a(Va
VDT
tp1648
a(Vsingle
VJJ
tp1649
a(Vword
VNN
tp1650
a(V,
V,
tp1651
a(Vand
VCC
tp1652
a(Vthat
VDT
tp1653
a(Vis
VVBZ
tp1654
a(Vthe
VDT
tp1655
a(Vword
VNN
tp1656
a(V&apos;
VNN
tp1657
a(Vand
VCC
tp1658
a(V&apos;
VNN
tp1659
a(V.
V.
tp1660
aa(lp1661
(VI
VPRP
tp1662
a(Vrealise
VVBP
tp1663
a(Vthat
VIN
tp1664
a(Vyou
VPRP
tp1665
a(Vare
VVBP
tp1666
a(Vextremely
VRB
tp1667
a(Vknowledgeable
VJJ
tp1668
a(Von
VIN
tp1669
a(Vthe
VDT
tp1670
a(Vsubject
VNN
tp1671
a(V,
V,
tp1672
a(Vbut
VCC
tp1673
a(VI
VPRP
tp1674
a(Vhave
VVBP
tp1675
a(Vnot
VRB
tp1676
a(Vasked
VVBN
tp1677
a(Vyou
VPRP
tp1678
a(Vfor
VIN
tp1679
a(Vadvice
VNN
tp1680
a(V.
V.
tp1681
aa(lp1682
(VOf
VIN
tp1683
a(Vcourse
VNN
tp1684
a(V,
V,
tp1685
a(Vwe
VPRP
tp1686
a(Vcannot
VVBP
tp1687
a(Vforget
VVB
tp1688
a(Vthe
VDT
tp1689
a(Vpast
VNN
tp1690
a(V.
V.
tp1691
aa(lp1692
(V(
VNN
tp1693
a(VHU
VNN
tp1694
a(V)
VCD
tp1695
a(VI
VPRP
tp1696
a(Vwish
VVBP
tp1697
a(Vto
VTO
tp1698
a(Vdraw
VVB
tp1699
a(Vattention
VNN
tp1700
a(Vto
VTO
tp1701
a(Va
VDT
tp1702
a(Vfew
VJJ
tp1703
a(Vquestions
VNNS
tp1704
a(V,
V,
tp1705
a(Vthe
VDT
tp1706
a(Vfirst
VJJ
tp1707
a(Vof
VIN
tp1708
a(Vwhich
VWDT
tp1709
a(Vis
VVBZ
tp1710
a(Vgenerally
VRB
tp1711
a(Veconomic
VJJ
tp1712
a(Vin
VIN
tp1713
a(Vnature
VNN
tp1714
a(V.
V.
tp1715
aa(lp1716
(VNothing
VNN
tp1717
a(Vwas
VVBD
tp1718
a(Vdone
VVBN
tp1719
a(Vbecause
VIN
tp1720
a(Vthe
VDT
tp1721
a(Varea
VNN
tp1722
a(Vis
VVBZ
tp1723
a(Vruled
VVBN
tp1724
a(Vby
VIN
tp1725
a(Vconcrete
VNN
tp1726
a(V,
V,
tp1727
a(Vby
VIN
tp1728
a(Vthe
VDT
tp1729
a(Vconcrete
VJJ
tp1730
a(Vmafia
VNN
tp1731
a(V,
V,
tp1732
a(Vby
VIN
tp1733
a(Vthe
VDT
tp1734
a(Vforest
VNN
tp1735
a(Vmafia
VNN
tp1736
a(V,
V,
tp1737
a(Vwith
VIN
tp1738
a(Vtheir
VPRP$
tp1739
a(Vforest
VNN
tp1740
a(Vfires
VNNS
tp1741
a(V.
V.
tp1742
aa(lp1743
(VThis
VDT
tp1744
a(Vis
VVBZ
tp1745
a(Vconfirmed
VVBN
tp1746
a(Vby
VIN
tp1747
a(Vthe
VDT
tp1748
a(Vfact
VNN
tp1749
a(Vthat
VIN
tp1750
a(Vapart
VRB
tp1751
a(Vfrom
VIN
tp1752
a(Vmarijuana
VNN
tp1753
a(Vthey
VPRP
tp1754
a(Vare
VVBP
tp1755
a(Vthe
VDT
tp1756
a(Vmost
VRBS
tp1757
a(Vconsumed
VVBN
tp1758
a(Vdrugs
VNNS
tp1759
a(Vin
VIN
tp1760
a(Vthe
VDT
tp1761
a(VEuropean
VNNP
tp1762
a(VUnion
VNNP
tp1763
a(V.
V.
tp1764
aa(lp1765
(VTheir
VPRP$
tp1766
a(Vconcern
VNN
tp1767
a(Vwas
VVBD
tp1768
a(Vthat
VIN
tp1769
a(Vit
VPRP
tp1770
a(Vbe
VVB
tp1771
a(V&quot;
VJJ
tp1772
a(Vlegal
VJJ
tp1773
a(V&quot;
VNN
tp1774
a(V,
V,
tp1775
a(Vthat
VWDT
tp1776
a(Vis
VVBZ
tp1777
a(V,
V,
tp1778
a(Vrestricted
VJJ
tp1779
a(Vto
VTO
tp1780
a(VMoroccan
VJJ
tp1781
a(Vwaters
VNNS
tp1782
a(Vonly
VRB
tp1783
a(V.
V.
tp1784
aa(lp1785
(VThe
VDT
tp1786
a(Vmain
VJJ
tp1787
a(Vsource
VNN
tp1788
a(Vof
VIN
tp1789
a(Vrevenue
VNN
tp1790
a(V,
V,
tp1791
a(Vtourism
VNN
tp1792
a(V,
V,
tp1793
a(Vis
VVBZ
tp1794
a(Vincreasingly
VRB
tp1795
a(Vdrying
VVBG
tp1796
a(Vup
VRP
tp1797
a(V.
V.
tp1798
aa(lp1799
(VLast
VJJ
tp1800
a(Vweek
VNN
tp1801
a(V,
V,
tp1802
a(Va
VDT
tp1803
a(Vmajor
VJJ
tp1804
a(VGerman
VJJ
tp1805
a(Vdaily
VJJ
tp1806
a(Vnewspaper
VNN
tp1807
a(Vpolled
VVBD
tp1808
a(Vits
VPRP$
tp1809
a(Vreadership
VNN
tp1810
a(V.
V.
tp1811
aa(lp1812
(VI
VPRP
tp1813
a(Vdid
VVBD
tp1814
a(Vnot
VRB
tp1815
a(Vsee
VVB
tp1816
a(Vmy
VPRP$
tp1817
a(Vname
VNN
tp1818
a(Vin
VIN
tp1819
a(Vyesterday
VNN
tp1820
a(V&apos;s
VVBZ
tp1821
a(VMinutes
VNNPS
tp1822
a(Vfrom
VIN
tp1823
a(Vyesterday
VNN
tp1824
a(V,
V,
tp1825
a(Vbut
VCC
tp1826
a(VI
VPRP
tp1827
a(Vwas
VVBD
tp1828
a(Vhere
VRB
tp1829
a(V.
V.
tp1830
aa.