(lp1
(lp2
(VI
VPRP
tp3
a(Vprefer
VVBP
tp4
a(Vto
VTO
tp5
a(Vcall
VVB
tp6
a(Vit
VPRP
tp7
a(Vopportunism
VNN
tp8
a(Vand
VCC
tp9
a(Va
VDT
tp10
a(Vlack
VNN
tp11
a(Vof
VIN
tp12
a(Vcourage
VNN
tp13
a(V.
V.
tp14
aa(lp15
(VMy
VPRP$
tp16
a(Vgroup
VNN
tp17
a(Vwas
VVBD
tp18
a(Valso
VRB
tp19
a(Vconcerned
VVBN
tp20
a(Vthat
VIN
tp21
a(Van
VDT
tp22
a(Vallowance
VNN
tp23
a(Vshould
VMD
tp24
a(Vbe
VVB
tp25
a(Vmade
VVBN
tp26
a(Vfor
VIN
tp27
a(Vthe
VDT
tp28
a(Vmusic
VNN
tp29
a(Vand
VCC
tp30
a(Ventertainment
VNN
tp31
a(Vindustry
VNN
tp32
a(Vwhen
VWRB
tp33
a(Vit
VPRP
tp34
a(Vcomes
VVBZ
tp35
a(Vto
VTO
tp36
a(Vapplying
VVBG
tp37
a(Vthe
VDT
tp38
a(Vdirective
VNN
tp39
a(V.
V.
tp40
aa(lp41
(VThese
VDT
tp42
a(Vamendments
VNNS
tp43
a(Vcan
VMD
tp44
a(Vroughly
VRB
tp45
a(Vbe
VVB
tp46
a(Vdivided
VVBN
tp47
a(Vinto
VIN
tp48
a(Vthree
VCD
tp49
a(Vcategories
VNNS
tp50
a(V.
V.
tp51
aa(lp52
(VMarie
VNNP
tp53
a(VColvin
VNNP
tp54
a(Vis
VVBZ
tp55
a(Vone
VCD
tp56
a(Vof
VIN
tp57
a(Vmy
VPRP$
tp58
a(Vfriends
VNNS
tp59
a(Vand
VCC
tp60
a(VI
VPRP
tp61
a(Vhave
VVBP
tp62
a(Vwritten
VVBN
tp63
a(Vsome
VDT
tp64
a(Vof
VIN
tp65
a(Vthose
VDT
tp66
a(Vpieces
VNNS
tp67
a(Vwith
VIN
tp68
a(Vher
VPRP
tp69
a(V.
V.
tp70
aa(lp71
(VAlmost
VRB
tp72
a(Vthe
VDT
tp73
a(Vfirst
VJJ
tp74
a(Vproblem
VNN
tp75
a(VI
VPRP
tp76
a(Vhad
VVBD
tp77
a(Vto
VTO
tp78
a(Vdeal
VVB
tp79
a(Vwith
VIN
tp80
a(Vwhen
VWRB
tp81
a(VI
VPRP
tp82
a(Vbecame
VVBD
tp83
a(Va
VDT
tp84
a(VCommissioner
VNNP
tp85
a(Vwas
VVBD
tp86
a(Vhow
VWRB
tp87
a(Vto
VTO
tp88
a(Vdeliver
VVB
tp89
a(Voil
VNN
tp90
a(Vrapidly
VRB
tp91
a(Vto
VTO
tp92
a(Vthe
VDT
tp93
a(Vdemocratically
VRB
tp94
a(Vcontrolled
VVBN
tp95
a(Vmunicipalities
VNNS
tp96
a(Vin
VIN
tp97
a(VSerbia
VNNP
tp98
a(V.
V.
tp99
aa(lp100
(VWe
VPRP
tp101
a(Vall
VDT
tp102
a(Vperform
VVB
tp103
a(Vbetter
VJJR
tp104
a(Vwhen
VWRB
tp105
a(Vthere
VEX
tp106
a(Vis
VVBZ
tp107
a(Vsomebody
VNN
tp108
a(Vlooking
VVBG
tp109
a(Vover
VIN
tp110
a(Vour
VPRP$
tp111
a(Vshoulder
VNN
tp112
a(V.
V.
tp113
aa(lp114
(VAllow
VVB
tp115
a(Vme
VPRP
tp116
a(Valso
VRB
tp117
a(Vto
VTO
tp118
a(Vmention
VVB
tp119
a(Vthe
VDT
tp120
a(Vsuccessful
VJJ
tp121
a(VNorthern
VNN
tp122
a(VIreland
VNNP
tp123
a(Vworkshop
VNN
tp124
a(Vduring
VIN
tp125
a(Vthe
VDT
tp126
a(VOpen
VNNP
tp127
a(VDays
VNNS
tp128
a(Vin
VIN
tp129
a(VOctober
VNNP
tp130
a(Vlast
VJJ
tp131
a(Vyear
VNN
tp132
a(V.
V.
tp133
aa(lp134
(VThe
VDT
tp135
a(Vsole
VJJ
tp136
a(Vquestion
VNN
tp137
a(Vwas
VVBD
tp138
a(Vwhether
VIN
tp139
a(Vthere
VEX
tp140
a(Vwas
VVBD
tp141
a(Va
VDT
tp142
a(Vreasonable
VJJ
tp143
a(Vchance
VNN
tp144
a(Vof
VIN
tp145
a(Vcompleting
VVBG
tp146
a(Vthose
VDT
tp147
a(Vnegotiations
VNNS
tp148
a(Vwith
VIN
tp149
a(Van
VDT
tp150
a(Vacceptable
VJJ
tp151
a(Vagreement
VNN
tp152
a(Vor
VCC
tp153
a(Vnot
VRB
tp154
a(V.
V.
tp155
aa(lp156
(VComprehensive
VNNP
tp157
a(Vmonitoring
VNN
tp158
a(Vof
VIN
tp159
a(Vthese
VDT
tp160
a(Vcapital
VNN
tp161
a(Vflows
VVBZ
tp162
a(Vis
VVBZ
tp163
a(Vessential
VJJ
tp164
a(V.
V.
tp165
aa(lp166
(VTo
VTO
tp167
a(Vthe
VDT
tp168
a(Vquestion
VNN
tp169
a(V&apos;
VNN
tp170
a(VIs
VVBZ
tp171
a(Vthis
VDT
tp172
a(Vamorphous
VJJ
tp173
a(Vcollection
VNN
tp174
a(Vof
VIN
tp175
a(VIslamicists
VNNPS
tp176
a(Vfirmly
VRB
tp177
a(Vestablished
VVBN
tp178
a(Vin
VIN
tp179
a(VEurope
VNNP
tp180
a(V?
V.
tp181
a(V&apos;
VNNP
tp182
a(VMrs
VNNP
tp183
a(VConinsx
VNNP
tp184
a(Vreplied
VVBD
tp185
a(V:
V:
tp186
a(V&quot;
VVB
tp187
a(VEurope
VNNP
tp188
a(Vcan
VMD
tp189
a(Vbe
VVB
tp190
a(Va
VDT
tp191
a(Vlogistical
VJJ
tp192
a(Vfallback
VNN
tp193
a(Vbase
VNN
tp194
a(Vfor
VIN
tp195
a(Vthese
VDT
tp196
a(Vterrorists
VNNS
tp197
a(V.
V.
tp198
aa(lp199
(VThe
VDT
tp200
a(Vlast
VJJ
tp201
a(Vone
VCD
tp202
a(Vdeals
VNNS
tp203
a(Vwith
VIN
tp204
a(Vthe
VDT
tp205
a(VTrade
VNNP
tp206
a(VUnion
VNNP
tp207
a(VTechnical
VNNP
tp208
a(VBureau
VNNP
tp209
a(Vfor
VIN
tp210
a(VHealth
VNNP
tp211
a(Vand
VCC
tp212
a(VSafety
VNNP
tp213
a(V.
V.
tp214
aa(lp215
(VPeople
VNNS
tp216
a(Vcannot
VVBP
tp217
a(Vlive
VVB
tp218
a(Von
VIN
tp219
a(Vthat
VDT
tp220
a(V.
V.
tp221
aa(lp222
(VIt
VPRP
tp223
a(Vis
VVBZ
tp224
a(Valso
VRB
tp225
a(Va
VDT
tp226
a(Vway
VNN
tp227
a(Vof
VIN
tp228
a(Vgetting
VVBG
tp229
a(Vits
VPRP$
tp230
a(Vequipment
VNN
tp231
a(Vinto
VIN
tp232
a(Vplace
VNN
tp233
a(Varound
VIN
tp234
a(Vthe
VDT
tp235
a(Vworld
VNN
tp236
a(V-
V:
tp237
a(Vthe
VDT
tp238
a(VBoeing-Airbus
VNNP
tp239
a(Vagreement
VNN
tp240
a(V,
V,
tp241
a(VI
VPRP
tp242
a(Vsuppose
VVBP
tp243
a(V.
V.
tp244
aa(lp245
(VYou
VPRP
tp246
a(Vonly
VRB
tp247
a(Vhave
VVBP
tp248
a(Vto
VTO
tp249
a(Vthink
VVB
tp250
a(Vof
VIN
tp251
a(Vthe
VDT
tp252
a(Vnomadic
VJJ
tp253
a(Vgroups
VNNS
tp254
a(Vin
VIN
tp255
a(Vthe
VDT
tp256
a(Vdesert
VNN
tp257
a(V.
V.
tp258
aa(lp259
(VMost
VJJS
tp260
a(Vof
VIN
tp261
a(Vus
VPRP
tp262
a(Vhave
VVBP
tp263
a(Valso
VRB
tp264
a(Vhad
VVBN
tp265
a(Vbilateral
VJJ
tp266
a(Vcontact
VNN
tp267
a(Vwith
VIN
tp268
a(Va
VDT
tp269
a(Vnumber
VNN
tp270
a(Vof
VIN
tp271
a(Vrepresentatives
VNNS
tp272
a(Vof
VIN
tp273
a(VAlgeria
VNNP
tp274
a(V.
V.
tp275
aa(lp276
(VI
VPRP
tp277
a(Vhad
VVBD
tp278
a(Vno
VDT
tp279
a(Vpictures
VNNS
tp280
a(V,
V,
tp281
a(Vbut
VCC
tp282
a(VI
VPRP
tp283
a(Vdid
VVBD
tp284
a(Vhave
VVB
tp285
a(Vthe
VDT
tp286
a(Vvoices
VNNS
tp287
a(Vof
VIN
tp288
a(Vthe
VDT
tp289
a(Vjournalists
VNNS
tp290
a(Vdescribing
VVBG
tp291
a(Vthe
VDT
tp292
a(Vsession
VNN
tp293
a(V.
V.
tp294
aa(lp295
(VThey
VPRP
tp296
a(Vwatch
VVBP
tp297
a(Vus
VPRP
tp298
a(Vline
VVB
tp299
a(Vup
VRP
tp300
a(Von
VIN
tp301
a(Vthe
VDT
tp302
a(Vfield
VNN
tp303
a(V,
V,
tp304
a(Vthe
VDT
tp305
a(Vwhistle
VVBP
tp306
a(Vblows
VNNS
tp307
a(V,
V,
tp308
a(Vand
VCC
tp309
a(Vwe
VPRP
tp310
a(Vassiduously
VRB
tp311
a(Vstart
VVBP
tp312
a(Vto
VTO
tp313
a(Vkick
VVB
tp314
a(Vthe
VDT
tp315
a(Vball
VNN
tp316
a(Vinto
VIN
tp317
a(Vour
VPRP$
tp318
a(Vown
VJJ
tp319
a(Vgoal
VNN
tp320
a(V.
V.
tp321
aa(lp322
(VWith
VIN
tp323
a(Vthat
VDT
tp324
a(Vin
VIN
tp325
a(Vmind
VNN
tp326
a(V,
V,
tp327
a(Vall
VPDT
tp328
a(Vthe
VDT
tp329
a(VMember
VNNP
tp330
a(VStates
VNNPS
tp331
a(Vwill
VMD
tp332
a(Vhave
VVB
tp333
a(Vto
VTO
tp334
a(Vtake
VVB
tp335
a(Vglobal
VJJ
tp336
a(V,
V,
tp337
a(Vintegrated
VJJ
tp338
a(Vand
VCC
tp339
a(Vinter-pillar
VJJ
tp340
a(Vaction
VNN
tp341
a(V.
V.
tp342
aa(lp343
(VNo
VDT
tp344
a(Vrequest
VNN
tp345
a(Vhas
VVBZ
tp346
a(Vbeen
VVBN
tp347
a(Vapproved
VVBN
tp348
a(Vsince
VIN
tp349
a(V1994
VCD
tp350
a(V.
V.
tp351
aa(lp352
(VAll
VDT
tp353
a(Vof
VIN
tp354
a(Vthese
VDT
tp355
a(Vthings
VNNS
tp356
a(Vare
VVBP
tp357
a(Vnecessary
VJJ
tp358
a(V,
V,
tp359
a(Vnot
VRB
tp360
a(Vjust
VRB
tp361
a(Vone
VCD
tp362
a(Vor
VCC
tp363
a(Vtwo
VCD
tp364
a(V-
V:
tp365
a(Vall
VDT
tp366
a(Vof
VIN
tp367
a(Vthose
VDT
tp368
a(Vthings
VNNS
tp369
a(Vare
VVBP
tp370
a(Vnecessary
VJJ
tp371
a(V.
V.
tp372
aa(lp373
(VBut
VCC
tp374
a(Votherwise
VRB
tp375
a(V,
V,
tp376
a(Vour
VPRP$
tp377
a(Vwork
VNN
tp378
a(Vwould
VMD
tp379
a(Vremain
VVB
tp380
a(Vunloved
VJJ
tp381
a(Vand
VCC
tp382
a(Vignored
VVBN
tp383
a(V,
V,
tp384
a(Vlike
VIN
tp385
a(Vthe
VDT
tp386
a(Vnotices
VNNS
tp387
a(Vforbidding
VVBG
tp388
a(Vsmoking
VNN
tp389
a(Vhere
VRB
tp390
a(Vin
VIN
tp391
a(VParliament
VNNP
tp392
a(V.
V.
tp393
aa(lp394
(VWe
VPRP
tp395
a(Vmust
VMD
tp396
a(Vdefend
VVB
tp397
a(Vdemocracy
VNN
tp398
a(Vin
VIN
tp399
a(VLebanon
VNNP
tp400
a(Vand
VCC
tp401
a(Vwe
VPRP
tp402
a(Vmust
VMD
tp403
a(Valso
VRB
tp404
a(Vbe
VVB
tp405
a(Vable
VJJ
tp406
a(Vto
VTO
tp407
a(Vpromote
VVB
tp408
a(Va
VDT
tp409
a(Vnew
VJJ
tp410
a(Vinternational
VJJ
tp411
a(Vconference
VNN
tp412
a(Vbased
VVBN
tp413
a(Von
VIN
tp414
a(Vthe
VDT
tp415
a(Vspirit
VNN
tp416
a(Vof
VIN
tp417
a(Vthe
VDT
tp418
a(Vsuccessful
VJJ
tp419
a(VMadrid
VNNP
tp420
a(VConference
VNNP
tp421
a(V.
V.
tp422
aa(lp423
(VSuch
VJJ
tp424
a(Vsolutions
VNNS
tp425
a(Vare
VVBP
tp426
a(Vvery
VRB
tp427
a(Vmuch
VJJ
tp428
a(Vneeded
VVBN
tp429
a(Vand
VCC
tp430
a(Vwe
VPRP
tp431
a(Vmust
VMD
tp432
a(Vconcentrate
VVB
tp433
a(Von
VIN
tp434
a(Vrenewables
VNNS
tp435
a(Vfrom
VIN
tp436
a(Vtoday
VNN
tp437
a(Vonwards
VNNS
tp438
a(V.
V.
tp439
aa(lp440
(VAs
VIN
tp441
a(Velements
VNNS
tp442
a(Vthat
VWDT
tp443
a(Vinform
VVBP
tp444
a(Vall
VDT
tp445
a(Vpolitical
VJJ
tp446
a(Vaction
VNN
tp447
a(V,
V,
tp448
a(Vthese
VDT
tp449
a(Vvalues
VNNS
tp450
a(Vare
VVBP
tp451
a(Vneeded
VVBN
tp452
a(Vnow
VRB
tp453
a(Vmore
VRBR
tp454
a(Vthan
VIN
tp455
a(Vever
VRB
tp456
a(V.
V.
tp457
aa(lp458
(VAt
VIN
tp459
a(Vtimes
VNNS
tp460
a(V,
V,
tp461
a(VI
VPRP
tp462
a(Vsaw
VVBD
tp463
a(Va
VDT
tp464
a(Vlikeness
VNN
tp465
a(Vto
VTO
tp466
a(VCaesar
VNNP
tp467
a(Vwho
VWP
tp468
a(Vwas
VVBD
tp469
a(Vequally
VRB
tp470
a(Vcapable
VJJ
tp471
a(Vof
VIN
tp472
a(Vdelaying
VVBG
tp473
a(Vbattles
VNNS
tp474
a(V.
V.
tp475
aa(lp476
(VIf
VIN
tp477
a(Vwe
VPRP
tp478
a(Vwish
VVBP
tp479
a(Vto
VTO
tp480
a(Vsee
VVB
tp481
a(Va
VDT
tp482
a(VPalestinian
VJJ
tp483
a(Vstate
VNN
tp484
a(Vestablished
VVBD
tp485
a(Vthat
VIN
tp486
a(Vresembles
VVBZ
tp487
a(Vother
VJJ
tp488
a(Vdemocratic
VJJ
tp489
a(Vstructures
VNNS
tp490
a(Vas
VIN
tp491
a(Vclosely
VRB
tp492
a(Vas
VIN
tp493
a(Vpossible
VJJ
tp494
a(V,
V,
tp495
a(VI
VPRP
tp496
a(Vshould
VMD
tp497
a(Vlike
VVB
tp498
a(Vto
VTO
tp499
a(Vhear
VVB
tp500
a(Vwhat
VWP
tp501
a(Vwe
VPRP
tp502
a(Vin
VIN
tp503
a(Vthe
VDT
tp504
a(VEU
VNNP
tp505
a(Vintend
VVBP
tp506
a(Vto
VTO
tp507
a(Vdo
VVB
tp508
a(Vto
VTO
tp509
a(Vensure
VVB
tp510
a(Vthat
VIN
tp511
a(Vthe
VDT
tp512
a(Vleaders
VNNS
tp513
a(Vconcerned
VVBN
tp514
a(Vare
VVBP
tp515
a(Vable
VJJ
tp516
a(Vto
VTO
tp517
a(Vmeet
VVB
tp518
a(Veach
VDT
tp519
a(Vother
VJJ
tp520
a(V.
V.
tp521
aa(lp522
(VTobacco
VNN
tp523
a(Vproduction
VNN
tp524
a(Vhas
VVBZ
tp525
a(Vfallen
VVBN
tp526
a(Vby
VIN
tp527
a(V70
VCD
tp528
a(V%
VNN
tp529
a(Vand
VCC
tp530
a(Vsugar
VNN
tp531
a(Vbeet
VNN
tp532
a(Vcrops
VNNS
tp533
a(Vby
VIN
tp534
a(V40
VCD
tp535
a(V%
VNN
tp536
a(V.
V.
tp537
aa(lp538
(VAs
VIN
tp539
a(VI
VPRP
tp540
a(Vfollowed
VVBD
tp541
a(Vthe
VDT
tp542
a(Vdebate
VNN
tp543
a(V,
V,
tp544
a(VI
VPRP
tp545
a(Vremembered
VVBD
tp546
a(Vthe
VDT
tp547
a(Vwords
VNNS
tp548
a(Vof
VIN
tp549
a(Vthe
VDT
tp550
a(Vpoet
VNN
tp551
a(V:
V:
tp552
a(Vhow
VWRB
tp553
a(Voften
VRB
tp554
a(Vcame
VVBD
tp555
a(Vmy
VPRP$
tp556
a(Venemies
VNNS
tp557
a(Vdressed
VVBN
tp558
a(Vas
VIN
tp559
a(Vfriends
VNNS
tp560
a(V.
V.
tp561
aa(lp562
(VThis
VDT
tp563
a(Vinitiative
VNN
tp564
a(Vcould
VMD
tp565
a(Valso
VRB
tp566
a(Vbe
VVB
tp567
a(Vvery
VRB
tp568
a(Vrelevant
VJJ
tp569
a(Vfor
VIN
tp570
a(Vthe
VDT
tp571
a(V2004
VCD
tp572
a(VSummer
VNNP
tp573
a(VOlympic
VNNP
tp574
a(VGames
VNNPS
tp575
a(V.
V.
tp576
aa(lp577
(VMON
VNN
tp578
a(V863
VCD
tp579
a(Vis
VVBZ
tp580
a(Vsafe
VJJ
tp581
a(Vand
VCC
tp582
a(Vmust
VMD
tp583
a(Vbe
VVB
tp584
a(Vapproved
VVBN
tp585
a(Vjust
VRB
tp586
a(Vlike
VIN
tp587
a(Vthe
VDT
tp588
a(Vother
VJJ
tp589
a(Vuseful
VJJ
tp590
a(Vplants
VNNS
tp591
a(Vthat
VWDT
tp592
a(Vhave
VVBP
tp593
a(Vbeen
VVBN
tp594
a(Vtested
VVBN
tp595
a(Vand
VCC
tp596
a(Vfound
VVBN
tp597
a(Vto
VTO
tp598
a(Vbe
VVB
tp599
a(Vsafe
VJJ
tp600
a(V.
V.
tp601
aa(lp602
(VWe
VPRP
tp603
a(Vmust
VMD
tp604
a(Vmodify
VVB
tp605
a(Vthe
VDT
tp606
a(Vinspection
VNN
tp607
a(Vprocess
VNN
tp608
a(Vand
VCC
tp609
a(Vagricultural
VJJ
tp610
a(Vpolicy
VNN
tp611
a(Vas
VIN
tp612
a(Va
VDT
tp613
a(Vwhole
VNN
tp614
a(V.
V.
tp615
aa(lp616
a(lp617
(VMr
VNNP
tp618
a(VPresident
VNNP
tp619
a(V,
V,
tp620
a(VMr
VNNP
tp621
a(VPimenta
VNNP
tp622
a(Vwas
VVBD
tp623
a(Vthe
VDT
tp624
a(Vauthor
VNN
tp625
a(Vof
VIN
tp626
a(Vthis
VDT
tp627
a(Vresolution
VNN
tp628
a(Vin
VIN
tp629
a(Vthe
VDT
tp630
a(VEnvironment
VNNP
tp631
a(VCommittee
VNNP
tp632
a(V.
V.
tp633
aa(lp634
(VThis
VDT
tp635
a(Vhappened
VVBD
tp636
a(Vand
VCC
tp637
a(VGermany
VNNP
tp638
a(Vis
VVBZ
tp639
a(Vstill
VRB
tp640
a(Vstanding
VVBG
tp641
a(V.
V.
tp642
aa(lp643
(VI
VPRP
tp644
a(Vcompletely
VRB
tp645
a(Vdisagree
VVBP
tp646
a(Vwith
VIN
tp647
a(Vhim
VPRP
tp648
a(Vin
VIN
tp649
a(Vthis
VDT
tp650
a(Vregard
VNN
tp651
a(V.
V.
tp652
aa(lp653
(VSimilarly
VRB
tp654
a(V,
V,
tp655
a(Vtrafficking
VNN
tp656
a(Vin
VIN
tp657
a(Vchildren
VNNS
tp658
a(Vcannot
VVBP
tp659
a(Vbe
VVB
tp660
a(Vcontrolled
VVBN
tp661
a(V.
V.
tp662
aa(lp663
(VIt
VPRP
tp664
a(Vdeprives
VVBZ
tp665
a(Vpeople
VNNS
tp666
a(Vof
VIN
tp667
a(Vthat
VDT
tp668
a(Vone
VCD
tp669
a(Vmost
VRBS
tp670
a(Vprecious
VJJ
tp671
a(Vthing
VNN
tp672
a(Vwhich
VWDT
tp673
a(Vthey
VPRP
tp674
a(Vwill
VMD
tp675
a(Vever
VRB
tp676
a(Vpossess
VVB
tp677
a(V.
V.
tp678
aa(lp679
(VMoreover
VRB
tp680
a(V,
V,
tp681
a(Vit
VPRP
tp682
a(Vis
VVBZ
tp683
a(Vlikely
VJJ
tp684
a(Vto
VTO
tp685
a(Vvary
VVB
tp686
a(Vgreatly
VRB
tp687
a(Vdepending
VVBG
tp688
a(Von
VIN
tp689
a(Vcountry
VNN
tp690
a(Vconditions
VNNS
tp691
a(V,
V,
tp692
a(Vthe
VDT
tp693
a(Vability
VNN
tp694
a(Vto
VTO
tp695
a(Vachieve
VVB
tp696
a(Vcompetitive
VJJ
tp697
a(Vadvantages
VNNS
tp698
a(Vin
VIN
tp699
a(Vthe
VDT
tp700
a(Vhigher
VJJR
tp701
a(Vvalue
VNN
tp702
a(Vadded
VVBD
tp703
a(Vproduction
VNN
tp704
a(Vsegment
VNN
tp705
a(Vand
VCC
tp706
a(Vdomestic
VJJ
tp707
a(Vpolicy
VNN
tp708
a(Vresponses
VNNS
tp709
a(V.
V.
tp710
aa(lp711
(VWe
VPRP
tp712
a(Vhave
VVBP
tp713
a(Vagreed
VVBN
tp714
a(Vabout
VIN
tp715
a(Va
VDT
tp716
a(Vplain
VJJ
tp717
a(Vtext
VNN
tp718
a(V,
V,
tp719
a(Vand
VCC
tp720
a(Vthrough
VIN
tp721
a(Vthe
VDT
tp722
a(Vprinciples
VNNS
tp723
a(V,
V,
tp724
a(VI
VPRP
tp725
a(Vsay
VVBP
tp726
a(Vagain
VRB
tp727
a(V,
V,
tp728
a(Vare
VVBP
tp729
a(Vgood
VJJ
tp730
a(Vones
VNNS
tp731
a(V,
V,
tp732
a(Vthey
VPRP
tp733
a(Vare
VVBP
tp734
a(Vsuperfluous
VJJ
tp735
a(V.
V.
tp736
aa(lp737
(VAlthough
VIN
tp738
a(VI
VPRP
tp739
a(Vhave
VVBP
tp740
a(Vleft
VVBN
tp741
a(Vit
VPRP
tp742
a(Vuntil
VIN
tp743
a(Vlast
VJJ
tp744
a(V,
V,
tp745
a(Vit
VPRP
tp746
a(Vis
VVBZ
tp747
a(Vcrucial
VJJ
tp748
a(V.
V.
tp749
aa(lp750
(VPeople-trafficking
VJJ
tp751
a(Vgenerally
VRB
tp752
a(Vinvolves
VVBZ
tp753
a(Vfake
VJJ
tp754
a(Vmarriages
VNNS
tp755
a(Vand
VCC
tp756
a(Vfalse
VJJ
tp757
a(Vpromises
VNNS
tp758
a(Vof
VIN
tp759
a(Vwork
VNN
tp760
a(V.
V.
tp761
aa(lp762
(VSo
VRB
tp763
a(Vwhat
VWP
tp764
a(Vexactly
VRB
tp765
a(Vdoes
VVBZ
tp766
a(Vmeritocracy
VNN
tp767
a(Vmean
VVB
tp768
a(Vin
VIN
tp769
a(Van
VDT
tp770
a(Vagency
VNN
tp771
a(Vthat
VWDT
tp772
a(Vshould
VMD
tp773
a(Vbe
VVB
tp774
a(Vcomposed
VVBN
tp775
a(Vof
VIN
tp776
a(Vexperts
VNNS
tp777
a(Vin
VIN
tp778
a(Vthe
VDT
tp779
a(Vrelevant
VJJ
tp780
a(Vscientific
VJJ
tp781
a(Vfields
VNNS
tp782
a(V?
V.
tp783
aa(lp784
(VFreedom
VNNP
tp785
a(Vof
VIN
tp786
a(Vexpression
VNN
tp787
a(Vand
VCC
tp788
a(Vthe
VDT
tp789
a(Vmedia
VNNS
tp790
a(Vhave
VVBP
tp791
a(Vbeen
VVBN
tp792
a(Vserially
VRB
tp793
a(Vbreached
VVBN
tp794
a(V.
V.
tp795
aa(lp796
(VIt
VPRP
tp797
a(Vis
VVBZ
tp798
a(Vsubstantially
VRB
tp799
a(Vless
VJJR
tp800
a(Vthan
VIN
tp801
a(Vwhat
VWP
tp802
a(Vwould
VMD
tp803
a(Vbe
VVB
tp804
a(Vneeded
VVBN
tp805
a(Vto
VTO
tp806
a(Vreduce
VVB
tp807
a(Vthe
VDT
tp808
a(Vdebts
VNNS
tp809
a(Vthat
VWDT
tp810
a(Vare
VVBP
tp811
a(Vstill
VRB
tp812
a(Voutstanding
VJJ
tp813
a(V.
V.
tp814
aa(lp815
(VConcerning
VVBG
tp816
a(Vthe
VDT
tp817
a(Vduration
VNN
tp818
a(Vof
VIN
tp819
a(Vthe
VDT
tp820
a(Vregulation
VNN
tp821
a(V,
V,
tp822
a(Vthe
VDT
tp823
a(VCommission
VNNP
tp824
a(Voriginally
VRB
tp825
a(Vproposed
VVBD
tp826
a(Vthat
VIN
tp827
a(Vthe
VDT
tp828
a(Vregulation
VNN
tp829
a(Vshould
VMD
tp830
a(Vbe
VVB
tp831
a(Vvalid
VJJ
tp832
a(Vfor
VIN
tp833
a(Van
VDT
tp834
a(Vindefinite
VJJ
tp835
a(Vperiod
VNN
tp836
a(Vof
VIN
tp837
a(Vtime
VNN
tp838
a(Vto
VTO
tp839
a(Vavoid
VVB
tp840
a(Vperiodic
VJJ
tp841
a(Vdiscussion
VNN
tp842
a(Von
VIN
tp843
a(Va
VDT
tp844
a(Vquestion
VNN
tp845
a(Vwhich
VWDT
tp846
a(Vseems
VVBZ
tp847
a(V,
V,
tp848
a(Vsadly
VRB
tp849
a(V,
V,
tp850
a(Vunlikely
VJJ
tp851
a(Vto
VTO
tp852
a(Vgo
VVB
tp853
a(Vaway
VRB
tp854
a(Vor
VCC
tp855
a(Vchange
VVB
tp856
a(Vin
VIN
tp857
a(Vnature
VNN
tp858
a(Vin
VIN
tp859
a(Va
VDT
tp860
a(Vsignificant
VJJ
tp861
a(Vway
VNN
tp862
a(V.
V.
tp863
aa(lp864
(VMr
VNNP
tp865
a(VDebatisse
VNNP
tp866
a(Veven
VRB
tp867
a(Vproposed
VVBD
tp868
a(Vfixing
VVBG
tp869
a(Van
VDT
tp870
a(Velectronic
VJJ
tp871
a(Vchip
VNN
tp872
a(Vin
VIN
tp873
a(Vthe
VDT
tp874
a(Vear
VNN
tp875
a(Vof
VIN
tp876
a(Vevery
VDT
tp877
a(Vsheep
VNN
tp878
a(Vto
VTO
tp879
a(Vmonitor
VVB
tp880
a(Vthem
VPRP
tp881
a(Vby
VIN
tp882
a(Vsatellite
VNN
tp883
a(V!
V.
tp884
aa(lp885
(VThe
VDT
tp886
a(VTamil
VNNP
tp887
a(VTigers
VNNP
tp888
a(Vhave
VVBP
tp889
a(Vtheir
VPRP$
tp890
a(Vshare
VNN
tp891
a(Vof
VIN
tp892
a(Vthe
VDT
tp893
a(Vresponsibility
VNN
tp894
a(Vfor
VIN
tp895
a(Vthese
VDT
tp896
a(Vhorrors
VNNS
tp897
a(V.
V.
tp898
aa(lp899
(VI
VPRP
tp900
a(Vthank
VVBP
tp901
a(Vyou
VPRP
tp902
a(V,
V,
tp903
a(VMr
VNNP
tp904
a(VPresident
VNNP
tp905
a(V,
V,
tp906
a(Vfor
VIN
tp907
a(Vyour
VPRP$
tp908
a(Vrole
VNN
tp909
a(Vand
VCC
tp910
a(Vthe
VDT
tp911
a(Vwork
VNN
tp912
a(Vyou
VPRP
tp913
a(Vhave
VVBP
tp914
a(Vdone
VVBN
tp915
a(Vand
VCC
tp916
a(Vwould
VMD
tp917
a(Vjust
VRB
tp918
a(Vlike
VVB
tp919
a(Vto
VTO
tp920
a(Vjoin
VVB
tp921
a(VMr
VNNP
tp922
a(VMartens
VNNP
tp923
a(Vin
VIN
tp924
a(Vsaying
VVBG
tp925
a(Vthat
VIN
tp926
a(Vyou
VPRP
tp927
a(Vare
VVBP
tp928
a(Vindeed
VRB
tp929
a(Va
VDT
tp930
a(Vthoughtful
VJJ
tp931
a(V,
V,
tp932
a(Vdeeply
VRB
tp933
a(Vcommitted
VJJ
tp934
a(Vand
VCC
tp935
a(Vheartfelt
VJJ
tp936
a(VEuropean
VJJ
tp937
a(V.
V.
tp938
aa(lp939
(VWe
VPRP
tp940
a(Vin
VIN
tp941
a(VEurope
VNNP
tp942
a(Vshould
VMD
tp943
a(Vhave
VVB
tp944
a(Vthe
VDT
tp945
a(Vnerve
VNN
tp946
a(Vto
VTO
tp947
a(Vstick
VVB
tp948
a(Vour
VPRP$
tp949
a(Vnecks
VNNS
tp950
a(Vout
VIN
tp951
a(V;
V:
tp952
a(Vthe
VDT
tp953
a(Vvictims
VNNS
tp954
a(Vare
VVBP
tp955
a(Veagerly
VRB
tp956
a(Vwaiting
VVBG
tp957
a(Vfor
VIN
tp958
a(Vthis
VDT
tp959
a(V.
V.
tp960
aa(lp961
(VWhat
VWP
tp962
a(VI
VPRP
tp963
a(Vdo
VVBP
tp964
a(Vsee
VVB
tp965
a(Vright
VJJ
tp966
a(Vacross
VIN
tp967
a(VEurope
VNNP
tp968
a(Vis
VVBZ
tp969
a(Vpeople
VNNS
tp970
a(Vdrinking
VVBG
tp971
a(VCoca
VNNP
tp972
a(VCola
VNNP
tp973
a(V,
V,
tp974
a(Veating
VVBG
tp975
a(Vhamburgers
VNNS
tp976
a(V,
V,
tp977
a(Vwearing
VVBG
tp978
a(Vbaseball
VNN
tp979
a(Vcaps
VNNS
tp980
a(V,
V,
tp981
a(Vwatching
VVBG
tp982
a(VHollywood
VNNP
tp983
a(Vfilms
VNNS
tp984
a(Vand
VCC
tp985
a(Voften
VRB
tp986
a(Vdoing
VVBG
tp987
a(Vall
VPDT
tp988
a(Vthis
VDT
tp989
a(Vat
VIN
tp990
a(Vthe
VDT
tp991
a(Vsame
VJJ
tp992
a(Vtime
VNN
tp993
a(V.
V.
tp994
aa(lp995
(VCriminal
VNNP
tp996
a(Vnetworks
VNNS
tp997
a(Vare
VVBP
tp998
a(Vrife
VJJ
tp999
a(V.
V.
tp1000
aa(lp1001
(VBut
VCC
tp1002
a(Vlet
VVB
tp1003
a(Vus
VPRP
tp1004
a(Vface
VVB
tp1005
a(Vit
VPRP
tp1006
a(V;
V:
tp1007
a(Vthe
VDT
tp1008
a(VCanadian
VJJ
tp1009
a(VGovernment
VNN
tp1010
a(Vis
VVBZ
tp1011
a(Vmaking
VVBG
tp1012
a(Vhuge
VJJ
tp1013
a(Vamounts
VNNS
tp1014
a(Vof
VIN
tp1015
a(Vmoney
VNN
tp1016
a(Vfrom
VIN
tp1017
a(Van
VDT
tp1018
a(Vindustry
VNN
tp1019
a(Vdesigned
VVBN
tp1020
a(Vfor
VIN
tp1021
a(Vrich
VJJ
tp1022
a(Vpeople
VNNS
tp1023
a(Vto
VTO
tp1024
a(Vwear
VVB
tp1025
a(Vfur
VNN
tp1026
a(Vcoats
VNNS
tp1027
a(V.
V.
tp1028
aa(lp1029
(VThere
VEX
tp1030
a(Vis
VVBZ
tp1031
a(Vno
VDT
tp1032
a(Vquestion
VNN
tp1033
a(Vof
VIN
tp1034
a(Vpostponing
VVBG
tp1035
a(Vthe
VDT
tp1036
a(Vslightest
VJJS
tp1037
a(Vdecision
VNN
tp1038
a(V,
V,
tp1039
a(Vand
VCC
tp1040
a(VI
VPRP
tp1041
a(Vcan
VMD
tp1042
a(Vsupply
VVB
tp1043
a(Vevidence
VNN
tp1044
a(Vof
VIN
tp1045
a(Vthat
VDT
tp1046
a(V.
V.
tp1047
aa(lp1048
(VWe
VPRP
tp1049
a(Vshall
VMD
tp1050
a(Vmake
VVB
tp1051
a(Va
VDT
tp1052
a(Vdetailed
VJJ
tp1053
a(Vanalysis
VNN
tp1054
a(Vof
VIN
tp1055
a(Vthat
VDT
tp1056
a(Vprogress
VNN
tp1057
a(Vin
VIN
tp1058
a(Vour
VPRP$
tp1059
a(Vregular
VJJ
tp1060
a(Vreport
VNN
tp1061
a(V,
V,
tp1062
a(Vto
VTO
tp1063
a(Vbe
VVB
tp1064
a(Vadopted
VVBN
tp1065
a(Von
VIN
tp1066
a(V9
VCD
tp1067
a(VNovember
VNNP
tp1068
a(V.
V.
tp1069
aa(lp1070
(VIf
VIN
tp1071
a(Vwe
VPRP
tp1072
a(Vspeak
VVBP
tp1073
a(Vof
VIN
tp1074
a(Vmagnificent
VJJ
tp1075
a(Vunspoiled
VJJ
tp1076
a(Vnatural
VJJ
tp1077
a(Vbeauty
VNN
tp1078
a(V,
V,
tp1079
a(Vwe
VPRP
tp1080
a(Vhave
VVBP
tp1081
a(Vgrounds
VNNS
tp1082
a(Vfor
VIN
tp1083
a(Vapplying
VVBG
tp1084
a(Vthe
VDT
tp1085
a(Vlatest
VJJS
tp1086
a(Vstandards
VNNS
tp1087
a(Vthere
VRB
tp1088
a(V.
V.
tp1089
aa(lp1090
(VIn
VIN
tp1091
a(VNovember
VNNP
tp1092
a(V2008
VCD
tp1093
a(Vthe
VDT
tp1094
a(VEuropean
VJJ
tp1095
a(VCommission
VNNP
tp1096
a(Vpublished
VVBD
tp1097
a(Vits
VPRP$
tp1098
a(VDemography
VNNP
tp1099
a(VReport
VNNP
tp1100
a(Vwhich
VWDT
tp1101
a(Voutlined
VVBD
tp1102
a(Vthe
VDT
tp1103
a(Vchallenges
VNNS
tp1104
a(VEurope
VNNP
tp1105
a(Vwill
VMD
tp1106
a(Vbe
VVB
tp1107
a(Vfacing
VVBG
tp1108
a(Vin
VIN
tp1109
a(Vthe
VDT
tp1110
a(Vcoming
VVBG
tp1111
a(Vdecades
VNNS
tp1112
a(Vas
VIN
tp1113
a(Va
VDT
tp1114
a(Vresult
VNN
tp1115
a(Vof
VIN
tp1116
a(Van
VDT
tp1117
a(Vageing
VJJ
tp1118
a(Vpopulation
VNN
tp1119
a(V.
V.
tp1120
aa(lp1121
(VA
VDT
tp1122
a(Vweek
VNN
tp1123
a(Vmaybe
VRB
tp1124
a(V.
V.
tp1125
aa(lp1126
(VA
VDT
tp1127
a(Vsafe
VJJ
tp1128
a(Vand
VCC
tp1129
a(Vinclusive
VJJ
tp1130
a(VEurope
VNNP
tp1131
a(Vcan
VMD
tp1132
a(Vonly
VRB
tp1133
a(Vbe
VVB
tp1134
a(Vbuilt
VVBN
tp1135
a(Vusing
VVBG
tp1136
a(Vthese
VDT
tp1137
a(Vinstruments
VNNS
tp1138
a(V.
V.
tp1139
aa(lp1140
(VI
VPRP
tp1141
a(Vshould
VMD
tp1142
a(Vjust
VRB
tp1143
a(Vlike
VVB
tp1144
a(Vto
VTO
tp1145
a(Vbring
VVB
tp1146
a(Vup
VRP
tp1147
a(Va
VDT
tp1148
a(Vfew
VJJ
tp1149
a(Vother
VJJ
tp1150
a(Vsmall
VJJ
tp1151
a(Vpoints
VNNS
tp1152
a(V,
V,
tp1153
a(Vsmall
VJJ
tp1154
a(Vin
VIN
tp1155
a(Va
VDT
tp1156
a(Vcertain
VJJ
tp1157
a(Vsense
VNN
tp1158
a(V.
V.
tp1159
aa(lp1160
(VIf
VIN
tp1161
a(VEurope
VNNP
tp1162
a(Vhad
VVBD
tp1163
a(Vthe
VDT
tp1164
a(Vsame
VJJ
tp1165
a(Vcompetence
VNN
tp1166
a(Vand
VCC
tp1167
a(Vthe
VDT
tp1168
a(Vsame
VJJ
tp1169
a(Vcapacity
VNN
tp1170
a(Vfor
VIN
tp1171
a(Vmarketing
VNN
tp1172
a(Vas
VIN
tp1173
a(Vthe
VDT
tp1174
a(Vlobbies
VNNS
tp1175
a(Vin
VIN
tp1176
a(Vquestion
VNN
tp1177
a(V,
V,
tp1178
a(Vwe
VPRP
tp1179
a(Vwould
VMD
tp1180
a(Vperhaps
VRB
tp1181
a(Vbe
VVB
tp1182
a(Vable
VJJ
tp1183
a(Vto
VTO
tp1184
a(Vexplain
VVB
tp1185
a(Vwhy
VWRB
tp1186
a(Vwe
VPRP
tp1187
a(Vtook
VVBD
tp1188
a(Vthe
VDT
tp1189
a(Vdecision
VNN
tp1190
a(Vthat
VIN
tp1191
a(Vwe
VPRP
tp1192
a(Vdid
VVBD
tp1193
a(Vin
VIN
tp1194
a(V1991
VCD
tp1195
a(V.
V.
tp1196
aa(lp1197
(VAs
VIN
tp1198
a(Vis
VVBZ
tp1199
a(Vwell
VRB
tp1200
a(Vknown
VVBN
tp1201
a(Vwe
VPRP
tp1202
a(Vhave
VVBP
tp1203
a(Vtwo
VCD
tp1204
a(Vdifferent
VJJ
tp1205
a(Vpolitical
VJJ
tp1206
a(Vopinions
VNNS
tp1207
a(Vabout
VIN
tp1208
a(Vdrugs
VNNS
tp1209
a(V;
V:
tp1210
a(Vone
VCD
tp1211
a(Vwhich
VWDT
tp1212
a(Vrepresents
VVBZ
tp1213
a(Vthe
VDT
tp1214
a(Vconventions
VNNS
tp1215
a(Vwhich
VWDT
tp1216
a(Vthe
VDT
tp1217
a(VMember
VNNP
tp1218
a(VStates
VNNPS
tp1219
a(Vhave
VVBP
tp1220
a(Vsigned
VVBN
tp1221
a(V,
V,
tp1222
a(Vand
VCC
tp1223
a(Vone
VCD
tp1224
a(Vwhich
VWDT
tp1225
a(Vrepresents
VVBZ
tp1226
a(Va
VDT
tp1227
a(Vmore
VRBR
tp1228
a(Vliberal
VJJ
tp1229
a(Vview
VNN
tp1230
a(V.
V.
tp1231
aa(lp1232
(VThe
VDT
tp1233
a(Vmeltwater
VNN
tp1234
a(Vcoming
VVBG
tp1235
a(Vfrom
VIN
tp1236
a(Vthis
VDT
tp1237
a(Vglacier
VNN
tp1238
a(Veach
VDT
tp1239
a(Vday
VNN
tp1240
a(Vis
VVBZ
tp1241
a(Vequal
VJJ
tp1242
a(Vto
VTO
tp1243
a(Vthe
VDT
tp1244
a(Vannual
VJJ
tp1245
a(Vconsumption
VNN
tp1246
a(Vof
VIN
tp1247
a(Va
VDT
tp1248
a(Vwhole
VJJ
tp1249
a(Vcity
VNN
tp1250
a(Vthe
VDT
tp1251
a(Vsize
VNN
tp1252
a(Vof
VIN
tp1253
a(VNew
VNNP
tp1254
a(VYork
VNNP
tp1255
a(V.
V.
tp1256
aa(lp1257
(VThe
VDT
tp1258
a(Vsubsequent
VJJ
tp1259
a(Vtreatment
VNN
tp1260
a(Vcosts
VNNS
tp1261
a(Vcan
VMD
tp1262
a(Vbe
VVB
tp1263
a(Vup
VRB
tp1264
a(Vto
VTO
tp1265
a(Vone
VCD
tp1266
a(Vhundred
VCD
tp1267
a(Vtimes
VNNS
tp1268
a(Vhigher
VJJR
tp1269
a(Vthan
VIN
tp1270
a(Vthose
VDT
tp1271
a(Vof
VIN
tp1272
a(Vnormal
VJJ
tp1273
a(Vtuberculosis
VNN
tp1274
a(V.
V.
tp1275
aa(lp1276
(VHe
VPRP
tp1277
a(Vis
VVBZ
tp1278
a(Vconfident
VJJ
tp1279
a(Vthat
VIN
tp1280
a(Vat
VIN
tp1281
a(Vthe
VDT
tp1282
a(Vthird
VJJ
tp1283
a(Vstage
VNN
tp1284
a(Vwe
VPRP
tp1285
a(Vwill
VMD
tp1286
a(Vstart
VVB
tp1287
a(Vwith
VIN
tp1288
a(Va
VDT
tp1289
a(Vsufficient
VJJ
tp1290
a(Vnumber
VNN
tp1291
a(Vof
VIN
tp1292
a(VMember
VNNP
tp1293
a(VStates
VNNPS
tp1294
a(V.
V.
tp1295
aa(lp1296
(VPlease
VVB
tp1297
a(Vassist
VVB
tp1298
a(Vher
VPRP
tp1299
a(V.
V.
tp1300
aa(lp1301
(VLastly
VRB
tp1302
a(V,
V,
tp1303
a(Vthe
VDT
tp1304
a(Vnuclear
VJJ
tp1305
a(Vpackage
VNN
tp1306
a(Vdemonstrates
VVBZ
tp1307
a(Vsomething
VNN
tp1308
a(Vfurther
VRB
tp1309
a(V.
V.
tp1310
a(VIt
VPRP
tp1311
a(Vdemonstrates
VVBZ
tp1312
a(Vthat
VIN
tp1313
a(V,
V,
tp1314
a(Vas
VIN
tp1315
a(Vone
VCD
tp1316
a(Vof
VIN
tp1317
a(VSpain
VNNP
tp1318
a(V\u2019
VCD
tp1319
a(Vs
VNNS
tp1320
a(Vgreatest
VJJS
tp1321
a(Vtwentieth-century
VJJ
tp1322
a(Vthinkers
VNNS
tp1323
a(Vmaintained
VVBD
tp1324
a(V,
V,
tp1325
a(Vthe
VDT
tp1326
a(Vsolutions
VNNS
tp1327
a(Vto
VTO
tp1328
a(Vproblems
VNNS
tp1329
a(Vit
VPRP
tp1330
a(Vis
VVBZ
tp1331
a(Vdifficult
VJJ
tp1332
a(Vto
VTO
tp1333
a(Vsolve
VVB
tp1334
a(Vat
VIN
tp1335
a(Vnational
VJJ
tp1336
a(Vlevel
VNN
tp1337
a(Vlie
VNN
tp1338
a(Vin
VIN
tp1339
a(VEurope
VNNP
tp1340
a(V.
V.
tp1341
aa(lp1342
(VMrs
VNNP
tp1343
a(VHall
VNNP
tp1344
a(Vmade
VVBD
tp1345
a(Vthis
VDT
tp1346
a(Vpoint
VNN
tp1347
a(V,
V,
tp1348
a(Vand
VCC
tp1349
a(Vthe
VDT
tp1350
a(Vway
VNN
tp1351
a(VI
VPRP
tp1352
a(Vsee
VVBP
tp1353
a(Vit
VPRP
tp1354
a(V,
V,
tp1355
a(Vwe
VPRP
tp1356
a(Vhave
VVBP
tp1357
a(Vtrouble
VNN
tp1358
a(Vcalculating
VVBG
tp1359
a(V.
V.
tp1360
aa(lp1361
(VWe
VPRP
tp1362
a(Vneed
VVBP
tp1363
a(Vto
VTO
tp1364
a(Vrecognise
VVB
tp1365
a(Vthe
VDT
tp1366
a(Vsigns
VNNS
tp1367
a(Vof
VIN
tp1368
a(Vthe
VDT
tp1369
a(Vfuture
VNN
tp1370
a(Vand
VCC
tp1371
a(Vinvest
VVB
tp1372
a(Vin
VIN
tp1373
a(Vrenewable
VJJ
tp1374
a(Venergy
VNN
tp1375
a(Vsources
VNNS
tp1376
a(Vand
VCC
tp1377
a(Vgreen
VJJ
tp1378
a(Vtechnologies
VNNS
tp1379
a(V.
V.
tp1380
aa(lp1381
(VHe
VPRP
tp1382
a(Vfaces
VVBZ
tp1383
a(Vdefeat
VNN
tp1384
a(Vin
VIN
tp1385
a(Vthe
VDT
tp1386
a(Vpresidential
VJJ
tp1387
a(Velection
VNN
tp1388
a(Vnext
VJJ
tp1389
a(Vyear
VNN
tp1390
a(V,
V,
tp1391
a(Vbut
VCC
tp1392
a(Vis
VVBZ
tp1393
a(Vtrying
VVBG
tp1394
a(Vto
VTO
tp1395
a(Vhead
VVB
tp1396
a(Vthis
VDT
tp1397
a(Voff
VRP
tp1398
a(Vwith
VIN
tp1399
a(Va
VDT
tp1400
a(Vsavage
VJJ
tp1401
a(Vcampaign
VNN
tp1402
a(Vof
VIN
tp1403
a(Vbrutal
VJJ
tp1404
a(Vintimidation
VNN
tp1405
a(Vagainst
VIN
tp1406
a(Vhis
VPRP$
tp1407
a(Vpolitical
VJJ
tp1408
a(Vopponents
VNNS
tp1409
a(V.
V.
tp1410
aa(lp1411
(V(
VNN
tp1412
a(VDE
VNN
tp1413
a(V)
VCD
tp1414
a(Vas
VIN
tp1415
a(Vparagraph
VNN
tp1416
a(V6
VCD
tp1417
a(V(
VCD
tp1418
a(Va
VDT
tp1419
a(V)
VNN
tp1420
a(V.
V.
tp1421
aa(lp1422
(VHow
VWRB
tp1423
a(Vcan
VMD
tp1424
a(Vyou
VPRP
tp1425
a(Vget
VVB
tp1426
a(Vredress
VVB
tp1427
a(Vif
VIN
tp1428
a(Vyou
VPRP
tp1429
a(Vdo
VVBP
tp1430
a(Vnot
VRB
tp1431
a(Vknow
VVB
tp1432
a(Vwhere
VWRB
tp1433
a(Vto
VTO
tp1434
a(Vgo
VVB
tp1435
a(Vor
VCC
tp1436
a(Vask
VVB
tp1437
a(V?
V.
tp1438
aa(lp1439
(VAll
VDT
tp1440
a(VMEPs
VNNS
tp1441
a(Vmust
VMD
tp1442
a(Valso
VRB
tp1443
a(Vbear
VVB
tp1444
a(Vresponsibility
VNN
tp1445
a(Vfor
VIN
tp1446
a(Vthe
VDT
tp1447
a(Vway
VNN
tp1448
a(Vthey
VPRP
tp1449
a(Vvote
VVBP
tp1450
a(V.
V.
tp1451
aa(lp1452
(VWe
VPRP
tp1453
a(Vnaturally
VRB
tp1454
a(Vwanted
VVBD
tp1455
a(Vand
VCC
tp1456
a(Vexpected
VVBD
tp1457
a(Vthat
VIN
tp1458
a(Vto
VTO
tp1459
a(Vhappen
VVB
tp1460
a(V.
V.
tp1461
aa(lp1462
(VEurope
VNNP
tp1463
a(Vis
VVBZ
tp1464
a(Va
VDT
tp1465
a(Vpowder
VNN
tp1466
a(Vkeg
VNN
tp1467
a(Vwaiting
VVBG
tp1468
a(Vto
VTO
tp1469
a(Vbe
VVB
tp1470
a(Vlit
VVBN
tp1471
a(V.
V.
tp1472
aa(lp1473
(VI
VPRP
tp1474
a(Vbelieve
VVBP
tp1475
a(Vit
VPRP
tp1476
a(Vshould
VMD
tp1477
a(Vprove
VVB
tp1478
a(Vto
VTO
tp1479
a(Vbe
VVB
tp1480
a(Vof
VIN
tp1481
a(Vvery
VRB
tp1482
a(Vgreat
VJJ
tp1483
a(Vhelp
VNN
tp1484
a(Vto
VTO
tp1485
a(Vour
VPRP$
tp1486
a(Vcolleagues
VNNS
tp1487
a(Vin
VIN
tp1488
a(Vthe
VDT
tp1489
a(Vnational
VJJ
tp1490
a(Vparliaments
VNNS
tp1491
a(V.
V.
tp1492
aa(lp1493
(VWe
VPRP
tp1494
a(Vwill
VMD
tp1495
a(Vpresent
VVB
tp1496
a(Vour
VPRP$
tp1497
a(Vplatform
VNN
tp1498
a(Vat
VIN
tp1499
a(Va
VDT
tp1500
a(Vpress
VNN
tp1501
a(Vconference
VNN
tp1502
a(Vtomorrow
VNN
tp1503
a(Vat
VIN
tp1504
a(V2
VCD
tp1505
a(Vp.m.
VNN
tp1506
a(Vin
VIN
tp1507
a(Vthe
VDT
tp1508
a(Vpress
VNN
tp1509
a(Vroom
VNN
tp1510
a(V.
V.
tp1511
aa(lp1512
(VOthers
VNNS
tp1513
a(Vpretended
VVBD
tp1514
a(Vnot
VRB
tp1515
a(Vto
VTO
tp1516
a(Vsee
VVB
tp1517
a(V.
V.
tp1518
aa(lp1519
(VOn
VIN
tp1520
a(Vthe
VDT
tp1521
a(Vother
VJJ
tp1522
a(Vhand
VNN
tp1523
a(V,
V,
tp1524
a(Vthe
VDT
tp1525
a(Vactions
VNNS
tp1526
a(Vmentioned
VVBN
tp1527
a(Vabove
VIN
tp1528
a(Vhave
VVBP
tp1529
a(Vbrought
VVBN
tp1530
a(Vabout
VRB
tp1531
a(Vinhuman
VJJ
tp1532
a(Vand
VCC
tp1533
a(Voften
VRB
tp1534
a(Vtraumatic
VJJ
tp1535
a(Vconsequences
VNNS
tp1536
a(Vfor
VIN
tp1537
a(Vthe
VDT
tp1538
a(Vpopulation
VNN
tp1539
a(V,
V,
tp1540
a(Vhave
VVBP
tp1541
a(Vwithout
VIN
tp1542
a(Va
VDT
tp1543
a(Vdoubt
VNN
tp1544
a(Vreinforced
VVBD
tp1545
a(Vthe
VDT
tp1546
a(Vmost
VRBS
tp1547
a(Vradical
VJJ
tp1548
a(Vand
VCC
tp1549
a(Vextremist
VNN
tp1550
a(Velements
VNNS
tp1551
a(Vand
VCC
tp1552
a(V,
V,
tp1553
a(Vlastly
VRB
tp1554
a(V,
V,
tp1555
a(Vhave
VVBP
tp1556
a(Vincreased
VVBN
tp1557
a(Vinsecurity
VNN
tp1558
a(Vthroughout
VIN
tp1559
a(Vthe
VDT
tp1560
a(Vworld
VNN
tp1561
a(V.
V.
tp1562
aa(lp1563
(VSo
VRB
tp1564
a(V,
V,
tp1565
a(Vfor
VIN
tp1566
a(Vany
VDT
tp1567
a(Vpractical
VJJ
tp1568
a(Vobservation
VNN
tp1569
a(V,
V,
tp1570
a(Vwe
VPRP
tp1571
a(Vneed
VVBP
tp1572
a(Vto
VTO
tp1573
a(Vconsider
VVB
tp1574
a(Vjust
VRB
tp1575
a(Vwhat
VWDT
tp1576
a(Vkind
VNN
tp1577
a(Vof
VIN
tp1578
a(Vbusinesses
VNNS
tp1579
a(Vwe
VPRP
tp1580
a(Vare
VVBP
tp1581
a(Vlooking
VVBG
tp1582
a(Vat
VIN
tp1583
a(Vfor
VIN
tp1584
a(Vrisk
VNN
tp1585
a(Vcapital
VNN
tp1586
a(V.
V.
tp1587
aa(lp1588
(VThere
VEX
tp1589
a(Vare
VVBP
tp1590
a(V90
VCD
tp1591
a(Vinhabited
VVBN
tp1592
a(Vislands
VNNS
tp1593
a(V-
V:
tp1594
a(Vlonger
VJJR
tp1595
a(Vthan
VIN
tp1596
a(VEngland
VNNP
tp1597
a(V,
V,
tp1598
a(Vbigger
VJJR
tp1599
a(Vthan
VIN
tp1600
a(VBelgium
VNNP
tp1601
a(Vor
VCC
tp1602
a(VDenmark
VNNP
tp1603
a(V-
V:
tp1604
a(Vand
VCC
tp1605
a(Vthe
VDT
tp1606
a(Vcosts
VNNS
tp1607
a(Vof
VIN
tp1608
a(Vthat
VDT
tp1609
a(Vperipherality
VNN
tp1610
a(Vare
VVBP
tp1611
a(Venormous
VJJ
tp1612
a(V.
V.
tp1613
aa(lp1614
(VOn
VIN
tp1615
a(Vthe
VDT
tp1616
a(Vcontrary
VNN
tp1617
a(V,
V,
tp1618
a(Vthey
VPRP
tp1619
a(Vcame
VVBD
tp1620
a(Vtoo
VRB
tp1621
a(Vlate
VJJ
tp1622
a(V.
V.
tp1623
aa(lp1624
(V(
VNN
tp1625
a(VDE
VNN
tp1626
a(V)
VCD
tp1627
a(VMr
VNNP
tp1628
a(VPresident
VNNP
tp1629
a(V,
V,
tp1630
a(VMr
VNNP
tp1631
a(VPresident-in-Office
VNNP
tp1632
a(Vof
VIN
tp1633
a(Vthe
VDT
tp1634
a(VCouncil
VNNP
tp1635
a(V,
V,
tp1636
a(VCommissioner
VNNP
tp1637
a(V:
V:
tp1638
a(V&apos;
VVB
tp1639
a(VLe
VNNP
tp1640
a(Vnationalisme
VNN
tp1641
a(V,
V,
tp1642
a(Vc
VNN
tp1643
a(V&apos;est
VFW
tp1644
a(Vla
VFW
tp1645
a(Vguerre
VFW
tp1646
a(V!
V.
tp1647
a(V&apos;
VIN
tp1648
aa(lp1649
(VThis
VDT
tp1650
a(Vcreates
VVBZ
tp1651
a(Vvery
VRB
tp1652
a(Vmajor
VJJ
tp1653
a(Venvironmental
VJJ
tp1654
a(Vproblems
VNNS
tp1655
a(Vwhen
VWRB
tp1656
a(Vit
VPRP
tp1657
a(Vcomes
VVBZ
tp1658
a(Vto
VTO
tp1659
a(Vdisposing
VVBG
tp1660
a(Vof
VIN
tp1661
a(Vit
VPRP
tp1662
a(V.
V.
tp1663
aa(lp1664
(VWith
VIN
tp1665
a(Vthe
VDT
tp1666
a(Vnew
VJJ
tp1667
a(VRegulation
VNN
tp1668
a(Vthe
VDT
tp1669
a(VMember
VNNP
tp1670
a(VStates
VNNPS
tp1671
a(Vwill
VMD
tp1672
a(Vbe
VVB
tp1673
a(Vable
VJJ
tp1674
a(Vto
VTO
tp1675
a(Vrecover
VVB
tp1676
a(Vunjustified
VJJ
tp1677
a(Vpayments
VNNS
tp1678
a(Vof
VIN
tp1679
a(Vaid
VNN
tp1680
a(Vmore
VRBR
tp1681
a(Veasily
VRB
tp1682
a(Vthan
VIN
tp1683
a(Vbefore
VRB
tp1684
a(V.
V.
tp1685
aa(lp1686
(VLike
VIN
tp1687
a(Vour
VPRP$
tp1688
a(Vchildren
VNNS
tp1689
a(V,
V,
tp1690
a(Vthey
VPRP
tp1691
a(Vare
VVBP
tp1692
a(Vbombarded
VVBN
tp1693
a(Vwith
VIN
tp1694
a(Vinformation
VNN
tp1695
a(Vand
VCC
tp1696
a(Vthey
VPRP
tp1697
a(Vdream
VVBP
tp1698
a(V,
V,
tp1699
a(Vlike
VIN
tp1700
a(Vour
VPRP$
tp1701
a(Vchildren
VNNS
tp1702
a(V,
V,
tp1703
a(Vof
VIN
tp1704
a(ViPods
VNNS
tp1705
a(V,
V,
tp1706
a(VPlaystations
VNNS
tp1707
a(V,
V,
tp1708
a(VDVDs
VNNS
tp1709
a(V.
V.
tp1710
aa(lp1711
(VEven
VRB
tp1712
a(Vyoung
VJJ
tp1713
a(Vpeople
VNNS
tp1714
a(Vinvolved
VVBN
tp1715
a(Vin
VIN
tp1716
a(Vcontemporary
VJJ
tp1717
a(Vpop
VNN
tp1718
a(Vculture
VNN
tp1719
a(Vlent
VVBD
tp1720
a(Vtheir
VPRP$
tp1721
a(Vsupport
VNN
tp1722
a(V.
V.
tp1723
aa(lp1724
(VFrontex
VNN
tp1725
a(Vtakes
VVBZ
tp1726
a(Va
VDT
tp1727
a(Vstep
VNN
tp1728
a(Vtoo
VRB
tp1729
a(Vfar
VRB
tp1730
a(Vwhen
VWRB
tp1731
a(Vit
VPRP
tp1732
a(Vcomes
VVBZ
tp1733
a(Vto
VTO
tp1734
a(Vcoordinating
VVBG
tp1735
a(Vthe
VDT
tp1736
a(Vborder
VNN
tp1737
a(Vcontrols
VNNS
tp1738
a(Vand
VCC
tp1739
a(Vimmigration
VNN
tp1740
a(Vpolicies
VNNS
tp1741
a(Vof
VIN
tp1742
a(Vthe
VDT
tp1743
a(VMember
VNNP
tp1744
a(VStates
VNNPS
tp1745
a(V.
V.
tp1746
aa(lp1747
(VBut
VCC
tp1748
a(Vwhat
VWP
tp1749
a(Vshould
VMD
tp1750
a(Vwe
VPRP
tp1751
a(Vdo
VVB
tp1752
a(Vtogether
VRB
tp1753
a(V?
V.
tp1754
aa(lp1755
(VThe
VDT
tp1756
a(VCharter
VNNP
tp1757
a(Vof
VIN
tp1758
a(VFundamental
VJJ
tp1759
a(VRights
VNNS
tp1760
a(Vmust
VMD
tp1761
a(Vnot
VRB
tp1762
a(Vbe
VVB
tp1763
a(Vinterpreted
VVBN
tp1764
a(Vin
VIN
tp1765
a(Vsuch
VJJ
tp1766
a(Va
VDT
tp1767
a(Vway
VNN
tp1768
a(Vthat
VIN
tp1769
a(Vit
VPRP
tp1770
a(Vresults
VVBZ
tp1771
a(Vin
VIN
tp1772
a(Vthe
VDT
tp1773
a(Vpresumption
VNN
tp1774
a(Vof
VIN
tp1775
a(Vnew
VJJ
tp1776
a(Vcompetences
VNNS
tp1777
a(Vfor
VIN
tp1778
a(Vthe
VDT
tp1779
a(VEuropean
VNNP
tp1780
a(VUnion
VNNP
tp1781
a(V.
V.
tp1782
aa(lp1783
(VWe
VPRP
tp1784
a(Vwould
VMD
tp1785
a(Vhave
VVB
tp1786
a(Vexpected
VVBN
tp1787
a(Vyou
VPRP
tp1788
a(Vto
VTO
tp1789
a(Vbe
VVB
tp1790
a(Vjust
VRB
tp1791
a(Vas
VIN
tp1792
a(Vcritical
VJJ
tp1793
a(Vof
VIN
tp1794
a(Vthose
VDT
tp1795
a(Vleft-wing
VJJ
tp1796
a(Vrevolutionaries
VNNS
tp1797
a(Vwho
VWP
tp1798
a(Vuse
VVBP
tp1799
a(Vforce
VNN
tp1800
a(Vas
VIN
tp1801
a(Vwe
VPRP
tp1802
a(Vare
VVBP
tp1803
a(Vagainst
VIN
tp1804
a(Vthose
VDT
tp1805
a(Von
VIN
tp1806
a(Vthe
VDT
tp1807
a(Vright
VNN
tp1808
a(Vwho
VWP
tp1809
a(Vresort
VVBP
tp1810
a(Vto
VTO
tp1811
a(Vviolence
VNN
tp1812
a(V.
V.
tp1813
aa(lp1814
(VNobody
VNN
tp1815
a(Vcan
VMD
tp1816
a(Vturn
VVB
tp1817
a(Va
VDT
tp1818
a(Vblind
VJJ
tp1819
a(Veye
VNN
tp1820
a(Vto
VTO
tp1821
a(Vthe
VDT
tp1822
a(Vcontinuous
VJJ
tp1823
a(Vmilitary
VJJ
tp1824
a(Voccupation
VNN
tp1825
a(Vof
VIN
tp1826
a(Vpart
VNN
tp1827
a(Vof
VIN
tp1828
a(Vthe
VDT
tp1829
a(Vterritory
VNN
tp1830
a(Vof
VIN
tp1831
a(VCyprus
VNNP
tp1832
a(V.
V.
tp1833
aa(lp1834
(VI
VPRP
tp1835
a(Vhave
VVBP
tp1836
a(Vread
VVBN
tp1837
a(Vcarefully
VRB
tp1838
a(Vthe
VDT
tp1839
a(Vcontent
VNN
tp1840
a(Vof
VIN
tp1841
a(Vthe
VDT
tp1842
a(Vdirective
VNN
tp1843
a(Vand
VCC
tp1844
a(Vfrom
VIN
tp1845
a(Va
VDT
tp1846
a(Vtechnical
VJJ
tp1847
a(Vpoint
VNN
tp1848
a(Vof
VIN
tp1849
a(Vview
VNN
tp1850
a(V,
V,
tp1851
a(VI
VPRP
tp1852
a(Vstill
VRB
tp1853
a(Vfind
VVBP
tp1854
a(Vsome
VDT
tp1855
a(Vpoints
VNNS
tp1856
a(Vunclear
VJJ
tp1857
a(V.
V.
tp1858
aa(lp1859
(VHas
VVBZ
tp1860
a(Va
VDT
tp1861
a(Vsystem
VNN
tp1862
a(Vof
VIN
tp1863
a(Vcooperation
VNN
tp1864
a(Vbeen
VVBN
tp1865
a(Vagreed
VVBN
tp1866
a(V?
V.
tp1867
aa(lp1868
(VThis
VDT
tp1869
a(Vissue
VNN
tp1870
a(Vis
VVBZ
tp1871
a(Vbeing
VVBG
tp1872
a(Vdominated
VVBN
tp1873
a(Vby
VIN
tp1874
a(Vlies
VNNS
tp1875
a(Vand
VCC
tp1876
a(Vone-sided
VJJ
tp1877
a(Vpropaganda
VNN
tp1878
a(V,
V,
tp1879
a(Vas
VIN
tp1880
a(Vwe
VPRP
tp1881
a(Vhave
VVBP
tp1882
a(Vseen
VVBN
tp1883
a(Vin
VIN
tp1884
a(Vother
VJJ
tp1885
a(Vcases
VNNS
tp1886
a(V.
V.
tp1887
aa(lp1888
(VFor
VIN
tp1889
a(Vhospital
VNN
tp1890
a(Vcare
VNN
tp1891
a(V,
V,
tp1892
a(Vprior
VRB
tp1893
a(Vauthorisation
VNN
tp1894
a(Vmay
VMD
tp1895
a(Vbe
VVB
tp1896
a(Vrequired
VVBN
tp1897
a(Vbefore
VIN
tp1898
a(Va
VDT
tp1899
a(Vpatient
VNN
tp1900
a(Vcan
VMD
tp1901
a(Vgo
VVB
tp1902
a(Vabroad
VRB
tp1903
a(Vto
VTO
tp1904
a(Vreceive
VVB
tp1905
a(Vhealth
VNN
tp1906
a(Vcare
VNN
tp1907
a(V.
V.
tp1908
aa(lp1909
(VBut
VCC
tp1910
a(Vsurely
VRB
tp1911
a(Vthis
VDT
tp1912
a(Vis
VVBZ
tp1913
a(Vno
VDT
tp1914
a(Vreason
VNN
tp1915
a(Vto
VTO
tp1916
a(Vignore
VVB
tp1917
a(Vthis
VDT
tp1918
a(Vinformation
VNN
tp1919
a(V.
V.
tp1920
aa(lp1921
(VThere
VEX
tp1922
a(Vis
VVBZ
tp1923
a(Va
VDT
tp1924
a(Vlong
VJJ
tp1925
a(Vroad
VNN
tp1926
a(Vahead
VRB
tp1927
a(V.
V.
tp1928
aa(lp1929
(VAn
VDT
tp1930
a(Vimmense
VJJ
tp1931
a(Vweight
VNN
tp1932
a(Vhangs
VVBZ
tp1933
a(Vover
VIN
tp1934
a(Vhim
VPRP
tp1935
a(Vand
VCC
tp1936
a(Vhis
VPRP$
tp1937
a(Vactions
VNNS
tp1938
a(Vbecause
VIN
tp1939
a(Vof
VIN
tp1940
a(Vthe
VDT
tp1941
a(Vongoing
VJJ
tp1942
a(Vconflict
VNN
tp1943
a(Vbetween
VIN
tp1944
a(Vhis
VPRP$
tp1945
a(Vown
VJJ
tp1946
a(Vpersonal
VJJ
tp1947
a(Vinterests
VNNS
tp1948
a(Vand
VCC
tp1949
a(Vthose
VDT
tp1950
a(Vof
VIN
tp1951
a(Vthe
VDT
tp1952
a(Vpeople
VNNS
tp1953
a(Vof
VIN
tp1954
a(VItaly
VNNP
tp1955
a(Vand
VCC
tp1956
a(VEurope
VNNP
tp1957
a(Vas
VIN
tp1958
a(Va
VDT
tp1959
a(Vwhole
VNN
tp1960
a(V.
V.
tp1961
aa(lp1962
(VIt
VPRP
tp1963
a(Vis
VVBZ
tp1964
a(Vnot
VRB
tp1965
a(Vclear
VJJ
tp1966
a(Vwhether
VIN
tp1967
a(Vthe
VDT
tp1968
a(Vtext
VNN
tp1969
a(Vsubmitted
VVBN
tp1970
a(Vto
VTO
tp1971
a(Vthe
VDT
tp1972
a(VTurks
VNNPS
tp1973
a(Vat
VIN
tp1974
a(Vthe
VDT
tp1975
a(Vtime
VNN
tp1976
a(Vwas
VVBD
tp1977
a(Vthe
VDT
tp1978
a(Vsame
VJJ
tp1979
a(Vas
VIN
tp1980
a(Vthe
VDT
tp1981
a(Vone
VCD
tp1982
a(Vthat
VWDT
tp1983
a(Vhad
VVBD
tp1984
a(Vbeen
VVBN
tp1985
a(Vaccepted
VVBN
tp1986
a(Vby
VIN
tp1987
a(Vthe
VDT
tp1988
a(VEuropean
VJJ
tp1989
a(VCouncil
VNNP
tp1990
a(Vin
VIN
tp1991
a(V1999
VCD
tp1992
a(V.
V.
tp1993
aa(lp1994
(VWhen
VWRB
tp1995
a(Vresistance
VNN
tp1996
a(Vagainst
VIN
tp1997
a(Vcollectivisation
VNN
tp1998
a(Vamong
VIN
tp1999
a(Vthe
VDT
tp2000
a(Vpeasants
VNNS
tp2001
a(Vgrew
VVBD
tp2002
a(V,
V,
tp2003
a(Vhe
VPRP
tp2004
a(Vdecided
VVBD
tp2005
a(Vto
VTO
tp2006
a(Vphysically
VRB
tp2007
a(Veliminate
VVB
tp2008
a(Vthose
VDT
tp2009
a(Vliving
VVBG
tp2010
a(Vin
VIN
tp2011
a(Vthe
VDT
tp2012
a(Vmost
VRBS
tp2013
a(Vrebellious
VJJ
tp2014
a(Vregions
VNNS
tp2015
a(V.
V.
tp2016
aa.