(lp1
(lp2
(V37
VCD
tp3
a(V.
V.
tp4
aa(lp5
(VOn
VIN
tp6
a(Vthe
VDT
tp7
a(Vissue
VNN
tp8
a(Vof
VIN
tp9
a(VJerusalem
VNNP
tp10
a(V,
V,
tp11
a(Vas
VIN
tp12
a(Vyou
VPRP
tp13
a(Vknow
VVBP
tp14
a(V,
V,
tp15
a(Vtalks
VNNS
tp16
a(Vare
VVBP
tp17
a(Vcontinuing
VVBG
tp18
a(V,
V,
tp19
a(Vwith
VIN
tp20
a(Vsome
VDT
tp21
a(Vprogress
VNN
tp22
a(V,
V,
tp23
a(Von
VIN
tp24
a(Vthe
VDT
tp25
a(Vproblem
VNN
tp26
a(Vof
VIN
tp27
a(Vhow
VWRB
tp28
a(Vto
VTO
tp29
a(Vdefine
VVB
tp30
a(Vthe
VDT
tp31
a(VWailing
VNNP
tp32
a(VWall
VNNP
tp33
a(Vand
VCC
tp34
a(Vthe
VDT
tp35
a(VWestern
VNNP
tp36
a(VWall
VNNP
tp37
a(V.
V.
tp38
aa(lp39
(VIn
VIN
tp40
a(Vorder
VNN
tp41
a(Vto
VTO
tp42
a(Vensure
VVB
tp43
a(Vthat
VIN
tp44
a(Vthis
VDT
tp45
a(VEurovignette
VNN
tp46
a(Vis
VVBZ
tp47
a(Vnot
VRB
tp48
a(Vjust
VRB
tp49
a(Va
VDT
tp50
a(Vtax
VNN
tp51
a(Vbut
VCC
tp52
a(Vactually
VRB
tp53
a(Vhelps
VVBZ
tp54
a(Vimprove
VVB
tp55
a(Vtransport
VNN
tp56
a(Vin
VIN
tp57
a(VEurope
VNNP
tp58
a(V,
V,
tp59
a(Vthe
VDT
tp60
a(VMember
VNNP
tp61
a(VStates
VNNPS
tp62
a(Vare
VVBP
tp63
a(Valso
VRB
tp64
a(Vencouraged
VVBN
tp65
a(Vto
VTO
tp66
a(Vreinvest
VVB
tp67
a(Vthe
VDT
tp68
a(Vrevenues
VNNS
tp69
a(Vthey
VPRP
tp70
a(Vcollect
VVBP
tp71
a(Vin
VIN
tp72
a(Vthe
VDT
tp73
a(Vmodernisation
VNN
tp74
a(Vof
VIN
tp75
a(Vtransport
VNN
tp76
a(Vmodes
VNNS
tp77
a(V.
V.
tp78
aa(lp79
(VFor
VIN
tp80
a(Vthe
VDT
tp81
a(Vmoment
VNN
tp82
a(Vwe
VPRP
tp83
a(Vhave
VVBP
tp84
a(VEUR
V$
tp85
a(V76
VCD
tp86
a(Vbillion
VCD
tp87
a(Vin
VIN
tp88
a(Vgovernment
VNN
tp89
a(Vbonds
VNNS
tp90
a(Vwhich
VWDT
tp91
a(Vthe
VDT
tp92
a(VECB
VNNP
tp93
a(Vhas
VVBZ
tp94
a(Vpurchased
VVBN
tp95
a(V.
V.
tp96
aa(lp97
(VI
VPRP
tp98
a(Vmean
VVBP
tp99
a(V,
V,
tp100
a(Vhow
VWRB
tp101
a(Vcome
VVBN
tp102
a(V?
V.
tp103
aa(lp104
(VOur
VPRP$
tp105
a(Vnetwork
VNN
tp106
a(Vis
VVBZ
tp107
a(Vactually
VRB
tp108
a(Vso
VRB
tp109
a(Vfast
VJJ
tp110
a(Vthat
VIN
tp111
a(Vmany
VJJ
tp112
a(VAmericans
VNNPS
tp113
a(Vsearching
VVBG
tp114
a(Vfor
VIN
tp115
a(Vinformation
VNN
tp116
a(Vuse
VVBP
tp117
a(Vit
VPRP
tp118
a(Valso
VRB
tp119
a(V.
V.
tp120
aa(lp121
(VWe
VPRP
tp122
a(Vreally
VRB
tp123
a(Vhave
VVBP
tp124
a(Vcreated
VVBN
tp125
a(Va
VDT
tp126
a(Vmasterpiece
VNN
tp127
a(Vat
VIN
tp128
a(Vfirst
VJJ
tp129
a(Vreading
VNN
tp130
a(V.
V.
tp131
aa(lp132
(VOn
VIN
tp133
a(VSaturday
VNNP
tp134
a(V1
VCD
tp135
a(VFebruary
VNNP
tp136
a(Vpolice
VNN
tp137
a(Vbrutally
VRB
tp138
a(Vraided
VVBD
tp139
a(Va
VDT
tp140
a(Vprayer
VNN
tp141
a(Vcentre
VNN
tp142
a(Vin
VIN
tp143
a(Vthe
VDT
tp144
a(Vmunicipality
VNN
tp145
a(Vof
VIN
tp146
a(VYevgenyevka
VNNP
tp147
a(Vin
VIN
tp148
a(Vthe
VDT
tp149
a(Vnorth-east
VNN
tp150
a(Vof
VIN
tp151
a(VKazakhstan
VNNP
tp152
a(V.
V.
tp153
aa(lp154
(Vpoor
VJJ
tp155
a(Vworking
VNN
tp156
a(Vconditions
VNNS
tp157
a(Vfor
VIN
tp158
a(Vpeople
VNNS
tp159
a(Vworking
VVBG
tp160
a(Vin
VIN
tp161
a(Vthe
VDT
tp162
a(VMembers
VNNS
tp163
a(V&apos;
VVBP
tp164
a(Vcafeteria
VNN
tp165
aa(lp166
(VWe
VPRP
tp167
a(Vcan
VMD
tp168
a(Vforce
VVB
tp169
a(Vpeople
VNNS
tp170
a(Vto
VTO
tp171
a(Vbe
VVB
tp172
a(Vhappy
VJJ
tp173
a(V,
V,
tp174
a(Vbut
VCC
tp175
a(Vthey
VPRP
tp176
a(Vwere
VVBD
tp177
a(Vin
VIN
tp178
a(Vagreement
VNN
tp179
a(V.
V.
tp180
aa(lp181
(VThe
VDT
tp182
a(Vdiagnosis
VNN
tp183
a(Vgiven
VVBN
tp184
a(Vin
VIN
tp185
a(Vthese
VDT
tp186
a(Vcommunications
VNNS
tp187
a(Vis
VVBZ
tp188
a(Valso
VRB
tp189
a(Vgenerally
VRB
tp190
a(Vcorrect
VJJ
tp191
a(V,
V,
tp192
a(Vrhetorical
VJJ
tp193
a(Vand
VCC
tp194
a(Vgrandiloquent
VJJ
tp195
a(V.
V.
tp196
aa(lp197
(VNot
VRB
tp198
a(Veven
VRB
tp199
a(VIsrael
VNNP
tp200
a(Vcan
VMD
tp201
a(Vdo
VVB
tp202
a(Vthat
VDT
tp203
a(V.
V.
tp204
aa(lp205
(VNo
VDT
tp206
a(Vdoubt
VNN
tp207
a(Vhe
VPRP
tp208
a(Vknows
VVBZ
tp209
a(Vthis
VDT
tp210
a(Vman
VNN
tp211
a(V.
V.
tp212
aa(lp213
(VThere
VEX
tp214
a(Vis
VVBZ
tp215
a(Vindeed
VRB
tp216
a(Va
VDT
tp217
a(Vclinic
VNN
tp218
a(Vin
VIN
tp219
a(VRomania
VNNP
tp220
a(Vthat
VWDT
tp221
a(Vsupplies
VVBZ
tp222
a(Vthe
VDT
tp223
a(VUK
VNNP
tp224
a(Vmarket
VNN
tp225
a(V.
V.
tp226
aa(lp227
(VHave
VVBP
tp228
a(Vwe
VPRP
tp229
a(Van
VDT
tp230
a(Vacceptable
VJJ
tp231
a(Vsubstitute
VNN
tp232
a(Vfor
VIN
tp233
a(Vlead
VNN
tp234
a(Vsolder
VNN
tp235
a(V,
V,
tp236
a(Vfor
VIN
tp237
a(Vexample
VNN
tp238
a(V?
V.
tp239
aa(lp240
(VFirstly
VRB
tp241
a(V,
V,
tp242
a(Vthe
VDT
tp243
a(Vhumanitarian
VJJ
tp244
a(Vemergency
VNN
tp245
a(V.
V.
tp246
aa(lp247
(VThe
VDT
tp248
a(Vimplementation
VNN
tp249
a(Vdetails
VNNS
tp250
a(Vcan
VMD
tp251
a(Vthen
VRB
tp252
a(Vbe
VVB
tp253
a(Vgiven
VVBN
tp254
a(Vshape
VNN
tp255
a(Vby
VIN
tp256
a(Vmeans
VNNS
tp257
a(Vof
VIN
tp258
a(Vnational
VJJ
tp259
a(Vrecommendations
VNNS
tp260
a(V,
V,
tp261
a(Vas
VIN
tp262
a(Vsuggested
VVBN
tp263
a(Vin
VIN
tp264
a(Vthe
VDT
tp265
a(Vproposal
VNN
tp266
a(V.
V.
tp267
aa(lp268
(VWe
VPRP
tp269
a(Vmust
VMD
tp270
a(Vdevote
VVB
tp271
a(Vour
VPRP$
tp272
a(Vattention
VNN
tp273
a(Vto
VTO
tp274
a(Vgreen
VJJ
tp275
a(Vtechnologies
VNNS
tp276
a(V.
V.
tp277
aa(lp278
(VIt
VPRP
tp279
a(Vis
VVBZ
tp280
a(Vin
VIN
tp281
a(Vtimes
VNNS
tp282
a(Vsuch
VJJ
tp283
a(Vas
VIN
tp284
a(Vthe
VDT
tp285
a(Vcurrent
VJJ
tp286
a(Vfinancial
VJJ
tp287
a(Vcrisis
VNN
tp288
a(Vthat
VIN
tp289
a(Vwe
VPRP
tp290
a(Vneed
VVBP
tp291
a(Vto
VTO
tp292
a(Vmake
VVB
tp293
a(Vthe
VDT
tp294
a(Vconsumption
VNN
tp295
a(Vand
VCC
tp296
a(Vproduction
VNN
tp297
a(Vof
VIN
tp298
a(Vnatural
VJJ
tp299
a(Vresources
VNNS
tp300
a(Vand
VCC
tp301
a(Vproducts
VNNS
tp302
a(Vmore
VJJR
tp303
a(Vcost
VNN
tp304
a(Veffective
VJJ
tp305
a(Vand
VCC
tp306
a(Vefficient
VJJ
tp307
a(V.
V.
tp308
aa(lp309
(VThey
VPRP
tp310
a(Vwant
VVBP
tp311
a(Vto
VTO
tp312
a(Vadjust
VVB
tp313
a(Vthe
VDT
tp314
a(VRules
VNNS
tp315
a(Vof
VIN
tp316
a(VProcedure
VNNP
tp317
a(Vaccording
VVBG
tp318
a(Vto
VTO
tp319
a(Vtheir
VPRP$
tp320
a(Vtaste
VNN
tp321
a(Vand
VCC
tp322
a(Vto
VTO
tp323
a(Vtailor-make
VVB
tp324
a(Vtheir
VPRP$
tp325
a(Vgroups
VNNS
tp326
a(V.
V.
tp327
aa(lp328
(VThe
VDT
tp329
a(VSpanish
VJJ
tp330
a(VGovernment
VNN
tp331
a(Vbears
VVBZ
tp332
a(Vjoint
VJJ
tp333
a(Vresponsibility
VNN
tp334
a(Vboth
VCC
tp335
a(Vfor
VIN
tp336
a(Vthe
VDT
tp337
a(Vmass
VNN
tp338
a(Vdeportations
VNNS
tp339
a(Vcarried
VVBD
tp340
a(Vout
VRP
tp341
a(Vby
VIN
tp342
a(Vthe
VDT
tp343
a(VMoroccan
VNNP
tp344
a(VGovernment
VNNP
tp345
a(Vand
VCC
tp346
a(Vfor
VIN
tp347
a(Vthe
VDT
tp348
a(Vdeaths
VNNS
tp349
a(Vin
VIN
tp350
a(Vthe
VDT
tp351
a(Vdesert
VNN
tp352
a(Vof
VIN
tp353
a(Vdozens
VNNS
tp354
a(Vof
VIN
tp355
a(Vpeople
VNNS
tp356
a(V.
V.
tp357
aa(lp358
(VIf
VIN
tp359
a(Vso
VRB
tp360
a(V,
V,
tp361
a(Vunder
VIN
tp362
a(Vwhose
VWP$
tp363
a(Vcontrol
VNN
tp364
a(V?
V.
tp365
aa(lp366
(VI
VPRP
tp367
a(Vfully
VRB
tp368
a(Vendorse
VVB
tp369
a(Vmuch
VJJ
tp370
a(Vof
VIN
tp371
a(Vwhat
VWP
tp372
a(Vyou
VPRP
tp373
a(Vsay
VVBP
tp374
a(Vin
VIN
tp375
a(Vyour
VPRP$
tp376
a(Vreport
VNN
tp377
a(Vand
VCC
tp378
a(Vin
VIN
tp379
a(Vthe
VDT
tp380
a(Vresolution
VNN
tp381
a(Vattached
VVBN
tp382
a(Vto
VTO
tp383
a(Vit
VPRP
tp384
a(V.
V.
tp385
aa(lp386
(VAt
VIN
tp387
a(Vthe
VDT
tp388
a(Vend
VNN
tp389
a(Vof
VIN
tp390
a(VMarch
VNNP
tp391
a(VKGB
VNNP
tp392
a(Vand
VCC
tp393
a(Vpolice
VNNS
tp394
a(Vin
VIN
tp395
a(VBelarus
VNNP
tp396
a(Vcarried
VVBD
tp397
a(Vout
VRP
tp398
a(Va
VDT
tp399
a(Vraid
VNN
tp400
a(Vto
VTO
tp401
a(Vapprehend
VVB
tp402
a(VBelsat
VNNP
tp403
a(V&apos;s
VNNS
tp404
a(Vlocal
VJJ
tp405
a(Vreporters
VNNS
tp406
a(V.
V.
tp407
aa(lp408
(VThey
VPRP
tp409
a(Vclaimed
VVBD
tp410
a(Vnothing
VNN
tp411
a(Vwas
VVBD
tp412
a(Vwrong
VJJ
tp413
a(Vand
VCC
tp414
a(Vnothing
VNN
tp415
a(Vneeded
VVBD
tp416
a(Vto
VTO
tp417
a(Vbe
VVB
tp418
a(Vchanged
VVBN
tp419
a(V.
V.
tp420
aa(lp421
(VLogic
VNN
tp422
a(Vcannot
VNN
tp423
a(Vrequire
VVBP
tp424
a(Vthe
VDT
tp425
a(Vinspectors
VNNS
tp426
a(Vto
VTO
tp427
a(Vtravel
VVB
tp428
a(Vthe
VDT
tp429
a(Vlength
VNN
tp430
a(Vand
VCC
tp431
a(Vbreadth
VNN
tp432
a(Vof
VIN
tp433
a(VIraq
VNNP
tp434
a(Vto
VTO
tp435
a(Vlook
VVB
tp436
a(Vto
VTO
tp437
a(Vsee
VVB
tp438
a(Vwhere
VWRB
tp439
a(Vsomething
VNN
tp440
a(Vmight
VMD
tp441
a(Vbe
VVB
tp442
a(V.
V.
tp443
aa(lp444
(VWhen
VWRB
tp445
a(Vpeople
VNNS
tp446
a(Vuse
VVBP
tp447
a(Va
VDT
tp448
a(Vcounterfeit
VNN
tp449
a(Vmedicine
VNN
tp450
a(V,
V,
tp451
a(Vthey
VPRP
tp452
a(Vcan
VMD
tp453
a(Vdie
VVB
tp454
a(V;
V:
tp455
a(Vit
VPRP
tp456
a(Vis
VVBZ
tp457
a(Vextremely
VRB
tp458
a(Vdangerous
VJJ
tp459
a(V.
V.
tp460
aa(lp461
(VWould
VMD
tp462
a(Vit
VPRP
tp463
a(Vnot
VRB
tp464
a(Vbe
VVB
tp465
a(Vmarvellous
VJJ
tp466
a(Vif
VIN
tp467
a(Vwe
VPRP
tp468
a(Vcould
VMD
tp469
a(Vdo
VVB
tp470
a(Vthe
VDT
tp471
a(Vsame
VJJ
tp472
a(Vwith
VIN
tp473
a(Vweapons
VNNS
tp474
a(V?
V.
tp475
aa(lp476
(VPortugal
VNNP
tp477
a(V\u2019
VCD
tp478
a(Vs
VNNS
tp479
a(Voverall
VJJ
tp480
a(Vexecution
VNN
tp481
a(Vrate
VNN
tp482
a(Vof
VIN
tp483
a(V94.2
VCD
tp484
a(V%
VNN
tp485
a(Vis
VVBZ
tp486
a(Vsignificantly
VRB
tp487
a(Vhigher
VJJR
tp488
a(Vthan
VIN
tp489
a(Vthose
VDT
tp490
a(Vof
VIN
tp491
a(Vits
VPRP$
tp492
a(VEuropean
VJJ
tp493
a(Vpartners
VNNS
tp494
a(V.
V.
tp495
aa(lp496
(VSo
VIN
tp497
a(Vwe
VPRP
tp498
a(Vget
VVBP
tp499
a(Vto
VTO
tp500
a(Vthe
VDT
tp501
a(Vpoint
VNN
tp502
a(Vthat
VWDT
tp503
a(VLithuania
VNNP
tp504
a(Vis
VVBZ
tp505
a(Vcapable
VJJ
tp506
a(Vof
VIN
tp507
a(Vproducing
VVBG
tp508
a(V,
V,
tp509
a(Vcapable
VJJ
tp510
a(Vof
VIN
tp511
a(Vconsuming
VVBG
tp512
a(Vits
VPRP$
tp513
a(Vown
VJJ
tp514
a(Vproduction
VNN
tp515
a(V,
V,
tp516
a(Vbut
VCC
tp517
a(Vthe
VDT
tp518
a(Vcountry
VNN
tp519
a(Vis
VVBZ
tp520
a(Vnot
VRB
tp521
a(Vallowed
VVBN
tp522
a(Vto
VTO
tp523
a(Vproduce
VVB
tp524
a(V;
V:
tp525
a(Vit
VPRP
tp526
a(Vis
VVBZ
tp527
a(Vforced
VVBN
tp528
a(Vto
VTO
tp529
a(Vclose
VVB
tp530
a(Vthe
VDT
tp531
a(Vfactories
VNNS
tp532
a(V.
V.
tp533
aa(lp534
(VThirdly
VRB
tp535
a(V,
V,
tp536
a(Vthe
VDT
tp537
a(Vrecent
VJJ
tp538
a(Vdecision
VNN
tp539
a(Vof
VIN
tp540
a(Vthe
VDT
tp541
a(VAppellate
VNNP
tp542
a(VBody
VNNP
tp543
a(Vin
VIN
tp544
a(Vrespect
VNN
tp545
a(Vof
VIN
tp546
a(Vsugar
VNN
tp547
a(Vreminds
VVBZ
tp548
a(Vus
VPRP
tp549
a(Vthat
VIN
tp550
a(Vthere
VEX
tp551
a(Vis
VVBZ
tp552
a(Vno
VDT
tp553
a(Vhonesty
VNN
tp554
a(Vin
VIN
tp555
a(Vnegotiations
VNNS
tp556
a(V.
V.
tp557
aa(lp558
(VLast
VJJ
tp559
a(Vweek
VNN
tp560
a(V,
V,
tp561
a(VI
VPRP
tp562
a(Vtook
VVBD
tp563
a(Vpart
VNN
tp564
a(Vin
VIN
tp565
a(Vthe
VDT
tp566
a(VSubcommittee
VNNP
tp567
a(Von
VIN
tp568
a(VHuman
VNNP
tp569
a(VRights
VNNP
tp570
a(V\u2019
VCD
tp571
a(Vvisit
VNN
tp572
a(Vto
VTO
tp573
a(VTurkey
VNNP
tp574
a(V,
V,
tp575
a(Vand
VCC
tp576
a(VI
VPRP
tp577
a(Vhave
VVBP
tp578
a(Vcome
VVBN
tp579
a(Vback
VRP
tp580
a(Vwith
VIN
tp581
a(Va
VDT
tp582
a(Vvery
VRB
tp583
a(Vdifferent
VJJ
tp584
a(Vimpression
VNN
tp585
a(Vto
VTO
tp586
a(Vthe
VDT
tp587
a(Vone
VCD
tp588
a(VI
VPRP
tp589
a(Vhad
VVBD
tp590
a(Vhoped
VVBN
tp591
a(Vfor
VIN
tp592
a(V.
V.
tp593
aa(lp594
(VI
VPRP
tp595
a(Vbelieve
VVBP
tp596
a(Vthat
VIN
tp597
a(Va
VDT
tp598
a(Vvery
VRB
tp599
a(Vpositive
VJJ
tp600
a(Vsignal
VNN
tp601
a(Vwas
VVBD
tp602
a(Vsent
VVBN
tp603
a(Vout
VRP
tp604
a(Vyesterday
VNN
tp605
a(V.
V.
tp606
aa(lp607
(VThe
VDT
tp608
a(VCommission
VNNP
tp609
a(Vcan
VMD
tp610
a(Vthus
VRB
tp611
a(Vagree
VVB
tp612
a(Vwith
VIN
tp613
a(Vthe
VDT
tp614
a(Vprinciple
VNN
tp615
a(Vof
VIN
tp616
a(VAmendments
VNNS
tp617
a(V23
VCD
tp618
a(Vand
VCC
tp619
a(V69
VCD
tp620
a(V.
V.
tp621
aa(lp622
(VThe
VDT
tp623
a(Vgovernment
VNN
tp624
a(Vhas
VVBZ
tp625
a(V,
V,
tp626
a(VI
VPRP
tp627
a(Vmight
VMD
tp628
a(Vadd
VVB
tp629
a(V,
V,
tp630
a(Vdecided
VVBD
tp631
a(Vthat
VIN
tp632
a(Vfrom
VIN
tp633
a(Vnow
VRB
tp634
a(Von
VIN
tp635
a(Vthere
VEX
tp636
a(Vwill
VMD
tp637
a(Vbe
VVB
tp638
a(Va
VDT
tp639
a(VRed
VNNP
tp640
a(VCross
VNNP
tp641
a(Vdoctor
VNN
tp642
a(Von
VIN
tp643
a(Vboard
VNN
tp644
a(Vthese
VDT
tp645
a(Vso-called
VJJ
tp646
a(Vjoint
VJJ
tp647
a(Vflights
VNNS
tp648
a(Vto
VTO
tp649
a(Vensure
VVB
tp650
a(Vthat
VIN
tp651
a(Veverything
VNN
tp652
a(Vruns
VVBZ
tp653
a(Vsmoothly
VRB
tp654
a(V.
V.
tp655
aa(lp656
(VHowever
VRB
tp657
a(V,
V,
tp658
a(Vit
VPRP
tp659
a(Vwas
VVBD
tp660
a(Vimportant
VJJ
tp661
a(Vto
VTO
tp662
a(Vfind
VVB
tp663
a(Va
VDT
tp664
a(Vreasonable
VJJ
tp665
a(Vcompromise
VNN
tp666
a(Vwhich
VWDT
tp667
a(Vwould
VMD
tp668
a(Vnot
VRB
tp669
a(Vburden
VNN
tp670
a(Vwood
VNN
tp671
a(Vprocessing
VNN
tp672
a(Vcompanies
VNNS
tp673
a(Vwith
VIN
tp674
a(Vunnecessary
VJJ
tp675
a(Vregulations
VNNS
tp676
a(V.
V.
tp677
aa(lp678
(VWith
VIN
tp679
a(Vbroadband
VNN
tp680
a(Vwe
VPRP
tp681
a(Vare
VVBP
tp682
a(Von
VIN
tp683
a(Vline
VNN
tp684
a(Vthe
VDT
tp685
a(Vwhole
VJJ
tp686
a(Vtime
VNN
tp687
a(V.
V.
tp688
aa(lp689
(VIf
VIN
tp690
a(Vwe
VPRP
tp691
a(Vagree
VVBP
tp692
a(Vthat
VIN
tp693
a(Vthey
VPRP
tp694
a(Vare
VVBP
tp695
a(Van
VDT
tp696
a(Vethnic
VJJ
tp697
a(Vgroup
VNN
tp698
a(V,
V,
tp699
a(Vconsisting
VVBG
tp700
a(Vof
VIN
tp701
a(Vcitizens
VNNS
tp702
a(Vof
VIN
tp703
a(Vall
VPDT
tp704
a(Vthe
VDT
tp705
a(VEU
VNNP
tp706
a(VMember
VNNP
tp707
a(VStates
VNNPS
tp708
a(V,
V,
tp709
a(Vthen
VRB
tp710
a(Vthe
VDT
tp711
a(Vsolution
VNN
tp712
a(Vto
VTO
tp713
a(Vthese
VDT
tp714
a(Vproblems
VNNS
tp715
a(Vis
VVBZ
tp716
a(Vrelatively
VRB
tp717
a(Vstraightforward
VJJ
tp718
a(V.
V.
tp719
aa(lp720
(VContinuing
VVBG
tp721
a(Vmore
VRBR
tp722
a(Vor
VCC
tp723
a(Vless
VRBR
tp724
a(Vin
VIN
tp725
a(Vthe
VDT
tp726
a(Vsame
VJJ
tp727
a(Vway
VNN
tp728
a(V,
V,
tp729
a(Vas
VIN
tp730
a(Vthe
VDT
tp731
a(Vrapporteur
VNN
tp732
a(Vproposes
VVBZ
tp733
a(V,
V,
tp734
a(Vis
VVBZ
tp735
a(Vnot
VRB
tp736
a(Vin
VIN
tp737
a(Vthe
VDT
tp738
a(Vinterests
VNNS
tp739
a(Vof
VIN
tp740
a(Vthe
VDT
tp741
a(VACP
VNN
tp742
a(Vcountries
VNNS
tp743
a(V.
V.
tp744
aa(lp745
(VMr
VNNP
tp746
a(VPresident
VNNP
tp747
a(V,
V,
tp748
a(VI
VPRP
tp749
a(Vdo
VVBP
tp750
a(Vnot
VRB
tp751
a(Vthink
VVB
tp752
a(Vyou
VPRP
tp753
a(Vcan
VMD
tp754
a(Vsuspect
VVB
tp755
a(Vme
VPRP
tp756
a(Vof
VIN
tp757
a(Vwanting
VVBG
tp758
a(Vto
VTO
tp759
a(Vprevent
VVB
tp760
a(Vus
VPRP
tp761
a(Vfrom
VIN
tp762
a(Vhaving
VVBG
tp763
a(Va
VDT
tp764
a(Vstatute
VNN
tp765
a(Vfor
VIN
tp766
a(VMembers
VNNS
tp767
a(Vby
VIN
tp768
a(Vusing
VVBG
tp769
a(Vprocedural
VJJ
tp770
a(Vtricks
VNNS
tp771
a(V.
V.
tp772
aa(lp773
(VSeveral
VJJ
tp774
a(Vhundred
VCD
tp775
a(Vpeople
VNNS
tp776
a(Vdied
VVBD
tp777
a(Vin
VIN
tp778
a(Vthat
VDT
tp779
a(Vbloodbath
VNN
tp780
a(V,
V,
tp781
a(Vwhich
VWDT
tp782
a(Vthe
VDT
tp783
a(Vgovernment
VNN
tp784
a(Vreferred
VVBD
tp785
a(Vto
VTO
tp786
a(Vas
VIN
tp787
a(Va
VDT
tp788
a(Vterrorist
VJJ
tp789
a(Vrebellion
VNN
tp790
a(V.
V.
tp791
aa(lp792
(VPeople
VNNS
tp793
a(Vwho
VWP
tp794
a(Vdid
VVBD
tp795
a(Vnot
VRB
tp796
a(Vown
VJJ
tp797
a(Vproperty
VNN
tp798
a(Vwere
VVBD
tp799
a(Vliving
VVBG
tp800
a(Vin
VIN
tp801
a(Vravines
VNNS
tp802
a(Vand
VCC
tp803
a(Von
VIN
tp804
a(Vthe
VDT
tp805
a(Vsides
VNNS
tp806
a(Vof
VIN
tp807
a(Vmountains
VNNS
tp808
a(V,
V,
tp809
a(Vin
VIN
tp810
a(Vshacks
VNNS
tp811
a(Vand
VCC
tp812
a(Vin
VIN
tp813
a(Vany
VDT
tp814
a(Vthing
VNN
tp815
a(Vthey
VPRP
tp816
a(Vcould
VMD
tp817
a(Vput
VVB
tp818
a(Vtogether
VRB
tp819
a(V,
V,
tp820
a(Vbecause
VIN
tp821
a(Vthey
VPRP
tp822
a(Vdid
VVBD
tp823
a(Vnot
VRB
tp824
a(Vown
VVB
tp825
a(Vthe
VDT
tp826
a(Vproperty
VNN
tp827
a(Vin
VIN
tp828
a(Vwhich
VWDT
tp829
a(Vthey
VPRP
tp830
a(Vwere
VVBD
tp831
a(Vliving
VVBG
tp832
a(V.
V.
tp833
aa(lp834
(VThe
VDT
tp835
a(Vfirst
VJJ
tp836
a(Vthing
VNN
tp837
a(Vwe
VPRP
tp838
a(Vneed
VVBP
tp839
a(Vis
VVBZ
tp840
a(Va
VDT
tp841
a(Vconstitution
VNN
tp842
a(V.
V.
tp843
aa(lp844
(VAgain
VRB
tp845
a(V,
V,
tp846
a(VI
VPRP
tp847
a(Vapologise
VVBP
tp848
a(Vto
VTO
tp849
a(Vall
VPDT
tp850
a(Vthose
VDT
tp851
a(Vto
VTO
tp852
a(Vwhom
VWP
tp853
a(VI
VPRP
tp854
a(Vcould
VMD
tp855
a(Vnot
VRB
tp856
a(Vgive
VVB
tp857
a(Vthe
VDT
tp858
a(Vopportunity
VNN
tp859
a(Vto
VTO
tp860
a(Vspeak
VVB
tp861
a(V.
V.
tp862
aa(lp863
(VMr
VNNP
tp864
a(VPresident
VNNP
tp865
a(V,
V,
tp866
a(Vmy
VPRP$
tp867
a(Vhousehold
VNN
tp868
a(Vis
VVBZ
tp869
a(Va
VDT
tp870
a(Vfairly
VRB
tp871
a(Vtypical
VJJ
tp872
a(VEuropean
VJJ
tp873
a(Vhousehold
VNN
tp874
a(V:
V:
tp875
a(Vwe
VPRP
tp876
a(Vhave
VVBP
tp877
a(Va
VDT
tp878
a(VTV
VNN
tp879
a(Vset
VNN
tp880
a(Vin
VIN
tp881
a(Vthe
VDT
tp882
a(Vsitting
VVBG
tp883
a(Vroom
VNN
tp884
a(V,
V,
tp885
a(Vone
VCD
tp886
a(Vin
VIN
tp887
a(Vthe
VDT
tp888
a(Vkitchen
VNN
tp889
a(V,
V,
tp890
a(Vone
VCD
tp891
a(Vin
VIN
tp892
a(Vour
VPRP$
tp893
a(Vbedroom
VNN
tp894
a(Vand
VCC
tp895
a(Vone
VCD
tp896
a(Vfor
VIN
tp897
a(Vthe
VDT
tp898
a(Vgrandchildren
VNNS
tp899
a(Vwhen
VWRB
tp900
a(Vthey
VPRP
tp901
a(Vvisit
VVBP
tp902
a(V.
V.
tp903
aa(lp904
(VChippendale-type
VJJ
tp905
a(Vmen
VNNS
tp906
a(Vhave
VVBP
tp907
a(Vappeared
VVBN
tp908
a(Vin
VIN
tp909
a(Vadvertisements
VNNS
tp910
a(V.
V.
tp911
aa(lp912
(VMost
VJJS
tp913
a(Vis
VVBZ
tp914
a(Vdone
VVBN
tp915
a(Vthrough
VIN
tp916
a(Vguidelines
VNNS
tp917
a(Vand
VCC
tp918
a(Vrecommendations
VNNS
tp919
a(V.
V.
tp920
aa(lp921
(VThe
VDT
tp922
a(Vblack
VJJ
tp923
a(Vsheep
VNN
tp924
a(Vare
VVBP
tp925
a(Vthose
VDT
tp926
a(Vwho
VWP
tp927
a(V,
V,
tp928
a(Vat
VIN
tp929
a(Vthe
VDT
tp930
a(Vtime
VNN
tp931
a(Vthey
VPRP
tp932
a(Vplace
VVBP
tp933
a(Vthe
VDT
tp934
a(Vorder
VNN
tp935
a(V,
V,
tp936
a(Valready
VRB
tp937
a(Vknow
VVB
tp938
a(Vvery
VRB
tp939
a(Vwell
VRB
tp940
a(Vthat
VIN
tp941
a(Vthey
VPRP
tp942
a(Vwill
VMD
tp943
a(Vnever
VRB
tp944
a(Vpay
VVB
tp945
a(Vfor
VIN
tp946
a(Vit
VPRP
tp947
a(V.
V.
tp948
aa(lp949
(VWhether
VIN
tp950
a(Vor
VCC
tp951
a(Vnot
VRB
tp952
a(Vthis
VDT
tp953
a(Vpeace
VNN
tp954
a(Vwill
VMD
tp955
a(Vlast
VVB
tp956
a(Vwill
VMD
tp957
a(Valso
VRB
tp958
a(Vdepend
VVB
tp959
a(Von
VIN
tp960
a(Vhow
VWRB
tp961
a(Vwe
VPRP
tp962
a(Vgo
VVBP
tp963
a(Vabout
VRB
tp964
a(Vstrengthening
VVBG
tp965
a(Vties
VNNS
tp966
a(Vbetween
VIN
tp967
a(Vthe
VDT
tp968
a(Vcountries
VNNS
tp969
a(Vin
VIN
tp970
a(Vthe
VDT
tp971
a(Vregion
VNN
tp972
a(Vand
VCC
tp973
a(Vdeveloping
VVBG
tp974
a(Vtheir
VPRP$
tp975
a(Vties
VNNS
tp976
a(Vwith
VIN
tp977
a(Vus
VPRP
tp978
a(V.
V.
tp979
aa(lp980
(VThis
VDT
tp981
a(Vwe
VPRP
tp982
a(Vcan
VMD
tp983
a(Vsay
VVB
tp984
a(Vwith
VIN
tp985
a(Vhindsight
VNN
tp986
a(V.
V.
tp987
aa(lp988
(VThe
VDT
tp989
a(Vfacts
VNNS
tp990
a(Vinvite
VVBP
tp991
a(Vjust
VRB
tp992
a(Vone
VCD
tp993
a(Vpossible
VJJ
tp994
a(Vconclusion
VNN
tp995
a(V.
V.
tp996
aa(lp997
(VThis
VDT
tp998
a(Vis
VVBZ
tp999
a(Vnot
VRB
tp1000
a(Va
VDT
tp1001
a(Vdirect
VJJ
tp1002
a(Vfailure
VNN
tp1003
a(Vof
VIN
tp1004
a(Vthe
VDT
tp1005
a(Vpresidency
VNN
tp1006
a(Vbut
VCC
tp1007
a(Vrather
VRB
tp1008
a(Va
VDT
tp1009
a(Vfailure
VNN
tp1010
a(Vof
VIN
tp1011
a(Vthe
VDT
tp1012
a(Vcollective
VJJ
tp1013
a(Vwill
VNN
tp1014
a(Vof
VIN
tp1015
a(Vthe
VDT
tp1016
a(VCouncil
VNNP
tp1017
a(Vitself
VPRP
tp1018
a(V.
V.
tp1019
aa(lp1020
(VThat
VDT
tp1021
a(Vis
VVBZ
tp1022
a(Vanother
VDT
tp1023
a(Vissue
VNN
tp1024
a(V.
V.
tp1025
aa(lp1026
(VPresident
VNNP
tp1027
a(VRavalomanana
VNNP
tp1028
a(Vlost
VVBD
tp1029
a(Vsupport
VNN
tp1030
a(V,
V,
tp1031
a(Vand
VCC
tp1032
a(Vhe
VPRP
tp1033
a(Vstood
VVBD
tp1034
a(Vdown
VRP
tp1035
a(Von
VIN
tp1036
a(V17
VCD
tp1037
a(VMarch
VNNP
tp1038
a(V2009
VCD
tp1039
a(V.
V.
tp1040
aa(lp1041
(VThat
VDT
tp1042
a(Vis
VVBZ
tp1043
a(Vour
VPRP$
tp1044
a(Vboy
VNN
tp1045
a(V,
V,
tp1046
a(Vhe
VPRP
tp1047
a(Vis
VVBZ
tp1048
a(Vthe
VDT
tp1049
a(Vman
VNN
tp1050
a(Vthat
VWDT
tp1051
a(Vis
VVBZ
tp1052
a(Vgoing
VVBG
tp1053
a(Vto
VTO
tp1054
a(Vstand
VVB
tp1055
a(Vup
VRP
tp1056
a(Vfor
VIN
tp1057
a(VBritish
VJJ
tp1058
a(Vinterests
VNNS
tp1059
a(V.
V.
tp1060
aa(lp1061
(VWhat
VWP
tp1062
a(Vdoes
VVBZ
tp1063
a(Vthis
VDT
tp1064
a(Vmean
VVB
tp1065
a(V?
V.
tp1066
aa(lp1067
(VI
VPRP
tp1068
a(Vlove
VVBP
tp1069
a(VVietnam
VNNP
tp1070
a(V.
V.
tp1071
aa(lp1072
(VThey
VPRP
tp1073
a(Vhave
VVBP
tp1074
a(Vto
VTO
tp1075
a(Vexport
VVB
tp1076
a(Vtheir
VPRP$
tp1077
a(Vgoods
VNNS
tp1078
a(V.
V.
tp1079
aa(lp1080
(VAt
VIN
tp1081
a(Vthat
VDT
tp1082
a(Vtime
VNN
tp1083
a(V,
V,
tp1084
a(Vthe
VDT
tp1085
a(Vthree
VCD
tp1086
a(VBaltic
VNNP
tp1087
a(VStates
VNNPS
tp1088
a(Vwere
VVBD
tp1089
a(Vstill
VRB
tp1090
a(Vpart
VNN
tp1091
a(Vof
VIN
tp1092
a(Vthe
VDT
tp1093
a(VSoviet
VNNP
tp1094
a(VUnion
VNNP
tp1095
a(V,
V,
tp1096
a(Vand
VCC
tp1097
a(VGermany
VNNP
tp1098
a(Vhad
VVBD
tp1099
a(Vyet
VRB
tp1100
a(Vto
VTO
tp1101
a(Vbe
VVB
tp1102
a(Vreunited
VVBN
tp1103
a(V.
V.
tp1104
aa(lp1105
(VWe
VPRP
tp1106
a(Vknew
VVBD
tp1107
a(Vthere
VEX
tp1108
a(Vwas
VVBD
tp1109
a(Va
VDT
tp1110
a(Vproblem
VNN
tp1111
a(V;
V:
tp1112
a(Vthey
VPRP
tp1113
a(Vknew
VVBD
tp1114
a(Vthere
VEX
tp1115
a(Vwas
VVBD
tp1116
a(Va
VDT
tp1117
a(Vproblem
VNN
tp1118
a(V.
V.
tp1119
aa(lp1120
(VWe
VPRP
tp1121
a(Vhave
VVBP
tp1122
a(Vmade
VVBN
tp1123
a(Va
VDT
tp1124
a(Vlot
VNN
tp1125
a(Vof
VIN
tp1126
a(Vprogress
VNN
tp1127
a(Von
VIN
tp1128
a(Vthis
VDT
tp1129
a(Vover
VIN
tp1130
a(Vthe
VDT
tp1131
a(Vlast
VJJ
tp1132
a(Vtwo
VCD
tp1133
a(Vyears
VNNS
tp1134
a(V.
V.
tp1135
aa(lp1136
(VThey
VPRP
tp1137
a(Vare
VVBP
tp1138
a(Vfighting
VVBG
tp1139
a(Va
VDT
tp1140
a(Vcorrupt
VJJ
tp1141
a(Vregime
VNN
tp1142
a(Vwhich
VWDT
tp1143
a(Vowns
VVBZ
tp1144
a(V95
VCD
tp1145
a(V%
VNN
tp1146
a(Vof
VIN
tp1147
a(Vthe
VDT
tp1148
a(Vcountry
VNN
tp1149
a(V&apos;s
VNNS
tp1150
a(Vwealth
VNN
tp1151
a(V.
V.
tp1152
aa(lp1153
(VThe
VDT
tp1154
a(Vresult
VNN
tp1155
a(Vof
VIN
tp1156
a(Vthis
VDT
tp1157
a(Vlaw
VNN
tp1158
a(Vis
VVBZ
tp1159
a(Vthat
VIN
tp1160
a(Vthose
VDT
tp1161
a(Vin
VIN
tp1162
a(Vpower
VNN
tp1163
a(Vwill
VMD
tp1164
a(Vmonitor
VVB
tp1165
a(Vthe
VDT
tp1166
a(Vmedia
VNNS
tp1167
a(V.
V.
tp1168
aa(lp1169
(VBowel
VNN
tp1170
a(Vcancer
VNN
tp1171
a(Vis
VVBZ
tp1172
a(Va
VDT
tp1173
a(Vnew
VJJ
tp1174
a(Varea
VNN
tp1175
a(Vfor
VIN
tp1176
a(Vscreening
VNN
tp1177
a(V,
V,
tp1178
a(Vwith
VIN
tp1179
a(Vnew
VJJ
tp1180
a(Vtests
VNNS
tp1181
a(Vavailable
VJJ
tp1182
a(V.
V.
tp1183
aa(lp1184
(VThe
VDT
tp1185
a(Vsecurity
VNN
tp1186
a(Vissues
VNNS
tp1187
a(Vmust
VMD
tp1188
a(Vbe
VVB
tp1189
a(Vaddressed
VVBN
tp1190
a(V,
V,
tp1191
a(Vbut
VCC
tp1192
a(Vnot
VRB
tp1193
a(Vat
VIN
tp1194
a(Vthe
VDT
tp1195
a(Vexpense
VNN
tp1196
a(Vof
VIN
tp1197
a(Vthe
VDT
tp1198
a(Veconomic
VJJ
tp1199
a(Vand
VCC
tp1200
a(Vhumanitarian
VJJ
tp1201
a(Vneeds
VNNS
tp1202
a(Vof
VIN
tp1203
a(Vthe
VDT
tp1204
a(VPalestinians
VNNPS
tp1205
a(V.
V.
tp1206
aa(lp1207
(VIt
VPRP
tp1208
a(Vis
VVBZ
tp1209
a(Vtrue
VJJ
tp1210
a(Vthat
VIN
tp1211
a(Vthe
VDT
tp1212
a(Vchild
VNN
tp1213
a(Vhas
VVBZ
tp1214
a(Vflown
VVBN
tp1215
a(Vthe
VDT
tp1216
a(Vnest
VNN
tp1217
a(V,
V,
tp1218
a(Vbut
VCC
tp1219
a(Vnot
VRB
tp1220
a(Vcompletely
VRB
tp1221
a(V.
V.
tp1222
aa(lp1223
(VThat
VDT
tp1224
a(Vis
VVBZ
tp1225
a(Vwhy
VWRB
tp1226
a(Vthe
VDT
tp1227
a(Vanti-imperialist
VJJ
tp1228
a(Vfight
VNN
tp1229
a(Vneeds
VVBZ
tp1230
a(Vto
VTO
tp1231
a(Vbe
VVB
tp1232
a(Vstepped
VVBN
tp1233
a(Vup
VRB
tp1234
a(V,
V,
tp1235
a(Vthe
VDT
tp1236
a(Vfight
VNN
tp1237
a(Vto
VTO
tp1238
a(Vget
VVB
tp1239
a(Vout
VIN
tp1240
a(Vof
VIN
tp1241
a(Vthe
VDT
tp1242
a(VEuropean
VNNP
tp1243
a(VUnion
VNNP
tp1244
a(V,
V,
tp1245
a(Vthe
VDT
tp1246
a(Vfight
VNN
tp1247
a(Vfor
VIN
tp1248
a(Vpeople
VNNS
tp1249
a(Vpower
VNN
tp1250
a(Vand
VCC
tp1251
a(Va
VDT
tp1252
a(Vpeople
VNNS
tp1253
a(V&apos;s
VNNS
tp1254
a(Veconomy
VNN
tp1255
a(V,
V,
tp1256
a(Vthe
VDT
tp1257
a(Vfight
VNN
tp1258
a(Vfor
VIN
tp1259
a(Vsocialism
VNN
tp1260
a(V.
V.
tp1261
aa(lp1262
(VOn
VIN
tp1263
a(Vthe
VDT
tp1264
a(Vother
VJJ
tp1265
a(Vhand
VNN
tp1266
a(V,
V,
tp1267
a(Vglobal
VJJ
tp1268
a(Vterrorism
VNN
tp1269
a(Vwith
VIN
tp1270
a(Va
VDT
tp1271
a(Vworldwide
VJJ
tp1272
a(Vnetwork
VNN
tp1273
a(V,
V,
tp1274
a(Vhigh-tech
VJJ
tp1275
a(Vweapons
VNNS
tp1276
a(Vand
VCC
tp1277
a(Vapparently
VRB
tp1278
a(Vinexhaustible
VJJ
tp1279
a(Veconomic
VJJ
tp1280
a(Vresources
VNNS
tp1281
a(Vis
VVBZ
tp1282
a(Va
VDT
tp1283
a(Vnew
VJJ
tp1284
a(Vand
VCC
tp1285
a(Vextremely
VRB
tp1286
a(Vfrightening
VJJ
tp1287
a(Vphenomenon
VNN
tp1288
a(V.
V.
tp1289
aa(lp1290
(VThis
VDT
tp1291
a(Vcommon
VJJ
tp1292
a(Vaccess
VNN
tp1293
a(Vpoint
VNN
tp1294
a(Vwill
VMD
tp1295
a(Vbe
VVB
tp1296
a(Vlaunched
VVBN
tp1297
a(Vin
VIN
tp1298
a(V2008
VCD
tp1299
a(V.
V.
tp1300
aa(lp1301
(VAs
VIN
tp1302
a(Vthose
VDT
tp1303
a(Vengaged
VVBN
tp1304
a(Vin
VIN
tp1305
a(Vour
VPRP$
tp1306
a(Vmilitary
VJJ
tp1307
a(Vmission
VNN
tp1308
a(Vwere
VVBD
tp1309
a(Vquick
VJJ
tp1310
a(Vto
VTO
tp1311
a(Vsay
VVB
tp1312
a(V,
V,
tp1313
a(Vthe
VDT
tp1314
a(Vsolution
VNN
tp1315
a(Vto
VTO
tp1316
a(Vthe
VDT
tp1317
a(Vproblems
VNNS
tp1318
a(Vat
VIN
tp1319
a(Vsea
VNN
tp1320
a(Vlies
VVBZ
tp1321
a(Von
VIN
tp1322
a(Vthe
VDT
tp1323
a(Vland
VNN
tp1324
a(V.
V.
tp1325
aa(lp1326
(VPeople
VNNS
tp1327
a(Vin
VIN
tp1328
a(Vmy
VPRP$
tp1329
a(Vregion
VNN
tp1330
a(Vdo
VVBP
tp1331
a(Vnot
VRB
tp1332
a(Vwant
VVB
tp1333
a(Vto
VTO
tp1334
a(Vsee
VVB
tp1335
a(Vthat
VDT
tp1336
a(Voccurring
VVBG
tp1337
a(V.
V.
tp1338
aa(lp1339
(VRecently
VRB
tp1340
a(V,
V,
tp1341
a(Vwe
VPRP
tp1342
a(Vsaw
VVBD
tp1343
a(Vthe
VDT
tp1344
a(Vkilling
VNN
tp1345
a(Vof
VIN
tp1346
a(Vthe
VDT
tp1347
a(VShia
VJJ
tp1348
a(VMuslim
VJJ
tp1349
a(Vleader
VNN
tp1350
a(V,
V,
tp1351
a(VMohammed
VNNP
tp1352
a(VBaquer
VNNP
tp1353
a(VHakim
VNNP
tp1354
a(V.
V.
tp1355
aa(lp1356
(VSince
VIN
tp1357
a(Vremoving
VVBG
tp1358
a(Vmercury
VNN
tp1359
a(Vfrom
VIN
tp1360
a(Vpaediatric
VJJ
tp1361
a(Vvaccines
VNNS
tp1362
a(Vin
VIN
tp1363
a(VCalifornia
VNNP
tp1364
a(V,
V,
tp1365
a(Vcases
VNNS
tp1366
a(Vof
VIN
tp1367
a(Vautism
VNN
tp1368
a(Vare
VVBP
tp1369
a(Vcontinuing
VVBG
tp1370
a(Vto
VTO
tp1371
a(Vincrease
VVB
tp1372
a(V.
V.
tp1373
aa(lp1374
(VEverybody
VNN
tp1375
a(Vshould
VMD
tp1376
a(Vbe
VVB
tp1377
a(Ventitled
VVBN
tp1378
a(Vto
VTO
tp1379
a(Vequal
VJJ
tp1380
a(Vrights
VNNS
tp1381
a(V.
V.
tp1382
aa(lp1383
(VWe
VPRP
tp1384
a(Vmust
VMD
tp1385
a(Vnot
VRB
tp1386
a(Vshuffle
VNN
tp1387
a(Voff
VRP
tp1388
a(Vour
VPRP$
tp1389
a(Vown
VJJ
tp1390
a(Vpowers
VNNS
tp1391
a(Vand
VCC
tp1392
a(Vresponsibilities
VNNS
tp1393
a(Vonto
VIN
tp1394
a(Vthe
VDT
tp1395
a(VMember
VNNP
tp1396
a(VStates
VNNPS
tp1397
a(V,
V,
tp1398
a(Vwho
VWP
tp1399
a(Vare
VVBP
tp1400
a(Vresponsible
VJJ
tp1401
a(Vfor
VIN
tp1402
a(Vimplementation
VNN
tp1403
a(V.
V.
tp1404
aa(lp1405
(VI
VPRP
tp1406
a(Vstressed
VVBD
tp1407
a(Vthe
VDT
tp1408
a(Vneed
VNN
tp1409
a(Vfor
VIN
tp1410
a(Vthe
VDT
tp1411
a(Vagency
VNN
tp1412
a(Vto
VTO
tp1413
a(Vbe
VVB
tp1414
a(Vindependent
VJJ
tp1415
a(Vand
VCC
tp1416
a(Vtransparent
VJJ
tp1417
a(V.
V.
tp1418
aa(lp1419
(VNext
VRB
tp1420
a(V,
V,
tp1421
a(Vin
VIN
tp1422
a(Vterms
VNNS
tp1423
a(Vof
VIN
tp1424
a(Vhealth
VNN
tp1425
a(V,
V,
tp1426
a(Vthe
VDT
tp1427
a(Vincrease
VNN
tp1428
a(Vin
VIN
tp1429
a(Vinfectious
VJJ
tp1430
a(Vdiseases
VNNS
tp1431
a(V(
VVBP
tp1432
a(Vparticularly
VRB
tp1433
a(VHIV
VNN
tp1434
a(V)
VNN
tp1435
a(Vremains
VVBZ
tp1436
a(Vworrying
VJJ
tp1437
a(V.
V.
tp1438
aa(lp1439
(VPresidential
VJJ
tp1440
a(Velections
VNNS
tp1441
a(Vare
VVBP
tp1442
a(Vbeing
VVBG
tp1443
a(Vheld
VVBN
tp1444
a(Vin
VIN
tp1445
a(VNigeria
VNNP
tp1446
a(Vin
VIN
tp1447
a(Va
VDT
tp1448
a(Vcouple
VNN
tp1449
a(Vof
VIN
tp1450
a(Vweeks
VNNS
tp1451
a(V.
V.
tp1452
aa(lp1453
(VIts
VPRP$
tp1454
a(Vprocurement
VNN
tp1455
a(Vprocedures
VNNS
tp1456
a(Vfor
VIN
tp1457
a(Vseveral
VJJ
tp1458
a(Vprojects
VNNS
tp1459
a(Vhave
VVBP
tp1460
a(Vbeen
VVBN
tp1461
a(Vfraught
VJJ
tp1462
a(Vwith
VIN
tp1463
a(Verrors
VNNS
tp1464
a(V,
V,
tp1465
a(Vwhich
VWDT
tp1466
a(Vcorresponds
VVBZ
tp1467
a(Vto
VTO
tp1468
a(Vthe
VDT
tp1469
a(Vsignificant
VJJ
tp1470
a(Vamount
VNN
tp1471
a(Vof
VIN
tp1472
a(VEUR
V$
tp1473
a(V30
VCD
tp1474
a(Vmillion
VCD
tp1475
a(V.
V.
tp1476
aa(lp1477
(VThey
VPRP
tp1478
a(Vhave
VVBP
tp1479
a(Vbeen
VVBN
tp1480
a(Vdiscovered
VVBN
tp1481
a(Vin
VIN
tp1482
a(Vthe
VDT
tp1483
a(Vinvestigations
VNNS
tp1484
a(Vconducted
VVBN
tp1485
a(Vby
VIN
tp1486
a(Vthe
VDT
tp1487
a(VCourt
VNNP
tp1488
a(Vof
VIN
tp1489
a(VAuditors
VNNS
tp1490
a(V.
V.
tp1491
aa(lp1492
(VWe
VPRP
tp1493
a(Vall
VDT
tp1494
a(Vwanted
VVBD
tp1495
a(Vto
VTO
tp1496
a(Vmonitor
VVB
tp1497
a(Vhow
VWRB
tp1498
a(Vthe
VDT
tp1499
a(Vdirective
VNN
tp1500
a(Vwas
VVBD
tp1501
a(Vgoing
VVBG
tp1502
a(Vto
VTO
tp1503
a(Vwork
VVB
tp1504
a(V.
V.
tp1505
aa(lp1506
(VIs
VVBZ
tp1507
a(Vthe
VDT
tp1508
a(VCommunity-wide
VJJ
tp1509
a(Vintroduction
VNN
tp1510
a(Vof
VIN
tp1511
a(Va
VDT
tp1512
a(Vminimum
VJJ
tp1513
a(Vage
VNN
tp1514
a(Vof
VIN
tp1515
a(V18
VCD
tp1516
a(Vfor
VIN
tp1517
a(Vbuying
VVBG
tp1518
a(Vtobacco
VNN
tp1519
a(Vproducts
VNNS
tp1520
a(Vfeasible
VJJ
tp1521
a(V?
V.
tp1522
aa(lp1523
(VThe
VDT
tp1524
a(Vrural
VJJ
tp1525
a(Vcommunity
VNN
tp1526
a(Vhas
VVBZ
tp1527
a(Vbeen
VVBN
tp1528
a(Vunder
VIN
tp1529
a(Vincreasing
VVBG
tp1530
a(Vpressure
VNN
tp1531
a(Vto
VTO
tp1532
a(Vsurvive
VVB
tp1533
a(V.
V.
tp1534
aa(lp1535
(VMr
VNNP
tp1536
a(VSimitis
VNNP
tp1537
a(Vdid
VVBD
tp1538
a(Vnot
VRB
tp1539
a(Vhave
VVB
tp1540
a(Vthe
VDT
tp1541
a(Vsensitivity
VNN
tp1542
a(Vto
VTO
tp1543
a(Vexpress
VVB
tp1544
a(Veven
VRB
tp1545
a(Vthe
VDT
tp1546
a(Vslightest
VJJS
tp1547
a(Vcriticism
VNN
tp1548
a(Vof
VIN
tp1549
a(Vthe
VDT
tp1550
a(Vinvaders
VNNS
tp1551
a(Vout
VIN
tp1552
a(Vof
VIN
tp1553
a(Vrespect
VNN
tp1554
a(Vfor
VIN
tp1555
a(Vthe
VDT
tp1556
a(Vfeelings
VNNS
tp1557
a(Vof
VIN
tp1558
a(Vthe
VDT
tp1559
a(Voverwhelming
VJJ
tp1560
a(Vmajority
VNN
tp1561
a(Vof
VIN
tp1562
a(Vour
VPRP$
tp1563
a(Vpeople
VNNS
tp1564
a(V,
V,
tp1565
a(Vthe
VDT
tp1566
a(Vmillions
VNNS
tp1567
a(Vdenouncing
VVBG
tp1568
a(Vthis
VDT
tp1569
a(Villegal
VJJ
tp1570
a(Vand
VCC
tp1571
a(Vcriminal
VJJ
tp1572
a(Vimperialist
VJJ
tp1573
a(Vincursion
VNN
tp1574
a(Vand
VCC
tp1575
a(Vcalling
VVBG
tp1576
a(Vfor
VIN
tp1577
a(Van
VDT
tp1578
a(Vimmediate
VJJ
tp1579
a(Vend
VNN
tp1580
a(Vto
VTO
tp1581
a(Vit
VPRP
tp1582
a(V.
V.
tp1583
aa(lp1584
(VI
VPRP
tp1585
a(Varrived
VVBD
tp1586
a(Vhere
VRB
tp1587
a(Vlast
VJJ
tp1588
a(Vmonth
VNN
tp1589
a(Vand
VCC
tp1590
a(Vspoke
VVBD
tp1591
a(Vwith
VIN
tp1592
a(Vthe
VDT
tp1593
a(Varchitects
VNNS
tp1594
a(Vand
VCC
tp1595
a(Vbuilders
VNNS
tp1596
a(Vwith
VIN
tp1597
a(Vregard
VNN
tp1598
a(Vto
VTO
tp1599
a(Vthe
VDT
tp1600
a(Vseating
VVBG
tp1601
a(Varrangements
VNNS
tp1602
a(Vwithin
VIN
tp1603
a(Vthe
VDT
tp1604
a(Vhemicycle
VNN
tp1605
a(V.
V.
tp1606
aa(lp1607
(VThis
VDT
tp1608
a(Vconcern
VNN
tp1609
a(Vhas
VVBZ
tp1610
a(Valso
VRB
tp1611
a(Vbeen
VVBN
tp1612
a(Vmet
VVBN
tp1613
a(V.
V.
tp1614
aa(lp1615
(VYes
VUH
tp1616
a(V!
V.
tp1617
a(VThere
VEX
tp1618
a(Vare
VVBP
tp1619
a(Vonly
VRB
tp1620
a(Va
VDT
tp1621
a(Vfew
VJJ
tp1622
a(V.
V.
tp1623
aa(lp1624
(VMember
VNNP
tp1625
a(Vof
VIN
tp1626
a(Vthe
VDT
tp1627
a(VCommission
VNNP
tp1628
a(V.
V.
tp1629
a(V-
V:
tp1630
a(V(
VCD
tp1631
a(VFR
VNN
tp1632
a(V)
VCD
tp1633
a(VMr
VNNP
tp1634
a(VPresident
VNNP
tp1635
a(V,
V,
tp1636
a(Vladies
VNNS
tp1637
a(Vand
VCC
tp1638
a(Vgentlemen
VNNS
tp1639
a(V,
V,
tp1640
a(VI
VPRP
tp1641
a(Vshould
VMD
tp1642
a(Vlike
VVB
tp1643
a(Vto
VTO
tp1644
a(Vbegin
VVB
tp1645
a(Vby
VIN
tp1646
a(Vcongratulating
VNN
tp1647
a(Vthe
VDT
tp1648
a(Vrapporteur
VNN
tp1649
a(V,
V,
tp1650
a(VMrs
VNNP
tp1651
a(VBudreikait\u0117
VNNP
tp1652
a(V,
V,
tp1653
a(Vfor
VIN
tp1654
a(Vthis
VDT
tp1655
a(Vexcellent
VJJ
tp1656
a(Vreport
VNN
tp1657
a(Vdetailing
VVBG
tp1658
a(Vthe
VDT
tp1659
a(Vchallenge
VNN
tp1660
a(Vthat
VWDT
tp1661
a(Vdevelopment
VNN
tp1662
a(Vpolicy
VNN
tp1663
a(Vposes
VVBZ
tp1664
a(Vfor
VIN
tp1665
a(Vthe
VDT
tp1666
a(Vnew
VJJ
tp1667
a(VMember
VNNP
tp1668
a(VStates
VNNPS
tp1669
a(V.
V.
tp1670
aa(lp1671
(VToday
VNN
tp1672
a(V,
V,
tp1673
a(Vyou
VPRP
tp1674
a(Vhave
VVBP
tp1675
a(Vcome
VVBN
tp1676
a(Vdirect
VJJ
tp1677
a(Vfrom
VIN
tp1678
a(VCairo
VNNP
tp1679
a(Vfollowing
VVBG
tp1680
a(Va
VDT
tp1681
a(Vstopover
VNN
tp1682
a(Vin
VIN
tp1683
a(VParis
VNNP
tp1684
a(Vto
VTO
tp1685
a(Vmeet
VVB
tp1686
a(Vthe
VDT
tp1687
a(VFrench
VNNP
tp1688
a(VPresident
VNNP
tp1689
a(V.
V.
tp1690
aa(lp1691
(VMr
VNNP
tp1692
a(VPresident
VNNP
tp1693
a(V,
V,
tp1694
a(VI
VPRP
tp1695
a(Vhope
VVBP
tp1696
a(Vthe
VDT
tp1697
a(Vcancelling
VNN
tp1698
a(Vof
VIN
tp1699
a(VQuestion
VNNP
tp1700
a(VTime
VNNP
tp1701
a(Vto
VTO
tp1702
a(Vthe
VDT
tp1703
a(VCouncil
VNNP
tp1704
a(Vis
VVBZ
tp1705
a(Van
VDT
tp1706
a(Vabsolute
VJJ
tp1707
a(Vexception
VNN
tp1708
a(V.
V.
tp1709
aa(lp1710
(Vin
VIN
tp1711
a(Vwriting
VVBG
tp1712
a(V.
V.
tp1713
a(V-
V:
tp1714
a(V(
VCD
tp1715
a(VPT
VNN
tp1716
a(V)
VCD
tp1717
a(V&apos;
VNN
tp1718
a(VViolence
VNN
tp1719
a(Vagainst
VIN
tp1720
a(Vwomen
VNNS
tp1721
a(Vis
VVBZ
tp1722
a(Vperhaps
VRB
tp1723
a(Vthe
VDT
tp1724
a(Vmost
VRBS
tp1725
a(Vshameful
VJJ
tp1726
a(Vhuman
VJJ
tp1727
a(Vrights
VNNS
tp1728
a(Vviolation
VNN
tp1729
a(V...
V:
tp1730
aa(lp1731
(VThe
VDT
tp1732
a(Vfact
VNN
tp1733
a(Vof
VIN
tp1734
a(Vthe
VDT
tp1735
a(Vmatter
VNN
tp1736
a(Vis
VVBZ
tp1737
a(Vthat
VIN
tp1738
a(Vthis
VDT
tp1739
a(Vplace
VNN
tp1740
a(Vlikes
VVBZ
tp1741
a(Vto
VTO
tp1742
a(Vcontrol
VVB
tp1743
a(Vthings
VNNS
tp1744
a(Vfrom
VIN
tp1745
a(Vthe
VDT
tp1746
a(Vcentre
VNN
tp1747
a(V.
V.
tp1748
aa(lp1749
(VIn
VIN
tp1750
a(Vdoing
VVBG
tp1751
a(Vso
VRB
tp1752
a(V,
V,
tp1753
a(Vhe
VPRP
tp1754
a(Vbecame
VVBD
tp1755
a(Va
VDT
tp1756
a(Vbyword
VNN
tp1757
a(Vfor
VIN
tp1758
a(Varrogant
VJJ
tp1759
a(Vfolly
VNN
tp1760
a(V.
V.
tp1761
aa(lp1762
(VThe
VDT
tp1763
a(VIGC
VNNP
tp1764
a(Vhas
VVBZ
tp1765
a(Vsimply
VRB
tp1766
a(Vunmasked
VVBN
tp1767
a(Vthe
VDT
tp1768
a(Vlie
VNN
tp1769
a(Vof
VIN
tp1770
a(Vthe
VDT
tp1771
a(VConvention
VNNP
tp1772
a(V.
V.
tp1773
aa(lp1774
(VWho
VWP
tp1775
a(Vis
VVBZ
tp1776
a(Vthis
VDT
tp1777
a(Vreport
VNN
tp1778
a(Vaimed
VVBN
tp1779
a(Vat
VIN
tp1780
a(V?
V.
tp1781
a(VI
VPRP
tp1782
a(Vthink
VVBP
tp1783
a(Vit
VPRP
tp1784
a(Vis
VVBZ
tp1785
a(Vaimed
VVBN
tp1786
a(Vfirst
VRB
tp1787
a(Vand
VCC
tp1788
a(Vforemost
VRB
tp1789
a(Vat
VIN
tp1790
a(Vus
VPRP
tp1791
a(V,
V,
tp1792
a(Vat
VIN
tp1793
a(Vthe
VDT
tp1794
a(VEuropean
VNNP
tp1795
a(VParliament
VNNP
tp1796
a(V.
V.
tp1797
aa(lp1798
(VHe
VPRP
tp1799
a(Vis
VVBZ
tp1800
a(Valso
VRB
tp1801
a(Vthreatening
VJJ
tp1802
a(Vmoderate
VJJ
tp1803
a(VIslam
VNNP
tp1804
a(Vin
VIN
tp1805
a(Vthe
VDT
tp1806
a(VWest
VNNP
tp1807
a(Vand
VCC
tp1808
a(Vspreading
VVBG
tp1809
a(Vnegative
VJJ
tp1810
a(Vstereotypes
VNNS
tp1811
a(Vabout
VIN
tp1812
a(Vit
VPRP
tp1813
a(V.
V.
tp1814
aa(lp1815
(VWe
VPRP
tp1816
a(Vknow
VVBP
tp1817
a(Vit
VPRP
tp1818
a(Vis
VVBZ
tp1819
a(Va
VDT
tp1820
a(Vcompromise
VNN
tp1821
a(Vamong
VIN
tp1822
a(Vinstitutions
VNNS
tp1823
a(Vthat
VWDT
tp1824
a(Vkeep
VVBP
tp1825
a(Vtheir
VPRP$
tp1826
a(Vpromises
VNNS
tp1827
a(V.
V.
tp1828
aa(lp1829
(VThey
VPRP
tp1830
a(Vhave
VVBP
tp1831
a(Vno
VDT
tp1832
a(Veducation
VNN
tp1833
a(V,
V,
tp1834
a(Vno
VDT
tp1835
a(Vaccess
VNN
tp1836
a(Vto
VTO
tp1837
a(Vhealth
VNN
tp1838
a(Vcare
VNN
tp1839
a(V,
V,
tp1840
a(Vno
VDT
tp1841
a(Vemployment
VNN
tp1842
a(Vand
VCC
tp1843
a(Vno
VDT
tp1844
a(Vshelter
VNN
tp1845
a(V.
V.
tp1846
aa(lp1847
(VMy
VPRP$
tp1848
a(Vown
VJJ
tp1849
a(Vscepticism
VNN
tp1850
a(Vremains
VVBZ
tp1851
a(V.
V.
tp1852
aa(lp1853
(VThis
VDT
tp1854
a(VPresidency
VNNP
tp1855
a(Vhad
VVBD
tp1856
a(Vtwo
VCD
tp1857
a(Vfaces
VNNS
tp1858
a(V.
V.
tp1859
aa.