(lp1
(lp2
(VThis
VDT
tp3
a(Vnew
VJJ
tp4
a(Vprocess
VNN
tp5
a(Vstarted
VVBD
tp6
a(Vin
VIN
tp7
a(VJanuary
VNNP
tp8
a(V2011
VCD
tp9
a(Vwith
VIN
tp10
a(Vthe
VDT
tp11
a(Vpresentation
VNN
tp12
a(Vof
VIN
tp13
a(Vthe
VDT
tp14
a(VCommission
VNNP
tp15
a(V&apos;s
VNNS
tp16
a(Vannual
VJJ
tp17
a(Vgrowth
VNN
tp18
a(Vsurvey
VNN
tp19
a(V.
V.
tp20
aa(lp21
(VIt
VPRP
tp22
a(Vis
VVBZ
tp23
a(Vwith
VIN
tp24
a(Vreference
VNN
tp25
a(Vto
VTO
tp26
a(Vthis
VDT
tp27
a(Vthat
VWDT
tp28
a(Vimages
VNNS
tp29
a(Vof
VIN
tp30
a(Vthe
VDT
tp31
a(VUnited
VNNP
tp32
a(VStates
VNNPS
tp33
a(Vas
VIN
tp34
a(Va
VDT
tp35
a(Vunilateral
VJJ
tp36
a(Vactor
VNN
tp37
a(Vthat
VWDT
tp38
a(Vgoes
VVBZ
tp39
a(Vit
VPRP
tp40
a(Valone
VRB
tp41
a(Vhave
VVBP
tp42
a(Vbeen
VVBN
tp43
a(Vstrengthened
VVBN
tp44
a(V.
V.
tp45
aa(lp46
(VIn
VIN
tp47
a(Vfact
VNN
tp48
a(V,
V,
tp49
a(Vit
VPRP
tp50
a(Vis
VVBZ
tp51
a(Vonly
VRB
tp52
a(Vpossible
VJJ
tp53
a(Vto
VTO
tp54
a(Vrefuse
VVB
tp55
a(Vto
VTO
tp56
a(Vcarry
VVB
tp57
a(Vout
VRP
tp58
a(Vthe
VDT
tp59
a(Vrequest
VNN
tp60
a(Vfor
VIN
tp61
a(Vthe
VDT
tp62
a(Vtaking
VNN
tp63
a(Vof
VIN
tp64
a(Vevidence
VNN
tp65
a(Vin
VIN
tp66
a(Vexceptional
VJJ
tp67
a(Vand
VCC
tp68
a(Vstrictly
VRB
tp69
a(Vlimited
VJJ
tp70
a(Vsituations
VNNS
tp71
a(V.
V.
tp72
aa(lp73
(VI
VPRP
tp74
a(Vbelieve
VVBP
tp75
a(Vthat
VIN
tp76
a(Vit
VPRP
tp77
a(Vis
VVBZ
tp78
a(Vnecessary
VJJ
tp79
a(Vto
VTO
tp80
a(Vfight
VVB
tp81
a(Vagainst
VIN
tp82
a(Vracism
VNN
tp83
a(Vand
VCC
tp84
a(Vxenophobia
VNN
tp85
a(V,
V,
tp86
a(Vbecause
VIN
tp87
a(Vthe
VDT
tp88
a(Vdata
VNNS
tp89
a(Vprovided
VVBN
tp90
a(Vby
VIN
tp91
a(Vthe
VDT
tp92
a(VEuropean
VJJ
tp93
a(VMonitoring
VNN
tp94
a(VCentre
VNNP
tp95
a(Vare
VVBP
tp96
a(Valarming
VJJ
tp97
a(V.
V.
tp98
aa(lp99
(VMrs
VNNP
tp100
a(VKroes
VNNP
tp101
a(Vfrom
VIN
tp102
a(Vthe
VDT
tp103
a(VNetherlands
VNNP
tp104
a(Vis
VVBZ
tp105
a(Vlikely
VJJ
tp106
a(Vto
VTO
tp107
a(Vbecome
VVB
tp108
a(Vthe
VDT
tp109
a(VCommission
VNNP
tp110
a(V\u2019
VNN
tp111
a(Vs
VVBZ
tp112
a(Vspecialist
VNN
tp113
a(Vfor
VIN
tp114
a(Vdiscord
VNN
tp115
a(V.
V.
tp116
aa(lp117
(VThis
VDT
tp118
a(Vhinders
VVBZ
tp119
a(Vtheir
VPRP$
tp120
a(Vfreedom
VNN
tp121
a(Vand
VCC
tp122
a(Vthe
VDT
tp123
a(Vpossibility
VNN
tp124
a(Vof
VIN
tp125
a(Vtheir
VPRP$
tp126
a(Vliving
VVBG
tp127
a(Va
VDT
tp128
a(Vnormal
VJJ
tp129
a(Vlife
VNN
tp130
a(Vand
VCC
tp131
a(VI
VPRP
tp132
a(Vdeplore
VVBP
tp133
a(Vthat
VIN
tp134
a(Vvery
VRB
tp135
a(Vmuch
VJJ
tp136
a(V.
V.
tp137
aa(lp138
(VI
VPRP
tp139
a(Vfind
VVBP
tp140
a(Vthem
VPRP
tp141
a(Vin
VIN
tp142
a(Va
VDT
tp143
a(Vreport
VNN
tp144
a(Von
VIN
tp145
a(Vthe
VDT
tp146
a(VBelgian
VJJ
tp147
a(Vaviation
VNN
tp148
a(Vinspections
VNNS
tp149
a(Vaccording
VVBG
tp150
a(Vto
VTO
tp151
a(Vthe
VDT
tp152
a(VSAFA
VNNP
tp153
a(Vprocedures
VNNS
tp154
a(V.
V.
tp155
aa(lp156
(VThere
VEX
tp157
a(Vis
VVBZ
tp158
a(Va
VDT
tp159
a(Vhelm
VNN
tp160
a(Vwhich
VWDT
tp161
a(Vis
VVBZ
tp162
a(Vin
VIN
tp163
a(Vyour
VPRP$
tp164
a(Vhands
VNNS
tp165
a(V;
V:
tp166
a(Vwe
VPRP
tp167
a(Vhave
VVBP
tp168
a(Vgreat
VJJ
tp169
a(Vexpectations
VNNS
tp170
a(Vof
VIN
tp171
a(Vit
VPRP
tp172
a(V.
V.
tp173
aa(lp174
(VThe
VDT
tp175
a(VGerman
VNNP
tp176
a(VChancellor
VNNP
tp177
a(V,
V,
tp178
a(VAngela
VNNP
tp179
a(VMerkel
VNNP
tp180
a(V,
V,
tp181
a(Vtelephoned
VVBD
tp182
a(Vthe
VDT
tp183
a(Vhead
VNN
tp184
a(Vof
VIN
tp185
a(Vthe
VDT
tp186
a(Vparty
VNN
tp187
a(Vapplying
VVBG
tp188
a(Vto
VTO
tp189
a(Vchair
VNN
tp190
a(Vthis
VDT
tp191
a(Vcommittee
VNN
tp192
a(Vof
VIN
tp193
a(Vthe
VDT
tp194
a(VEuropean
VNNP
tp195
a(VParliament
VNNP
tp196
a(Vand
VCC
tp197
a(Vasked
VVBD
tp198
a(Vhim
VPRP
tp199
a(Vto
VTO
tp200
a(Vwithdraw
VVB
tp201
a(Vthe
VDT
tp202
a(Vnomination
VNN
tp203
a(V.
V.
tp204
aa(lp205
(VUnderlying
VVBG
tp206
a(Vthe
VDT
tp207
a(Vwhole
VJJ
tp208
a(Veuro
VNN
tp209
a(Vcrisis
VNN
tp210
a(V,
V,
tp211
a(Vof
VIN
tp212
a(Vcourse
VNN
tp213
a(V,
V,
tp214
a(Vis
VVBZ
tp215
a(Vnot
VRB
tp216
a(Va
VDT
tp217
a(Vproblem
VNN
tp218
a(Vwith
VIN
tp219
a(Vthe
VDT
tp220
a(Veuro
VNN
tp221
a(V,
V,
tp222
a(Vbut
VCC
tp223
a(Va
VDT
tp224
a(Vproblem
VNN
tp225
a(Vwith
VIN
tp226
a(Vgovernments
VNNS
tp227
a(Vthat
VWDT
tp228
a(Vare
VVBP
tp229
a(Vspending
VVBG
tp230
a(Vtoo
VRB
tp231
a(Vmuch
VJJ
tp232
a(Vof
VIN
tp233
a(Vtheir
VPRP$
tp234
a(Vtaxpayers
VNNS
tp235
a(V&apos;
VVBP
tp236
a(Vmoney
VNN
tp237
a(V.
V.
tp238
aa(lp239
(V&apos;How
VNN
tp240
a(Vcan
VMD
tp241
a(Vyou
VPRP
tp242
a(Vgovern
VVB
tp243
a(Va
VDT
tp244
a(Vcountry
VNN
tp245
a(Vwhich
VWDT
tp246
a(Vhas
VVBZ
tp247
a(V246
VCD
tp248
a(Vkinds
VNNS
tp249
a(Vof
VIN
tp250
a(Vcheese
VNN
tp251
a(V?
V.
tp252
a(V&apos;
VIN
tp253
a(Vhe
VPRP
tp254
a(Vasked
VVBD
tp255
a(Vrhetorically
VRB
tp256
a(V.
V.
tp257
aa(lp258
(VMadam
VNNP
tp259
a(VPresident
VNNP
tp260
a(V,
V,
tp261
a(Vmy
VPRP$
tp262
a(Vreport
VNN
tp263
a(V,
V,
tp264
a(Vwhich
VWDT
tp265
a(Vwas
VVBD
tp266
a(Vto
VTO
tp267
a(Vhave
VVB
tp268
a(Vbeen
VVBN
tp269
a(Vdebated
VVBN
tp270
a(Vand
VCC
tp271
a(Vvoted
VVBN
tp272
a(Von
VIN
tp273
a(Vthis
VDT
tp274
a(Vweek
VNN
tp275
a(V,
V,
tp276
a(Vhas
VVBZ
tp277
a(Vbeen
VVBN
tp278
a(Vdeferred
VVBN
tp279
a(V.
V.
tp280
aa(lp281
(VI
VPRP
tp282
a(Vwould
VMD
tp283
a(Vlike
VVB
tp284
a(Vto
VTO
tp285
a(Vfocus
VVB
tp286
a(Von
VIN
tp287
a(Va
VDT
tp288
a(Vcouple
VNN
tp289
a(Vof
VIN
tp290
a(Vpoints
VNNS
tp291
a(V.
V.
tp292
aa(lp293
(VIndoctrinated
VVBN
tp294
a(Vby
VIN
tp295
a(Vold
VJJ
tp296
a(Vadverts
VNNS
tp297
a(Vand
VCC
tp298
a(VTV
VNN
tp299
a(Vcelebrity
VNN
tp300
a(V,
V,
tp301
a(Vthey
VPRP
tp302
a(Vbelieved
VVBD
tp303
a(Vthat
VIN
tp304
a(V,
V,
tp305
a(Vas
VIN
tp306
a(Vwe
VPRP
tp307
a(Vsay
VVBP
tp308
a(Vin
VIN
tp309
a(Vthe
VDT
tp310
a(VUK
VNNP
tp311
a(V,
V,
tp312
a(Vthe
VDT
tp313
a(Vfuture
VNN
tp314
a(Vis
VVBZ
tp315
a(Vbright
VJJ
tp316
a(V,
V,
tp317
a(Vthe
VDT
tp318
a(Vfuture
VNN
tp319
a(Vis
VVBZ
tp320
a(Vorange
VJJ
tp321
a(V.
V.
tp322
aa(lp323
(VThat
VDT
tp324
a(Vshows
VVBZ
tp325
a(Vwhere
VWRB
tp326
a(Vthe
VDT
tp327
a(Vbottleneck
VNN
tp328
a(Vand
VCC
tp329
a(Vthe
VDT
tp330
a(Vimbalance
VNN
tp331
a(Vbetween
VIN
tp332
a(Vthe
VDT
tp333
a(Vinstitutions
VNNS
tp334
a(Vis
VVBZ
tp335
a(Vto
VTO
tp336
a(Vbe
VVB
tp337
a(Vfound
VVBN
tp338
a(V.
V.
tp339
aa(lp340
(VDrinking
VVBG
tp341
a(Vcoffee
VNN
tp342
a(V?
V.
tp343
aa(lp344
(VThere
VEX
tp345
a(Vwould
VMD
tp346
a(Vbe
VVB
tp347
a(Vsignificant
VJJ
tp348
a(Vsymbolism
VNN
tp349
a(Vin
VIN
tp350
a(Vsuch
VJJ
tp351
a(Va
VDT
tp352
a(Vstep
VNN
tp353
a(V,
V,
tp354
a(Vas
VIN
tp355
a(VSarajevo
VNNP
tp356
a(Vwas
VVBD
tp357
a(Vthe
VDT
tp358
a(Vscene
VNN
tp359
a(Vof
VIN
tp360
a(Vthe
VDT
tp361
a(Vassassination
VNN
tp362
a(Vthat
VWDT
tp363
a(Vbrought
VVBD
tp364
a(Vabout
VRB
tp365
a(Vthe
VDT
tp366
a(Voutbreak
VNN
tp367
a(Vof
VIN
tp368
a(Vthe
VDT
tp369
a(VFirst
VNNP
tp370
a(VWorld
VNNP
tp371
a(VWar
VNNP
tp372
a(Vin
VIN
tp373
a(V1914
VCD
tp374
a(V.
V.
tp375
aa(lp376
(VA
VDT
tp377
a(Vsecond
VJJ
tp378
a(VMember
VNNP
tp379
a(V,
V,
tp380
a(VMr
VNNP
tp381
a(VStrasser
VNNP
tp382
a(V,
V,
tp383
a(Vhas
VVBZ
tp384
a(Vnotified
VVBN
tp385
a(Vhis
VPRP$
tp386
a(Vintention
VNN
tp387
a(Vto
VTO
tp388
a(Vresign
VVB
tp389
a(Vfrom
VIN
tp390
a(VParliament
VNNP
tp391
a(Vin
VIN
tp392
a(Vthe
VDT
tp393
a(Vnext
VJJ
tp394
a(Vfew
VJJ
tp395
a(Vdays
VNNS
tp396
a(V.
V.
tp397
aa(lp398
(VThe
VDT
tp399
a(VCouncil
VNNP
tp400
a(Vdoes
VVBZ
tp401
a(Vnot
VRB
tp402
a(Vwant
VVB
tp403
a(Vto
VTO
tp404
a(Vgive
VVB
tp405
a(Vassistants
VNNS
tp406
a(Vthe
VDT
tp407
a(Vstatus
VNN
tp408
a(Vof
VIN
tp409
a(Vofficials
VNNS
tp410
a(V.
V.
tp411
aa(lp412
(VSince
VIN
tp413
a(V1992
VCD
tp414
a(Vit
VPRP
tp415
a(Vhas
VVBZ
tp416
a(Vclosed
VVBN
tp417
a(Vby
VIN
tp418
a(Vonly
VRB
tp419
a(V1
VCD
tp420
a(Vpercentage
VNN
tp421
a(Vpoint
VNN
tp422
a(V.
V.
tp423
aa(lp424
(VAfter
VIN
tp425
a(Vthe
VDT
tp426
a(Vvote
VNN
tp427
a(Von
VIN
tp428
a(VAmendment
VNNP
tp429
a(VNo
VNNP
tp430
a(V32
VCD
tp431
a(V:
V:
tp432
aa(lp433
(VI
VPRP
tp434
a(Vdo
VVBP
tp435
a(V,
V,
tp436
a(Vhowever
VRB
tp437
a(V,
V,
tp438
a(Vfind
VVB
tp439
a(Vtwo
VCD
tp440
a(Vissues
VNNS
tp441
a(Vmissing
VVBG
tp442
a(Vfrom
VIN
tp443
a(Vthe
VDT
tp444
a(Vreport
VNN
tp445
a(V.
V.
tp446
aa(lp447
(VThe
VDT
tp448
a(Vresolution
VNN
tp449
a(Vstops
VVBZ
tp450
a(Vshort
VJJ
tp451
a(Vof
VIN
tp452
a(Vthe
VDT
tp453
a(Vpoint
VNN
tp454
a(Vwhere
VWRB
tp455
a(Vthe
VDT
tp456
a(Vproblems
VNNS
tp457
a(Vbegin
VVBP
tp458
a(V.
V.
tp459
aa(lp460
(VI
VPRP
tp461
a(Vwill
VMD
tp462
a(Vtake
VVB
tp463
a(Va
VDT
tp464
a(Vslightly
VRB
tp465
a(Vdifferent
VJJ
tp466
a(Vperspective
VNN
tp467
a(V.
V.
tp468
aa(lp469
(VEuropean
VJJ
tp470
a(Vcitizens
VNNS
tp471
a(Vare
VVBP
tp472
a(Vfearful
VJJ
tp473
a(V.
V.
tp474
aa(lp475
(VFirst
VRB
tp476
a(V,
V,
tp477
a(Vit
VPRP
tp478
a(Vhas
VVBZ
tp479
a(Valways
VRB
tp480
a(Vbeen
VVBN
tp481
a(Vsaid
VVBD
tp482
a(Vthat
VIN
tp483
a(Vwe
VPRP
tp484
a(Vare
VVBP
tp485
a(Vspending
VVBG
tp486
a(V20
VCD
tp487
a(V%
VNN
tp488
a(Vmore
VJJR
tp489
a(Vthan
VIN
tp490
a(Vin
VIN
tp491
a(Vthe
VDT
tp492
a(Vprevious
VJJ
tp493
a(Vyear
VNN
tp494
a(V.
V.
tp495
aa(lp496
(VCan
VMD
tp497
a(VI
VPRP
tp498
a(Vsay
VVB
tp499
a(Vthat
VIN
tp500
a(VI
VPRP
tp501
a(Vdo
VVBP
tp502
a(Vnot
VRB
tp503
a(Vbelieve
VVB
tp504
a(Vany
VDT
tp505
a(Vof
VIN
tp506
a(Vthem
VPRP
tp507
a(V?
V.
tp508
aa(lp509
(VIt
VPRP
tp510
a(Vwould
VMD
tp511
a(Vbe
VVB
tp512
a(Va
VDT
tp513
a(Vpity
VNN
tp514
a(Vif
VIN
tp515
a(Vthis
VDT
tp516
a(Vundertaking
VNN
tp517
a(Vwere
VVBD
tp518
a(Vnot
VRB
tp519
a(Vhonoured
VVBN
tp520
a(V.
V.
tp521
aa(lp522
(VIt
VPRP
tp523
a(Vcould
VMD
tp524
a(Valso
VRB
tp525
a(Vbe
VVB
tp526
a(Vcalled
VVBN
tp527
a(Va
VDT
tp528
a(Vdefeat
VNN
tp529
a(V.
V.
tp530
aa(lp531
(VIt
VPRP
tp532
a(Vis
VVBZ
tp533
a(Valso
VRB
tp534
a(Vimportant
VJJ
tp535
a(Vto
VTO
tp536
a(Vmake
VVB
tp537
a(Vclear
VJJ
tp538
a(Vthat
VIN
tp539
a(Vthese
VDT
tp540
a(Vrequirements
VNNS
tp541
a(Vare
VVBP
tp542
a(Vonly
VRB
tp543
a(Vminimum
VJJ
tp544
a(Vlevels
VNNS
tp545
a(V.
V.
tp546
aa(lp547
(VHow
VWRB
tp548
a(Vdoes
VVBZ
tp549
a(Vthe
VDT
tp550
a(Vtimetable
VNN
tp551
a(Vlook
VNN
tp552
a(V,
V,
tp553
a(VPrime
VNNP
tp554
a(VMinister
VNNP
tp555
a(V?
V.
tp556
aa(lp557
(VThis
VDT
tp558
a(Vhas
VVBZ
tp559
a(Vbeen
VVBN
tp560
a(Vthe
VDT
tp561
a(Vpattern
VNN
tp562
a(Vover
VIN
tp563
a(Vmost
VJJS
tp564
a(Vof
VIN
tp565
a(Vthe
VDT
tp566
a(Vdeveloped
VJJ
tp567
a(Vworld
VNN
tp568
a(V.
V.
tp569
aa(lp570
(VThese
VDT
tp571
a(Vexamples
VNNS
tp572
a(Voffer
VVBP
tp573
a(Vhope
VNN
tp574
a(Vand
VCC
tp575
a(Vconfidence
VNN
tp576
a(Vthat
VIN
tp577
a(Vthe
VDT
tp578
a(Vjoint
VJJ
tp579
a(VEuropean
VJJ
tp580
a(Vventures
VNNS
tp581
a(Vwill
VMD
tp582
a(Vwork
VVB
tp583
a(V.
V.
tp584
aa(lp585
(VFor
VIN
tp586
a(Vthe
VDT
tp587
a(Vmoment
VNN
tp588
a(V,
V,
tp589
a(Vhowever
VRB
tp590
a(V,
V,
tp591
a(Vwe
VPRP
tp592
a(Vbelieve
VVBP
tp593
a(Vit
VPRP
tp594
a(Vis
VVBZ
tp595
a(Vgoing
VVBG
tp596
a(Vtoo
VRB
tp597
a(Vfar
VRB
tp598
a(Vto
VTO
tp599
a(Vcompare
VVB
tp600
a(Vthe
VDT
tp601
a(Vsituation
VNN
tp602
a(Vwith
VIN
tp603
a(Vthe
VDT
tp604
a(Vone
VCD
tp605
a(Vthat
VWDT
tp606
a(Vfollowed
VVBD
tp607
a(VHurricane
VNNP
tp608
a(VMitch
VNNP
tp609
a(V.
V.
tp610
aa(lp611
(VWe
VPRP
tp612
a(Vbooked
VVBD
tp613
a(Vher
VPRP
tp614
a(Va
VDT
tp615
a(Vhotel
VNN
tp616
a(Vroom
VNN
tp617
a(Vwith
VIN
tp618
a(Vdisabled
VJJ
tp619
a(Vpeople
VNNS
tp620
a(V&apos;s
VNNS
tp621
a(Vaccess
VNN
tp622
a(V.
V.
tp623
aa(lp624
(VOf
VIN
tp625
a(Vcourse
VNN
tp626
a(V,
V,
tp627
a(Vthis
VDT
tp628
a(Vdoes
VVBZ
tp629
a(Vnot
VRB
tp630
a(Vmean
VVB
tp631
a(Vthat
VIN
tp632
a(VI
VPRP
tp633
a(Vam
VVBP
tp634
a(Vdeclaring
VVBG
tp635
a(Vmy
VPRP$
tp636
a(Vopposition
VNN
tp637
a(Vto
VTO
tp638
a(Vfurther
VJJ
tp639
a(Vregional
VJJ
tp640
a(Vintegration
VNN
tp641
a(Vin
VIN
tp642
a(VSouth
VNNP
tp643
a(VEast
VNNP
tp644
a(VAsia
VNNP
tp645
a(V.
V.
tp646
aa(lp647
(VThe
VDT
tp648
a(Vprocedure
VNN
tp649
a(Vat
VIN
tp650
a(Vpresent
VJJ
tp651
a(Vis
VVBZ
tp652
a(Vmuch
VRB
tp653
a(Vtoo
VRB
tp654
a(Vlengthy
VJJ
tp655
a(V,
V,
tp656
a(Vand
VCC
tp657
a(Vthis
VDT
tp658
a(Vmakes
VVBZ
tp659
a(Vpeople
VNNS
tp660
a(Vless
VRBR
tp661
a(Vwilling
VJJ
tp662
a(Vto
VTO
tp663
a(Vaccept
VVB
tp664
a(VEuropean
VJJ
tp665
a(Vlaw
VNN
tp666
a(V.
V.
tp667
aa(lp668
(VIt
VPRP
tp669
a(Vis
VVBZ
tp670
a(Vthe
VDT
tp671
a(Vonly
VRB
tp672
a(Vlarge
VJJ
tp673
a(Veconomic
VJJ
tp674
a(Varea
VNN
tp675
a(Vto
VTO
tp676
a(Vhave
VVB
tp677
a(Vbecome
VVBN
tp678
a(Vaccustomed
VJJ
tp679
a(Vto
VTO
tp680
a(Vmass
VNN
tp681
a(Vunemployment
VNN
tp682
a(Vover
VIN
tp683
a(Vthe
VDT
tp684
a(Vlast
VJJ
tp685
a(Vthree
VCD
tp686
a(Vdecades
VNNS
tp687
a(V,
V,
tp688
a(Vas
VIN
tp689
a(Vpointed
VVBN
tp690
a(Vout
VRP
tp691
a(Vby
VIN
tp692
a(VProfessor
VNNP
tp693
a(VFitoussi
VNNP
tp694
a(V.
V.
tp695
aa(lp696
(VThe
VDT
tp697
a(Vlast
VJJ
tp698
a(Vpoint
VNN
tp699
a(Vis
VVBZ
tp700
a(Vof
VIN
tp701
a(Va
VDT
tp702
a(Vmore
VRBR
tp703
a(Vsystemic
VJJ
tp704
a(Vnature
VNN
tp705
a(V.
V.
tp706
aa(lp707
(VThere
VEX
tp708
a(Vare
VVBP
tp709
a(Valready
VRB
tp710
a(Vone
VCD
tp711
a(Vand
VCC
tp712
a(Va
VDT
tp713
a(Vhalf
VNN
tp714
a(Vmillion
VCD
tp715
a(Vdead
VJJ
tp716
a(Vto
VTO
tp717
a(Vmourn
VVB
tp718
a(Vin
VIN
tp719
a(Vthe
VDT
tp720
a(Vcountry
VNN
tp721
a(V.
V.
tp722
aa(lp723
(VThe
VDT
tp724
a(Vbest
VJJS
tp725
a(Vauthor
VNN
tp726
a(Vwas
VVBD
tp727
a(Vchosen
VVBN
tp728
a(Vand
VCC
tp729
a(Vthe
VDT
tp730
a(Vspecific
VJJ
tp731
a(Vcontractors
VNNS
tp732
a(Vmade
VVBN
tp733
a(Vand
VCC
tp734
a(Vpresented
VVBN
tp735
a(Vthe
VDT
tp736
a(Vbest
VJJS
tp737
a(Voffer
VNN
tp738
a(V.
V.
tp739
aa(lp740
(VIt
VPRP
tp741
a(Vis
VVBZ
tp742
a(Vnoticeable
VJJ
tp743
a(Vthat
VIN
tp744
a(Velsewhere
VRB
tp745
a(Vthere
VEX
tp746
a(Vis
VVBZ
tp747
a(Va
VDT
tp748
a(Vtendency
VNN
tp749
a(Vnot
VRB
tp750
a(Vto
VTO
tp751
a(Vtake
VVB
tp752
a(Vthis
VDT
tp753
a(Vprotection
VNN
tp754
a(Vof
VIN
tp755
a(Vprivate
VJJ
tp756
a(Vlife
VNN
tp757
a(Vand
VCC
tp758
a(Vindividual
VJJ
tp759
a(Vrights
VNNS
tp760
a(Vseriously
VRB
tp761
a(V.
V.
tp762
aa(lp763
(VWhat
VWP
tp764
a(Vis
VVBZ
tp765
a(Veven
VRB
tp766
a(Vmore
VRBR
tp767
a(Vdisappointing
VJJ
tp768
a(Vis
VVBZ
tp769
a(Vthat
VIN
tp770
a(Vthe
VDT
tp771
a(VQuaestors
VNNS
tp772
a(Vhave
VVBP
tp773
a(Vsent
VVBN
tp774
a(Van
VDT
tp775
a(Ve-mail
VNN
tp776
a(Vto
VTO
tp777
a(Vall
VDT
tp778
a(VMembers
VNNS
tp779
a(Vurging
VVBG
tp780
a(Vthem
VPRP
tp781
a(Vto
VTO
tp782
a(Vvote
VVB
tp783
a(Vfor
VIN
tp784
a(Vthis
VDT
tp785
a(V.
V.
tp786
aa(lp787
(V(
VNN
tp788
a(VEL
VNN
tp789
a(V)
VCD
tp790
a(VMr
VNNP
tp791
a(VPresident
VNNP
tp792
a(V,
V,
tp793
a(Vthe
VDT
tp794
a(Vfiercer
VJJR
tp795
a(Vthe
VDT
tp796
a(Vexploitation
VNN
tp797
a(Vof
VIN
tp798
a(Vworkers
VNNS
tp799
a(V,
V,
tp800
a(Vthe
VDT
tp801
a(Vgreater
VJJR
tp802
a(Vthe
VDT
tp803
a(Vwealth
VNN
tp804
a(Vaccumulated
VVBN
tp805
a(Vin
VIN
tp806
a(Vthe
VDT
tp807
a(Vhands
VNNS
tp808
a(Vof
VIN
tp809
a(Vthe
VDT
tp810
a(Vfew
VJJ
tp811
a(V.
V.
tp812
aa(lp813
(VThis
VDT
tp814
a(Vrequires
VVBZ
tp815
a(Vtough
VJJ
tp816
a(Vnegotiations
VNNS
tp817
a(Varound
VIN
tp818
a(Vthe
VDT
tp819
a(Vkitchen
VNN
tp820
a(Vtable
VNN
tp821
a(V,
V,
tp822
a(Vbut
VCC
tp823
a(Valso
VRB
tp824
a(Varound
VIN
tp825
a(Vthe
VDT
tp826
a(Vtables
VNNS
tp827
a(Vof
VIN
tp828
a(Vpolitical
VJJ
tp829
a(Vpower
VNN
tp830
a(V.
V.
tp831
aa(lp832
(VThere
VEX
tp833
a(Vis
VVBZ
tp834
a(Vsome
VDT
tp835
a(Vdebate
VNN
tp836
a(Vas
VIN
tp837
a(Vto
VTO
tp838
a(Vwhether
VIN
tp839
a(Vthey
VPRP
tp840
a(Vshould
VMD
tp841
a(Vbe
VVB
tp842
a(Vmayors
VNNS
tp843
a(Vof
VIN
tp844
a(Vsmall
VJJ
tp845
a(Vtowns
VNNS
tp846
a(V.
V.
tp847
aa(lp848
(VWe
VPRP
tp849
a(Vare
VVBP
tp850
a(Vwitnessing
VVBG
tp851
a(Va
VDT
tp852
a(Vcrisis
VNN
tp853
a(Vand
VCC
tp854
a(Vprotests
VNNS
tp855
a(Vthat
VWDT
tp856
a(Vrecall
VVBP
tp857
a(Vour
VPRP$
tp858
a(Vriots
VNNS
tp859
a(Vfor
VIN
tp860
a(Vbread
VNN
tp861
a(V,
V,
tp862
a(Vpeople
VNNS
tp863
a(Vbeing
VVBG
tp864
a(Vkilled
VVBN
tp865
a(Vbecause
VIN
tp866
a(Vthey
VPRP
tp867
a(Vare
VVBP
tp868
a(Vhungry
VJJ
tp869
a(V.
V.
tp870
aa(lp871
(VIn
VIN
tp872
a(Vorder
VNN
tp873
a(Vto
VTO
tp874
a(Vreach
VVB
tp875
a(Va
VDT
tp876
a(Vcompromise
VNN
tp877
a(V?
V.
tp878
aa(lp879
(VRepresentatives
VNNS
tp880
a(Vof
VIN
tp881
a(Vall
VDT
tp882
a(Vparties
VNNS
tp883
a(Vand
VCC
tp884
a(Vethnic
VJJ
tp885
a(Vgroups
VNNS
tp886
a(Vshould
VMD
tp887
a(Vbe
VVB
tp888
a(Vable
VJJ
tp889
a(Vto
VTO
tp890
a(Vcontribute
VVB
tp891
a(Vto
VTO
tp892
a(Va
VDT
tp893
a(Vnew
VJJ
tp894
a(Vdraft
VNN
tp895
a(Vconstitution
VNN
tp896
a(Vbefore
VIN
tp897
a(Vit
VPRP
tp898
a(Vis
VVBZ
tp899
a(Vsubmitted
VVBN
tp900
a(Vto
VTO
tp901
a(Va
VDT
tp902
a(Vreferendum
VNN
tp903
a(V.
V.
tp904
aa(lp905
(VIt
VPRP
tp906
a(Vshould
VMD
tp907
a(Vbe
VVB
tp908
a(Vpossible
VJJ
tp909
a(Vto
VTO
tp910
a(Vtransfer
VVB
tp911
a(Vtrailer
VNN
tp912
a(Vand
VCC
tp913
a(Vcontainer
VNN
tp914
a(Vloads
VNNS
tp915
a(Vto
VTO
tp916
a(Vthe
VDT
tp917
a(Vrailways
VNNS
tp918
a(Vfor
VIN
tp919
a(Vtransport
VNN
tp920
a(Vacross
VIN
tp921
a(Vthe
VDT
tp922
a(VAlps
VNNP
tp923
a(V.
V.
tp924
aa(lp925
(VWhat
VWDT
tp926
a(Vof
VIN
tp927
a(Vother
VJJ
tp928
a(Vnations
VNNS
tp929
a(Vsuch
VJJ
tp930
a(Vas
VIN
tp931
a(VIsrael
VNNP
tp932
a(Vand
VCC
tp933
a(Vthe
VDT
tp934
a(VUnited
VNNP
tp935
a(VStates
VNNPS
tp936
a(Vof
VIN
tp937
a(VAmerica
VNNP
tp938
a(Vwhich
VWDT
tp939
a(Vdefy
VVBP
tp940
a(VUN
VNNP
tp941
a(Vresolutions
VNNS
tp942
a(Vat
VIN
tp943
a(Vwill
VMD
tp944
a(V?
V.
tp945
aa(lp946
(VIt
VPRP
tp947
a(Vwould
VMD
tp948
a(Vseem
VVB
tp949
a(Vthat
VIN
tp950
a(Vsome
VDT
tp951
a(Vpeople
VNNS
tp952
a(Vforget
VVBP
tp953
a(Vthat
VIN
tp954
a(Vwe
VPRP
tp955
a(Vhave
VVBP
tp956
a(Va
VDT
tp957
a(Vrule
VNN
tp958
a(Von
VIN
tp959
a(Vthis
VDT
tp960
a(Vmatter
VNN
tp961
a(V.
V.
tp962
aa(lp963
(VThis
VDT
tp964
a(Vcompromise
VNN
tp965
a(Vrepresents
VVBZ
tp966
a(V,
V,
tp967
a(Vas
VIN
tp968
a(Va
VDT
tp969
a(VGerman
VJJ
tp970
a(Vweekly
VJJ
tp971
a(Vperiodical
VNN
tp972
a(Vputs
VVBZ
tp973
a(Vit
VPRP
tp974
a(V,
V,
tp975
a(Va
VDT
tp976
a(Vrespectable
VJJ
tp977
a(Vstaging-post
VNN
tp978
a(Von
VIN
tp979
a(Vthe
VDT
tp980
a(Vroad
VNN
tp981
a(Vto
VTO
tp982
a(Van
VDT
tp983
a(Vagricultural
VJJ
tp984
a(Vpolicy
VNN
tp985
a(Vthat
VWDT
tp986
a(Vwill
VMD
tp987
a(Vtake
VVB
tp988
a(Vus
VPRP
tp989
a(Vup
VIN
tp990
a(Vto
VTO
tp991
a(V2013
VCD
tp992
a(V.
V.
tp993
aa(lp994
(VIn
VIN
tp995
a(VSweden
VNNP
tp996
a(V,
V,
tp997
a(Vmost
VJJS
tp998
a(Vpeople
VNNS
tp999
a(Vhave
VVBP
tp1000
a(Vstarted
VVBN
tp1001
a(Vbuying
VVBG
tp1002
a(Vand
VCC
tp1003
a(Vselling
VVBG
tp1004
a(Vshares
VNNS
tp1005
a(Vand
VCC
tp1006
a(Vin
VIN
tp1007
a(Vthe
VDT
tp1008
a(Vpast
VJJ
tp1009
a(Vfew
VJJ
tp1010
a(Vyears
VNNS
tp1011
a(Vmany
VJJ
tp1012
a(Vof
VIN
tp1013
a(Vthem
VPRP
tp1014
a(Vhave
VVBP
tp1015
a(Vexperienced
VVBN
tp1016
a(Vjust
VRB
tp1017
a(Vhow
VWRB
tp1018
a(Vrisky
VJJ
tp1019
a(Vbuying
VNN
tp1020
a(Vshares
VNNS
tp1021
a(Vcan
VMD
tp1022
a(Vbe
VVB
tp1023
a(V.
V.
tp1024
aa(lp1025
(VMy
VPRP$
tp1026
a(Vcountry
VNN
tp1027
a(Vhas
VVBZ
tp1028
a(Vchanged
VVBN
tp1029
a(V.
V.
tp1030
a(VIt
VPRP
tp1031
a(Vis
VVBZ
tp1032
a(Vless
VRBR
tp1033
a(Vafraid
VJJ
tp1034
a(Vand
VCC
tp1035
a(Vit
VPRP
tp1036
a(Vbelieves
VVBZ
tp1037
a(Vin
VIN
tp1038
a(Vchange
VNN
tp1039
a(V.
V.
tp1040
aa(lp1041
(VHis
VPRP$
tp1042
a(Vown-initiative
VJJ
tp1043
a(Vreport
VNN
tp1044
a(Vwas
VVBD
tp1045
a(Vconceived
VVBN
tp1046
a(Vtwo
VCD
tp1047
a(Vyears
VNNS
tp1048
a(Vago
VRB
tp1049
a(Vand
VCC
tp1050
a(Vhas
VVBZ
tp1051
a(Vjust
VRB
tp1052
a(Vbeen
VVBN
tp1053
a(Vborn
VVBN
tp1054
a(V.
V.
tp1055
aa(lp1056
(VThe
VDT
tp1057
a(VTurkish
VJJ
tp1058
a(VSupreme
VNNP
tp1059
a(VCourt
VNNP
tp1060
a(Vdecreed
VVBD
tp1061
a(Von
VIN
tp1062
a(V25
VCD
tp1063
a(VMay
VNNP
tp1064
a(V2005
VCD
tp1065
a(Vthat
VIN
tp1066
a(Vthe
VDT
tp1067
a(Vteachers
VNNS
tp1068
a(V&apos;
VVBP
tp1069
a(Vorganisation
VNN
tp1070
a(VEgitim
VNNP
tp1071
a(VSen
VNNP
tp1072
a(Vwould
VMD
tp1073
a(Vbe
VVB
tp1074
a(Vdisbanded
VVBN
tp1075
a(V.
V.
tp1076
aa(lp1077
(VMr
VNNP
tp1078
a(VPresident
VNNP
tp1079
a(V,
V,
tp1080
a(Vthere
VEX
tp1081
a(Vare
VVBP
tp1082
a(V4.3
VCD
tp1083
a(Vmillion
VCD
tp1084
a(Vindividuals
VNNS
tp1085
a(Vwhose
VWP$
tp1086
a(VDNA
VNN
tp1087
a(Vis
VVBZ
tp1088
a(Von
VIN
tp1089
a(Vthe
VDT
tp1090
a(VUK
VNNP
tp1091
a(Vnational
VJJ
tp1092
a(VDNA
VNN
tp1093
a(Vdatabase
VNN
tp1094
a(Vand
VCC
tp1095
a(Vavailable
VJJ
tp1096
a(Vto
VTO
tp1097
a(Vpolice
VNNS
tp1098
a(V.
V.
tp1099
aa(lp1100
(VWhen
VWRB
tp1101
a(Vwe
VPRP
tp1102
a(Vstayed
VVBD
tp1103
a(Vhere
VRB
tp1104
a(Vvoting
VNN
tp1105
a(V,
V,
tp1106
a(Vyou
VPRP
tp1107
a(Vwent
VVBD
tp1108
a(Vaway
VRB
tp1109
a(Vfor
VIN
tp1110
a(Vlunch
VNN
tp1111
a(V.
V.
tp1112
aa(lp1113
(VNow
VRB
tp1114
a(V,
V,
tp1115
a(Vsulphur
VNN
tp1116
a(Vis
VVBZ
tp1117
a(Vnot
VRB
tp1118
a(Vsomething
VNN
tp1119
a(VI
VPRP
tp1120
a(Vwould
VMD
tp1121
a(Vreadily
VRB
tp1122
a(Vchoose
VVB
tp1123
a(Vto
VTO
tp1124
a(Vingest
VVB
tp1125
a(V.
V.
tp1126
aa(lp1127
(VThere
VEX
tp1128
a(Vis
VVBZ
tp1129
a(Valso
VRB
tp1130
a(Vconcern
VNN
tp1131
a(Vthat
VIN
tp1132
a(Vthey
VPRP
tp1133
a(Vmay
VMD
tp1134
a(Vreduce
VVB
tp1135
a(Vcompetitiveness
VNN
tp1136
a(Vin
VIN
tp1137
a(Vthis
VDT
tp1138
a(Vsector
VNN
tp1139
a(V.
V.
tp1140
aa(lp1141
(VIn
VIN
tp1142
a(Vfact
VNN
tp1143
a(V,
V,
tp1144
a(Vit
VPRP
tp1145
a(Vwas
VVBD
tp1146
a(Vvery
VRB
tp1147
a(Vcomplicated
VVBN
tp1148
a(V,
V,
tp1149
a(Vbut
VCC
tp1150
a(Vwe
VPRP
tp1151
a(Vfought
VVBD
tp1152
a(Vhard
VJJ
tp1153
a(Vand
VCC
tp1154
a(Vfinally
VRB
tp1155
a(Vachieved
VVBN
tp1156
a(Vthis
VDT
tp1157
a(Vgoal
VNN
tp1158
a(V.
V.
tp1159
aa(lp1160
(VMadam
VNNP
tp1161
a(VPresident
VNNP
tp1162
a(V,
V,
tp1163
a(Vnow
VRB
tp1164
a(Vwe
VPRP
tp1165
a(Vcan
VMD
tp1166
a(Vsee
VVB
tp1167
a(Vwhy
VWRB
tp1168
a(VNATO
VNNP
tp1169
a(Vforces
VNNS
tp1170
a(Vin
VIN
tp1171
a(VKosovo
VNNP
tp1172
a(Vnot
VRB
tp1173
a(Vonly
VRB
tp1174
a(Vmade
VVBD
tp1175
a(Vno
VDT
tp1176
a(Vattempt
VNN
tp1177
a(Vto
VTO
tp1178
a(Vapply
VVB
tp1179
a(VUN
VNNP
tp1180
a(VSecurity
VNNP
tp1181
a(VCouncil
VNNP
tp1182
a(VResolution
VNNP
tp1183
a(V1244
VCD
tp1184
a(V,
V,
tp1185
a(Vmainly
VRB
tp1186
a(Vas
VIN
tp1187
a(Vregards
VVBZ
tp1188
a(Vdisarming
VVBG
tp1189
a(Vthe
VDT
tp1190
a(VKLA
VNNP
tp1191
a(V,
V,
tp1192
a(Vbut
VCC
tp1193
a(Vdeclared
VVBD
tp1194
a(Vit
VPRP
tp1195
a(Vto
VTO
tp1196
a(Vbe
VVB
tp1197
a(Va
VDT
tp1198
a(Vprotected
VJJ
tp1199
a(Vbody
VNN
tp1200
a(Vin
VIN
tp1201
a(VKosovo
VNNP
tp1202
a(V.
V.
tp1203
aa(lp1204
(VTwo
VCD
tp1205
a(Vpeople
VNNS
tp1206
a(Vcame
VVBD
tp1207
a(V,
V,
tp1208
a(Vhaving
VVBG
tp1209
a(Vannounced
VVBN
tp1210
a(Vtheir
VPRP$
tp1211
a(Vvisit
VNN
tp1212
a(V.
V.
tp1213
aa(lp1214
(VConsequently
VRB
tp1215
a(V,
V,
tp1216
a(Vwe
VPRP
tp1217
a(Vhave
VVBP
tp1218
a(Vto
VTO
tp1219
a(Vtake
VVB
tp1220
a(Va
VDT
tp1221
a(Vstance
VNN
tp1222
a(Vwith
VIN
tp1223
a(Vregard
VNN
tp1224
a(Vto
VTO
tp1225
a(Vseeing
VVBG
tp1226
a(Vthrough
VIN
tp1227
a(Vthe
VDT
tp1228
a(Vconstruction
VNN
tp1229
a(Vof
VIN
tp1230
a(Vthe
VDT
tp1231
a(Vreactors
VNNS
tp1232
a(VKhmelnitsky
VNNP
tp1233
a(V2
VCD
tp1234
a(Vand
VCC
tp1235
a(VRovno
VNNP
tp1236
a(V4
VCD
tp1237
a(V.
V.
tp1238
aa(lp1239
(VThat
VDT
tp1240
a(Vis
VVBZ
tp1241
a(Vnot
VRB
tp1242
a(V&apos;
VJJ
tp1243
a(Vinvesting
VNN
tp1244
a(Vin
VIN
tp1245
a(Vpeople
VNNS
tp1246
a(V&apos;
VVBP
tp1247
a(Vas
VIN
tp1248
a(Vthe
VDT
tp1249
a(VSummit
VNNP
tp1250
a(Vmeeting
VNN
tp1251
a(Vwould
VMD
tp1252
a(Vhave
VVB
tp1253
a(Vit
VPRP
tp1254
a(V.
V.
tp1255
aa(lp1256
(VWe
VPRP
tp1257
a(Vdo
VVBP
tp1258
a(Vnot
VRB
tp1259
a(Vknow
VVB
tp1260
a(Vanything
VNN
tp1261
a(Vabout
VIN
tp1262
a(Vthe
VDT
tp1263
a(Vinfection
VNN
tp1264
a(Vchannels
VNNS
tp1265
a(V.
V.
tp1266
aa(lp1267
(VWe
VPRP
tp1268
a(Vmust
VMD
tp1269
a(Vdevelop
VVB
tp1270
a(Van
VDT
tp1271
a(Vactive
VJJ
tp1272
a(Vlabour
VNN
tp1273
a(Vmarket
VNN
tp1274
a(Vpolicy
VNN
tp1275
a(Vwhich
VWDT
tp1276
a(Vincludes
VVBZ
tp1277
a(Vfurther
VJJ
tp1278
a(Veducation
VNN
tp1279
a(Vand
VCC
tp1280
a(Vtraining
VNN
tp1281
a(Vas
VIN
tp1282
a(Va
VDT
tp1283
a(Vcomponent
VNN
tp1284
a(Vof
VIN
tp1285
a(Vlifelong
VJJ
tp1286
a(Vimprovement
VNN
tp1287
a(V.
V.
tp1288
aa(lp1289
(VIn
VIN
tp1290
a(Vaddition
VNN
tp1291
a(Vto
VTO
tp1292
a(Vthe
VDT
tp1293
a(Vcatastrophic
VJJ
tp1294
a(Vconsequences
VNNS
tp1295
a(Vof
VIN
tp1296
a(Vthe
VDT
tp1297
a(VMexico
VNNP
tp1298
a(VCity
VNNP
tp1299
a(VPolicy
VNNP
tp1300
a(V,
V,
tp1301
a(Vthe
VDT
tp1302
a(Vworldwide
VJJ
tp1303
a(Vcommitment
VNN
tp1304
a(Vto
VTO
tp1305
a(Vthe
VDT
tp1306
a(VICPD
VNN
tp1307
a(Vhas
VVBZ
tp1308
a(Vbeen
VVBN
tp1309
a(Vwaning
VVBG
tp1310
a(V.
V.
tp1311
aa(lp1312
(VSince
VIN
tp1313
a(V1972
VCD
tp1314
a(V,
V,
tp1315
a(Vwe
VPRP
tp1316
a(Vhave
VVBP
tp1317
a(Vhad
VVBN
tp1318
a(VEnvironment
VNNP
tp1319
a(VAction
VNNP
tp1320
a(VProgrammes
VNNP
tp1321
a(Vone
VCD
tp1322
a(V,
V,
tp1323
a(Vtwo
VCD
tp1324
a(V,
V,
tp1325
a(Vthree
VCD
tp1326
a(V,
V,
tp1327
a(Vfour
VCD
tp1328
a(Vand
VCC
tp1329
a(Vfive
VCD
tp1330
a(V.
V.
tp1331
aa(lp1332
(VThere
VEX
tp1333
a(Vwas
VVBD
tp1334
a(Va
VDT
tp1335
a(Vtwelve-month
VJJ
tp1336
a(Vdelay
VNN
tp1337
a(Vin
VIN
tp1338
a(Vopening
VVBG
tp1339
a(Vthe
VDT
tp1340
a(Vhospital
VNN
tp1341
a(V.
V.
tp1342
aa(lp1343
(VHowever
VRB
tp1344
a(V,
V,
tp1345
a(Vin
VIN
tp1346
a(Vorder
VNN
tp1347
a(Vto
VTO
tp1348
a(Vget
VVB
tp1349
a(Vthere
VRB
tp1350
a(Vyou
VPRP
tp1351
a(Vmust
VMD
tp1352
a(Vhave
VVB
tp1353
a(Vthe
VDT
tp1354
a(Vkey
VJJ
tp1355
a(Vworks
VNNS
tp1356
a(V&apos;
VVBP
tp1357
a(Vjob
VNN
tp1358
a(Vmobility
VNN
tp1359
a(V&apos;
VNN
tp1360
a(V.
V.
tp1361
aa(lp1362
(VHere
VRB
tp1363
a(Vthey
VPRP
tp1364
a(Vare
VVBP
tp1365
a(Vbeing
VVBG
tp1366
a(Vused
VVBN
tp1367
a(Vas
VIN
tp1368
a(Va
VDT
tp1369
a(Vmeans
VNN
tp1370
a(Vof
VIN
tp1371
a(Vraising
VVBG
tp1372
a(Vdomestic
VJJ
tp1373
a(Vpolicy
VNN
tp1374
a(Vissues
VNNS
tp1375
a(V.
V.
tp1376
aa(lp1377
(VWe
VPRP
tp1378
a(Vmust
VMD
tp1379
a(Vact
VVB
tp1380
a(Vtogether
VRB
tp1381
a(Vto
VTO
tp1382
a(Vensure
VVB
tp1383
a(Vthis
VDT
tp1384
a(V.
V.
tp1385
aa(lp1386
(VYet
VRB
tp1387
a(V,
V,
tp1388
a(Vmust
VMD
tp1389
a(Vwe
VPRP
tp1390
a(Vcontinue
VVB
tp1391
a(Vmaking
VVBG
tp1392
a(Vfools
VNNS
tp1393
a(Vof
VIN
tp1394
a(Vourselves
VPRP
tp1395
a(V?
V.
tp1396
aa(lp1397
(VI
VPRP
tp1398
a(Vam
VVBP
tp1399
a(Valso
VRB
tp1400
a(Vdelighted
VJJ
tp1401
a(Vthat
VIN
tp1402
a(Vthe
VDT
tp1403
a(VHeads
VNNS
tp1404
a(Vof
VIN
tp1405
a(VState
VNN
tp1406
a(Vand
VCC
tp1407
a(VGovernment
VNN
tp1408
a(Vtook
VVBD
tp1409
a(Vthe
VDT
tp1410
a(Vhistoric
VJJ
tp1411
a(Vstep
VNN
tp1412
a(Vof
VIN
tp1413
a(Vrecognising
VVBG
tp1414
a(VTurkey
VNNP
tp1415
a(Vas
VIN
tp1416
a(Van
VDT
tp1417
a(Vofficial
VJJ
tp1418
a(Vcandidate
VNN
tp1419
a(Vcountry
VNN
tp1420
a(V.
V.
tp1421
aa(lp1422
(VThe
VDT
tp1423
a(VChinese
VJJ
tp1424
a(Vauthorities
VNNS
tp1425
a(Vmust
VMD
tp1426
a(Vrespect
VVB
tp1427
a(Vthe
VDT
tp1428
a(Vprinciples
VNNS
tp1429
a(Vof
VIN
tp1430
a(Vdemocracy
VNN
tp1431
a(V,
V,
tp1432
a(Vgood
VJJ
tp1433
a(Vgovernance
VNN
tp1434
a(Vand
VCC
tp1435
a(Vhuman
VJJ
tp1436
a(Vrights
VNNS
tp1437
a(Vin
VIN
tp1438
a(Vtheir
VPRP$
tp1439
a(Vrelations
VNNS
tp1440
a(Vwith
VIN
tp1441
a(VAfrica
VNNP
tp1442
a(V.
V.
tp1443
aa(lp1444
(VI
VPRP
tp1445
a(Vbelieve
VVBP
tp1446
a(Vthat
VIN
tp1447
a(Vincreased
VVBN
tp1448
a(Vtransparency
VNN
tp1449
a(Vis
VVBZ
tp1450
a(Vneeded
VVBN
tp1451
a(V,
V,
tp1452
a(Vparticularly
VRB
tp1453
a(Vin
VIN
tp1454
a(Vthe
VDT
tp1455
a(Vcase
VNN
tp1456
a(Vof
VIN
tp1457
a(Vpension
VNN
tp1458
a(Vfunds
VNNS
tp1459
a(V,
V,
tp1460
a(Vfor
VIN
tp1461
a(Vthem
VPRP
tp1462
a(Vto
VTO
tp1463
a(Vbe
VVB
tp1464
a(Vable
VJJ
tp1465
a(Vto
VTO
tp1466
a(Vaccurately
VRB
tp1467
a(Vassess
VVB
tp1468
a(Vthe
VDT
tp1469
a(Vdegree
VNN
tp1470
a(Vof
VIN
tp1471
a(Vrisk
VNN
tp1472
a(Vof
VIN
tp1473
a(Vvarious
VJJ
tp1474
a(Vinvestments
VNNS
tp1475
a(V.
V.
tp1476
aa(lp1477
(VThe
VDT
tp1478
a(Vtrial
VNN
tp1479
a(Vtook
VVBD
tp1480
a(Vplace
VNN
tp1481
a(Vwithout
VIN
tp1482
a(Vany
VDT
tp1483
a(Vright
VNN
tp1484
a(Vof
VIN
tp1485
a(Vdefence
VNN
tp1486
a(V.
V.
tp1487
aa(lp1488
(VIn
VIN
tp1489
a(Vother
VJJ
tp1490
a(Vregions
VNNS
tp1491
a(V,
V,
tp1492
a(Vwe
VPRP
tp1493
a(Vhave
VVBP
tp1494
a(Vbeen
VVBN
tp1495
a(Vpreparing
VVBG
tp1496
a(Vthe
VDT
tp1497
a(Vinterim
VJJ
tp1498
a(Vagreements
VNNS
tp1499
a(Vfor
VIN
tp1500
a(Vsignature
VNN
tp1501
a(Vand
VCC
tp1502
a(Vhave
VVBP
tp1503
a(Vbeen
VVBN
tp1504
a(Vreflecting
VVBG
tp1505
a(Von
VIN
tp1506
a(Vhow
VWRB
tp1507
a(Vto
VTO
tp1508
a(Vreplace
VVB
tp1509
a(Vthese
VDT
tp1510
a(Vwith
VIN
tp1511
a(Vfull
VJJ
tp1512
a(VEPAs
VNNS
tp1513
a(V.
V.
tp1514
aa(lp1515
(VThese
VDT
tp1516
a(Vacts
VNNS
tp1517
a(Vof
VIN
tp1518
a(Vviolence
VNN
tp1519
a(Vare
VVBP
tp1520
a(Voften
VRB
tp1521
a(Vnever
VRB
tp1522
a(Vexposed
VVBN
tp1523
a(Vand
VCC
tp1524
a(Vsometimes
VRB
tp1525
a(Veven
VRB
tp1526
a(Vend
VVB
tp1527
a(Vin
VIN
tp1528
a(Vthe
VDT
tp1529
a(Vmurder
VNN
tp1530
a(Vof
VIN
tp1531
a(Vthe
VDT
tp1532
a(Vvictim
VNN
tp1533
a(V.
V.
tp1534
aa(lp1535
(VThe
VDT
tp1536
a(Vfinancing
VNN
tp1537
a(Vgoal
VNN
tp1538
a(Vset
VVBN
tp1539
a(Vby
VIN
tp1540
a(Vthe
VDT
tp1541
a(VEuropean
VNNP
tp1542
a(VCommission
VNNP
tp1543
a(Valone
VRB
tp1544
a(Vwould
VMD
tp1545
a(Vbe
VVB
tp1546
a(Vmeaningless
VJJ
tp1547
a(V.
V.
tp1548
aa(lp1549
(VWe
VPRP
tp1550
a(Valso
VRB
tp1551
a(Vneed
VVBP
tp1552
a(Vto
VTO
tp1553
a(Vincrease
VVB
tp1554
a(Vour
VPRP$
tp1555
a(Vreserves
VNNS
tp1556
a(Vof
VIN
tp1557
a(Voil
VNN
tp1558
a(Vand
VCC
tp1559
a(Vnatural
VJJ
tp1560
a(Vgas
VNN
tp1561
a(V.
V.
tp1562
aa(lp1563
(VA
VDT
tp1564
a(Vspeech
VNN
tp1565
a(Vis
VVBZ
tp1566
a(Vnot
VRB
tp1567
a(Vthe
VDT
tp1568
a(Vsame
VJJ
tp1569
a(Vthing
VNN
tp1570
a(Vas
VIN
tp1571
a(Van
VDT
tp1572
a(Vexplanation
VNN
tp1573
a(Vof
VIN
tp1574
a(Vvote
VNN
tp1575
a(V.
V.
tp1576
aa(lp1577
(VThe
VDT
tp1578
a(Vnow
VRB
tp1579
a(Vnotorious
VJJ
tp1580
a(VArticle
VNNP
tp1581
a(V8
VCD
tp1582
a(Vwhich
VWDT
tp1583
a(Vgoverns
VVBZ
tp1584
a(Vfreedom
VNN
tp1585
a(Vof
VIN
tp1586
a(Vexpression
VNN
tp1587
a(V,
V,
tp1588
a(Vor
VCC
tp1589
a(Vto
VTO
tp1590
a(Vbe
VVB
tp1591
a(Vmore
VRBR
tp1592
a(Vprecise
VJJ
tp1593
a(Vthe
VDT
tp1594
a(Vlack
VNN
tp1595
a(Vof
VIN
tp1596
a(Vit
VPRP
tp1597
a(V,
V,
tp1598
a(Vis
VVBZ
tp1599
a(Vstill
VRB
tp1600
a(Vbeing
VVBG
tp1601
a(Vapplied
VVBN
tp1602
a(Vthrough
VIN
tp1603
a(Vother
VJJ
tp1604
a(Varticles
VNNS
tp1605
a(Vof
VIN
tp1606
a(Vthe
VDT
tp1607
a(Vcriminal
VJJ
tp1608
a(Vcode
VNN
tp1609
a(V.
V.
tp1610
aa(lp1611
(VThis
VDT
tp1612
a(Vis
VVBZ
tp1613
a(Vnow
VRB
tp1614
a(VEUR
V$
tp1615
a(V400
VCD
tp1616
a(Vmillion
VCD
tp1617
a(Vsince
VIN
tp1618
a(V2000
VCD
tp1619
a(V,
V,
tp1620
a(Vso
VRB
tp1621
a(Vthis
VDT
tp1622
a(Vis
VVBZ
tp1623
a(Vquite
VRB
tp1624
a(Va
VDT
tp1625
a(Vgood
VJJ
tp1626
a(Vamount
VNN
tp1627
a(V.
V.
tp1628
aa(lp1629
(VInformation
VNN
tp1630
a(Von
VIN
tp1631
a(Vfuel
VNN
tp1632
a(Veconomy
VNN
tp1633
a(Vin
VIN
tp1634
a(Vnew
VJJ
tp1635
a(Vcars
VNNS
tp1636
aa(lp1637
(VOur
VPRP$
tp1638
a(VEuropean
VNNP
tp1639
a(VUnion
VNNP
tp1640
a(Vprojects
VNNS
tp1641
a(Vhave
VVBP
tp1642
a(Vbeen
VVBN
tp1643
a(Vblocked
VVBN
tp1644
a(V.
V.
tp1645
aa(lp1646
(VWe
VPRP
tp1647
a(Vneed
VVBP
tp1648
a(Vbetter
VJJR
tp1649
a(Vand
VCC
tp1650
a(Vmore
VRBR
tp1651
a(Vcoordinated
VVBN
tp1652
a(Venforcement
VNN
tp1653
a(Vto
VTO
tp1654
a(Vclose
VVB
tp1655
a(Vthe
VDT
tp1656
a(Vloopholes
VNNS
tp1657
a(Vor
VCC
tp1658
a(Vgaps
VNNS
tp1659
a(Vwhich
VWDT
tp1660
a(Vare
VVBP
tp1661
a(Vexploited
VVBN
tp1662
a(Vby
VIN
tp1663
a(Vsuch
VJJ
tp1664
a(Vcompanies
VNNS
tp1665
a(V.
V.
tp1666
aa(lp1667
(VAnd
VCC
tp1668
a(Vfor
VIN
tp1669
a(Vmy
VPRP$
tp1670
a(Vsecond
VJJ
tp1671
a(Vquestion
VNN
tp1672
a(V.
V.
tp1673
aa(lp1674
(VSyria
VNNP
tp1675
a(Vmust
VMD
tp1676
a(Vrelease
VVB
tp1677
a(Vthe
VDT
tp1678
a(Vintellectuals
VNNS
tp1679
a(V,
V,
tp1680
a(Vhuman
VJJ
tp1681
a(Vrights
VNNS
tp1682
a(Vdefenders
VNNS
tp1683
a(Vand
VCC
tp1684
a(Vpolitical
VJJ
tp1685
a(Vprisoners
VNNS
tp1686
a(Vthat
VIN
tp1687
a(Vit
VPRP
tp1688
a(Vis
VVBZ
tp1689
a(Vholding
VVBG
tp1690
a(Vin
VIN
tp1691
a(Vits
VPRP$
tp1692
a(Vprisons
VNNS
tp1693
a(V.
V.
tp1694
aa(lp1695
(VThat
VDT
tp1696
a(Vwas
VVBD
tp1697
a(Vthe
VDT
tp1698
a(Vfirst
VJJ
tp1699
a(Vpoint
VNN
tp1700
a(V.
V.
tp1701
aa(lp1702
(VSo
VRB
tp1703
a(Vwhy
VWRB
tp1704
a(Vdoes
VVBZ
tp1705
a(Vit
VPRP
tp1706
a(Vdo
VVB
tp1707
a(Vthis
VDT
tp1708
a(V?
V.
tp1709
aa(lp1710
(VFirst
VNNP
tp1711
a(Vof
VIN
tp1712
a(Vall
VDT
tp1713
a(Vwe
VPRP
tp1714
a(Vhave
VVBP
tp1715
a(Vto
VTO
tp1716
a(Vfind
VVB
tp1717
a(Vand
VCC
tp1718
a(Vcall
VVB
tp1719
a(Vto
VTO
tp1720
a(Vaccount
VVB
tp1721
a(Vthose
VDT
tp1722
a(Vwho
VWP
tp1723
a(Vare
VVBP
tp1724
a(Vguilty
VJJ
tp1725
a(Vof
VIN
tp1726
a(Vthe
VDT
tp1727
a(Vact
VNN
tp1728
a(V.
V.
tp1729
aa(lp1730
(VAnd
VCC
tp1731
a(Vall
VDT
tp1732
a(Vof
VIN
tp1733
a(Vthis
VDT
tp1734
a(Vis
VVBZ
tp1735
a(Vvery
VRB
tp1736
a(Vimportant
VJJ
tp1737
a(V.
V.
tp1738
aa(lp1739
(VA
VDT
tp1740
a(V92
VCD
tp1741
a(Vkm
VNN
tp1742
a(Vsection
VNN
tp1743
a(Vto
VTO
tp1744
a(Vthe
VDT
tp1745
a(Vnorth
VNN
tp1746
a(Vof
VIN
tp1747
a(VBucharest
VNNP
tp1748
a(Vhas
VVBZ
tp1749
a(Valready
VRB
tp1750
a(Vbeen
VVBN
tp1751
a(Vbuilt
VVBN
tp1752
a(V.
V.
tp1753
aa(lp1754
(VThe
VDT
tp1755
a(Vnew
VJJ
tp1756
a(Vworld
VNN
tp1757
a(Vorder
VNN
tp1758
a(Vdoes
VVBZ
tp1759
a(Vnot
VRB
tp1760
a(Vpermit
VVB
tp1761
a(Vnational
VJJ
tp1762
a(Vresistance
VNN
tp1763
a(V.
V.
tp1764
aa(lp1765
(VClogging
VVBG
tp1766
a(Vup
VRP
tp1767
a(Vthe
VDT
tp1768
a(Vfirst
VJJ
tp1769
a(Vsix
VCD
tp1770
a(Vmonths
VNNS
tp1771
a(Vof
VIN
tp1772
a(Vthe
VDT
tp1773
a(Vyear
VNN
tp1774
a(Vis
VVBZ
tp1775
a(Vnot
VRB
tp1776
a(Vits
VPRP$
tp1777
a(Vonly
VJJ
tp1778
a(Vuse
VNN
tp1779
a(V.
V.
tp1780
aa(lp1781
(VNow
VRB
tp1782
a(V,
V,
tp1783
a(Vhowever
VRB
tp1784
a(V,
V,
tp1785
a(Vhe
VPRP
tp1786
a(Vis
VVBZ
tp1787
a(Vto
VTO
tp1788
a(Vgo
VVB
tp1789
a(Vbefore
VIN
tp1790
a(Vthe
VDT
tp1791
a(Vcourts
VNNS
tp1792
a(Vonce
VRB
tp1793
a(Vmore
VRBR
tp1794
a(Vbecause
VIN
tp1795
a(Vthe
VDT
tp1796
a(Vpublic
VJJ
tp1797
a(Vprosecutor
VNN
tp1798
a(Vis
VVBZ
tp1799
a(Vappealing
VVBG
tp1800
a(V.
V.
tp1801
aa(lp1802
(VWe
VPRP
tp1803
a(Vtherefore
VRB
tp1804
a(Vsupport
VVBP
tp1805
a(Vthe
VDT
tp1806
a(Vprinciple
VNN
tp1807
a(Vof
VIN
tp1808
a(Velectronic
VJJ
tp1809
a(Vregistration
VNN
tp1810
a(Vand
VCC
tp1811
a(Vreporting
VNN
tp1812
a(Vof
VIN
tp1813
a(Vfisheries
VNNS
tp1814
a(Vactivities
VNNS
tp1815
a(V.
V.
tp1816
aa.