(lp1
(lp2
(VWith
VIN
tp3
a(Vthis
VDT
tp4
a(Vcompromise
VNN
tp5
a(Vwe
VPRP
tp6
a(Vhave
VVBP
tp7
a(Vsucceeded
VVBN
tp8
a(Vin
VIN
tp9
a(Vstopping
VVBG
tp10
a(Vthe
VDT
tp11
a(Vtrend
VNN
tp12
a(Vin
VIN
tp13
a(Vthe
VDT
tp14
a(Vaviation
VNN
tp15
a(Vsector
VNN
tp16
a(V.
V.
tp17
aa(lp18
(VSimply
VRB
tp19
a(Vimplementing
VVBG
tp20
a(Veffective
VJJ
tp21
a(Vmeasures
VNNS
tp22
a(Von
VIN
tp23
a(Vthis
VDT
tp24
a(Vmatter
VNN
tp25
a(Vwill
VMD
tp26
a(V,
V,
tp27
a(Vof
VIN
tp28
a(Vcourse
VNN
tp29
a(V,
V,
tp30
a(Vbe
VVB
tp31
a(Vinsufficient
VJJ
tp32
a(Vif
VIN
tp33
a(Vthere
VEX
tp34
a(Vis
VVBZ
tp35
a(Vno
VDT
tp36
a(Vinvolvement
VNN
tp37
a(Von
VIN
tp38
a(Vthe
VDT
tp39
a(Vpart
VNN
tp40
a(Vof
VIN
tp41
a(Vconsumers
VNNS
tp42
a(V.
V.
tp43
aa(lp44
(VI
VPRP
tp45
a(Vpersonally
VRB
tp46
a(Vfeel
VVBP
tp47
a(Vthat
VIN
tp48
a(Vyou
VPRP
tp49
a(Vare
VVBP
tp50
a(Vincapable
VJJ
tp51
a(Vof
VIN
tp52
a(Vaccepting
VVBG
tp53
a(Vthe
VDT
tp54
a(Vrules
VNNS
tp55
a(Vof
VIN
tp56
a(Vthe
VDT
tp57
a(Vgame
VNN
tp58
a(Vof
VIN
tp59
a(Vdemocracy
VNN
tp60
a(V.
V.
tp61
aa(lp62
(VFor
VIN
tp63
a(Vsome
VDT
tp64
a(Vof
VIN
tp65
a(Vthem
VPRP
tp66
a(V,
V,
tp67
a(Vin
VIN
tp68
a(Vfact
VNN
tp69
a(V,
V,
tp70
a(Vit
VPRP
tp71
a(Vfelt
VVBD
tp72
a(Vlike
VIN
tp73
a(Vcoming
VVBG
tp74
a(Vhome
VNN
tp75
a(V;
V:
tp76
a(VI
VPRP
tp77
a(Vam
VVBP
tp78
a(Vreminded
VVBN
tp79
a(Vof
VIN
tp80
a(Vthe
VDT
tp81
a(Veerie
VJJ
tp82
a(Vclosing
VNN
tp83
a(Vpages
VNNS
tp84
a(Vof
VIN
tp85
a(VAnimal
VNNP
tp86
a(VFarm
VNNP
tp87
a(V,
V,
tp88
a(Vwhere
VWRB
tp89
a(Vthe
VDT
tp90
a(Vanimals
VNNS
tp91
a(Vlook
VVB
tp92
a(Vfrom
VIN
tp93
a(Vman
VNN
tp94
a(Vto
VTO
tp95
a(Vpig
VNN
tp96
a(Vand
VCC
tp97
a(Vfrom
VIN
tp98
a(Vpig
VNN
tp99
a(Vto
VTO
tp100
a(Vman
VNN
tp101
a(Vand
VCC
tp102
a(Valready
VRB
tp103
a(Vfind
VVB
tp104
a(Vthat
VIN
tp105
a(Vthey
VPRP
tp106
a(Vcannot
VVBP
tp107
a(Vtell
VVB
tp108
a(Vwhich
VWDT
tp109
a(Vis
VVBZ
tp110
a(Vwhich
VWDT
tp111
a(V.
V.
tp112
aa(lp113
(VWe
VPRP
tp114
a(Vin
VIN
tp115
a(Vthe
VDT
tp116
a(VGroup
VNN
tp117
a(Vof
VIN
tp118
a(Vthe
VDT
tp119
a(VEuropean
VJJ
tp120
a(VLiberal
VNNP
tp121
a(V,
V,
tp122
a(VDemocrat
VNNP
tp123
a(Vand
VCC
tp124
a(VReform
VNNP
tp125
a(VParty
VNNP
tp126
a(Vwill
VMD
tp127
a(Vvigorously
VRB
tp128
a(Vcontest
VVB
tp129
a(Vthe
VDT
tp130
a(VResolution
VNN
tp131
a(V.
V.
tp132
aa(lp133
(VI
VPRP
tp134
a(Vcannot
VVBP
tp135
a(Vimagine
VVB
tp136
a(Vcoming
VVBG
tp137
a(Vbefore
VIN
tp138
a(Vyou
VPRP
tp139
a(Vin
VIN
tp140
a(Vany
VDT
tp141
a(Vother
VJJ
tp142
a(Vway
VNN
tp143
a(V.
V.
tp144
aa(lp145
(VThis
VDT
tp146
a(Vdirective
VNN
tp147
a(Vis
VVBZ
tp148
a(Vtwenty
VCD
tp149
a(Vyears
VNNS
tp150
a(Vold
VJJ
tp151
a(V.
V.
tp152
aa(lp153
(VThe
VDT
tp154
a(Vmain
VJJ
tp155
a(Vquestion
VNN
tp156
a(Vremains
VVBZ
tp157
a(V,
V,
tp158
a(Vhowever
VRB
tp159
a(V:
V:
tp160
a(Vhow
VWRB
tp161
a(Vwill
VMD
tp162
a(Vwe
VPRP
tp163
a(Vin
VIN
tp164
a(Vthe
VDT
tp165
a(VEuropean
VNNP
tp166
a(VUnion
VNNP
tp167
a(V,
V,
tp168
a(Vin
VIN
tp169
a(Vthe
VDT
tp170
a(VCommission
VNNP
tp171
a(V,
V,
tp172
a(Vreceive
VVBP
tp173
a(Vthese
VDT
tp174
a(Vproposals
VNNS
tp175
a(V?
V.
tp176
aa(lp177
(VAfter
VIN
tp178
a(Vthe
VDT
tp179
a(Vblock
VNN
tp180
a(Vvote
VNN
tp181
a(Von
VIN
tp182
a(Vthe
VDT
tp183
a(Vcommittee
VNN
tp184
a(Vamendments
VNNS
tp185
a(V:
V:
tp186
aa(lp187
(VWhere
VWRB
tp188
a(Vare
VVBP
tp189
a(Vthese
VDT
tp190
a(Vreserves
VNNS
tp191
a(Vto
VTO
tp192
a(Vcome
VVB
tp193
a(Vfrom
VIN
tp194
a(V?
V.
tp195
aa(lp196
(VWe
VPRP
tp197
a(Vneed
VVBP
tp198
a(Vto
VTO
tp199
a(Vdraw
VVB
tp200
a(Va
VDT
tp201
a(Vdistinction
VNN
tp202
a(Vhere
VRB
tp203
a(Vin
VIN
tp204
a(Vorder
VNN
tp205
a(Vto
VTO
tp206
a(Vbe
VVB
tp207
a(Vfair
VJJ
tp208
a(Vand
VCC
tp209
a(Vhonest
VJJ
tp210
a(V.
V.
tp211
aa(lp212
(VYou
VPRP
tp213
a(Vmust
VMD
tp214
a(Vbe
VVB
tp215
a(Vaware
VJJ
tp216
a(Vof
VIN
tp217
a(Vthe
VDT
tp218
a(VRules
VNNS
tp219
a(Vof
VIN
tp220
a(VProcedure
VNNP
tp221
a(Vand
VCC
tp222
a(Vapply
VVB
tp223
a(Vthem
VPRP
tp224
a(V.
V.
tp225
aa(lp226
(VThere
VEX
tp227
a(Vare
VVBP
tp228
a(VMember
VNNP
tp229
a(VStates
VNNPS
tp230
a(Vin
VIN
tp231
a(Vwhich
VWDT
tp232
a(V90
VCD
tp233
a(V%
VNN
tp234
a(Vof
VIN
tp235
a(Venergy
VNN
tp236
a(Vis
VVBZ
tp237
a(Vsourced
VVBN
tp238
a(Vfrom
VIN
tp239
a(Vcoal
VNN
tp240
a(V.
V.
tp241
aa(lp242
(VIt
VPRP
tp243
a(Vis
VVBZ
tp244
a(Valso
VRB
tp245
a(Vright
VJJ
tp246
a(Vthat
VIN
tp247
a(Vwe
VPRP
tp248
a(Vlook
VVBP
tp249
a(Vat
VIN
tp250
a(Vseasonal
VJJ
tp251
a(Vbathing
VNN
tp252
a(Vand
VCC
tp253
a(Vdo
VVBP
tp254
a(Vnot
VRB
tp255
a(Vtry
VVB
tp256
a(Vto
VTO
tp257
a(Vcover
VVB
tp258
a(Vthe
VDT
tp259
a(Vwhole
VJJ
tp260
a(Vyear
VNN
tp261
a(V.
V.
tp262
aa(lp263
(VWe
VPRP
tp264
a(Vcondemn
VVBP
tp265
a(Vthe
VDT
tp266
a(Vmurder
VNN
tp267
a(Vof
VIN
tp268
a(Vcivilians
VNNS
tp269
a(Vin
VIN
tp270
a(VIsrael
VNNP
tp271
a(Valso
VRB
tp272
a(V,
V,
tp273
a(Vwith
VIN
tp274
a(Vall
VDT
tp275
a(Vour
VPRP$
tp276
a(Vheart
VNN
tp277
a(Vand
VCC
tp278
a(Vsoul
VNN
tp279
a(V.
V.
tp280
aa(lp281
(VThe
VDT
tp282
a(Vvalue
VNN
tp283
a(Vof
VIN
tp284
a(Vthe
VDT
tp285
a(V&apos;
VNN
tp286
a(Vother
VJJ
tp287
a(V&apos;
VNN
tp288
a(Vmust
VMD
tp289
a(Vbe
VVB
tp290
a(Vabsolute
VJJ
tp291
a(V-
V:
tp292
a(Vwithout
VIN
tp293
a(Vobjectification
VNN
tp294
a(V;
V:
tp295
a(Vso
VRB
tp296
a(Vthat
VIN
tp297
a(Veach
VDT
tp298
a(Vparty
VNN
tp299
a(Vis
VVBZ
tp300
a(Vapprehended
VVBN
tp301
a(Vin
VIN
tp302
a(Vthe
VDT
tp303
a(Vfullness
VNN
tp304
a(Vof
VIN
tp305
a(Vtheir
VPRP$
tp306
a(Vbeing
VVBG
tp307
a(V.
V.
tp308
aa(lp309
(VBut
VCC
tp310
a(Vthe
VDT
tp311
a(Vprice
VNN
tp312
a(Vof
VIN
tp313
a(Va
VDT
tp314
a(Vhigher
VJJR
tp315
a(Vlife
VNN
tp316
a(Vexpectancy
VNN
tp317
a(Vis
VVBZ
tp318
a(Vthe
VDT
tp319
a(Vrisk
VNN
tp320
a(Vof
VIN
tp321
a(Vbecoming
VVBG
tp322
a(Vchronically
VRB
tp323
a(Vill
VJJ
tp324
a(Vand
VCC
tp325
a(Vinfirm
VNN
tp326
a(V.
V.
tp327
aa(lp328
(VThese
VDT
tp329
a(Vfigures
VNNS
tp330
a(Vindicate
VVBP
tp331
a(Vthat
VIN
tp332
a(Vpetitions
VNNS
tp333
a(Vplay
VVBP
tp334
a(Van
VDT
tp335
a(Vimportant
VJJ
tp336
a(Vrole
VNN
tp337
a(Vin
VIN
tp338
a(Vthe
VDT
tp339
a(Vdetection
VNN
tp340
a(Vand
VCC
tp341
a(Vhandling
VNN
tp342
a(Vof
VIN
tp343
a(Vinfringement
VNN
tp344
a(Vcases
VNNS
tp345
a(V.
V.
tp346
aa(lp347
(VThe
VDT
tp348
a(Vestablishment
VNN
tp349
a(Vof
VIN
tp350
a(Va
VDT
tp351
a(Vregime
VNN
tp352
a(Vof
VIN
tp353
a(V&apos;
VJJ
tp354
a(Vimitation
VNN
tp355
a(Vdemocracy
VNN
tp356
a(V&apos;
VNN
tp357
a(Vin
VIN
tp358
a(Vtoday
VNN
tp359
a(V&apos;s
VNNS
tp360
a(VRussia
VNNP
tp361
a(Vis
VVBZ
tp362
a(Vconnected
VVBN
tp363
a(Vprecisely
VRB
tp364
a(Vwith
VIN
tp365
a(Vthis
VDT
tp366
a(V.
V.
tp367
aa(lp368
(VIt
VPRP
tp369
a(Vis
VVBZ
tp370
a(Vin
VIN
tp371
a(Va
VDT
tp372
a(Vbetter
VJJR
tp373
a(Vposition
VNN
tp374
a(Vto
VTO
tp375
a(Vwithstand
VVB
tp376
a(Vturbulence
VNN
tp377
a(Vand
VCC
tp378
a(Vcrises
VNNS
tp379
a(Vof
VIN
tp380
a(Vthe
VDT
tp381
a(Vkind
VNN
tp382
a(Vwe
VPRP
tp383
a(Vhave
VVBP
tp384
a(Vbeen
VVBN
tp385
a(Vexperiencing
VVBG
tp386
a(Vin
VIN
tp387
a(Vthe
VDT
tp388
a(Vlast
VJJ
tp389
a(Vfew
VJJ
tp390
a(Vmonths
VNNS
tp391
a(V,
V,
tp392
a(Vand
VCC
tp393
a(Vthanks
VNNS
tp394
a(Vto
VTO
tp395
a(Vthe
VDT
tp396
a(Veuro
VNN
tp397
a(V,
V,
tp398
a(Vwe
VPRP
tp399
a(Vhave
VVBP
tp400
a(Va
VDT
tp401
a(Vmore
VJJR
tp402
a(Vsolid
VJJ
tp403
a(Vfoundation
VNN
tp404
a(Vto
VTO
tp405
a(Vsupport
VVB
tp406
a(Vour
VPRP$
tp407
a(Vgrowth
VNN
tp408
a(Vand
VCC
tp409
a(Vour
VPRP$
tp410
a(Vmodel
VNN
tp411
a(Vof
VIN
tp412
a(Vsocial
VJJ
tp413
a(Vprotection
VNN
tp414
a(Vin
VIN
tp415
a(Vthe
VDT
tp416
a(Vfuture
VNN
tp417
a(V.
V.
tp418
aa(lp419
(VWe
VPRP
tp420
a(Vare
VVBP
tp421
a(Vaware
VJJ
tp422
a(Vof
VIN
tp423
a(Vthe
VDT
tp424
a(Vinvolvement
VNN
tp425
a(Vof
VIN
tp426
a(Vthe
VDT
tp427
a(VBangladeshi
VNNP
tp428
a(Varmy
VNN
tp429
a(Vin
VIN
tp430
a(Vrepressing
VVBG
tp431
a(Vthe
VDT
tp432
a(Vhill
VNN
tp433
a(Vtribes
VNNS
tp434
a(Vin
VIN
tp435
a(Vthe
VDT
tp436
a(VChittagong
VNNP
tp437
a(VHill
VNNP
tp438
a(VTracts
VNNPS
tp439
a(Vand
VCC
tp440
a(Vwe
VPRP
tp441
a(Vare
VVBP
tp442
a(Vconcerned
VVBN
tp443
a(Vabout
VIN
tp444
a(Vthe
VDT
tp445
a(Vfact
VNN
tp446
a(Vthat
VIN
tp447
a(Vthe
VDT
tp448
a(Varmy
VNN
tp449
a(Vis
VVBZ
tp450
a(Vpreventing
VVBG
tp451
a(Vfreedom
VNN
tp452
a(Vof
VIN
tp453
a(Vmovement
VNN
tp454
a(Vand
VCC
tp455
a(Vfreedom
VNN
tp456
a(Vof
VIN
tp457
a(Vpolitical
VJJ
tp458
a(Vand
VCC
tp459
a(Vcultural
VJJ
tp460
a(Vexpression
VNN
tp461
a(V.
V.
tp462
aa(lp463
(VIn
VIN
tp464
a(V1957
VCD
tp465
a(V,
V,
tp466
a(Vthe
VDT
tp467
a(VTreaty
VNNP
tp468
a(Vof
VIN
tp469
a(VRome
VNNP
tp470
a(Vpromised
VVBD
tp471
a(Vthem
VPRP
tp472
a(Vthat
VIN
tp473
a(Vthey
VPRP
tp474
a(Vwould
VMD
tp475
a(Vbe
VVB
tp476
a(Vtreated
VVBN
tp477
a(Vequally
VRB
tp478
a(Vwith
VIN
tp479
a(Vthe
VDT
tp480
a(VMember
VNNP
tp481
a(VStates
VNNPS
tp482
a(Vthemselves
VPRP
tp483
a(V.
V.
tp484
aa(lp485
(VWe
VPRP
tp486
a(Vare
VVBP
tp487
a(Vcalling
VVBG
tp488
a(Vfor
VIN
tp489
a(Va
VDT
tp490
a(Vchange
VNN
tp491
a(Vto
VTO
tp492
a(Vthe
VDT
tp493
a(Vagenda
VNN
tp494
a(V,
V,
tp495
a(Vin
VIN
tp496
a(Vfact
VNN
tp497
a(Vto
VTO
tp498
a(Van
VDT
tp499
a(Vitem
VNN
tp500
a(Vof
VIN
tp501
a(Vthe
VDT
tp502
a(Vagenda
VNN
tp503
a(V.
V.
tp504
aa(lp505
(VPeople
VNNS
tp506
a(Vusually
VRB
tp507
a(Vpresent
VJJ
tp508
a(Vstatistics
VNNS
tp509
a(Vto
VTO
tp510
a(VParliament
VNNP
tp511
a(Vwhich
VWDT
tp512
a(Vare
VVBP
tp513
a(Vbetter
VJJR
tp514
a(Vthan
VIN
tp515
a(Vthe
VDT
tp516
a(Vreality
VNN
tp517
a(V,
V,
tp518
a(Vbut
VCC
tp519
a(V,
V,
tp520
a(Vin
VIN
tp521
a(Vthis
VDT
tp522
a(Vcase
VNN
tp523
a(V,
V,
tp524
a(VI
VPRP
tp525
a(Vhad
VVBD
tp526
a(Vcome
VVBN
tp527
a(Vwith
VIN
tp528
a(Vstatistics
VNNS
tp529
a(Vwhich
VWDT
tp530
a(Vwere
VVBD
tp531
a(Vactually
VRB
tp532
a(Vless
VJJR
tp533
a(Vencouraging
VJJ
tp534
a(V.
V.
tp535
aa(lp536
(VFor
VIN
tp537
a(Vexample
VNN
tp538
a(V,
V,
tp539
a(Vin
VIN
tp540
a(VLatvia
VNNP
tp541
a(V,
V,
tp542
a(Vthere
VEX
tp543
a(Vare
VVBP
tp544
a(Vover
VIN
tp545
a(V200
VCD
tp546
a(V000
VCD
tp547
a(VLatgallians
VNNP
tp548
a(V,
V,
tp549
a(Vwho
VWP
tp550
a(Vcannot
VVBP
tp551
a(Veven
VRB
tp552
a(Vreceive
VVB
tp553
a(Vprimary
VJJ
tp554
a(Veducation
VNN
tp555
a(Vin
VIN
tp556
a(Vthe
VDT
tp557
a(VLatgallian
VJJ
tp558
a(Vlanguage
VNN
tp559
a(V.
V.
tp560
aa(lp561
(VI
VPRP
tp562
a(Vam
VVBP
tp563
a(Vconvinced
VVBN
tp564
a(Vthat
VIN
tp565
a(VGeorgia
VNNP
tp566
a(V&apos;s
VNNS
tp567
a(VEuropean
VJJ
tp568
a(Vaspirations
VNNS
tp569
a(Vwere
VVBD
tp570
a(Vhalf
VNN
tp571
a(Vof
VIN
tp572
a(Vthe
VDT
tp573
a(Vreason
VNN
tp574
a(Vfor
VIN
tp575
a(VRussia
VNNP
tp576
a(V&apos;s
VNNS
tp577
a(Vattack
VNN
tp578
a(V.
V.
tp579
aa(lp580
(VThe
VDT
tp581
a(Vvictim
VNN
tp582
a(Vis
VVBZ
tp583
a(Vforced
VVBN
tp584
a(Vto
VTO
tp585
a(Vhand
VNN
tp586
a(Vover
VIN
tp587
a(Vher
VPRP$
tp588
a(Vearnings
VNNS
tp589
a(Veither
VCC
tp590
a(Vdirectly
VRB
tp591
a(Vor
VCC
tp592
a(Vthrough
VIN
tp593
a(Va
VDT
tp594
a(Vthird
VJJ
tp595
a(Vparty
VNN
tp596
a(V.
V.
tp597
aa(lp598
(VToday
VNN
tp599
a(V,
V,
tp600
a(VEurope
VNNP
tp601
a(Vcan
VMD
tp602
a(Vpropose
VVB
tp603
a(Vthe
VDT
tp604
a(Vprinciples
VNNS
tp605
a(Vand
VCC
tp606
a(Vrules
VNNS
tp607
a(Vthat
VWDT
tp608
a(Vwill
VMD
tp609
a(Vshape
VVB
tp610
a(Va
VDT
tp611
a(Vnew
VJJ
tp612
a(Vglobal
VJJ
tp613
a(Vorder
VNN
tp614
a(V.
V.
tp615
aa(lp616
(VI
VPRP
tp617
a(Vthink
VVBP
tp618
a(Vthat
VIN
tp619
a(Vcreating
VVBG
tp620
a(Va
VDT
tp621
a(Vlong-term
VJJ
tp622
a(Vexpectation
VNN
tp623
a(Vof
VIN
tp624
a(Vintegration
VNN
tp625
a(Vis
VVBZ
tp626
a(Vnot
VRB
tp627
a(Vpositive
VJJ
tp628
a(Veither
VCC
tp629
a(Vfor
VIN
tp630
a(Vthe
VDT
tp631
a(VEU
VNNP
tp632
a(Vor
VCC
tp633
a(Vfor
VIN
tp634
a(VTurkey
VNNP
tp635
a(V.
V.
tp636
aa(lp637
(VWe
VPRP
tp638
a(Vwould
VMD
tp639
a(Vtherefore
VRB
tp640
a(Vlike
VVB
tp641
a(Vthe
VDT
tp642
a(Vtext
VNN
tp643
a(Vadopted
VVBN
tp644
a(Vin
VIN
tp645
a(Vcommittee
VNN
tp646
a(Vto
VTO
tp647
a(Vremain
VVB
tp648
a(Vin
VIN
tp649
a(Vits
VPRP$
tp650
a(Vcurrent
VJJ
tp651
a(Vform
VNN
tp652
a(V.
V.
tp653
aa(lp654
(VWe
VPRP
tp655
a(Vhave
VVBP
tp656
a(Van
VDT
tp657
a(Venormous
VJJ
tp658
a(Vnumber
VNN
tp659
a(Vof
VIN
tp660
a(Vfree
VJJ
tp661
a(Vdays
VNNS
tp662
a(V.
V.
tp663
aa(lp664
(VFrom
VIN
tp665
a(Vnow
VRB
tp666
a(Von
VIN
tp667
a(VI
VPRP
tp668
a(Vwill
VMD
tp669
a(Veschew
VVB
tp670
a(Vgrand
VJJ
tp671
a(Vwords
VNNS
tp672
a(Vand
VCC
tp673
a(Vpathos
VNNS
tp674
a(V.
V.
tp675
aa(lp676
(VIt
VPRP
tp677
a(Vwas
VVBD
tp678
a(Vsome
VDT
tp679
a(Vtwo
VCD
tp680
a(Vyears
VNNS
tp681
a(Vago
VRB
tp682
a(V,
V,
tp683
a(Vin
VIN
tp684
a(Vthe
VDT
tp685
a(Vearly
VJJ
tp686
a(Vmonths
VNNS
tp687
a(Vof
VIN
tp688
a(V1995
VCD
tp689
a(Vthat
VIN
tp690
a(VI
VPRP
tp691
a(Vcollected
VVBD
tp692
a(Vthe
VDT
tp693
a(Vsignatures
VNNS
tp694
a(Vof
VIN
tp695
a(V25
VCD
tp696
a(V%
VNN
tp697
a(Vof
VIN
tp698
a(Vthe
VDT
tp699
a(VMembers
VNNS
tp700
a(Vof
VIN
tp701
a(Vthis
VDT
tp702
a(VHouse
VNNP
tp703
a(Vto
VTO
tp704
a(Vcall
VVB
tp705
a(Vfor
VIN
tp706
a(Va
VDT
tp707
a(VCommittee
VNNP
tp708
a(Vof
VIN
tp709
a(VInquiry
VNNP
tp710
a(Vinto
VIN
tp711
a(Vthe
VDT
tp712
a(Vproblems
VNNS
tp713
a(Vof
VIN
tp714
a(VCommunity
VNNP
tp715
a(Vfraud
VNN
tp716
a(V.
V.
tp717
aa(lp718
(VWhat
VWP
tp719
a(Vis
VVBZ
tp720
a(Vmore
VJJR
tp721
a(V,
V,
tp722
a(Vthe
VDT
tp723
a(Vlabelling
VNN
tp724
a(Vrequirements
VNNS
tp725
a(Vfor
VIN
tp726
a(Vproducts
VNNS
tp727
a(Vcontaining
VVBG
tp728
a(Vthis
VDT
tp729
a(Vadditive
VJJ
tp730
a(Vare
VVBP
tp731
a(Vsaid
VVBN
tp732
a(Vto
VTO
tp733
a(Vhave
VVB
tp734
a(Vbeen
VVBN
tp735
a(Vtightened
VVBN
tp736
a(Vup
VRP
tp737
a(V.
V.
tp738
aa(lp739
(VThat
VDT
tp740
a(Vis
VVBZ
tp741
a(Vwhy
VWRB
tp742
a(VI
VPRP
tp743
a(Vsupported
VVBD
tp744
a(Vthe
VDT
tp745
a(Vamendment
VNN
tp746
a(Vthat
VWDT
tp747
a(Vobliges
VVBZ
tp748
a(Vthe
VDT
tp749
a(Vproducers
VNNS
tp750
a(Vto
VTO
tp751
a(Vprovide
VVB
tp752
a(Vproper
VJJ
tp753
a(Vinformation
VNN
tp754
a(Vfor
VIN
tp755
a(Vthe
VDT
tp756
a(Vpublic
VNN
tp757
a(V.
V.
tp758
aa(lp759
(VThe
VDT
tp760
a(VEuropean
VJJ
tp761
a(VCouncil
VNNP
tp762
a(Vdedicated
VJJ
tp763
a(Vfive
VCD
tp764
a(Vparagraphs
VNNS
tp765
a(Vto
VTO
tp766
a(Vcondemning
VVBG
tp767
a(VIsrael
VNNP
tp768
a(Vfor
VIN
tp769
a(Vthis
VDT
tp770
a(V,
V,
tp771
a(Vbut
VCC
tp772
a(VI
VPRP
tp773
a(Vdo
VVBP
tp774
a(Vnot
VRB
tp775
a(Vrecall
VVB
tp776
a(Vhaving
VVBG
tp777
a(Vread
VVBN
tp778
a(Vanything
VNN
tp779
a(Vin
VIN
tp780
a(Vthe
VDT
tp781
a(Vtext
VNN
tp782
a(Vabout
VIN
tp783
a(Vemploying
VVBG
tp784
a(Vhandicapped
VJJ
tp785
a(Vchildren
VNNS
tp786
a(Vfor
VIN
tp787
a(Vjust
VRB
tp788
a(Va
VDT
tp789
a(Vfew
VJJ
tp790
a(Veuros
VNNS
tp791
a(Vto
VTO
tp792
a(Vturn
VVB
tp793
a(Vthem
VPRP
tp794
a(Vinto
VIN
tp795
a(Vhuman
VJJ
tp796
a(Vbombs
VNNS
tp797
a(Vwith
VIN
tp798
a(V10
VCD
tp799
a(Vkg
VNN
tp800
a(Vof
VIN
tp801
a(Vexplosives
VNNS
tp802
a(V.
V.
tp803
aa(lp804
(VThe
VDT
tp805
a(Vfamily
VNN
tp806
a(Vrecipe
VNN
tp807
a(V,
V,
tp808
a(Vthe
VDT
tp809
a(Vlocal
VJJ
tp810
a(Vflavour
VNN
tp811
a(V,
V,
tp812
a(Vthe
VDT
tp813
a(Vhand-made
VJJ
tp814
a(Vproduct
VNN
tp815
a(V,
V,
tp816
a(Vthe
VDT
tp817
a(Vquality
VNN
tp818
a(Vand
VCC
tp819
a(Vunique
VJJ
tp820
a(Vcharacter
VNN
tp821
a(Vneed
VVB
tp822
a(Vour
VPRP$
tp823
a(Vprotection
VNN
tp824
a(Vto
VTO
tp825
a(Vkeep
VVB
tp826
a(Vour
VPRP$
tp827
a(Vregions
VNNS
tp828
a(Vas
VIN
tp829
a(Vrich
VJJ
tp830
a(Vas
VIN
tp831
a(Vthey
VPRP
tp832
a(Vare
VVBP
tp833
a(Vnow
VRB
tp834
a(V.
V.
tp835
aa(lp836
(VI
VPRP
tp837
a(Vfelt
VVBD
tp838
a(V-
V:
tp839
a(Vand
VCC
tp840
a(Vstill
VRB
tp841
a(Vdo
VVBP
tp842
a(Vtoday
VNN
tp843
a(V-
V:
tp844
a(Vthat
VIN
tp845
a(Vthe
VDT
tp846
a(Vobjectives
VNNS
tp847
a(Vwere
VVBD
tp848
a(Vset
VVBN
tp849
a(Vrather
VRB
tp850
a(Vlow
VJJ
tp851
a(V,
V,
tp852
a(Vbut
VCC
tp853
a(Vwe
VPRP
tp854
a(Vhave
VVBP
tp855
a(Vat
VIN
tp856
a(Vleast
VJJS
tp857
a(Vmade
VVBD
tp858
a(Va
VDT
tp859
a(Vstart
VNN
tp860
a(V.
V.
tp861
aa(lp862
(VThe
VDT
tp863
a(Vfirst
VJJ
tp864
a(Vpoint
VNN
tp865
a(Vconcerns
VVBZ
tp866
a(Vthe
VDT
tp867
a(Vprocedure
VNN
tp868
a(Vfor
VIN
tp869
a(Vrevising
VVBG
tp870
a(Vthe
VDT
tp871
a(Vtreaties
VNNS
tp872
a(V.
V.
tp873
aa(lp874
(VAs
VIN
tp875
a(Vin
VIN
tp876
a(Vthe
VDT
tp877
a(Vpast
VNN
tp878
a(V,
V,
tp879
a(Vthis
VDT
tp880
a(Vis
VVBZ
tp881
a(Vnot
VRB
tp882
a(Van
VDT
tp883
a(V&apos;
VJJ
tp884
a(Veconomic
VJJ
tp885
a(V&apos;
VNN
tp886
a(Vdecision
VNN
tp887
a(V,
V,
tp888
a(Vbut
VCC
tp889
a(Va
VDT
tp890
a(Vpolitical
VJJ
tp891
a(Vone
VCD
tp892
a(V.
V.
tp893
aa(lp894
(VIt
VPRP
tp895
a(Vwas
VVBD
tp896
a(Vnever
VRB
tp897
a(Vimplemented
VVBN
tp898
a(Vbut
VCC
tp899
a(V,
V,
tp900
a(Vdespite
VIN
tp901
a(Vthis
VDT
tp902
a(V,
V,
tp903
a(Vfor
VIN
tp904
a(Va
VDT
tp905
a(Vnumber
VNN
tp906
a(Vof
VIN
tp907
a(Vyears
VNNS
tp908
a(Vit
VPRP
tp909
a(Vwas
VVBD
tp910
a(Vreferred
VVBN
tp911
a(Vto
VTO
tp912
a(Vin
VIN
tp913
a(VCommunity
VNNP
tp914
a(Vbudgets
VNNS
tp915
a(Vas
VIN
tp916
a(Vthe
VDT
tp917
a(Vlegal
VJJ
tp918
a(Vbase
VNN
tp919
a(Vfor
VIN
tp920
a(Vcapital
VNN
tp921
a(Vto
VTO
tp922
a(Vbe
VVB
tp923
a(Vmade
VVBN
tp924
a(Vavailable
VJJ
tp925
a(Vfrom
VIN
tp926
a(Vthe
VDT
tp927
a(VCommunity
VNNP
tp928
a(Vbudget
VNN
tp929
a(Vto
VTO
tp930
a(Vfund
VVB
tp931
a(Vthe
VDT
tp932
a(Vactivities
VNNS
tp933
a(Vof
VIN
tp934
a(Vthis
VDT
tp935
a(VBelgian
VJJ
tp936
a(Vprivate
VJJ
tp937
a(Vlaw
VNN
tp938
a(Vfoundation
VNN
tp939
a(V.
V.
tp940
aa(lp941
(VIt
VPRP
tp942
a(Vwas
VVBD
tp943
a(Vvery
VRB
tp944
a(Vclear
VJJ
tp945
a(V,
V,
tp946
a(Vcolleagues
VNNS
tp947
a(V.
V.
tp948
aa(lp949
(VWe
VPRP
tp950
a(Vare
VVBP
tp951
a(Vconcerned
VVBN
tp952
a(Vthat
VIN
tp953
a(Vthe
VDT
tp954
a(Vart
VNN
tp955
a(Vmarket
VNN
tp956
a(Vmay
VMD
tp957
a(Vmove
VVB
tp958
a(Vto
VTO
tp959
a(VNew
VNNP
tp960
a(VYork
VNNP
tp961
a(Vand
VCC
tp962
a(Vto
VTO
tp963
a(VSwitzerland
VNNP
tp964
a(V.
V.
tp965
aa(lp966
(VThis
VDT
tp967
a(Vis
VVBZ
tp968
a(Vright
VRB
tp969
a(Vfor
VIN
tp970
a(VEurope
VNNP
tp971
a(Vas
VIN
tp972
a(Va
VDT
tp973
a(Vleader
VNN
tp974
a(Vand
VCC
tp975
a(Vinnovator
VNN
tp976
a(Vin
VIN
tp977
a(Vthe
VDT
tp978
a(Vfield
VNN
tp979
a(V,
V,
tp980
a(Vand
VCC
tp981
a(Vit
VPRP
tp982
a(Vis
VVBZ
tp983
a(Vright
VJJ
tp984
a(Vfor
VIN
tp985
a(Vthe
VDT
tp986
a(V3
VCD
tp987
a(Vmillion
VCD
tp988
a(Vpeople
VNNS
tp989
a(Vdying
VVBG
tp990
a(Vof
VIN
tp991
a(VAIDS
VNNP
tp992
a(Vworldwide
VRB
tp993
a(Vto
VTO
tp994
a(Vmake
VVB
tp995
a(Vsure
VJJ
tp996
a(Vthat
VIN
tp997
a(Vthe
VDT
tp998
a(Vmoney
VNN
tp999
a(Vworks
VVBZ
tp1000
a(V.
V.
tp1001
aa(lp1002
(VPrevention
VNNP
tp1003
a(Vdoes
VVBZ
tp1004
a(Vnot
VRB
tp1005
a(Vnecessarily
VRB
tp1006
a(Vmean
VVB
tp1007
a(Vthat
VIN
tp1008
a(Vthe
VDT
tp1009
a(Vmeans
VNNS
tp1010
a(Vfor
VIN
tp1011
a(Vmilitary
VJJ
tp1012
a(Vintervention
VNN
tp1013
a(Vmust
VMD
tp1014
a(Vexist
VVB
tp1015
a(V.
V.
tp1016
aa(lp1017
(VI
VPRP
tp1018
a(Vam
VVBP
tp1019
a(Vsure
VJJ
tp1020
a(Vthat
VIN
tp1021
a(Vhe
VPRP
tp1022
a(Vwould
VMD
tp1023
a(Vhave
VVB
tp1024
a(Vbeen
VVBN
tp1025
a(Vsmiling
VVBG
tp1026
a(Vfrom
VIN
tp1027
a(Vbehind
VIN
tp1028
a(Vthe
VDT
tp1029
a(Vlenses
VNNS
tp1030
a(Vof
VIN
tp1031
a(Vhis
VPRP$
tp1032
a(Vglasses
VNNS
tp1033
a(Vif
VIN
tp1034
a(Vhe
VPRP
tp1035
a(Vhad
VVBD
tp1036
a(Vknown
VVBN
tp1037
a(Vthe
VDT
tp1038
a(Vcontroversy
VNN
tp1039
a(Vand
VCC
tp1040
a(Vthe
VDT
tp1041
a(VEuropeanist
VNN
tp1042
a(Vrevision
VNN
tp1043
a(Vthat
VIN
tp1044
a(Vhis
VPRP$
tp1045
a(Vabsence
VNN
tp1046
a(Vis
VVBZ
tp1047
a(Vcausing
VVBG
tp1048
a(V.
V.
tp1049
aa(lp1050
(VIt
VPRP
tp1051
a(Vis
VVBZ
tp1052
a(Vunfair
VJJ
tp1053
a(V!
V.
tp1054
aa(lp1055
(VYesterday
VNN
tp1056
a(Vthe
VDT
tp1057
a(VEuropean
VNNP
tp1058
a(VParliament
VNNP
tp1059
a(Vadopted
VVBD
tp1060
a(Va
VDT
tp1061
a(Vreport
VNN
tp1062
a(Von
VIN
tp1063
a(Vhow
VWRB
tp1064
a(Vto
VTO
tp1065
a(Vprevent
VVB
tp1066
a(Vsuicide
VNN
tp1067
a(Vamong
VIN
tp1068
a(Vthe
VDT
tp1069
a(VUnion
VNNP
tp1070
a(V&apos;s
VNNS
tp1071
a(Vcitizens
VNNS
tp1072
a(V.
V.
tp1073
aa(lp1074
(VThis
VDT
tp1075
a(Vresolution
VNN
tp1076
a(Vuses
VVBZ
tp1077
a(Vstrongly
VRB
tp1078
a(Vworded
VVBN
tp1079
a(Vlanguage
VNN
tp1080
a(Vand
VCC
tp1081
a(Vcondemns
VVBZ
tp1082
a(Va
VDT
tp1083
a(Vnumber
VNN
tp1084
a(Vof
VIN
tp1085
a(Vcountries
VNNS
tp1086
a(Vwho
VWP
tp1087
a(Vare
VVBP
tp1088
a(Vopenly
VRB
tp1089
a(Vattempting
VVBG
tp1090
a(Vto
VTO
tp1091
a(Vrestrict
VVB
tp1092
a(Vand
VCC
tp1093
a(Vcensor
VVB
tp1094
a(Vinformation
VNN
tp1095
a(Vover
VIN
tp1096
a(Vthe
VDT
tp1097
a(Vweb
VNN
tp1098
a(V,
V,
tp1099
a(Vreferring
VVBG
tp1100
a(Vto
VTO
tp1101
a(Vthem
VPRP
tp1102
a(Vas
VIN
tp1103
a(Venemies
VNNS
tp1104
a(Vof
VIN
tp1105
a(Vfreedom
VNN
tp1106
a(Vof
VIN
tp1107
a(Vexpression
VNN
tp1108
a(V.
V.
tp1109
aa(lp1110
(VAnd
VCC
tp1111
a(Vfor
VIN
tp1112
a(Vme
VPRP
tp1113
a(Vthis
VDT
tp1114
a(Vextra
VJJ
tp1115
a(Vactivity
VNN
tp1116
a(Vmeans
VVBZ
tp1117
a(Vthat
VIN
tp1118
a(Vthings
VNNS
tp1119
a(Vwill
VMD
tp1120
a(V,
V,
tp1121
a(Vat
VIN
tp1122
a(Vlast
VJJ
tp1123
a(V,
V,
tp1124
a(Vhave
VVBP
tp1125
a(Vto
VTO
tp1126
a(Vget
VVB
tp1127
a(Vmoving
VVBG
tp1128
a(Vin
VIN
tp1129
a(Vthe
VDT
tp1130
a(Vtax
VNN
tp1131
a(Vsector
VNN
tp1132
a(V.
V.
tp1133
aa(lp1134
(VThe
VDT
tp1135
a(Vpoint
VNN
tp1136
a(Vis
VVBZ
tp1137
a(Vthat
VIN
tp1138
a(Vcertain
VJJ
tp1139
a(Vcountries
VNNS
tp1140
a(Vvote
VNN
tp1141
a(Vfor
VIN
tp1142
a(VEU
VNNP
tp1143
a(Vlaws
VNNS
tp1144
a(Vand
VCC
tp1145
a(Vthen
VRB
tp1146
a(Vquite
VRB
tp1147
a(Vsimply
VRB
tp1148
a(Vignore
VVB
tp1149
a(Vthem
VPRP
tp1150
a(V.
V.
tp1151
aa(lp1152
(V.
V.
tp1153
a(VMr
VNNP
tp1154
a(VPresident
VNNP
tp1155
a(V,
V,
tp1156
a(Vspeaking
VVBG
tp1157
a(Vas
VIN
tp1158
a(Va
VDT
tp1159
a(Vlongstanding
VJJ
tp1160
a(Vfriend
VNN
tp1161
a(Vof
VIN
tp1162
a(VChile
VNNP
tp1163
a(Vand
VCC
tp1164
a(VPeru
VNNP
tp1165
a(V,
V,
tp1166
a(Vthe
VDT
tp1167
a(VFujimori
VNNP
tp1168
a(Vextradition
VNN
tp1169
a(Vquestion
VNN
tp1170
a(Vis
VVBZ
tp1171
a(Vone
VCD
tp1172
a(Vof
VIN
tp1173
a(Vgreat
VJJ
tp1174
a(Vinterest
VNN
tp1175
a(Vto
VTO
tp1176
a(Vme
VPRP
tp1177
a(V.
V.
tp1178
aa(lp1179
(VThe
VDT
tp1180
a(Vrapporteur
VNN
tp1181
a(Vhas
VVBZ
tp1182
a(Vdone
VVBN
tp1183
a(Vvery
VRB
tp1184
a(Vwell
VRB
tp1185
a(Vgiven
VVBN
tp1186
a(Vthe
VDT
tp1187
a(Vconstraints
VNNS
tp1188
a(Vhe
VPRP
tp1189
a(Vhas
VVBZ
tp1190
a(Vbeen
VVBN
tp1191
a(Vunder
VIN
tp1192
a(Vthis
VDT
tp1193
a(Vyear
VNN
tp1194
a(V.
V.
tp1195
aa(lp1196
(VFine
VNNP
tp1197
a(V,
V,
tp1198
a(Vwe
VPRP
tp1199
a(Vwill
VMD
tp1200
a(Vsort
VVB
tp1201
a(Vit
VPRP
tp1202
a(Vout
VRP
tp1203
a(Vwithout
VIN
tp1204
a(Vyou.&apos;
VNN
tp1205
aa(lp1206
(VThe
VDT
tp1207
a(Vpeople
VNNS
tp1208
a(Vof
VIN
tp1209
a(VEurope
VNNP
tp1210
a(Vdo
VVBP
tp1211
a(Vnot
VRB
tp1212
a(Vneed
VVB
tp1213
a(Va
VDT
tp1214
a(Vconstitution
VNN
tp1215
a(V,
V,
tp1216
a(Vwhich
VWDT
tp1217
a(Vis
VVBZ
tp1218
a(Va
VDT
tp1219
a(Vmatter
VNN
tp1220
a(Vfor
VIN
tp1221
a(Vinstitutions
VNNS
tp1222
a(V.
V.
tp1223
aa(lp1224
(VAnd
VCC
tp1225
a(VWalesa
VNNP
tp1226
a(V,
V,
tp1227
a(Vwho
VWP
tp1228
a(Vwas
VVBD
tp1229
a(Va
VDT
tp1230
a(Vdissident
VNN
tp1231
a(V,
V,
tp1232
a(Valso
VRB
tp1233
a(Vvisited
VVBD
tp1234
a(VParliament
VNNP
tp1235
a(Va
VDT
tp1236
a(Vyear
VNN
tp1237
a(Vlater
VRB
tp1238
a(Vas
VIN
tp1239
a(VPresident
VNNP
tp1240
a(Vof
VIN
tp1241
a(VPoland
VNNP
tp1242
a(V.
V.
tp1243
aa(lp1244
(VMr
VNNP
tp1245
a(VPresident
VNNP
tp1246
a(V,
V,
tp1247
a(Vit
VPRP
tp1248
a(Vis
VVBZ
tp1249
a(Van
VDT
tp1250
a(Vhonour
VNN
tp1251
a(Vfor
VIN
tp1252
a(Va
VDT
tp1253
a(Vsmall
VJJ
tp1254
a(Vgroup
VNN
tp1255
a(Vto
VTO
tp1256
a(Vbe
VVB
tp1257
a(Vallowed
VVBN
tp1258
a(Vto
VTO
tp1259
a(Vopen
VVB
tp1260
a(Vthe
VDT
tp1261
a(Vdance
VNN
tp1262
a(V,
V,
tp1263
a(Vas
VIN
tp1264
a(Vit
VPRP
tp1265
a(Vwere
VVBD
tp1266
a(V,
V,
tp1267
a(Vand
VCC
tp1268
a(VI
VPRP
tp1269
a(Vwould
VMD
tp1270
a(Vlike
VVB
tp1271
a(Vto
VTO
tp1272
a(Vdo
VVB
tp1273
a(Vso
VRB
tp1274
a(Vby
VIN
tp1275
a(Vsaying
VVBG
tp1276
a(Vthat
VDT
tp1277
a(Vwithout
VIN
tp1278
a(Vfreedom
VNN
tp1279
a(Vof
VIN
tp1280
a(Vthe
VDT
tp1281
a(Vpress
VNN
tp1282
a(V,
V,
tp1283
a(Vdemocracy
VNN
tp1284
a(Vcannot
VNN
tp1285
a(Vflourish
VVB
tp1286
a(V.
V.
tp1287
aa(lp1288
(VHow
VWRB
tp1289
a(Vcan
VMD
tp1290
a(VI
VPRP
tp1291
a(Vexplain
VVB
tp1292
a(Vwhy
VWRB
tp1293
a(V?
V.
tp1294
aa(lp1295
(VThe
VDT
tp1296
a(VCommission
VNNP
tp1297
a(Vagrees
VVBZ
tp1298
a(V.
V.
tp1299
aa(lp1300
(VHere
VRB
tp1301
a(Vin
VIN
tp1302
a(Vthis
VDT
tp1303
a(VHouse
VNNP
tp1304
a(V,
V,
tp1305
a(Vwe
VPRP
tp1306
a(Vwill
VMD
tp1307
a(Valso
VRB
tp1308
a(Vhave
VVB
tp1309
a(Vto
VTO
tp1310
a(Vembark
VVB
tp1311
a(Von
VIN
tp1312
a(Vsomething
VNN
tp1313
a(Vof
VIN
tp1314
a(Va
VDT
tp1315
a(Vrethinking
VVBG
tp1316
a(Vprocess
VNN
tp1317
a(V.
V.
tp1318
aa(lp1319
(VThere
VEX
tp1320
a(Vare
VVBP
tp1321
a(Valso
VRB
tp1322
a(Vthose
VDT
tp1323
a(Vwho
VWP
tp1324
a(Vcall
VVBP
tp1325
a(Vthemselves
VPRP
tp1326
a(Vcampaigners
VNNS
tp1327
a(Vfor
VIN
tp1328
a(Vconsumers
VNNS
tp1329
a(V&apos;
VJJ
tp1330
a(Vrights
VNNS
tp1331
a(Vwho
VWP
tp1332
a(Vallow
VVBP
tp1333
a(Vthemselves
VPRP
tp1334
a(Vto
VTO
tp1335
a(Vbe
VVB
tp1336
a(Vengaged
VVBN
tp1337
a(Vin
VIN
tp1338
a(Vthis
VDT
tp1339
a(Vcause
VNN
tp1340
a(Vand
VCC
tp1341
a(Vhelp
VNN
tp1342
a(Vto
VTO
tp1343
a(Vdrive
VVB
tp1344
a(Vcompetitors
VNNS
tp1345
a(Vfrom
VIN
tp1346
a(Vthe
VDT
tp1347
a(Vmarket
VNN
tp1348
a(V.
V.
tp1349
aa(lp1350
(VThe
VDT
tp1351
a(Vvalue
VNN
tp1352
a(Vof
VIN
tp1353
a(Vthe
VDT
tp1354
a(VGraefe
VNNP
tp1355
a(Vzu
VNN
tp1356
a(VBaringdorf
VNN
tp1357
a(Vreport
VNN
tp1358
a(Vthus
VRB
tp1359
a(Vdeserves
VVBZ
tp1360
a(Vrecognition
VNN
tp1361
a(V.
V.
tp1362
aa(lp1363
(VThe
VDT
tp1364
a(VCommission
VNNP
tp1365
a(Vis
VVBZ
tp1366
a(Vseeking
VVBG
tp1367
a(Vto
VTO
tp1368
a(Vchange
VVB
tp1369
a(Vthem
VPRP
tp1370
a(Vformally
VRB
tp1371
a(Vby
VIN
tp1372
a(Vmeans
VNNS
tp1373
a(Vof
VIN
tp1374
a(Vits
VPRP$
tp1375
a(V&apos;
VJJ
tp1376
a(Vomnibus
VNN
tp1377
a(V&apos;
VNN
tp1378
a(Vproposal
VNN
tp1379
a(V.
V.
tp1380
aa(lp1381
(VThe
VDT
tp1382
a(VIsraeli
VJJ
tp1383
a(Vattack
VNN
tp1384
a(Von
VIN
tp1385
a(Vthe
VDT
tp1386
a(Vprison
VNN
tp1387
a(Vin
VIN
tp1388
a(VJericho
VNNP
tp1389
a(Vand
VCC
tp1390
a(Vthe
VDT
tp1391
a(VIsraelis
VNNPS
tp1392
a(V&apos;
VVBD
tp1393
a(Vpublic
VJJ
tp1394
a(Vtreatment
VNN
tp1395
a(Vof
VIN
tp1396
a(Vprison
VNN
tp1397
a(Vguards
VNNS
tp1398
a(Vand
VCC
tp1399
a(Vinmates
VNNS
tp1400
a(Vis
VVBZ
tp1401
a(Vunacceptable
VJJ
tp1402
a(Vand
VCC
tp1403
a(Vshould
VMD
tp1404
a(Vbe
VVB
tp1405
a(Vcondemned
VVBN
tp1406
a(V.
V.
tp1407
aa(lp1408
(VThe
VDT
tp1409
a(Vrecent
VJJ
tp1410
a(Vcoup
VNN
tp1411
a(Vin
VIN
tp1412
a(VMauritania
VNNP
tp1413
a(Vis
VVBZ
tp1414
a(Vdisappointing
VJJ
tp1415
a(V.
V.
tp1416
aa(lp1417
(VIn
VIN
tp1418
a(Vthe
VDT
tp1419
a(Vareas
VNNS
tp1420
a(Vof
VIN
tp1421
a(Vmigration
VNN
tp1422
a(V,
V,
tp1423
a(Vagriculture
VNN
tp1424
a(Vand
VCC
tp1425
a(Vtrade
VNN
tp1426
a(V,
V,
tp1427
a(Vmassive
VJJ
tp1428
a(Vinconsistencies
VNNS
tp1429
a(Vcontinue
VVBP
tp1430
a(Vto
VTO
tp1431
a(Vexist
VVB
tp1432
a(V.
V.
tp1433
aa(lp1434
(VThe
VDT
tp1435
a(Vreality
VNN
tp1436
a(Vis
VVBZ
tp1437
a(Vthat
VIN
tp1438
a(Vhuman
VJJ
tp1439
a(Vrights
VNNS
tp1440
a(Vin
VIN
tp1441
a(VRussia
VNNP
tp1442
a(Vare
VVBP
tp1443
a(Vconstantly
VRB
tp1444
a(Vunder
VIN
tp1445
a(Vpressure
VNN
tp1446
a(Vand
VCC
tp1447
a(Vthe
VDT
tp1448
a(Vstate
VNN
tp1449
a(Vof
VIN
tp1450
a(Vdemocracy
VNN
tp1451
a(Vthere
VEX
tp1452
a(Vis
VVBZ
tp1453
a(Vlamentable
VJJ
tp1454
a(V.
V.
tp1455
aa(lp1456
(VThe
VDT
tp1457
a(Vquestion
VNN
tp1458
a(Vis
VVBZ
tp1459
a(V:
V:
tp1460
a(Vcan
VMD
tp1461
a(Vthis
VDT
tp1462
a(Vsystem
VNN
tp1463
a(Vreally
VRB
tp1464
a(Vguarantee
VVB
tp1465
a(Veffective
VJJ
tp1466
a(Vprotection
VNN
tp1467
a(V?
V.
tp1468
aa(lp1469
(VPeople
VNNS
tp1470
a(Vkeep
VVBP
tp1471
a(Vsaying
VVBG
tp1472
a(Vthings
VNNS
tp1473
a(Vthat
VWDT
tp1474
a(Vno
VRB
tp1475
a(Vlonger
VRB
tp1476
a(Vbear
VVB
tp1477
a(Vany
VDT
tp1478
a(Vrelation
VNN
tp1479
a(Vto
VTO
tp1480
a(Vreality
VNN
tp1481
a(V.
V.
tp1482
aa(lp1483
(VMafia
VNNP
tp1484
a(Vand
VCC
tp1485
a(Vcorruption
VNN
tp1486
a(Vstill
VRB
tp1487
a(Vremain
VVBP
tp1488
a(Va
VDT
tp1489
a(Vcurse
VNN
tp1490
a(V.
V.
tp1491
aa(lp1492
(VWhy
VWRB
tp1493
a(Vare
VVBP
tp1494
a(Vthey
VPRP
tp1495
a(Vimportant
VJJ
tp1496
a(V?
V.
tp1497
aa(lp1498
(VI
VPRP
tp1499
a(Vam
VVBP
tp1500
a(Vcertainly
VRB
tp1501
a(Vnot
VRB
tp1502
a(Vgoing
VVBG
tp1503
a(Vto
VTO
tp1504
a(Vdefend
VVB
tp1505
a(Vthe
VDT
tp1506
a(Vgovernment
VNN
tp1507
a(V,
V,
tp1508
a(Vand
VCC
tp1509
a(VI
VPRP
tp1510
a(Vwill
VMD
tp1511
a(Vnot
VRB
tp1512
a(Vdefend
VVB
tp1513
a(Vthe
VDT
tp1514
a(VItalian
VJJ
tp1515
a(Vcharacter
VNN
tp1516
a(Von
VIN
tp1517
a(Vsomething
VNN
tp1518
a(Vso
VRB
tp1519
a(Vbanal
VJJ
tp1520
a(V.
V.
tp1521
aa(lp1522
(VYet
VCC
tp1523
a(Vthere
VEX
tp1524
a(Vis
VVBZ
tp1525
a(Va
VDT
tp1526
a(Vknock-on
VJJ
tp1527
a(Veffect
VNN
tp1528
a(Von
VIN
tp1529
a(Vthe
VDT
tp1530
a(Vwhole
VJJ
tp1531
a(Vurban
VJJ
tp1532
a(Vpopulation
VNN
tp1533
a(Vas
VIN
tp1534
a(Vpoor
VJJ
tp1535
a(Vquality
VNN
tp1536
a(Vof
VIN
tp1537
a(Vlife
VNN
tp1538
a(V,
V,
tp1539
a(Vhigh
VJJ
tp1540
a(Vcrime
VNN
tp1541
a(Vrates
VNNS
tp1542
a(Vand
VCC
tp1543
a(Vpollution
VNN
tp1544
a(Vdrive
VNN
tp1545
a(Vout
VIN
tp1546
a(Vemployers
VNNS
tp1547
a(Vand
VCC
tp1548
a(Vmake
VVB
tp1549
a(Vlife
VNN
tp1550
a(V,
V,
tp1551
a(Veven
VRB
tp1552
a(Vin
VIN
tp1553
a(Vthe
VDT
tp1554
a(Vmore
VRBR
tp1555
a(Vattractive
VJJ
tp1556
a(Vparts
VNNS
tp1557
a(Vof
VIN
tp1558
a(Vtown
VNN
tp1559
a(V,
V,
tp1560
a(Va
VDT
tp1561
a(Vmisery
VNN
tp1562
a(V.
V.
tp1563
aa(lp1564
(VThere
VEX
tp1565
a(Vhe
VPRP
tp1566
a(Vstood
VVBD
tp1567
a(V,
V,
tp1568
a(Vhumbly
VRB
tp1569
a(V,
V,
tp1570
a(Va
VDT
tp1571
a(VJewish
VJJ
tp1572
a(Vyarmulke
VNN
tp1573
a(Von
VIN
tp1574
a(Vhis
VPRP$
tp1575
a(Vhead
VNN
tp1576
a(V,
V,
tp1577
a(Vin
VIN
tp1578
a(Vfront
VNN
tp1579
a(Vof
VIN
tp1580
a(Vthe
VDT
tp1581
a(Vmonument
VNN
tp1582
a(Vto
VTO
tp1583
a(Vthe
VDT
tp1584
a(V(
VNN
tp1585
a(Vfictitious
VJJ
tp1586
a(V!
V.
tp1587
a(V)
VCD
tp1588
a(Vholocaust
VNN
tp1589
a(Vof
VIN
tp1590
a(Vthe
VDT
tp1591
a(VJews
VNNPS
tp1592
a(V.
V.
tp1593
a(V&quot;
VNN
tp1594
aa(lp1595
(VPalestine
VNNP
tp1596
a(Vis
VVBZ
tp1597
a(Voccupied
VVBN
tp1598
a(V.
V.
tp1599
aa(lp1600
(VIt
VPRP
tp1601
a(Vfurther
VRB
tp1602
a(Vstresses
VVBZ
tp1603
a(Vthat
VIN
tp1604
a(Vrespect
VNN
tp1605
a(Vfor
VIN
tp1606
a(Vinternational
VJJ
tp1607
a(Vhuman
VJJ
tp1608
a(Vrights
VNNS
tp1609
a(Vlaw
VNN
tp1610
a(Vand
VCC
tp1611
a(Vinternational
VJJ
tp1612
a(Vhumanitarian
VJJ
tp1613
a(Vlaw
VNN
tp1614
a(Vby
VIN
tp1615
a(Vall
VDT
tp1616
a(Vparties
VNNS
tp1617
a(Vand
VCC
tp1618
a(Vunder
VIN
tp1619
a(Vall
VDT
tp1620
a(Vcircumstances
VNNS
tp1621
a(Vis
VVBZ
tp1622
a(Van
VDT
tp1623
a(Vessential
VJJ
tp1624
a(Vprecondition
VNN
tp1625
a(Vfor
VIN
tp1626
a(Vachieving
VVBG
tp1627
a(Va
VDT
tp1628
a(Vjust
VRB
tp1629
a(Vand
VCC
tp1630
a(Vlasting
VVBG
tp1631
a(Vpeace
VNN
tp1632
a(Vin
VIN
tp1633
a(Vthe
VDT
tp1634
a(VMiddle
VNNP
tp1635
a(VEast
VNNP
tp1636
a(V.
V.
tp1637
aa(lp1638
(VBudget
VNNP
tp1639
a(Vheading
VVBG
tp1640
a(VA-3021
VNN
tp1641
a(Vbears
VNNS
tp1642
a(Vample
VJJ
tp1643
a(Vwitness
VNN
tp1644
a(Vto
VTO
tp1645
a(Vthis
VDT
tp1646
a(V.
V.
tp1647
aa(lp1648
(VIt
VPRP
tp1649
a(Vshowed
VVBD
tp1650
a(V11
VCD
tp1651
a(V%
VNN
tp1652
a(Vof
VIN
tp1653
a(Vcases
VNNS
tp1654
a(Vare
VVBP
tp1655
a(Vin
VIN
tp1656
a(Vyoung
VJJ
tp1657
a(Vpeople
VNNS
tp1658
a(Vaged
VJJ
tp1659
a(Vbetween
VIN
tp1660
a(V15
VCD
tp1661
a(Vand
VCC
tp1662
a(V24
VCD
tp1663
a(V.
V.
tp1664
aa(lp1665
(VThis
VDT
tp1666
a(Vprocedure
VNN
tp1667
a(Vexplains
VVBZ
tp1668
a(Vthe
VDT
tp1669
a(Vtime
VNN
tp1670
a(Vrequired
VVBN
tp1671
a(Vfor
VIN
tp1672
a(Vregistration
VNN
tp1673
a(Vto
VTO
tp1674
a(Vtake
VVB
tp1675
a(Vplace
VNN
tp1676
a(V.
V.
tp1677
aa(lp1678
(VIt
VPRP
tp1679
a(Vis
VVBZ
tp1680
a(Vwithin
VIN
tp1681
a(Vthe
VDT
tp1682
a(Vfield
VNN
tp1683
a(Vof
VIN
tp1684
a(VSwedish
VJJ
tp1685
a(Venvironmental
VJJ
tp1686
a(Vresearch
VNN
tp1687
a(Vthat
VIN
tp1688
a(Vit
VPRP
tp1689
a(Vhas
VVBZ
tp1690
a(Vbeen
VVBN
tp1691
a(Vestablished
VVBN
tp1692
a(Vthat
VIN
tp1693
a(VdecaBDEs
VNNS
tp1694
a(Vtoo
VRB
tp1695
a(Vare
VVBP
tp1696
a(Vbioaccumulative
VJJ
tp1697
a(V.
V.
tp1698
a(VThe
VDT
tp1699
a(Vwhole
VJJ
tp1700
a(Vgroup
VNN
tp1701
a(Vmust
VMD
tp1702
a(Vtherefore
VRB
tp1703
a(Vbe
VVB
tp1704
a(Vbanned
VVBN
tp1705
a(V.
V.
tp1706
aa(lp1707
(VGlobalisation
VNN
tp1708
a(Vproduces
VVBZ
tp1709
a(Vwinners
VNNS
tp1710
a(Vand
VCC
tp1711
a(Vlosers
VNNS
tp1712
a(V.
V.
tp1713
aa(lp1714
(VAll
VDT
tp1715
a(V&apos;s
VNNS
tp1716
a(Vwell
VRB
tp1717
a(Vthat
VIN
tp1718
a(Vends
VVBZ
tp1719
a(Vwell
VRB
tp1720
a(V,
V,
tp1721
a(Vas
VIN
tp1722
a(Vwe
VPRP
tp1723
a(Vsay
VVBP
tp1724
a(Vin
VIN
tp1725
a(VGermany
VNNP
tp1726
a(V?
V.
tp1727
aa(lp1728
(VNeither
VDT
tp1729
a(Vlanguage
VNN
tp1730
a(Vnor
VCC
tp1731
a(Vthe
VDT
tp1732
a(Vdefence
VNN
tp1733
a(Vof
VIN
tp1734
a(Vlanguage
VNN
tp1735
a(Vcan
VMD
tp1736
a(Vbe
VVB
tp1737
a(Va
VDT
tp1738
a(Vreason
VNN
tp1739
a(Vfor
VIN
tp1740
a(Vdiscrimination
VNN
tp1741
a(V.
V.
tp1742
aa(lp1743
(VThe
VDT
tp1744
a(Vstructure
VNN
tp1745
a(Vis
VVBZ
tp1746
a(Vfragile
VJJ
tp1747
a(V.
V.
tp1748
aa(lp1749
(VEven
VRB
tp1750
a(Vthe
VDT
tp1751
a(Vintroduction
VNN
tp1752
a(Vhas
VVBZ
tp1753
a(Vthe
VDT
tp1754
a(Vtitle
VNN
tp1755
a(V&apos;
VNN
tp1756
a(VA
VDT
tp1757
a(Vnew
VJJ
tp1758
a(Vera
VNN
tp1759
a(V&apos;
VNN
tp1760
a(V.
V.
tp1761
aa(lp1762
(VI
VPRP
tp1763
a(Vcan
VMD
tp1764
a(Vassure
VVB
tp1765
a(Vyou
VPRP
tp1766
a(Vthat
VIN
tp1767
a(VI
VPRP
tp1768
a(Vfor
VIN
tp1769
a(Vone
VCD
tp1770
a(Vwill
VMD
tp1771
a(Vbe
VVB
tp1772
a(Vattending
VVBG
tp1773
a(Vall
VDT
tp1774
a(Vthese
VDT
tp1775
a(Vmeetings
VNNS
tp1776
a(V.
V.
tp1777
aa(lp1778
(VBut
VCC
tp1779
a(VRussia
VNNP
tp1780
a(Vis
VVBZ
tp1781
a(Von
VIN
tp1782
a(Vthe
VDT
tp1783
a(Vroad
VNN
tp1784
a(Vto
VTO
tp1785
a(Vdemocracy
VNN
tp1786
a(V,
V,
tp1787
a(Vand
VCC
tp1788
a(Vwe
VPRP
tp1789
a(Vmust
VMD
tp1790
a(Vsupport
VVB
tp1791
a(Vits
VPRP$
tp1792
a(Vprogress
VNN
tp1793
a(Valong
VIN
tp1794
a(Vthat
VDT
tp1795
a(Vroad
VNN
tp1796
a(V.
V.
tp1797
aa(lp1798
(VThis
VDT
tp1799
a(Villustrates
VVBZ
tp1800
a(Vthe
VDT
tp1801
a(Vfact
VNN
tp1802
a(Vthat
VIN
tp1803
a(Vour
VPRP$
tp1804
a(Vpolicy
VNN
tp1805
a(Vdesigned
VVBN
tp1806
a(Vto
VTO
tp1807
a(Vpromote
VVB
tp1808
a(Vdevelopment
VNN
tp1809
a(Vin
VIN
tp1810
a(Vthe
VDT
tp1811
a(VAfrican
VJJ
tp1812
a(Vcontinent
VNN
tp1813
a(Vhas
VVBZ
tp1814
a(Vso
VRB
tp1815
a(Vfar
VRB
tp1816
a(Vfailed
VVBN
tp1817
a(V.
V.
tp1818
aa(lp1819
(VTen
VCD
tp1820
a(VFrench
VJJ
tp1821
a(Vregions
VNNS
tp1822
a(Vshould
VMD
tp1823
a(Vbenefit
VVB
tp1824
a(Vfrom
VIN
tp1825
a(Vthe
VDT
tp1826
a(Vcreation
VNN
tp1827
a(Vof
VIN
tp1828
a(Vthis
VDT
tp1829
a(Vnew
VJJ
tp1830
a(Vcategory
VNN
tp1831
a(V,
V,
tp1832
a(Vincluding
VVBG
tp1833
a(VNord-Pas-de-Calais
VNNP
tp1834
a(Vand
VCC
tp1835
a(VPicardie
VNNP
tp1836
a(V.
V.
tp1837
aa(lp1838
(VMontenegro
VNNP
tp1839
a(Vmust
VMD
tp1840
a(Vdo
VVB
tp1841
a(Vmore
VRBR
tp1842
a(Vin
VIN
tp1843
a(Vterms
VNNS
tp1844
a(Vof
VIN
tp1845
a(Vfreedom
VNN
tp1846
a(V,
V,
tp1847
a(Vplurality
VNN
tp1848
a(Vand
VCC
tp1849
a(Vprofessionalism
VNN
tp1850
a(Vof
VIN
tp1851
a(Vthe
VDT
tp1852
a(Vmedia
VNNS
tp1853
a(V.
V.
tp1854
aa(lp1855
(Vin
VIN
tp1856
a(Vwriting
VVBG
tp1857
a(V.
V.
tp1858
a(V-
V:
tp1859
a(V(
VCD
tp1860
a(VPL
VNN
tp1861
a(V)
VCD
tp1862
a(VOur
VPRP$
tp1863
a(Vmarkets
VNNS
tp1864
a(Vare
VVBP
tp1865
a(Vbeing
VVBG
tp1866
a(Vflooded
VVBN
tp1867
a(Vby
VIN
tp1868
a(Va
VDT
tp1869
a(Vgrowing
VVBG
tp1870
a(Vnumber
VNN
tp1871
a(Vof
VIN
tp1872
a(Vcounterfeit
VNN
tp1873
a(Vproducts
VNNS
tp1874
a(V.
V.
tp1875
aa(lp1876
(VI
VPRP
tp1877
a(Vam
VVBP
tp1878
a(Vglad
VJJ
tp1879
a(Vthat
VIN
tp1880
a(VI
VPRP
tp1881
a(Vhave
VVBP
tp1882
a(Va
VDT
tp1883
a(Vof
VIN
tp1884
a(Vgood
VJJ
tp1885
a(V,
V,
tp1886
a(Vsensible
VJJ
tp1887
a(V,
V,
tp1888
a(Vrational
VJJ
tp1889
a(VPolish
VJJ
tp1890
a(Vfriends
VNNS
tp1891
a(V,
V,
tp1892
a(Vbecause
VIN
tp1893
a(Vif
VIN
tp1894
a(Vthat
VDT
tp1895
a(Vis
VVBZ
tp1896
a(Vliberal
VJJ
tp1897
a(Vhistory
VNN
tp1898
a(V,
V,
tp1899
a(Vthen
VRB
tp1900
a(Vfor
VIN
tp1901
a(Vgoodness
VNN
tp1902
a(Vsake
VNN
tp1903
a(V,
V,
tp1904
a(VI
VPRP
tp1905
a(Vdo
VVBP
tp1906
a(Vnot
VRB
tp1907
a(Vwant
VVB
tp1908
a(Vto
VTO
tp1909
a(Vsee
VVB
tp1910
a(Vwhat
VWP
tp1911
a(Vright-wing
VJJ
tp1912
a(Vconservativism
VNN
tp1913
a(Vis
VVBZ
tp1914
a(V!
V.
tp1915
aa(lp1916
(VMr
VNNP
tp1917
a(VPresident
VNNP
tp1918
a(V,
V,
tp1919
a(VUzbekistan
VNNP
tp1920
a(Vis
VVBZ
tp1921
a(Vthe
VDT
tp1922
a(Vmost
VRBS
tp1923
a(Vpopulated
VJJ
tp1924
a(Vand
VCC
tp1925
a(Vculturally
VRB
tp1926
a(Vthe
VDT
tp1927
a(Vrichest
VJJS
tp1928
a(Vof
VIN
tp1929
a(Vthe
VDT
tp1930
a(Vfive
VCD
tp1931
a(Vcentral
VJJ
tp1932
a(VAsian
VJJ
tp1933
a(Vpost-Soviet
VJJ
tp1934
a(Vnewly
VRB
tp1935
a(Vindependent
VJJ
tp1936
a(Vstates
VNNS
tp1937
a(V.
V.
tp1938
aa(lp1939
(VI
VPRP
tp1940
a(Vshould
VMD
tp1941
a(Valso
VRB
tp1942
a(Vlike
VVB
tp1943
a(Vto
VTO
tp1944
a(Vremind
VVB
tp1945
a(Vyou
VPRP
tp1946
a(Vthat
VIN
tp1947
a(Vwe
VPRP
tp1948
a(Vused
VVBD
tp1949
a(Vto
VTO
tp1950
a(Vhave
VVB
tp1951
a(Va
VDT
tp1952
a(Vprogramme
VNN
tp1953
a(Vcalled
VVBN
tp1954
a(VTHERMIE
VNNP
tp1955
a(VII
VNNP
tp1956
a(V.
V.
tp1957
aa(lp1958
(V(
VNN
tp1959
a(VFI
VNN
tp1960
a(V)
VCD
tp1961
a(VMr
VNNP
tp1962
a(VPresident
VNNP
tp1963
a(V,
V,
tp1964
a(Vthe
VDT
tp1965
a(Vartist
VNN
tp1966
a(VAi
VNNP
tp1967
a(VWeiwei
VNNP
tp1968
a(V,
V,
tp1969
a(Vwho
VWP
tp1970
a(Vhas
VVBZ
tp1971
a(Vachieved
VVBN
tp1972
a(Vinternational
VJJ
tp1973
a(Vrecognition
VNN
tp1974
a(V,
V,
tp1975
a(Vis
VVBZ
tp1976
a(Vsomeone
VNN
tp1977
a(Vwho
VWP
tp1978
a(Vhas
VVBZ
tp1979
a(Venriched
VVBN
tp1980
a(VChinese
VJJ
tp1981
a(Vculture
VNN
tp1982
a(Vand
VCC
tp1983
a(Vart
VNN
tp1984
a(V.
V.
tp1985
aa(lp1986
(VSubject
VNNP
tp1987
a(V:
V:
tp1988
a(VConsumer
VNNP
tp1989
a(Vprotection
VNN
tp1990
aa(lp1991
(VYou
VPRP
tp1992
a(Vurge
VVBP
tp1993
a(Vcitizens
VNNS
tp1994
a(Vto
VTO
tp1995
a(Vbe
VVB
tp1996
a(V&apos;
VRB
tp1997
a(Vopen
VJJ
tp1998
a(Vto
VTO
tp1999
a(Vchange
VVB
tp2000
a(V&apos;
VNN
tp2001
a(Vwhen
VWRB
tp2002
a(V,
V,
tp2003
a(Vfor
VIN
tp2004
a(Vworkers
VNNS
tp2005
a(V,
V,
tp2006
a(Vchange
VNN
tp2007
a(Vequals
VVBZ
tp2008
a(Vlosing
VVBG
tp2009
a(Vtheir
VPRP$
tp2010
a(Vjobs
VNNS
tp2011
a(Vand
VCC
tp2012
a(Vthe
VDT
tp2013
a(Vcertainty
VNN
tp2014
a(Vthat
VIN
tp2015
a(Vthey
VPRP
tp2016
a(Vwill
VMD
tp2017
a(Vnot
VRB
tp2018
a(Vfind
VVB
tp2019
a(Vnew
VJJ
tp2020
a(Vones
VNNS
tp2021
a(V,
V,
tp2022
a(Vthanks
VNNS
tp2023
a(Vto
VTO
tp2024
a(Vyour
VPRP$
tp2025
a(Vpolicies
VNNS
tp2026
a(V.
V.
tp2027
aa(lp2028
(VMr
VNNP
tp2029
a(VPresident
VNNP
tp2030
a(V,
V,
tp2031
a(Vparagraph
VNN
tp2032
a(V16
VCD
tp2033
a(Vis
VVBZ
tp2034
a(Vimportant
VJJ
tp2035
a(V,
V,
tp2036
a(Vbut
VCC
tp2037
a(Vnot
VRB
tp2038
a(Vcentral
VJJ
tp2039
a(Vto
VTO
tp2040
a(Vthis
VDT
tp2041
a(Vreport
VNN
tp2042
a(V.
V.
tp2043
aa(lp2044
(VOne
VCD
tp2045
a(Vcurrent
VJJ
tp2046
a(Vexample
VNN
tp2047
a(Vof
VIN
tp2048
a(Vthis
VDT
tp2049
a(Vcan
VMD
tp2050
a(Vbe
VVB
tp2051
a(Vfound
VVBN
tp2052
a(Vin
VIN
tp2053
a(Vthe
VDT
tp2054
a(VGerman
VJJ
tp2055
a(Vcommercial
VJJ
tp2056
a(Vcleaning
VNN
tp2057
a(Vindustry
VNN
tp2058
a(Vwhere
VWRB
tp2059
a(Vworkers
VNNS
tp2060
a(Vhave
VVBP
tp2061
a(Vbeen
VVBN
tp2062
a(Von
VIN
tp2063
a(Vstrike
VNN
tp2064
a(Vfor
VIN
tp2065
a(Vthree
VCD
tp2066
a(Vdays
VNNS
tp2067
a(V.
V.
tp2068
aa(lp2069
(VI
VPRP
tp2070
a(Vdo
VVBP
tp2071
a(Vnot
VRB
tp2072
a(Vbelieve
VVB
tp2073
a(Vthat
VIN
tp2074
a(Vit
VPRP
tp2075
a(Vis
VVBZ
tp2076
a(Vsensible
VJJ
tp2077
a(Vto
VTO
tp2078
a(Vprovide
VVB
tp2079
a(Vfor
VIN
tp2080
a(Vthe
VDT
tp2081
a(Vreduction
VNN
tp2082
a(Vto
VTO
tp2083
a(V24
VCD
tp2084
a(Vmonths
VNNS
tp2085
a(Vof
VIN
tp2086
a(Vthe
VDT
tp2087
a(Vage
VNN
tp2088
a(Vat
VIN
tp2089
a(Vwhich
VWDT
tp2090
a(Vtests
VNNS
tp2091
a(Vare
VVBP
tp2092
a(Vcarried
VVBN
tp2093
a(Vout
VRP
tp2094
a(V.
V.
tp2095
aa.