(lp1
(lp2
(VExplain
VVB
tp3
a(Vabbreviations
VNNS
tp4
a(Vthat
VIN
tp5
a(Vyou
VPRP
tp6
a(Vuse
VVBP
tp7
a(Vin
VIN
tp8
a(Vwhat
VWP
tp9
a(Vyou
VPRP
tp10
a(Vsay
VVBP
tp11
a(V.
V.
tp12
aa(lp13
(V(
VNN
tp14
a(VPL
VNN
tp15
a(V)
VCD
tp16
a(VIn
VIN
tp17
a(Vview
VNN
tp18
a(Vof
VIN
tp19
a(Vthe
VDT
tp20
a(Vserious
VJJ
tp21
a(Vnature
VNN
tp22
a(Vof
VIN
tp23
a(Vthe
VDT
tp24
a(Vdemographic
VJJ
tp25
a(Vproblem
VNN
tp26
a(Vfacing
VVBG
tp27
a(VEurope
VNNP
tp28
a(V,
V,
tp29
a(Vit
VPRP
tp30
a(Vis
VVBZ
tp31
a(Ventirely
VRB
tp32
a(Vappropriate
VJJ
tp33
a(Vfor
VIN
tp34
a(VParliament
VNNP
tp35
a(Vand
VCC
tp36
a(Vthe
VDT
tp37
a(VCommission
VNNP
tp38
a(Vto
VTO
tp39
a(Vhave
VVB
tp40
a(Vdevoted
VVBN
tp41
a(Vtime
VNN
tp42
a(Vto
VTO
tp43
a(Vit
VPRP
tp44
a(V.
V.
tp45
aa(lp46
(VThailand
VNNP
tp47
a(Vhosts
VNNS
tp48
a(Vapproximately
VRB
tp49
a(V140
VCD
tp50
a(V000
VCD
tp51
a(Vrefugees
VNNS
tp52
a(Vin
VIN
tp53
a(Vnine
VCD
tp54
a(Vcamps
VNNS
tp55
a(Valong
VIN
tp56
a(Vthe
VDT
tp57
a(Vborder
VNN
tp58
a(V.
V.
tp59
aa(lp60
(VWe
VPRP
tp61
a(Vagree
VVBP
tp62
a(Von
VIN
tp63
a(Vthe
VDT
tp64
a(Vobjectives
VNNS
tp65
a(V,
V,
tp66
a(Vjust
VRB
tp67
a(Vas
VIN
tp68
a(Vwe
VPRP
tp69
a(Vagreed
VVBD
tp70
a(Von
VIN
tp71
a(Vthe
VDT
tp72
a(VLisbon
VNNP
tp73
a(VStrategy
VNNP
tp74
a(V.
V.
tp75
aa(lp76
(VThey
VPRP
tp77
a(Vwill
VMD
tp78
a(Vsuffer
VVB
tp79
a(Vthrough
VIN
tp80
a(Vill-considered
VJJ
tp81
a(Vso-called
VJJ
tp82
a(Vreforms
VNNS
tp83
a(V.
V.
tp84
aa(lp85
(VIt
VPRP
tp86
a(Vis
VVBZ
tp87
a(Vtherefore
VRB
tp88
a(Vright
VJJ
tp89
a(Vto
VTO
tp90
a(Vlook
VVB
tp91
a(Vfor
VIN
tp92
a(Vways
VNNS
tp93
a(Vto
VTO
tp94
a(Vcounter
VVB
tp95
a(Vthis
VDT
tp96
a(Vunfavourable
VJJ
tp97
a(Veconomic
VJJ
tp98
a(Vdevelopment
VNN
tp99
a(V.
V.
tp100
aa(lp101
(VIt
VPRP
tp102
a(Vis
VVBZ
tp103
a(Vnot
VRB
tp104
a(Va
VDT
tp105
a(Vserious
VJJ
tp106
a(Vone
VCD
tp107
a(V,
V,
tp108
a(Vbut
VCC
tp109
a(Vmy
VPRP$
tp110
a(Vgovernment
VNN
tp111
a(Vmembers
VNNS
tp112
a(Vstill
VRB
tp113
a(Vdo
VVBP
tp114
a(Vnot
VRB
tp115
a(Vknow
VVB
tp116
a(Vhow
VWRB
tp117
a(Vto
VTO
tp118
a(Vkeep
VVB
tp119
a(Vto
VTO
tp120
a(Vthe
VDT
tp121
a(Vroad
VNN
tp122
a(Vwhen
VWRB
tp123
a(Vthere
VEX
tp124
a(Vis
VVBZ
tp125
a(Vblack
VJJ
tp126
a(Vice
VNN
tp127
a(V.
V.
tp128
aa(lp129
(VI
VPRP
tp130
a(Vno
VRB
tp131
a(Vlonger
VRBR
tp132
a(Vwant
VVB
tp133
a(Vthat
VDT
tp134
a(Vstate
VNN
tp135
a(Vof
VIN
tp136
a(Vaffairs
VNNS
tp137
a(Vto
VTO
tp138
a(Vbe
VVB
tp139
a(Vtolerated
VVBN
tp140
a(V,
V,
tp141
a(Vsince
VIN
tp142
a(Vit
VPRP
tp143
a(Vreally
VRB
tp144
a(Vis
VVBZ
tp145
a(Vtoo
VRB
tp146
a(Veasy
VJJ
tp147
a(Vto
VTO
tp148
a(Vsay
VVB
tp149
a(Vto
VTO
tp150
a(Vsomeone
VNN
tp151
a(V,
V,
tp152
a(V&apos;
VVB
tp153
a(Vyou
VPRP
tp154
a(Vare
VVBP
tp155
a(Vnot
VRB
tp156
a(Vdoing
VVBG
tp157
a(Venough
VRB
tp158
a(V,
V,
tp159
a(Vyou
VPRP
tp160
a(Vhave
VVBP
tp161
a(Vto
VTO
tp162
a(Vorganise
VVB
tp163
a(Vcoordination
VNN
tp164
a(Vwith
VIN
tp165
a(Vour
VPRP$
tp166
a(Vpartner
VNN
tp167
a(V,
V,
tp168
a(Vthat
VWDT
tp169
a(Vis
VVBZ
tp170
a(Vto
VTO
tp171
a(Vsay
VVB
tp172
a(V,
V,
tp173
a(Vwith
VIN
tp174
a(Vthe
VDT
tp175
a(VUnited
VNNP
tp176
a(VStates.&apos;
VNNP
tp177
aa(lp178
(VIt
VPRP
tp179
a(Vis
VVBZ
tp180
a(Vevident
VJJ
tp181
a(Vthat
VIN
tp182
a(Vnot
VRB
tp183
a(Vonly
VRB
tp184
a(Vmust
VMD
tp185
a(Vwe
VPRP
tp186
a(Vdisagree
VVB
tp187
a(Vwith
VIN
tp188
a(Vbut
VCC
tp189
a(Vwe
VPRP
tp190
a(Vmust
VMD
tp191
a(Valso
VRB
tp192
a(Vcondemn
VVB
tp193
a(Vsuch
VJJ
tp194
a(Vdevelopments
VNNS
tp195
a(V.
V.
tp196
aa(lp197
(VA
VDT
tp198
a(Vfew
VJJ
tp199
a(Vyears
VNNS
tp200
a(Vago
VRB
tp201
a(V,
V,
tp202
a(Vthe
VDT
tp203
a(Vmagazine
VNN
tp204
a(V&apos;
VJJ
tp205
a(VNature
VNN
tp206
a(V&apos;
VNN
tp207
a(Vfeatured
VVBD
tp208
a(Va
VDT
tp209
a(Vstudy
VNN
tp210
a(Vinto
VIN
tp211
a(Va
VDT
tp212
a(VPeruvian
VJJ
tp213
a(Vforest
VNN
tp214
a(Vand
VCC
tp215
a(Vthe
VDT
tp216
a(Vbest
VJJS
tp217
a(Vway
VNN
tp218
a(Vto
VTO
tp219
a(Vexploit
VVB
tp220
a(Vit
VPRP
tp221
a(V.
V.
tp222
aa(lp223
(VI
VPRP
tp224
a(Vhave
VVBP
tp225
a(Vcome
VVBN
tp226
a(Vacross
VIN
tp227
a(Va
VDT
tp228
a(Vfile
VNN
tp229
a(Vof
VIN
tp230
a(Va
VDT
tp231
a(Vdetainee
VNN
tp232
a(Vwho
VWP
tp233
a(Vdied
VVBD
tp234
a(Vduring
VIN
tp235
a(Vinterrogation
VNN
tp236
a(Vbecause
VIN
tp237
a(Vof
VIN
tp238
a(Vwaterboarding
VNN
tp239
a(Vin
VIN
tp240
a(Vboiling
VJJ
tp241
a(Vwater
VNN
tp242
a(V&apos;
VNN
tp243
a(V.
V.
tp244
aa(lp245
(VIt
VPRP
tp246
a(Vwould
VMD
tp247
a(Vappear
VVB
tp248
a(Vthat
VIN
tp249
a(Vthis
VDT
tp250
a(Vyear
VNN
tp251
a(V&apos;s
VVBZ
tp252
a(Vconciliation
VNN
tp253
a(Vbetween
VIN
tp254
a(VParliament
VNNP
tp255
a(Vand
VCC
tp256
a(Vthe
VDT
tp257
a(VCouncil
VNNP
tp258
a(Vwill
VMD
tp259
a(Vbe
VVB
tp260
a(Veven
VRB
tp261
a(Vmore
VRBR
tp262
a(Vchallenging
VJJ
tp263
a(Vthan
VIN
tp264
a(Vwas
VVBD
tp265
a(Vthe
VDT
tp266
a(Vcase
VNN
tp267
a(Vin
VIN
tp268
a(V2010
VCD
tp269
a(V.
V.
tp270
aa(lp271
(VCaptain
VNNP
tp272
a(VDaniel
VNNP
tp273
a(VAmbrozi\u0144ski
VNNP
tp274
a(Vof
VIN
tp275
a(Vthe
VDT
tp276
a(VPolish
VJJ
tp277
a(VArmed
VNNP
tp278
a(VForces
VNNP
tp279
a(Vlost
VVBD
tp280
a(Vhis
VPRP$
tp281
a(Vlife
VNN
tp282
a(Vrecently
VRB
tp283
a(Vin
VIN
tp284
a(VAfghanistan
VNNP
tp285
a(V.
V.
tp286
aa(lp287
(VHere
VRB
tp288
a(Vare
VVBP
tp289
a(Vsome
VDT
tp290
a(Vmore
VJJR
tp291
a(Vimages
VNNS
tp292
a(V.
V.
tp293
aa(lp294
(VHowever
VRB
tp295
a(V,
V,
tp296
a(Vnone
VNN
tp297
a(Vof
VIN
tp298
a(Vthis
VDT
tp299
a(Vhas
VVBZ
tp300
a(Vso
VRB
tp301
a(Vfar
VRB
tp302
a(Vresulted
VVBD
tp303
a(Vin
VIN
tp304
a(Vthe
VDT
tp305
a(Vanticipated
VJJ
tp306
a(Voutcome
VNN
tp307
a(V.
V.
tp308
aa(lp309
(VThe
VDT
tp310
a(Vapproach
VNN
tp311
a(Vbased
VVBN
tp312
a(Von
VIN
tp313
a(Vquantities
VNNS
tp314
a(Vproduced
VVBD
tp315
a(V/
V:
tp316
a(Vimported
VVBN
tp317
a(Vwill
VMD
tp318
a(Vlead
VVB
tp319
a(Vto
VTO
tp320
a(Vless
VJJR
tp321
a(Vof
VIN
tp322
a(Van
VDT
tp323
a(Vadministrative
VJJ
tp324
a(Vand
VCC
tp325
a(Vfinancial
VJJ
tp326
a(Vburden
VNN
tp327
a(Vfor
VIN
tp328
a(VSMEs
VNNS
tp329
a(V.
V.
tp330
aa(lp331
(VHowever
VRB
tp332
a(V,
V,
tp333
a(Vin
VIN
tp334
a(Vyour
VPRP$
tp335
a(Vreply
VNN
tp336
a(Vyou
VPRP
tp337
a(Vsay
VVBP
tp338
a(Vthat
VIN
tp339
a(Vno
VDT
tp340
a(Vformal
VJJ
tp341
a(Vrequest
VNN
tp342
a(Vhas
VVBZ
tp343
a(Vbeen
VVBN
tp344
a(Vreceived
VVBN
tp345
a(Vfrom
VIN
tp346
a(Veither
VDT
tp347
a(Vcountry
VNN
tp348
a(V.
V.
tp349
aa(lp350
(VThe
VDT
tp351
a(VEFSA
VNN
tp352
a(Vexperts
VNNS
tp353
a(Vthen
VRB
tp354
a(Vasked
VVBD
tp355
a(Vfor
VIN
tp356
a(Va
VDT
tp357
a(Vrepeat
VNN
tp358
a(Vof
VIN
tp359
a(Vthe
VDT
tp360
a(Vtrial
VNN
tp361
a(Von
VIN
tp362
a(Vrats
VNNS
tp363
a(V.
V.
tp364
aa(lp365
(VThis
VDT
tp366
a(Vis
VVBZ
tp367
a(Vone
VCD
tp368
a(Vof
VIN
tp369
a(Vthe
VDT
tp370
a(Vmost
VRBS
tp371
a(Vimportant
VJJ
tp372
a(Vpolitical
VJJ
tp373
a(Vevents
VNNS
tp374
a(Vthat
VWDT
tp375
a(Vhave
VVBP
tp376
a(Vhappened
VVBN
tp377
a(Vin
VIN
tp378
a(VAfrica
VNNP
tp379
a(Vduring
VIN
tp380
a(Vthe
VDT
tp381
a(Vlast
VJJ
tp382
a(Vtwenty
VCD
tp383
a(Vyears
VNNS
tp384
a(V,
V,
tp385
a(Vbecause
VIN
tp386
a(Vit
VPRP
tp387
a(Vis
VVBZ
tp388
a(Vdestined
VVBN
tp389
a(Vto
VTO
tp390
a(Vchange
VVB
tp391
a(Vthe
VDT
tp392
a(Vgeopolitical
VJJ
tp393
a(Vbalance
VNN
tp394
a(Vof
VIN
tp395
a(Vthe
VDT
tp396
a(Ventire
VJJ
tp397
a(VAfrican
VJJ
tp398
a(Vcontinent
VNN
tp399
a(V.
V.
tp400
aa(lp401
(VWhy
VWRB
tp402
a(Vis
VVBZ
tp403
a(Vthe
VDT
tp404
a(Vhuman
VJJ
tp405
a(Vdevelopment
VNN
tp406
a(Vgap
VNN
tp407
a(Vstill
VRB
tp408
a(Vso
VRB
tp409
a(Vgreat
VJJ
tp410
a(V?
V.
tp411
aa(lp412
(VWe
VPRP
tp413
a(Vdo
VVBP
tp414
a(Vnot
VRB
tp415
a(Vneed
VVB
tp416
a(Vto
VTO
tp417
a(Vfix
VVB
tp418
a(Vthe
VDT
tp419
a(Vdate
VNN
tp420
a(Vand
VCC
tp421
a(Vtime
VNN
tp422
a(Vnow
VRB
tp423
a(V;
V:
tp424
a(Vwe
VPRP
tp425
a(Vhope
VVBP
tp426
a(Vto
VTO
tp427
a(Vhave
VVB
tp428
a(Vmore
VJJR
tp429
a(Vdetails
VNNS
tp430
a(Vby
VIN
tp431
a(VThursday
VNNP
tp432
a(Vto
VTO
tp433
a(Vconsider
VVB
tp434
a(Vthe
VDT
tp435
a(Vinclusion
VNN
tp436
a(V.
V.
tp437
aa(lp438
(VEuropean
VJJ
tp439
a(Vships
VNNS
tp440
a(Vfish
VRB
tp441
a(Vthere
VRB
tp442
a(Vfor
VIN
tp443
a(Vfish
VNN
tp444
a(Vspecies
VNNS
tp445
a(Vthat
VWDT
tp446
a(Vare
VVBP
tp447
a(Vused
VVBN
tp448
a(Vby
VIN
tp449
a(Vthe
VDT
tp450
a(Vlocal
VJJ
tp451
a(Vfishermen
VNNS
tp452
a(V.
V.
tp453
aa(lp454
(VIn
VIN
tp455
a(Vevery
VDT
tp456
a(Vcountry
VNN
tp457
a(Vin
VIN
tp458
a(VEurope
VNNP
tp459
a(V,
V,
tp460
a(Vunemployment
VNN
tp461
a(Vhas
VVBZ
tp462
a(Vgrown
VVBN
tp463
a(Vby
VIN
tp464
a(Vleaps
VNNS
tp465
a(Vand
VCC
tp466
a(Vbounds
VNNS
tp467
a(V.
V.
tp468
aa(lp469
(VI
VPRP
tp470
a(Vam
VVBP
tp471
a(Vtold
VVBN
tp472
a(VI
VPRP
tp473
a(Vdo
VVBP
tp474
a(Vnot
VRB
tp475
a(Vlike
VVB
tp476
a(Vfootball
VNN
tp477
a(V:
V:
tp478
a(VI
VPRP
tp479
a(Vam
VVBP
tp480
a(Va
VDT
tp481
a(VManchester
VNNP
tp482
a(VCity
VNNP
tp483
a(Vseason-ticket
VJJ
tp484
a(Vholder
VNN
tp485
a(V.
V.
tp486
aa(lp487
(VAviation
VNNP
tp488
a(Vcan
VMD
tp489
a(Vbe
VVB
tp490
a(Vdivided
VVBN
tp491
a(Vinto
VIN
tp492
a(Vdomestic
VJJ
tp493
a(Vflights
VNNS
tp494
a(Vand
VCC
tp495
a(Vinternational
VJJ
tp496
a(Vflights
VNNS
tp497
a(V.
V.
tp498
aa(lp499
(VNext
VRB
tp500
a(Vwill
VMD
tp501
a(Vbe
VVB
tp502
a(VSyria
VNNP
tp503
a(V,
V,
tp504
a(VIran
VNNP
tp505
a(V,
V,
tp506
a(VKorea
VNNP
tp507
a(V,
V,
tp508
a(Vwho
VWP
tp509
a(Vknows
VVBZ
tp510
a(V?
V.
tp511
aa(lp512
(VLast
VJJ
tp513
a(Vbut
VCC
tp514
a(Vnot
VRB
tp515
a(Vleast
VJJS
tp516
a(V,
V,
tp517
a(VI
VPRP
tp518
a(Vshould
VMD
tp519
a(Vmention
VVB
tp520
a(Vthat
VIN
tp521
a(Vin
VIN
tp522
a(Vthe
VDT
tp523
a(VEU
VNNP
tp524
a(V,
V,
tp525
a(Vthere
VEX
tp526
a(Vis
VVBZ
tp527
a(Van
VDT
tp528
a(Vextreme
VJJ
tp529
a(Vimbalance
VNN
tp530
a(Vin
VIN
tp531
a(Vterms
VNNS
tp532
a(Vof
VIN
tp533
a(Vfinancial
VJJ
tp534
a(Vallocation
VNN
tp535
a(V,
V,
tp536
a(Vwith
VIN
tp537
a(Vthe
VDT
tp538
a(Vresults
VNNS
tp539
a(Vindicating
VVBG
tp540
a(Vthat
VIN
tp541
a(Vthe
VDT
tp542
a(Vold
VJJ
tp543
a(VMember
VNNP
tp544
a(VStates
VNNPS
tp545
a(Vabsorb
VVB
tp546
a(Vthe
VDT
tp547
a(Vmajority
VNN
tp548
a(Vof
VIN
tp549
a(Vthe
VDT
tp550
a(Vfinancial
VJJ
tp551
a(Vresources
VNNS
tp552
a(V.
V.
tp553
aa(lp554
(VIncreasing
VVBG
tp555
a(Vpenal
VJJ
tp556
a(Vsanctions
VNNS
tp557
a(Vagainst
VIN
tp558
a(Vcounterfeiting
VNN
tp559
a(Vof
VIN
tp560
a(Vthe
VDT
tp561
a(Veuro
VNN
tp562
aa(lp563
(VAn
VDT
tp564
a(Vindustry
VNN
tp565
a(Valready
VRB
tp566
a(Vin
VIN
tp567
a(Vcrisis
VNN
tp568
a(Vlosing
VVBG
tp569
a(V40
VCD
tp570
a(V%
VNN
tp571
a(Vof
VIN
tp572
a(Vits
VPRP$
tp573
a(Vcapacity
VNN
tp574
a(Vis
VVBZ
tp575
a(Vin
VIN
tp576
a(Vdanger
VNN
tp577
a(Vof
VIN
tp578
a(Vtotal
VJJ
tp579
a(Vcollapse
VNN
tp580
a(V.
V.
tp581
aa(lp582
(VYes
VUH
tp583
a(V,
V,
tp584
a(Vof
VIN
tp585
a(Vcourse
VNN
tp586
a(Vit
VPRP
tp587
a(Vis
VVBZ
tp588
a(V.
V.
tp589
aa(lp590
(VMr
VNNP
tp591
a(VPresident
VNNP
tp592
a(V,
V,
tp593
a(Vladies
VNNS
tp594
a(Vand
VCC
tp595
a(Vgentlemen
VNNS
tp596
a(V,
V,
tp597
a(Vfinally
VRB
tp598
a(Vthere
VEX
tp599
a(Vis
VVBZ
tp600
a(Vmovement
VNN
tp601
a(Vin
VIN
tp602
a(Vthis
VDT
tp603
a(Vdebate
VNN
tp604
a(V.
V.
tp605
aa(lp606
(VLast
VJJ
tp607
a(Vmonth
VNN
tp608
a(V,
V,
tp609
a(Vit
VPRP
tp610
a(Vbecame
VVBD
tp611
a(Vknown
VVBN
tp612
a(Vthat
VIN
tp613
a(VAIDS
VNN
tp614
a(Vhas
VVBZ
tp615
a(Vclaimed
VVBN
tp616
a(Vfive
VCD
tp617
a(Vmillion
VCD
tp618
a(Vcasualties
VNNS
tp619
a(Vover
VIN
tp620
a(Vthe
VDT
tp621
a(Vpast
VJJ
tp622
a(Vyear
VNN
tp623
a(V.
V.
tp624
aa(lp625
(VI
VPRP
tp626
a(Vthought
VVBD
tp627
a(Vthat
VIN
tp628
a(Vtime
VNN
tp629
a(Vhad
VVBD
tp630
a(Vpassed
VVBN
tp631
a(Vand
VCC
tp632
a(VI
VPRP
tp633
a(Vwould
VMD
tp634
a(Vnever
VRB
tp635
a(Vhave
VVB
tp636
a(Vto
VTO
tp637
a(Vdo
VVB
tp638
a(Vso
VRB
tp639
a(Vagain
VRB
tp640
a(V.
V.
tp641
aa(lp642
(VWe
VPRP
tp643
a(Vneed
VVBP
tp644
a(Vto
VTO
tp645
a(Vbe
VVB
tp646
a(Vable
VJJ
tp647
a(Vto
VTO
tp648
a(Vsupply
VVB
tp649
a(Vvery
VRB
tp650
a(Vrapidly
VRB
tp651
a(Van
VDT
tp652
a(Vemergency
VNN
tp653
a(Vinfrastructure
VNN
tp654
a(V.
V.
tp655
aa(lp656
(VThe
VDT
tp657
a(Vcaricatural
VJJ
tp658
a(Vexample
VNN
tp659
a(Vis
VVBZ
tp660
a(Vof
VIN
tp661
a(Vcourse
VNN
tp662
a(Vmy
VPRP$
tp663
a(Vcountry
VNN
tp664
a(V&apos;s
VNNS
tp665
a(Vattitude
VNN
tp666
a(Vto
VTO
tp667
a(Vthe
VDT
tp668
a(VNetherlands
VNNP
tp669
a(Vwhich
VWDT
tp670
a(V,
V,
tp671
a(Vfundamentally
VRB
tp672
a(V-
V:
tp673
a(Vnamely
VRB
tp674
a(Vfor
VIN
tp675
a(Vhaving
VVBG
tp676
a(Vadopted
VVBN
tp677
a(Vpractices
VNNS
tp678
a(Vprotecting
VVBG
tp679
a(Vusers
VNNS
tp680
a(Vof
VIN
tp681
a(Vhard
VJJ
tp682
a(Vdrugs
VNNS
tp683
a(Vfrom
VIN
tp684
a(VHIV
VNN
tp685
a(Vinfection
VNN
tp686
a(V-
V:
tp687
a(Vis
VVBZ
tp688
a(Va
VDT
tp689
a(Vgood
VJJ
tp690
a(Vexample
VNN
tp691
a(Vto
VTO
tp692
a(Vat
VIN
tp693
a(Vleast
VJJS
tp694
a(Vlisten
VVB
tp695
a(Vto
VTO
tp696
a(Vand
VCC
tp697
a(Vto
VTO
tp698
a(Vtake
VVB
tp699
a(Von
VRP
tp700
a(Vboard
VNN
tp701
a(V.
V.
tp702
aa(lp703
(VUnfortunately
VRB
tp704
a(V,
V,
tp705
a(Vthis
VDT
tp706
a(Vcost
VNN
tp707
a(Vhim
VPRP
tp708
a(Vhis
VPRP$
tp709
a(Vlife
VNN
tp710
a(V.
V.
tp711
aa(lp712
(VCities
VNNS
tp713
a(Vface
VVBP
tp714
a(Va
VDT
tp715
a(Vrange
VNN
tp716
a(Vof
VIN
tp717
a(Vproblems
VNNS
tp718
a(V.
V.
tp719
aa(lp720
(VOn
VIN
tp721
a(Va
VDT
tp722
a(Vpersonal
VJJ
tp723
a(Vlevel
VNN
tp724
a(V,
V,
tp725
a(VI
VPRP
tp726
a(Vhold
VVBP
tp727
a(Vyou
VPRP
tp728
a(Vin
VIN
tp729
a(Vhigh
VJJ
tp730
a(Vesteem
VNN
tp731
a(Vand
VCC
tp732
a(VI
VPRP
tp733
a(Vhave
VVBP
tp734
a(Vread
VVBN
tp735
a(Vall
VDT
tp736
a(Vyour
VPRP$
tp737
a(Vbooks
VNNS
tp738
a(V.
V.
tp739
aa(lp740
(V&quot;
VJJ
tp741
a(VWe
VPRP
tp742
a(Vfully
VRB
tp743
a(Vsubscribe
VVBP
tp744
a(Vto
VTO
tp745
a(Vthe
VDT
tp746
a(Vinternational
VJJ
tp747
a(Vagreements
VNNS
tp748
a(Vto
VTO
tp749
a(Vprotect
VVB
tp750
a(Vminorities
VNNS
tp751
a(Vand
VCC
tp752
a(Vminority
VNN
tp753
a(Vlanguages
VNNS
tp754
a(V.
V.
tp755
aa(lp756
(VI
VPRP
tp757
a(Valso
VRB
tp758
a(Vbelieve
VVBP
tp759
a(Vit
VPRP
tp760
a(Vwould
VMD
tp761
a(Vbe
VVB
tp762
a(Vwrong
VJJ
tp763
a(Vto
VTO
tp764
a(Vthink
VVB
tp765
a(Vthat
VIN
tp766
a(Vthe
VDT
tp767
a(Vfocus
VNN
tp768
a(Vof
VIN
tp769
a(Vthe
VDT
tp770
a(Vwar
VNN
tp771
a(Vagainst
VIN
tp772
a(Vthese
VDT
tp773
a(Vnew
VJJ
tp774
a(Vthreats
VNNS
tp775
a(Vshould
VMD
tp776
a(Vbe
VVB
tp777
a(Vstrictly
VRB
tp778
a(Vmilitary
VJJ
tp779
a(V.
V.
tp780
aa(lp781
(VConsumers
VNNS
tp782
a(Vare
VVBP
tp783
a(Vtreated
VVBN
tp784
a(Vlike
VIN
tp785
a(Vignorant
VJJ
tp786
a(V,
V,
tp787
a(Vuninformed
VJJ
tp788
a(Vchildren
VNNS
tp789
a(V.
V.
tp790
aa(lp791
(VIf
VIN
tp792
a(Vnecessary
VJJ
tp793
a(V,
V,
tp794
a(Vthe
VDT
tp795
a(VProsecutor
VNNP
tp796
a(Vof
VIN
tp797
a(Vthe
VDT
tp798
a(VInternational
VNNP
tp799
a(VCriminal
VNNP
tp800
a(VCourt
VNNP
tp801
a(Vwill
VMD
tp802
a(Vhave
VVB
tp803
a(Vto
VTO
tp804
a(Vcarry
VVB
tp805
a(Vout
VRP
tp806
a(Vthe
VDT
tp807
a(Vinvestigations
VNNS
tp808
a(Von
VIN
tp809
a(Vthe
VDT
tp810
a(Vbasis
VNN
tp811
a(Vof
VIN
tp812
a(VArticle
VNNP
tp813
a(V12
VCD
tp814
a(V(
VCD
tp815
a(V3
VCD
tp816
a(V)
VNN
tp817
a(Vof
VIN
tp818
a(Vthe
VDT
tp819
a(VRome
VNNP
tp820
a(VStatute
VNNP
tp821
a(V.
V.
tp822
aa(lp823
(VSince
VIN
tp824
a(Vthe
VDT
tp825
a(Vbeginning
VNN
tp826
a(V,
V,
tp827
a(Vthey
VPRP
tp828
a(Vhave
VVBP
tp829
a(Vthemselves
VPRP
tp830
a(Vsettled
VVBD
tp831
a(Vthe
VDT
tp832
a(Vcomplaint
VNN
tp833
a(Vto
VTO
tp834
a(Vthe
VDT
tp835
a(Vsatisfaction
VNN
tp836
a(Vof
VIN
tp837
a(Vthe
VDT
tp838
a(Vcomplainant
VNN
tp839
a(Vin
VIN
tp840
a(Vover
VIN
tp841
a(V180
VCD
tp842
a(Vcases
VNNS
tp843
a(V.
V.
tp844
aa(lp845
(VRecently
VRB
tp846
a(Vwe
VPRP
tp847
a(Vhave
VVBP
tp848
a(V,
V,
tp849
a(Vfrom
VIN
tp850
a(Vtime
VNN
tp851
a(Vto
VTO
tp852
a(Vtime
VNN
tp853
a(V,
V,
tp854
a(Vwitnessed
VVBD
tp855
a(Vintergovernmental
VJJ
tp856
a(Vdrift
VNN
tp857
a(V.
V.
tp858
aa(lp859
(VIt
VPRP
tp860
a(Vdoes
VVBZ
tp861
a(Vnot
VRB
tp862
a(Vhave
VVB
tp863
a(Vto
VTO
tp864
a(Vbe
VVB
tp865
a(Vlike
VIN
tp866
a(Vthis
VDT
tp867
a(V,
V,
tp868
a(Vhowever
VRB
tp869
a(V.
V.
tp870
aa(lp871
(VFor
VIN
tp872
a(Vexample
VNN
tp873
a(V,
V,
tp874
a(Vconcerning
VVBG
tp875
a(Vthe
VDT
tp876
a(Vright
VNN
tp877
a(Vof
VIN
tp878
a(Vresidence
VNN
tp879
a(V,
V,
tp880
a(Vthe
VDT
tp881
a(Vresidence
VNN
tp882
a(Vpermit
VNN
tp883
a(Vis
VVBZ
tp884
a(Vbeing
VVBG
tp885
a(Vreplaced
VVBN
tp886
a(Vby
VIN
tp887
a(Va
VDT
tp888
a(Vsimple
VJJ
tp889
a(Vregistration
VNN
tp890
a(V.
V.
tp891
aa(lp892
(VThere
VEX
tp893
a(Vis
VVBZ
tp894
a(Vnow
VRB
tp895
a(Va
VDT
tp896
a(Vsound
VJJ
tp897
a(Vcompromise
VNN
tp898
a(Vproposal
VNN
tp899
a(Vbefore
VIN
tp900
a(Vus
VPRP
tp901
a(Vby
VIN
tp902
a(VParliament
VNNP
tp903
a(V,
V,
tp904
a(Valso
VRB
tp905
a(Vaccommodating
VVBG
tp906
a(Vthe
VDT
tp907
a(VCouncil
VNNP
tp908
a(V.
V.
tp909
aa(lp910
(VAll
VDT
tp911
a(Vcompanies
VNNS
tp912
a(Vabiding
VVBG
tp913
a(Vby
VIN
tp914
a(Vthis
VDT
tp915
a(Vcode
VNN
tp916
a(Vshould
VMD
tp917
a(Vbe
VVB
tp918
a(Vlisted
VVBN
tp919
a(Vby
VIN
tp920
a(Vname
VNN
tp921
a(Vin
VIN
tp922
a(Vthe
VDT
tp923
a(VEU
VNNP
tp924
a(V&apos;s
VNNS
tp925
a(VOfficial
VNNP
tp926
a(VJournal
VNNP
tp927
a(V.
V.
tp928
aa(lp929
(VLast
VJJ
tp930
a(VFriday
VNNP
tp931
a(V,
V,
tp932
a(V13
VCD
tp933
a(VDecember
VNNP
tp934
a(V,
V,
tp935
a(VI
VPRP
tp936
a(Vwent
VVBD
tp937
a(Vto
VTO
tp938
a(Vthe
VDT
tp939
a(Vcinema
VNN
tp940
a(Vto
VTO
tp941
a(Vsee
VVB
tp942
a(VRoman
VJJ
tp943
a(VPolanski
VNNP
tp944
a(V&apos;s
VNNS
tp945
a(Vfilm
VNN
tp946
a(V,
V,
tp947
a(V&apos;
VJJ
tp948
a(VThe
VDT
tp949
a(VPianist
VNN
tp950
a(V&apos;
VNN
tp951
a(V,
V,
tp952
a(Vthe
VDT
tp953
a(Vstory
VNN
tp954
a(Vof
VIN
tp955
a(Va
VDT
tp956
a(VJewish
VJJ
tp957
a(Vmusician
VNN
tp958
a(Vfrom
VIN
tp959
a(VWarsaw
VNNP
tp960
a(Vwho
VWP
tp961
a(Vsurvived
VVBD
tp962
a(Vthe
VDT
tp963
a(VSecond
VJJ
tp964
a(VWorld
VNNP
tp965
a(VWar
VNNP
tp966
a(Vin
VIN
tp967
a(Va
VDT
tp968
a(Vmiraculous
VJJ
tp969
a(Vway
VNN
tp970
a(V.
V.
tp971
aa(lp972
(VSupport
VNN
tp973
a(Vfor
VIN
tp974
a(Vit
VPRP
tp975
a(Vwould
VMD
tp976
a(Vtherefore
VRB
tp977
a(Vdamage
VVB
tp978
a(Vthe
VDT
tp979
a(Vtrust
VNN
tp980
a(Vand
VCC
tp981
a(Vcredibility
VNN
tp982
a(Vthe
VDT
tp983
a(VEU
VNNP
tp984
a(Vhas
VVBZ
tp985
a(Vearned
VVBN
tp986
a(Vwith
VIN
tp987
a(Vits
VPRP$
tp988
a(Vprojects
VNNS
tp989
a(Vand
VCC
tp990
a(Vin
VIN
tp991
a(Vits
VPRP$
tp992
a(Vrelations
VNNS
tp993
a(Vwith
VIN
tp994
a(Vlocal
VJJ
tp995
a(Vcommunities
VNNS
tp996
a(V.
V.
tp997
aa(lp998
(VOperators
VNNP
tp999
a(Vcannot
VNN
tp1000
a(Vresist
VVB
tp1001
a(Vthese
VDT
tp1002
a(Vproducts
VNNS
tp1003
a(Von
VIN
tp1004
a(Vthe
VDT
tp1005
a(Vgrounds
VNNS
tp1006
a(Vthat
VIN
tp1007
a(Vtheir
VPRP$
tp1008
a(Vnetworks
VNNS
tp1009
a(Vare
VVBP
tp1010
a(Vnot
VRB
tp1011
a(Vup
VRB
tp1012
a(Vto
VTO
tp1013
a(Vit
VPRP
tp1014
a(V.
V.
tp1015
aa(lp1016
(VThis
VDT
tp1017
a(Vcorridor
VNN
tp1018
a(V,
V,
tp1019
a(Vtoday
VNN
tp1020
a(V,
V,
tp1021
a(Vis
VVBZ
tp1022
a(Vmore
VJJR
tp1023
a(Vthan
VIN
tp1024
a(Va
VDT
tp1025
a(Vsymbol
VNN
tp1026
a(V,
V,
tp1027
a(Vit
VPRP
tp1028
a(Vis
VVBZ
tp1029
a(Va
VDT
tp1030
a(Vreality
VNN
tp1031
a(V,
V,
tp1032
a(Vfragile
VJJ
tp1033
a(Vbut
VCC
tp1034
a(Vtangible
VJJ
tp1035
a(V.
V.
tp1036
aa(lp1037
(VEurope
VNNP
tp1038
a(Vneeds
VVBZ
tp1039
a(Vclear
VJJ
tp1040
a(Vleadership
VNN
tp1041
a(Vand
VCC
tp1042
a(Van
VDT
tp1043
a(VEU
VNNP
tp1044
a(Vthat
VWDT
tp1045
a(Vis
VVBZ
tp1046
a(Vboth
VDT
tp1047
a(Vvisible
VJJ
tp1048
a(Vand
VCC
tp1049
a(Vthere
VEX
tp1050
a(Vfor
VIN
tp1051
a(Vthe
VDT
tp1052
a(Vpeople
VNNS
tp1053
a(Vof
VIN
tp1054
a(VEurope
VNNP
tp1055
a(Vin
VIN
tp1056
a(Vhard
VJJ
tp1057
a(Vtimes
VNNS
tp1058
a(Vas
VRB
tp1059
a(Vwell
VRB
tp1060
a(Vas
VIN
tp1061
a(Vgood
VJJ
tp1062
a(Vones
VNNS
tp1063
a(V.
V.
tp1064
aa(lp1065
(VThis
VDT
tp1066
a(Vreport
VNN
tp1067
a(Vis
VVBZ
tp1068
a(Vintended
VVBN
tp1069
a(Vto
VTO
tp1070
a(Vbring
VVB
tp1071
a(Vthat
VDT
tp1072
a(Vone
VCD
tp1073
a(Vsmall
VJJ
tp1074
a(Vstep
VNN
tp1075
a(Vcloser
VRBR
tp1076
a(V.
V.
tp1077
aa(lp1078
(VThe
VDT
tp1079
a(VTorry
VNNP
tp1080
a(VInstitute
VNNP
tp1081
a(Vis
VVBZ
tp1082
a(Va
VDT
tp1083
a(Vvery
VRB
tp1084
a(Vgood
VJJ
tp1085
a(Vone
VCD
tp1086
a(V.
V.
tp1087
aa(lp1088
(VPaca
VNNP
tp1089
a(V,
V,
tp1090
a(VI
VPRP
tp1091
a(Vam
VVBP
tp1092
a(Vso
VRB
tp1093
a(Vglad
VJJ
tp1094
a(Vto
VTO
tp1095
a(Vsee
VVB
tp1096
a(Vthat
VIN
tp1097
a(Vyou
VPRP
tp1098
a(Vare
VVBP
tp1099
a(Vable
VJJ
tp1100
a(Vto
VTO
tp1101
a(Vbe
VVB
tp1102
a(Vhere
VRB
tp1103
a(Vagain
VRB
tp1104
a(Vtoday
VNN
tp1105
a(Vand
VCC
tp1106
a(Vto
VTO
tp1107
a(Vtake
VVB
tp1108
a(Vpart
VNN
tp1109
a(Vin
VIN
tp1110
a(Vthe
VDT
tp1111
a(Vdebate
VNN
tp1112
a(Von
VIN
tp1113
a(Vyour
VPRP$
tp1114
a(Vreport
VNN
tp1115
a(V.
V.
tp1116
aa(lp1117
(VLet
VVB
tp1118
a(Vus
VPRP
tp1119
a(Vmake
VVB
tp1120
a(Vcomparisons
VNNS
tp1121
a(Vwhich
VWDT
tp1122
a(Vmake
VVBP
tp1123
a(Vsense
VNN
tp1124
a(V.
V.
tp1125
aa(lp1126
(VIn
VIN
tp1127
a(Vsuch
VJJ
tp1128
a(Vcases
VNNS
tp1129
a(Vwe
VPRP
tp1130
a(Vmust
VMD
tp1131
a(Vfind
VVB
tp1132
a(Vsolutions
VNNS
tp1133
a(Vthat
VWDT
tp1134
a(Vbenefit
VVBP
tp1135
a(Vboth
VDT
tp1136
a(Vsides
VNNS
tp1137
a(Vand
VCC
tp1138
a(Vopen
VVB
tp1139
a(Vup
VRP
tp1140
a(Vthe
VDT
tp1141
a(Vway
VNN
tp1142
a(Vahead
VRB
tp1143
a(V.
V.
tp1144
aa(lp1145
(VHowever
VRB
tp1146
a(V,
V,
tp1147
a(Vwe
VPRP
tp1148
a(Vall
VDT
tp1149
a(Valso
VRB
tp1150
a(Vknow
VVBP
tp1151
a(Vthat
VIN
tp1152
a(Vthere
VEX
tp1153
a(Vare
VVBP
tp1154
a(Vwinners
VNNS
tp1155
a(Vand
VCC
tp1156
a(Vlosers
VNNS
tp1157
a(Vin
VIN
tp1158
a(Vthese
VDT
tp1159
a(Vagreements
VNNS
tp1160
a(V,
V,
tp1161
a(Vand
VCC
tp1162
a(Vthe
VDT
tp1163
a(Voutermost
VNN
tp1164
a(Vregions
VNNS
tp1165
a(Vare
VVBP
tp1166
a(Vthe
VDT
tp1167
a(Vclear
VJJ
tp1168
a(Vlosers
VNNS
tp1169
a(Vin
VIN
tp1170
a(Vthese
VDT
tp1171
a(Vagreements
VNNS
tp1172
a(Vin
VIN
tp1173
a(Vparticular
VJJ
tp1174
a(V,
V,
tp1175
a(Vand
VCC
tp1176
a(Vare
VVBP
tp1177
a(Vdamaged
VVBN
tp1178
a(Vby
VIN
tp1179
a(Vthem
VPRP
tp1180
a(V.
V.
tp1181
aa(lp1182
(VOf
VIN
tp1183
a(Vcourse
VNN
tp1184
a(Vthat
VWDT
tp1185
a(Valways
VRB
tp1186
a(Vdepends
VVBZ
tp1187
a(Von
VIN
tp1188
a(Vwhether
VIN
tp1189
a(Vthe
VDT
tp1190
a(VIraqis
VNNPS
tp1191
a(Vwant
VVBP
tp1192
a(Vus
VPRP
tp1193
a(Vto
VTO
tp1194
a(Vhelp
VVB
tp1195
a(V.
V.
tp1196
aa(lp1197
(VLet
VVB
tp1198
a(Vus
VPRP
tp1199
a(Vrecognise
VVB
tp1200
a(Vthat
VIN
tp1201
a(Vthe
VDT
tp1202
a(Vonly
VJJ
tp1203
a(Vfishery
VNN
tp1204
a(Vmanagement
VNN
tp1205
a(Vschemes
VNNS
tp1206
a(Vthat
VWDT
tp1207
a(Vwork
VVBP
tp1208
a(Varound
VIN
tp1209
a(Vthe
VDT
tp1210
a(Vworld
VNN
tp1211
a(Vare
VVBP
tp1212
a(Vthe
VDT
tp1213
a(Vones
VNNS
tp1214
a(Vwith
VIN
tp1215
a(Vnational
VJJ
tp1216
a(Vcontrol
VNN
tp1217
a(V.
V.
tp1218
aa(lp1219
(VThis
VDT
tp1220
a(Vtherefore
VRB
tp1221
a(Vacknowledges
VVBZ
tp1222
a(Va
VDT
tp1223
a(Vdifferentiation
VNN
tp1224
a(Vbased
VVBN
tp1225
a(Von
VIN
tp1226
a(Vthe
VDT
tp1227
a(Vstate
VNN
tp1228
a(Vof
VIN
tp1229
a(Vpreparation
VNN
tp1230
a(Vof
VIN
tp1231
a(Vapplicant
VNN
tp1232
a(Vstates
VNNS
tp1233
a(V.
V.
tp1234
aa(lp1235
(VThe
VDT
tp1236
a(Vclimate
VNN
tp1237
a(Vpolicy
VNN
tp1238
a(Vcan
VMD
tp1239
a(Vrely
VVB
tp1240
a(Von
VIN
tp1241
a(Vimmense
VJJ
tp1242
a(Vsupport
VNN
tp1243
a(Vin
VIN
tp1244
a(VEurope
VNNP
tp1245
a(V.
V.
tp1246
aa(lp1247
(VFrom
VIN
tp1248
a(Vthose
VDT
tp1249
a(Vsame
VJJ
tp1250
a(Vpulpits
VNNS
tp1251
a(Vnow
VRB
tp1252
a(Vcomes
VVBZ
tp1253
a(Vthe
VDT
tp1254
a(Vargument
VNN
tp1255
a(V,
V,
tp1256
a(Vfor
VIN
tp1257
a(Vexample
VNN
tp1258
a(V,
V,
tp1259
a(Von
VIN
tp1260
a(Vhelicopters
VNNS
tp1261
a(V:
V:
tp1262
a(Vmuch
VJJ
tp1263
a(Vis
VVBZ
tp1264
a(Vsaid
VVBN
tp1265
a(Vabout
VIN
tp1266
a(VAgusta
VNNP
tp1267
a(Vbut
VCC
tp1268
a(Vwe
VPRP
tp1269
a(Vnever
VRB
tp1270
a(Vhear
VVBP
tp1271
a(Vabout
VIN
tp1272
a(VWestland
VNNP
tp1273
a(V,
V,
tp1274
a(Vfor
VIN
tp1275
a(Vexample
VNN
tp1276
a(V.
V.
tp1277
aa(lp1278
(VUnfortunately
VRB
tp1279
a(Vmatters
VNNS
tp1280
a(Vare
VVBP
tp1281
a(Vnot
VRB
tp1282
a(Vso
VRB
tp1283
a(Vsimple
VJJ
tp1284
a(V.
V.
tp1285
aa(lp1286
(VDo
VVBP
tp1287
a(Vyou
VPRP
tp1288
a(Vregard
VVB
tp1289
a(Vthe
VDT
tp1290
a(Vadmission
VNN
tp1291
a(Vof
VIN
tp1292
a(VTurkey
VNNP
tp1293
a(Vinto
VIN
tp1294
a(Vthe
VDT
tp1295
a(VEuropean
VNNP
tp1296
a(VUnion
VNNP
tp1297
a(Vas
VIN
tp1298
a(Vbeing
VVBG
tp1299
a(Vfully
VRB
tp1300
a(Vcompatible
VJJ
tp1301
a(Vwith
VIN
tp1302
a(Vthe
VDT
tp1303
a(Vcommon
VJJ
tp1304
a(VEuropean
VJJ
tp1305
a(Vculture
VNN
tp1306
a(Vto
VTO
tp1307
a(Vwhich
VWDT
tp1308
a(Vyou
VPRP
tp1309
a(Valluded
VVBD
tp1310
a(V?
V.
tp1311
aa(lp1312
(VWhy
VWRB
tp1313
a(Vdo
VVBP
tp1314
a(Vnot
VRB
tp1315
a(Vwe
VPRP
tp1316
a(Vdo
VVBP
tp1317
a(Vthe
VDT
tp1318
a(Vsame
VJJ
tp1319
a(Vwith
VIN
tp1320
a(Vregard
VNN
tp1321
a(Vto
VTO
tp1322
a(Vthis
VDT
tp1323
a(Vreport
VNN
tp1324
a(V?
V.
tp1325
aa(lp1326
(VThe
VDT
tp1327
a(Vproportion
VNN
tp1328
a(Vof
VIN
tp1329
a(Vlow
VJJ
tp1330
a(Vbirth
VNN
tp1331
a(Vweight
VNN
tp1332
a(Vbabies
VNNS
tp1333
a(Vis
VVBZ
tp1334
a(Vbetween
VIN
tp1335
a(V30
VCD
tp1336
a(V%
VNN
tp1337
a(Vand
VCC
tp1338
a(V50
VCD
tp1339
a(V%
VNN
tp1340
a(V,
V,
tp1341
a(Vand
VCC
tp1342
a(V30
VCD
tp1343
a(V%
VNN
tp1344
a(Vof
VIN
tp1345
a(Vthe
VDT
tp1346
a(Vpopulation
VNN
tp1347
a(Vhas
VVBZ
tp1348
a(Vno
VDT
tp1349
a(Vaccess
VNN
tp1350
a(Vat
VIN
tp1351
a(Vall
VDT
tp1352
a(Vto
VTO
tp1353
a(Vclean
VJJ
tp1354
a(Vwater
VNN
tp1355
a(V.
V.
tp1356
aa(lp1357
(VOthers
VNNS
tp1358
a(Vhave
VVBP
tp1359
a(Valso
VRB
tp1360
a(Vreferred
VVBN
tp1361
a(Vto
VTO
tp1362
a(Vit
VPRP
tp1363
a(V.
V.
tp1364
aa(lp1365
(VThey
VPRP
tp1366
a(Vwill
VMD
tp1367
a(Vthen
VRB
tp1368
a(Vbe
VVB
tp1369
a(Vable
VJJ
tp1370
a(Vto
VTO
tp1371
a(Vprevent
VVB
tp1372
a(Vother
VJJ
tp1373
a(Venterprises
VNNS
tp1374
a(Vfrom
VIN
tp1375
a(Vusing
VVBG
tp1376
a(Vthe
VDT
tp1377
a(Vpatented
VJJ
tp1378
a(Vgenetic
VJJ
tp1379
a(Vmaterial
VNN
tp1380
a(Vor
VCC
tp1381
a(Vcharge
VVB
tp1382
a(Vthem
VPRP
tp1383
a(Vhigh
VJJ
tp1384
a(Vlicence
VNN
tp1385
a(Vfees
VNNS
tp1386
a(V.
V.
tp1387
aa(lp1388
(VJust
VRB
tp1389
a(Vyesterday
VNN
tp1390
a(Von
VIN
tp1391
a(Vthe
VDT
tp1392
a(Vtrain
VNN
tp1393
a(Vto
VTO
tp1394
a(VStrasbourg
VNNP
tp1395
a(Vpetitions
VNNS
tp1396
a(Vwere
VVBD
tp1397
a(Vbeing
VVBG
tp1398
a(Vpushed
VVBN
tp1399
a(Vinto
VIN
tp1400
a(Vthe
VDT
tp1401
a(Vhands
VNNS
tp1402
a(Vof
VIN
tp1403
a(Vtravellers
VNNS
tp1404
a(V,
V,
tp1405
a(Vand
VCC
tp1406
a(Vthere
VEX
tp1407
a(Vhas
VVBZ
tp1408
a(Vbeen
VVBN
tp1409
a(Van
VDT
tp1410
a(Vexcessive
VJJ
tp1411
a(Vvolume
VNN
tp1412
a(Vof
VIN
tp1413
a(Vemails
VNNS
tp1414
a(Von
VIN
tp1415
a(Vthis
VDT
tp1416
a(Vsubject
VNN
tp1417
a(V.
V.
tp1418
aa(lp1419
(VThe
VDT
tp1420
a(Vleast
VJJS
tp1421
a(Vdeveloped
VJJ
tp1422
a(Vcountries
VNNS
tp1423
a(V,
V,
tp1424
a(Vdespite
VIN
tp1425
a(Vhaving
VVBG
tp1426
a(Vbeen
VVBN
tp1427
a(Vgiven
VVBN
tp1428
a(Veverything
VNN
tp1429
a(Vexcept
VIN
tp1430
a(Varms
VNNS
tp1431
a(V,
V,
tp1432
a(Valso
VRB
tp1433
a(Vabandoned
VVBD
tp1434
a(Vit
VPRP
tp1435
a(V.
V.
tp1436
aa(lp1437
(VStopping
VVBG
tp1438
a(Vthe
VDT
tp1439
a(Vescalation
VNN
tp1440
a(Vof
VIN
tp1441
a(Vviolence
VNN
tp1442
a(V:
V:
tp1443
a(Vthe
VDT
tp1444
a(VPalestinian
VJJ
tp1445
a(VAuthority
VNNP
tp1446
a(Vmust
VMD
tp1447
a(Vmake
VVB
tp1448
a(Vevery
VDT
tp1449
a(Vendeavour
VNN
tp1450
a(Vto
VTO
tp1451
a(Vprevent
VVB
tp1452
a(Vextremism
VNN
tp1453
a(Vfrom
VIN
tp1454
a(Vprevailing
VVBG
tp1455
a(V.
V.
tp1456
aa(lp1457
(VEurope
VNNP
tp1458
a(Vcannot
VNN
tp1459
a(Vshield
VNN
tp1460
a(Vitself
VPRP
tp1461
a(Vbehind
VIN
tp1462
a(Vthis
VDT
tp1463
a(Vunacceptable
VJJ
tp1464
a(Vlegislation
VNN
tp1465
a(Vand
VCC
tp1466
a(Vclose
VVB
tp1467
a(Vthe
VDT
tp1468
a(Vdoor
VNN
tp1469
a(Vto
VTO
tp1470
a(Vimmigrants
VNNS
tp1471
a(V.
V.
tp1472
aa(lp1473
(VI
VPRP
tp1474
a(Vstrive
VVBP
tp1475
a(Vvery
VRB
tp1476
a(Vhard
VJJ
tp1477
a(Vto
VTO
tp1478
a(Vadhere
VVB
tp1479
a(Vto
VTO
tp1480
a(Vthe
VDT
tp1481
a(VTreaty
VNNP
tp1482
a(Vof
VIN
tp1483
a(VLisbon
VNNP
tp1484
a(Vwith
VIN
tp1485
a(Vevery
VDT
tp1486
a(Vaction
VNN
tp1487
a(VI
VPRP
tp1488
a(Vtake
VVBP
tp1489
a(V.
V.
tp1490
aa(lp1491
(VOur
VPRP$
tp1492
a(Vcommittees
VNNS
tp1493
a(Vwill
VMD
tp1494
a(Vhave
VVB
tp1495
a(Vto
VTO
tp1496
a(Vtake
VVB
tp1497
a(Von
VRP
tp1498
a(Va
VDT
tp1499
a(Vmuch
VRB
tp1500
a(Vbigger
VJJR
tp1501
a(Vrole
VNN
tp1502
a(Vin
VIN
tp1503
a(Vchecking
VNN
tp1504
a(V.
V.
tp1505
aa(lp1506
(VClimatological
VJJ
tp1507
a(Vconditions
VNNS
tp1508
a(Vin
VIN
tp1509
a(VDutch
VJJ
tp1510
a(Vand
VCC
tp1511
a(VGerman
VJJ
tp1512
a(Vgreenhouses
VNNS
tp1513
a(Vare
VVBP
tp1514
a(Vthe
VDT
tp1515
a(Vsame
VJJ
tp1516
a(Vas
VIN
tp1517
a(Vin
VIN
tp1518
a(Vthe
VDT
tp1519
a(Vsouthern
VJJ
tp1520
a(VMember
VNNP
tp1521
a(VStates
VNNPS
tp1522
a(V,
V,
tp1523
a(Vbut
VCC
tp1524
a(Vmethyl
VNN
tp1525
a(Vbromide
VNN
tp1526
a(Vhas
VVBZ
tp1527
a(Vnot
VRB
tp1528
a(Vbeen
VVBN
tp1529
a(Vused
VVBN
tp1530
a(Vin
VIN
tp1531
a(Vthe
VDT
tp1532
a(VNetherlands
VNNP
tp1533
a(Vsince
VIN
tp1534
a(V1992
VCD
tp1535
a(Vand
VCC
tp1536
a(Vis
VVBZ
tp1537
a(Vnow
VRB
tp1538
a(Vbanned
VVBN
tp1539
a(Vin
VIN
tp1540
a(VGermany
VNNP
tp1541
a(Vas
VRB
tp1542
a(Vwell
VRB
tp1543
a(V.
V.
tp1544
aa(lp1545
(VAccording
VVBG
tp1546
a(Vto
VTO
tp1547
a(Vthe
VDT
tp1548
a(Vformer
VJJ
tp1549
a(V,
V,
tp1550
a(Vwaste
VNN
tp1551
a(Vshould
VMD
tp1552
a(Vbe
VVB
tp1553
a(Vprocessed
VVBN
tp1554
a(Vas
VRB
tp1555
a(Vnear
VIN
tp1556
a(Vas
VIN
tp1557
a(Vpossible
VJJ
tp1558
a(Vto
VTO
tp1559
a(Vthe
VDT
tp1560
a(Vplace
VNN
tp1561
a(Vwhere
VWRB
tp1562
a(Vit
VPRP
tp1563
a(Vis
VVBZ
tp1564
a(Vcreated
VVBN
tp1565
a(V.
V.
tp1566
aa(lp1567
(V(
VRB
tp1568
a(VIT
VPRP
tp1569
a(V)
VVBP
tp1570
a(VMadam
VNNP
tp1571
a(VPresident
VNNP
tp1572
a(V,
V,
tp1573
a(VBaroness
VNNP
tp1574
a(VAshton
VNNP
tp1575
a(V,
V,
tp1576
a(Vladies
VNNS
tp1577
a(Vand
VCC
tp1578
a(Vgentlemen
VNNS
tp1579
a(V,
V,
tp1580
a(Vthe
VDT
tp1581
a(Vattacks
VNNS
tp1582
a(Von
VIN
tp1583
a(VCoptic
VJJ
tp1584
a(Vchurches
VNNS
tp1585
a(Vin
VIN
tp1586
a(VEgypt
VNNP
tp1587
a(Vand
VCC
tp1588
a(Vthe
VDT
tp1589
a(Vkilling
VNN
tp1590
a(Vof
VIN
tp1591
a(VChristians
VNNS
tp1592
a(Vare
VVBP
tp1593
a(Vsigns
VNNS
tp1594
a(Vthat
VIN
tp1595
a(Vreligious
VJJ
tp1596
a(Vintolerance
VNN
tp1597
a(Vis
VVBZ
tp1598
a(Vworsening
VVBG
tp1599
a(V,
V,
tp1600
a(Vbetraying
VVBG
tp1601
a(Vthe
VDT
tp1602
a(Vspirit
VNN
tp1603
a(Vof
VIN
tp1604
a(Vunity
VNN
tp1605
a(Vshown
VVBN
tp1606
a(Vin
VIN
tp1607
a(VTahrir
VNNP
tp1608
a(VSquare
VNNP
tp1609
a(V,
V,
tp1610
a(Vwhere
VWRB
tp1611
a(VCopts
VNNS
tp1612
a(Vand
VCC
tp1613
a(VMuslims
VNNPS
tp1614
a(Vdemonstrated
VVBN
tp1615
a(Vtogether
VRB
tp1616
a(Vagainst
VIN
tp1617
a(Vthe
VDT
tp1618
a(Vregime
VNN
tp1619
a(V.
V.
tp1620
aa(lp1621
(VTwo
VCD
tp1622
a(Vhours
VNNS
tp1623
a(Vlater
VRB
tp1624
a(V,
V,
tp1625
a(Vthe
VDT
tp1626
a(VGroup
VNNP
tp1627
a(Vof
VIN
tp1628
a(Vthe
VDT
tp1629
a(VEuropean
VJJ
tp1630
a(VPeople
VNNS
tp1631
a(V&apos;s
VVBZ
tp1632
a(VParty
VNNP
tp1633
a(V,
V,
tp1634
a(Vwhich
VWDT
tp1635
a(Vhad
VVBD
tp1636
a(Vaccepted
VVBN
tp1637
a(Vthe
VDT
tp1638
a(Vdebate
VNN
tp1639
a(V,
V,
tp1640
a(Vretracted
VVBN
tp1641
a(Von
VIN
tp1642
a(Vthe
VDT
tp1643
a(Vgrounds
VNNS
tp1644
a(Vthat
VIN
tp1645
a(Vit
VPRP
tp1646
a(Vhad
VVBD
tp1647
a(Vvoted
VVBN
tp1648
a(Vby
VIN
tp1649
a(Vmistake
VNN
tp1650
a(V.
V.
tp1651
aa(lp1652
(VLet
VVB
tp1653
a(Vus
VPRP
tp1654
a(Vbring
VVB
tp1655
a(Vthe
VDT
tp1656
a(Vsame
VJJ
tp1657
a(Vnumber
VNN
tp1658
a(Vof
VIN
tp1659
a(Vproponents
VNNS
tp1660
a(Vand
VCC
tp1661
a(Vopponents
VNNS
tp1662
a(Vof
VIN
tp1663
a(Vthe
VDT
tp1664
a(VConstitution
VNNP
tp1665
a(Vtogether
VRB
tp1666
a(Vand
VCC
tp1667
a(Vprepare
VVB
tp1668
a(Va
VDT
tp1669
a(Vjoint
VJJ
tp1670
a(Vconsultation
VNN
tp1671
a(Vdocument
VNN
tp1672
a(Vfor
VIN
tp1673
a(Vnew
VJJ
tp1674
a(Vground
VNN
tp1675
a(Vrules
VNNS
tp1676
a(V.
V.
tp1677
aa(lp1678
(VA
VDT
tp1679
a(Vchild
VNN
tp1680
a(V\u2019
VCD
tp1681
a(Vs
VNNS
tp1682
a(Vmetabolism
VNN
tp1683
a(Vis
VVBZ
tp1684
a(Vdifferent
VJJ
tp1685
a(Vfrom
VIN
tp1686
a(Vthat
VDT
tp1687
a(Vof
VIN
tp1688
a(Van
VDT
tp1689
a(Vadult
VNN
tp1690
a(V.
V.
tp1691
aa(lp1692
(VIn
VIN
tp1693
a(Vaddition
VNN
tp1694
a(Vto
VTO
tp1695
a(Vthe
VDT
tp1696
a(Varts
VNNS
tp1697
a(Vand
VCC
tp1698
a(Vliterature
VNN
tp1699
a(V,
V,
tp1700
a(Vit
VPRP
tp1701
a(Vencompasses
VVBZ
tp1702
a(Vways
VNNS
tp1703
a(Vof
VIN
tp1704
a(Vlife
VNN
tp1705
a(V,
V,
tp1706
a(Vfundamental
VJJ
tp1707
a(Vhuman
VJJ
tp1708
a(Vrights
VNNS
tp1709
a(V,
V,
tp1710
a(Vsets
VNNS
tp1711
a(Vof
VIN
tp1712
a(Vvalues
VNNS
tp1713
a(V,
V,
tp1714
a(Vtraditions
VNNS
tp1715
a(Vand
VCC
tp1716
a(Vbeliefs
VNNS
tp1717
a(V.
V.
tp1718
aa(lp1719
(VDear
VNNP
tp1720
a(Vcolleagues
VNNS
tp1721
a(V,
V,
tp1722
a(Vit
VPRP
tp1723
a(Vis
VVBZ
tp1724
a(Vour
VPRP$
tp1725
a(Vduty
VNN
tp1726
a(V,
V,
tp1727
a(Vas
VIN
tp1728
a(Vrepresentatives
VNNS
tp1729
a(Vof
VIN
tp1730
a(Vover
VIN
tp1731
a(V490,000,000
VCD
tp1732
a(VEuropeans
VNNPS
tp1733
a(V,
V,
tp1734
a(Vto
VTO
tp1735
a(Vraise
VVB
tp1736
a(Van
VDT
tp1737
a(Valarm
VNN
tp1738
a(V.
V.
tp1739
aa(lp1740
(VIt
VPRP
tp1741
a(Vis
VVBZ
tp1742
a(Vnevertheless
VRB
tp1743
a(Vstill
VRB
tp1744
a(Vthe
VDT
tp1745
a(Vcase
VNN
tp1746
a(Vthat
VWDT
tp1747
a(Vslaughter
VNN
tp1748
a(Vby
VIN
tp1749
a(Vmeans
VNNS
tp1750
a(Vof
VIN
tp1751
a(Va
VDT
tp1752
a(Vspecial
VJJ
tp1753
a(Vpistol
VNN
tp1754
a(Vcauses
VVBZ
tp1755
a(Vparticles
VNNS
tp1756
a(Vof
VIN
tp1757
a(Vthe
VDT
tp1758
a(Vbrain
VNN
tp1759
a(Vor
VCC
tp1760
a(Vlymphoid
VJJ
tp1761
a(Vtissue
VNN
tp1762
a(Vto
VTO
tp1763
a(Venter
VVB
tp1764
a(Vthe
VDT
tp1765
a(Vjugular
VJJ
tp1766
a(Vvein
VNN
tp1767
a(Vand
VCC
tp1768
a(Vfrom
VIN
tp1769
a(Vthere
VEX
tp1770
a(Vthey
VPRP
tp1771
a(Vcan
VMD
tp1772
a(Vreach
VVB
tp1773
a(Vthe
VDT
tp1774
a(Vmuscle
VNN
tp1775
a(Vmass
VNN
tp1776
a(V.
V.
tp1777
aa(lp1778
(VSecondly
VRB
tp1779
a(V,
V,
tp1780
a(Vthere
VEX
tp1781
a(Vis
VVBZ
tp1782
a(Va
VDT
tp1783
a(Vdanger
VNN
tp1784
a(Vof
VIN
tp1785
a(Vthe
VDT
tp1786
a(Vtrust
VNN
tp1787
a(Vmark
VNN
tp1788
a(Vbeing
VVBG
tp1789
a(Vstolen
VVBN
tp1790
a(V,
V,
tp1791
a(Vmisused
VVBN
tp1792
a(Vor
VCC
tp1793
a(Vfalsified
VVBN
tp1794
a(V.
V.
tp1795
aa(lp1796
(VThere
VEX
tp1797
a(Vare
VVBP
tp1798
a(Vnow
VRB
tp1799
a(Vover
VIN
tp1800
a(V1
VCD
tp1801
a(V672
VCD
tp1802
a(VShiga-toxin-producing
VJJ
tp1803
a(VE
VNN
tp1804
a(Vcoli
VNN
tp1805
a(Vcases
VNNS
tp1806
a(V,
V,
tp1807
a(Vand
VCC
tp1808
a(Vserious
VJJ
tp1809
a(Vcomplications
VNNS
tp1810
a(Vhave
VVBP
tp1811
a(Vdeveloped
VVBN
tp1812
a(Vin
VIN
tp1813
a(Vat
VIN
tp1814
a(Vleast
VJJS
tp1815
a(V661
VCD
tp1816
a(Vpeople
VNNS
tp1817
a(V.
V.
tp1818
aa(lp1819
(VThey
VPRP
tp1820
a(Vmade
VVBD
tp1821
a(Vtheir
VPRP$
tp1822
a(Vway
VNN
tp1823
a(Vto
VTO
tp1824
a(Vthe
VDT
tp1825
a(VGreek
VJJ
tp1826
a(Vborder
VNN
tp1827
a(Vand
VCC
tp1828
a(Vrequested
VVBD
tp1829
a(Vpolitical
VJJ
tp1830
a(Vasylum
VNN
tp1831
a(V,
V,
tp1832
a(Vbut
VCC
tp1833
a(Vreceived
VVBD
tp1834
a(Vrough
VJJ
tp1835
a(Vtreatment
VNN
tp1836
a(Vat
VIN
tp1837
a(Vthe
VDT
tp1838
a(Vhands
VNNS
tp1839
a(Vof
VIN
tp1840
a(Vriot
VNN
tp1841
a(Vpolice
VNN
tp1842
a(V.
V.
tp1843
aa(lp1844
(VUnfortunately
VRB
tp1845
a(V,
V,
tp1846
a(Vthe
VDT
tp1847
a(Vmajority
VNN
tp1848
a(Vof
VIN
tp1849
a(VParliament
VNNP
tp1850
a(V&apos;s
VNNS
tp1851
a(Vdelegation
VNN
tp1852
a(Vwas
VVBD
tp1853
a(Vsatisfied
VVBN
tp1854
a(Vwith
VIN
tp1855
a(Vthat
VDT
tp1856
a(V.
V.
tp1857
aa(lp1858
(VBefore
VIN
tp1859
a(Vthe
VDT
tp1860
a(Velections
VNNS
tp1861
a(V,
V,
tp1862
a(VI
VPRP
tp1863
a(Vsaid
VVBD
tp1864
a(Vthat
VIN
tp1865
a(VI
VPRP
tp1866
a(Vwould
VMD
tp1867
a(Vnot
VRB
tp1868
a(Vhold
VVB
tp1869
a(Va
VDT
tp1870
a(Vreferendum
VNN
tp1871
a(Vin
VIN
tp1872
a(VFrance
VNNP
tp1873
a(V.
V.
tp1874
aa(lp1875
(VOur
VPRP$
tp1876
a(Vrole
VNN
tp1877
a(Vis
VVBZ
tp1878
a(Vpurely
VRB
tp1879
a(Vconsultative
VJJ
tp1880
a(V,
V,
tp1881
a(Vand
VCC
tp1882
a(Vwe
VPRP
tp1883
a(Vbelieve
VVBP
tp1884
a(Vthat
VIN
tp1885
a(Vthis
VDT
tp1886
a(Vinvolves
VVBZ
tp1887
a(Vthe
VDT
tp1888
a(Vvery
VRB
tp1889
a(Vdefinition
VNN
tp1890
a(Vof
VIN
tp1891
a(VParliament
VNNP
tp1892
a(V&apos;
VNNP
tp1893
a(Vs
VVBZ
tp1894
a(Vcompetences
VNNS
tp1895
a(V.
V.
tp1896
aa(lp1897
(VWhat
VWP
tp1898
a(Vare
VVBP
tp1899
a(VTurkey
VNNP
tp1900
a(V&apos;s
VNNS
tp1901
a(Vintentions
VNNS
tp1902
a(V?
V.
tp1903
aa(lp1904
(VIt
VPRP
tp1905
a(Vis
VVBZ
tp1906
a(Vessential
VJJ
tp1907
a(Vfor
VIN
tp1908
a(Vthe
VDT
tp1909
a(VEuropean
VNNP
tp1910
a(VUnion
VNNP
tp1911
a(Vto
VTO
tp1912
a(Vtake
VVB
tp1913
a(Va
VDT
tp1914
a(Vcloser
VJJR
tp1915
a(Vinterest
VNN
tp1916
a(Vin
VIN
tp1917
a(Vthese
VDT
tp1918
a(Vfive
VCD
tp1919
a(Vcountries
VNNS
tp1920
a(V:
V:
tp1921
a(VUzbekistan
VNNP
tp1922
a(V,
V,
tp1923
a(VKyrgyzstan
VNNP
tp1924
a(V,
V,
tp1925
a(VTajikistan
VNNP
tp1926
a(V,
V,
tp1927
a(VTurkmenistan
VNNP
tp1928
a(Vand
VCC
tp1929
a(VKazakhstan
VNNP
tp1930
a(V.
V.
tp1931
aa(lp1932
(VI
VPRP
tp1933
a(Vthink
VVBP
tp1934
a(Vthis
VDT
tp1935
a(Vsymbolises
VVBZ
tp1936
a(VEurope
VNNP
tp1937
a(V&apos;s
VNNS
tp1938
a(Vability
VNN
tp1939
a(Vto
VTO
tp1940
a(Vclose
VVB
tp1941
a(Vranks
VNNS
tp1942
a(Vwhen
VWRB
tp1943
a(Vthe
VDT
tp1944
a(Vchips
VNNS
tp1945
a(Vare
VVBP
tp1946
a(Vreally
VRB
tp1947
a(Vdown
VRB
tp1948
a(V.
V.
tp1949
aa(lp1950
(VSo
VRB
tp1951
a(V,
V,
tp1952
a(Vif
VIN
tp1953
a(Vwe
VPRP
tp1954
a(Vhave
VVBP
tp1955
a(V75
VCD
tp1956
a(Vmillion
VCD
tp1957
a(Vpeople
VNNS
tp1958
a(Vover
VIN
tp1959
a(Vthe
VDT
tp1960
a(Vage
VNN
tp1961
a(Vof
VIN
tp1962
a(V60
VCD
tp1963
a(Vand
VCC
tp1964
a(V42
VCD
tp1965
a(V%
VNN
tp1966
a(Vof
VIN
tp1967
a(Vthe
VDT
tp1968
a(Vvoters
VNNS
tp1969
a(Vare
VVBP
tp1970
a(Vover
VIN
tp1971
a(V50
VCD
tp1972
a(Vyears
VNNS
tp1973
a(Vof
VIN
tp1974
a(Vage
VNN
tp1975
a(V,
V,
tp1976
a(Vobviously
VRB
tp1977
a(Vthe
VDT
tp1978
a(Vissues
VNNS
tp1979
a(Vof
VIN
tp1980
a(Vsenior
VJJ
tp1981
a(Vcitizens
VNNS
tp1982
a(Vand
VCC
tp1983
a(Vthe
VDT
tp1984
a(Velderly
VJJ
tp1985
a(Vare
VVBP
tp1986
a(Vgoing
VVBG
tp1987
a(Vto
VTO
tp1988
a(Vbe
VVB
tp1989
a(Vimportant
VJJ
tp1990
a(Vin
VIN
tp1991
a(Vcampaigning
VNN
tp1992
a(V.
V.
tp1993
aa(lp1994
(VHowever
VRB
tp1995
a(V,
V,
tp1996
a(Vthe
VDT
tp1997
a(Vproblem
VNN
tp1998
a(Vwith
VIN
tp1999
a(Vthis
VDT
tp2000
a(Vreport
VNN
tp2001
a(V,
V,
tp2002
a(Vwhich
VWDT
tp2003
a(VI
VPRP
tp2004
a(Vvoted
VVBD
tp2005
a(Vagainst
VIN
tp2006
a(V,
V,
tp2007
a(Vis
VVBZ
tp2008
a(Vthat
VIN
tp2009
a(Vits
VPRP$
tp2010
a(Vmain
VJJ
tp2011
a(Vaim
VNN
tp2012
a(V,
V,
tp2013
a(Vby
VIN
tp2014
a(Vway
VNN
tp2015
a(Vof
VIN
tp2016
a(Vinnovation
VNN
tp2017
a(V,
V,
tp2018
a(Vis
VVBZ
tp2019
a(Vto
VTO
tp2020
a(Vcreate
VVB
tp2021
a(Vnew
VJJ
tp2022
a(Vtaxes
VNNS
tp2023
a(V,
V,
tp2024
a(Vmanaged
VVBD
tp2025
a(V,
V,
tp2026
a(Vwhere
VWRB
tp2027
a(Vpossible
VJJ
tp2028
a(V,
V,
tp2029
a(Vat
VIN
tp2030
a(VEuropean
VJJ
tp2031
a(Vor
VCC
tp2032
a(Vglobal
VJJ
tp2033
a(Vlevel
VNN
tp2034
a(V,
V,
tp2035
a(Vor
VCC
tp2036
a(Vat
VIN
tp2037
a(Vthe
VDT
tp2038
a(Vvery
VRB
tp2039
a(Vleast
VJJS
tp2040
a(Vwith
VIN
tp2041
a(Vinternational
VJJ
tp2042
a(Vbodies
VNNS
tp2043
a(Vdeciding
VVBG
tp2044
a(Vwho
VWP
tp2045
a(Vthe
VDT
tp2046
a(Vbeneficiaries
VNNS
tp2047
a(Vwill
VMD
tp2048
a(Vbe
VVB
tp2049
a(Vand
VCC
tp2050
a(Vhow
VWRB
tp2051
a(Vthe
VDT
tp2052
a(Vmoney
VNN
tp2053
a(Vwill
VMD
tp2054
a(Vbe
VVB
tp2055
a(Vused
VVBN
tp2056
a(V.
V.
tp2057
aa(lp2058
(VI
VPRP
tp2059
a(Vgather
VVBP
tp2060
a(Vthat
VIN
tp2061
a(Vthis
VDT
tp2062
a(Vis
VVBZ
tp2063
a(Vhis
VPRP$
tp2064
a(Vfirst
VJJ
tp2065
a(Vdebate
VNN
tp2066
a(Vin
VIN
tp2067
a(Vthe
VDT
tp2068
a(Vplenary
VJJ
tp2069
a(Vand
VCC
tp2070
a(VI
VPRP
tp2071
a(Vshould
VMD
tp2072
a(Vlike
VVB
tp2073
a(Vto
VTO
tp2074
a(Vgive
VVB
tp2075
a(Vhim
VPRP
tp2076
a(Va
VDT
tp2077
a(Vpat
VNN
tp2078
a(Von
VIN
tp2079
a(Vthe
VDT
tp2080
a(Vback
VJJ
tp2081
a(Vstraight
VJJ
tp2082
a(Vaway
VRB
tp2083
a(Vby
VIN
tp2084
a(Vway
VNN
tp2085
a(Vof
VIN
tp2086
a(Vencouragement
VNN
tp2087
a(V.
V.
tp2088
aa(lp2089
(VThe
VDT
tp2090
a(Vworking
VVBG
tp2091
a(Vday
VNN
tp2092
a(Vfor
VIN
tp2093
a(Vthese
VDT
tp2094
a(Vchildren
VNNS
tp2095
a(Vis
VVBZ
tp2096
a(Vup
VRB
tp2097
a(Vto
VTO
tp2098
a(V15
VCD
tp2099
a(Vhours
VNNS
tp2100
a(Vlong
VRB
tp2101
a(V.
V.
tp2102
aa(lp2103
(VIt
VPRP
tp2104
a(Vis
VVBZ
tp2105
a(Valso
VRB
tp2106
a(Vessential
VJJ
tp2107
a(Vto
VTO
tp2108
a(Vremember
VVB
tp2109
a(Vour
VPRP$
tp2110
a(Vroots
VNNS
tp2111
a(V,
V,
tp2112
a(Vthe
VDT
tp2113
a(Vbasis
VNN
tp2114
a(Von
VIN
tp2115
a(Vwhich
VWDT
tp2116
a(VEuropean
VJJ
tp2117
a(Vcivilisation
VNN
tp2118
a(Vwas
VVBD
tp2119
a(Vbuilt
VVBN
tp2120
a(V.
V.
tp2121
aa(lp2122
(VTowards
VIN
tp2123
a(VChristmas
VNNP
tp2124
a(Va
VDT
tp2125
a(Vfew
VJJ
tp2126
a(Vmiracles
VNNS
tp2127
a(Voccurred
VVBD
tp2128
a(Vin
VIN
tp2129
a(Vthis
VDT
tp2130
a(VParliament
VNNP
tp2131
a(V.
V.
tp2132
aa.