(lp1
(lp2
(VAnd
VCC
tp3
a(Vthat
VDT
tp4
a(V,
V,
tp5
a(VI
VPRP
tp6
a(Vthink
VVBP
tp7
a(V,
V,
tp8
a(Vapplies
VVBZ
tp9
a(Vnot
VRB
tp10
a(Vjust
VRB
tp11
a(Vto
VTO
tp12
a(Vus
VPRP
tp13
a(Vbut
VCC
tp14
a(Vto
VTO
tp15
a(Vthe
VDT
tp16
a(VHeads
VNNS
tp17
a(Vof
VIN
tp18
a(VState
VNN
tp19
a(Vwho
VWP
tp20
a(Vhave
VVBP
tp21
a(Vapplied
VVBN
tp22
a(Vto
VTO
tp23
a(Vbecome
VVB
tp24
a(Vmembers
VNNS
tp25
a(Vof
VIN
tp26
a(Vthe
VDT
tp27
a(VEuropean
VNNP
tp28
a(VUnion
VNNP
tp29
a(V.
V.
tp30
aa(lp31
(VTo
VTO
tp32
a(Vwhat
VWP
tp33
a(Vextent
VNN
tp34
a(Vwill
VMD
tp35
a(Vit
VPRP
tp36
a(Vaffect
VVB
tp37
a(Vthe
VDT
tp38
a(VUnited
VNNP
tp39
a(VKingdom
VNNP
tp40
a(Vand
VCC
tp41
a(Vparticularly
VRB
tp42
a(Vmy
VPRP$
tp43
a(Vconstituency
VNN
tp44
a(V,
V,
tp45
a(VLondon
VNNP
tp46
a(V?
V.
tp47
aa(lp48
(VIt
VPRP
tp49
a(Vprimarily
VRB
tp50
a(Vserves
VVBZ
tp51
a(Vto
VTO
tp52
a(Vsupport
VVB
tp53
a(Vdeveloping
VVBG
tp54
a(Vcountries
VNNS
tp55
a(V,
V,
tp56
a(Vincluding
VVBG
tp57
a(Vthe
VDT
tp58
a(Vleast
VJJS
tp59
a(Vdeveloped
VJJ
tp60
a(Vones
VNNS
tp61
a(V.
V.
tp62
aa(lp63
(VI
VPRP
tp64
a(Vam
VVBP
tp65
a(Vtherefore
VRB
tp66
a(Vappealing
VVBG
tp67
a(Vto
VTO
tp68
a(Vthe
VDT
tp69
a(VMembers
VNNS
tp70
a(Vof
VIN
tp71
a(Vthe
VDT
tp72
a(VEuropean
VNNP
tp73
a(VParliament
VNNP
tp74
a(Vwho
VWP
tp75
a(Vare
VVBP
tp76
a(Vthinking
VVBG
tp77
a(Vof
VIN
tp78
a(Vgoing
VVBG
tp79
a(Vto
VTO
tp80
a(VIraq
VNNP
tp81
a(Vto
VTO
tp82
a(Vgive
VVB
tp83
a(Vup
VRP
tp84
a(Vtheir
VPRP$
tp85
a(Vplan
VNN
tp86
a(V.
V.
tp87
aa(lp88
(VIt
VPRP
tp89
a(Vis
VVBZ
tp90
a(Va
VDT
tp91
a(Vwar
VNN
tp92
a(Vin
VIN
tp93
a(Vthe
VDT
tp94
a(Vskies
VNNS
tp95
a(Vwhich
VWDT
tp96
a(Vhas
VVBZ
tp97
a(Vbombed
VVBN
tp98
a(Vthe
VDT
tp99
a(Vpeople
VNNS
tp100
a(Von
VIN
tp101
a(Vthe
VDT
tp102
a(Vground
VNN
tp103
a(Vback
VRB
tp104
a(Vinto
VIN
tp105
a(Vthe
VDT
tp106
a(V1930s
VNNS
tp107
a(V.
V.
tp108
aa(lp109
(VMr
VNNP
tp110
a(VPresident
VNNP
tp111
a(V,
V,
tp112
a(VI
VPRP
tp113
a(Vcannot
VVBP
tp114
a(Vspeak
VVB
tp115
a(Vabout
VIN
tp116
a(VChechnya
VNNP
tp117
a(Vhere
VRB
tp118
a(Vwithout
VIN
tp119
a(Vthinking
VVBG
tp120
a(Vback
VRB
tp121
a(Vmore
VRBR
tp122
a(Vthan
VIN
tp123
a(Vten
VCD
tp124
a(Vyears
VNNS
tp125
a(Vwhen
VWRB
tp126
a(Vthe
VDT
tp127
a(VBaltic
VNNP
tp128
a(VStates
VNNPS
tp129
a(Vwere
VVBD
tp130
a(Vstruggling
VVBG
tp131
a(Vfor
VIN
tp132
a(Vtheir
VPRP$
tp133
a(Vfreedom
VNN
tp134
a(V.
V.
tp135
aa(lp136
(VThis
VDT
tp137
a(V,
V,
tp138
a(Vwe
VPRP
tp139
a(Vfeel
VVBP
tp140
a(V,
V,
tp141
a(Vendangers
VVBZ
tp142
a(Vthe
VDT
tp143
a(Vrights
VNNS
tp144
a(Vof
VIN
tp145
a(Vindividuals
VNNS
tp146
a(Vand
VCC
tp147
a(Vdemocracy
VNN
tp148
a(V.
V.
tp149
aa(lp150
(VWe
VPRP
tp151
a(Vhave
VVBP
tp152
a(Vno
VDT
tp153
a(Videa
VNN
tp154
a(Vwhat
VWDT
tp155
a(Vall
VDT
tp156
a(Vof
VIN
tp157
a(Vthat
VDT
tp158
a(Vwill
VMD
tp159
a(Vproduce
VVB
tp160
a(V.
V.
tp161
aa(lp162
(VYet
VRB
tp163
a(Vthese
VDT
tp164
a(Vdoctors
VNNS
tp165
a(Vand
VCC
tp166
a(Vnurses
VNNS
tp167
a(Vhad
VVBD
tp168
a(Vsimply
VRB
tp169
a(Vtreated
VVBN
tp170
a(Vinjured
VJJ
tp171
a(Vprotestors
VNNS
tp172
a(Vwho
VWP
tp173
a(Vwere
VVBD
tp174
a(Vbrought
VVBN
tp175
a(Vto
VTO
tp176
a(Vtheir
VPRP$
tp177
a(Vhospitals
VNNS
tp178
a(V.
V.
tp179
aa(lp180
(VThis
VDT
tp181
a(Vwhole
VJJ
tp182
a(Vsituation
VNN
tp183
a(V,
V,
tp184
a(Vas
VIN
tp185
a(Vthe
VDT
tp186
a(VCommissioner
VNNP
tp187
a(Vrightly
VRB
tp188
a(Vsaid
VVBD
tp189
a(V,
V,
tp190
a(Vseriously
VRB
tp191
a(Vaffects
VVBZ
tp192
a(Vthe
VDT
tp193
a(Vcredibility
VNN
tp194
a(V,
V,
tp195
a(Vfunctioning
VVBG
tp196
a(Vand
VCC
tp197
a(Vinternational
VJJ
tp198
a(Vimage
VNN
tp199
a(Vof
VIN
tp200
a(Vthe
VDT
tp201
a(Vcountry
VNN
tp202
a(V.
V.
tp203
aa(lp204
(VSimilarly
VRB
tp205
a(V,
V,
tp206
a(Vthere
VEX
tp207
a(Vis
VVBZ
tp208
a(Vno
VDT
tp209
a(Vrelaxation
VNN
tp210
a(Vof
VIN
tp211
a(Vthe
VDT
tp212
a(Vforeign
VJJ
tp213
a(Vownership
VNN
tp214
a(Vrules
VNNS
tp215
a(Vof
VIN
tp216
a(VUSA
VNNP
tp217
a(Vairlines
VNNS
tp218
a(V.
V.
tp219
aa(lp220
(VI
VPRP
tp221
a(Vvery
VRB
tp222
a(Vmuch
VRB
tp223
a(Vregret
VVB
tp224
a(Vthat
VIN
tp225
a(Vthis
VDT
tp226
a(Vinternal
VJJ
tp227
a(Vprocedure
VNN
tp228
a(Vhas
VVBZ
tp229
a(Vtaken
VVBN
tp230
a(Vplace
VNN
tp231
a(V,
V,
tp232
a(Vas
VIN
tp233
a(Vit
VPRP
tp234
a(Vhas
VVBZ
tp235
a(Vdamaged
VVBN
tp236
a(Vconfidence
VNN
tp237
a(Vin
VIN
tp238
a(Vthe
VDT
tp239
a(Vgroup
VNN
tp240
a(V.
V.
tp241
aa(lp242
(VThe
VDT
tp243
a(Vright
VNN
tp244
a(Vhas
VVBZ
tp245
a(Valways
VRB
tp246
a(Vpreferred
VVBN
tp247
a(Vto
VTO
tp248
a(Vput
VVB
tp249
a(Vthe
VDT
tp250
a(Vblame
VNN
tp251
a(Von
VIN
tp252
a(Vothers
VNNS
tp253
a(V,
V,
tp254
a(Vmainly
VRB
tp255
a(Vthe
VDT
tp256
a(Vvulnerable
VJJ
tp257
a(V.
V.
tp258
aa(lp259
(VIn
VIN
tp260
a(Vother
VJJ
tp261
a(Vcountries
VNNS
tp262
a(Vyou
VPRP
tp263
a(Vcan
VMD
tp264
a(Vbuy
VVB
tp265
a(Vthem
VPRP
tp266
a(Vin
VIN
tp267
a(Vsupermarkets
VNNS
tp268
a(V.
V.
tp269
aa(lp270
(VLet
VVB
tp271
a(Vus
VPRP
tp272
a(Vsupport
VVB
tp273
a(Vdemocracy
VNN
tp274
a(Vin
VIN
tp275
a(VPalestine
VNNP
tp276
a(Vby
VIN
tp277
a(Vguiding
VVBG
tp278
a(VHamas
VNNP
tp279
a(Vtowards
VIN
tp280
a(Vparticipation
VNN
tp281
a(Vin
VIN
tp282
a(Vfair
VJJ
tp283
a(Velections
VNNS
tp284
a(V.
V.
tp285
aa(lp286
(VMinorities
VNNS
tp287
a(Vtogether
VRB
tp288
a(Vwith
VIN
tp289
a(VMuslims
VNNPS
tp290
a(Vare
VVBP
tp291
a(Vforming
VVBG
tp292
a(Vlocal
VJJ
tp293
a(V&apos;
VJJ
tp294
a(Vinter-faith
VNN
tp295
a(Vharmony
VNN
tp296
a(V&apos;
VNN
tp297
a(Vcommittees
VNNS
tp298
a(V,
V,
tp299
a(Vwhose
VWP$
tp300
a(Vpurpose
VNN
tp301
a(Vit
VPRP
tp302
a(Vwill
VMD
tp303
a(Vbe
VVB
tp304
a(Vto
VTO
tp305
a(Vsoothe
VVB
tp306
a(Vtensions
VNNS
tp307
a(Vand
VCC
tp308
a(Vimprove
VVB
tp309
a(Vdialogue
VNN
tp310
a(Vbetween
VIN
tp311
a(Vthe
VDT
tp312
a(Vvarious
VJJ
tp313
a(Vgroups
VNNS
tp314
a(V.
V.
tp315
aa(lp316
(VThis
VDT
tp317
a(Vis
VVBZ
tp318
a(Vsub-optimal
VJJ
tp319
a(Vat
VIN
tp320
a(Vthe
VDT
tp321
a(Vmoment
VNN
tp322
a(V,
V,
tp323
a(Vand
VCC
tp324
a(VI
VPRP
tp325
a(Vuse
VVBP
tp326
a(Vthe
VDT
tp327
a(Vterm
VNN
tp328
a(Vadvisedly
VRB
tp329
a(V.
V.
tp330
aa(lp331
(VHowever
VRB
tp332
a(V,
V,
tp333
a(Vover
VIN
tp334
a(Vtime
VNN
tp335
a(V,
V,
tp336
a(Vthey
VPRP
tp337
a(Vhave
VVBP
tp338
a(Ventertained
VVBN
tp339
a(Vserious
VJJ
tp340
a(Vdoubts
VNNS
tp341
a(Vabout
VIN
tp342
a(Vthe
VDT
tp343
a(Vbenefits
VNNS
tp344
a(Vit
VPRP
tp345
a(Vmight
VMD
tp346
a(Vbring
VVB
tp347
a(Vto
VTO
tp348
a(Vtheir
VPRP$
tp349
a(Vdaily
VJJ
tp350
a(Vlives
VNNS
tp351
a(V.
V.
tp352
aa(lp353
(VI
VPRP
tp354
a(Vwonder
VVBP
tp355
a(V,
V,
tp356
a(Vwhy
VWRB
tp357
a(Vare
VVBP
tp358
a(Vwe
VPRP
tp359
a(Vbothering
VVBG
tp360
a(Vto
VTO
tp361
a(Vinsist
VVB
tp362
a(Von
VIN
tp363
a(Vcompulsory
VJJ
tp364
a(Vmarking
VVBG
tp365
a(V?
V.
tp366
aa(lp367
(VSeven
VCD
tp368
a(Vyears
VNNS
tp369
a(Vis
VVBZ
tp370
a(Vtoo
VRB
tp371
a(Vlong
VJJ
tp372
a(Vto
VTO
tp373
a(Vwait
VVB
tp374
a(Vfor
VIN
tp375
a(Vthat
VDT
tp376
a(Vassurance
VNN
tp377
a(V.
V.
tp378
aa(lp379
(VIt
VPRP
tp380
a(Vis
VVBZ
tp381
a(Vsometimes
VRB
tp382
a(Vexaggerated
VJJ
tp383
a(Vbut
VCC
tp384
a(Vthere
VEX
tp385
a(Vit
VPRP
tp386
a(Vis
VVBZ
tp387
a(V.
V.
tp388
aa(lp389
(VRunning
VVBG
tp390
a(Va
VDT
tp391
a(Vhome
VNN
tp392
a(Vand
VCC
tp393
a(Vbringing
VVBG
tp394
a(Vup
VRP
tp395
a(Vchildren
VNNS
tp396
a(Vis
VVBZ
tp397
a(Vlargely
VRB
tp398
a(Vunseen
VJJ
tp399
a(Vwork
VNN
tp400
a(V.
V.
tp401
aa(lp402
(VNo
VDT
tp403
a(Vmeans
VVBZ
tp404
a(Vno
VDT
tp405
a(V.
V.
tp406
aa(lp407
(VFor
VIN
tp408
a(Vwhat
VWDT
tp409
a(Varrives
VVBZ
tp410
a(Vdirectly
VRB
tp411
a(Vfrom
VIN
tp412
a(VColumbia
VNNP
tp413
a(V,
V,
tp414
a(VSurinam
VNNP
tp415
a(Vand
VCC
tp416
a(Vthe
VDT
tp417
a(VDutch
VJJ
tp418
a(VAntilles
VNNPS
tp419
a(Vwould
VMD
tp420
a(Vnot
VRB
tp421
a(Vfall
VVB
tp422
a(Vwithin
VIN
tp423
a(Vthe
VDT
tp424
a(Vscope
VNN
tp425
a(Vof
VIN
tp426
a(Vthis
VDT
tp427
a(Vframework
VNN
tp428
a(Vdecision
VNN
tp429
a(V.
V.
tp430
aa(lp431
(VNot
VRB
tp432
a(Vevery
VDT
tp433
a(Vbad
VJJ
tp434
a(Vthing
VNN
tp435
a(Vthat
VWDT
tp436
a(Vhappens
VVBZ
tp437
a(Vis
VVBZ
tp438
a(Van
VDT
tp439
a(Vopportunity
VNN
tp440
a(Vto
VTO
tp441
a(Vheap
VNN
tp442
a(Vcensure
VNN
tp443
a(Von
VIN
tp444
a(Va
VDT
tp445
a(Vspecific
VJJ
tp446
a(Vregime
VNN
tp447
a(V.
V.
tp448
aa(lp449
(VThis
VDT
tp450
a(Vhas
VVBZ
tp451
a(Vnothing
VNN
tp452
a(Vto
VTO
tp453
a(Vdo
VVB
tp454
a(Vwith
VIN
tp455
a(Vseizing
VVBG
tp456
a(Vpower
VNN
tp457
a(Vat
VIN
tp458
a(VEuropean
VJJ
tp459
a(Vlevel
VNN
tp460
a(V.
V.
tp461
aa(lp462
(VIt
VPRP
tp463
a(Vprovides
VVBZ
tp464
a(Vthat
VIN
tp465
a(Vbanks
VNNS
tp466
a(Vshould
VMD
tp467
a(Vnot
VRB
tp468
a(Vcharge
VVB
tp469
a(Vfees
VNNS
tp470
a(Veither
VCC
tp471
a(Vfor
VIN
tp472
a(Vthe
VDT
tp473
a(Vconversion
VNN
tp474
a(Vof
VIN
tp475
a(Vaccounts
VNNS
tp476
a(Vfrom
VIN
tp477
a(Vthe
VDT
tp478
a(Vnational
VJJ
tp479
a(Vcurrency
VNN
tp480
a(Vof
VIN
tp481
a(Va
VDT
tp482
a(VMember
VNNP
tp483
a(VState
VNNP
tp484
a(Vparticipating
VVBG
tp485
a(Vin
VIN
tp486
a(Vthe
VDT
tp487
a(Veuro
VNN
tp488
a(Vzone
VNN
tp489
a(V,
V,
tp490
a(Vfor
VIN
tp491
a(Vexample
VNN
tp492
a(Vfrom
VIN
tp493
a(Vthe
VDT
tp494
a(VFrench
VJJ
tp495
a(Vfranc
VNN
tp496
a(Vto
VTO
tp497
a(Vthe
VDT
tp498
a(Veuro
VNN
tp499
a(Vin
VIN
tp500
a(VFrance
VNNP
tp501
a(V,
V,
tp502
a(Vor
VCC
tp503
a(Vfor
VIN
tp504
a(Vthe
VDT
tp505
a(Vconversion
VNN
tp506
a(Vof
VIN
tp507
a(Vpayments
VNNS
tp508
a(Vfrom
VIN
tp509
a(Vthe
VDT
tp510
a(Vnational
VJJ
tp511
a(Vcurrency
VNN
tp512
a(Vinto
VIN
tp513
a(Vthe
VDT
tp514
a(VEuropean
VJJ
tp515
a(Vcurrency
VNN
tp516
a(Vand
VCC
tp517
a(Vvice
VNN
tp518
a(Vversa
VRB
tp519
a(V.
V.
tp520
aa(lp521
(VAt
VIN
tp522
a(Vthe
VDT
tp523
a(Vend
VNN
tp524
a(Vof
VIN
tp525
a(Vthis
VDT
tp526
a(VPresidency
VNNP
tp527
a(Va
VDT
tp528
a(Vbalance
VNN
tp529
a(Vhas
VVBZ
tp530
a(Vbeen
VVBN
tp531
a(Vrestored
VVBN
tp532
a(Vand
VCC
tp533
a(Vwe
VPRP
tp534
a(Vshould
VMD
tp535
a(Vacknowledge
VVB
tp536
a(Vthat
VDT
tp537
a(V.
V.
tp538
aa(lp539
(VThanks
VNNS
tp540
a(Vto
VTO
tp541
a(Van
VDT
tp542
a(Vimpact
VNN
tp543
a(Vdetection
VNN
tp544
a(Vsensor
VNN
tp545
a(Vand
VCC
tp546
a(Va
VDT
tp547
a(Vdetonating
VVBG
tp548
a(Vmechanism
VNN
tp549
a(V,
V,
tp550
a(Vthe
VDT
tp551
a(Vbonnet
VNN
tp552
a(Vrises
VVBZ
tp553
a(Vby
VIN
tp554
a(V65
VCD
tp555
a(Vmillimetres
VNNS
tp556
a(Vin
VIN
tp557
a(V0.40
VCD
tp558
a(Vseconds
VNNS
tp559
a(V.
V.
tp560
aa(lp561
(VOn
VIN
tp562
a(V21
VCD
tp563
a(VSeptember
VNNP
tp564
a(V,
V,
tp565
a(Vthe
VDT
tp566
a(VHeads
VNNS
tp567
a(Vof
VIN
tp568
a(VState
VNN
tp569
a(Vand
VCC
tp570
a(VGovernment
VNN
tp571
a(Vadopted
VVBD
tp572
a(Vthe
VDT
tp573
a(Vplan
VNN
tp574
a(Vof
VIN
tp575
a(Vaction
VNN
tp576
a(Vwhich
VWDT
tp577
a(Vhas
VVBZ
tp578
a(Vbecome
VVBN
tp579
a(Vthe
VDT
tp580
a(Vbackbone
VNN
tp581
a(Vof
VIN
tp582
a(Vthe
VDT
tp583
a(VEU
VNNP
tp584
a(V&apos;s
VNNS
tp585
a(Vefforts
VNNS
tp586
a(V.
V.
tp587
aa(lp588
(VIt
VPRP
tp589
a(Vbrands
VVBZ
tp590
a(Vall
VPDT
tp591
a(Vthe
VDT
tp592
a(Vinhabitants
VNNS
tp593
a(Vof
VIN
tp594
a(VPalestine
VNNP
tp595
a(Vas
VIN
tp596
a(Vterrorists
VNNS
tp597
a(V,
V,
tp598
a(Vwhich
VWDT
tp599
a(Vis
VVBZ
tp600
a(Vscandalous
VJJ
tp601
a(V.
V.
tp602
aa(lp603
(VThirdly
VRB
tp604
a(V,
V,
tp605
a(Vthe
VDT
tp606
a(Vprogrammes
VNNS
tp607
a(Vin
VIN
tp608
a(Vboth
VDT
tp609
a(VGreece
VNNP
tp610
a(Vand
VCC
tp611
a(VIreland
VNNP
tp612
a(Vare
VVBP
tp613
a(Vstill
VRB
tp614
a(Vin
VIN
tp615
a(Vthe
VDT
tp616
a(Vrelatively
VRB
tp617
a(Vearly
VJJ
tp618
a(Vstages
VNNS
tp619
a(V.
V.
tp620
aa(lp621
(VWe
VPRP
tp622
a(Valso
VRB
tp623
a(Vneed
VVBP
tp624
a(Vto
VTO
tp625
a(Vconfront
VVB
tp626
a(Vthe
VDT
tp627
a(Vreality
VNN
tp628
a(Vof
VIN
tp629
a(Vimmigration
VNN
tp630
a(V.
V.
tp631
aa(lp632
(VEven
VRB
tp633
a(Vits
VPRP$
tp634
a(Vsmallest
VJJS
tp635
a(Vmovements
VNNS
tp636
a(Vwere
VVBD
tp637
a(Vlikely
VJJ
tp638
a(Vto
VTO
tp639
a(Vkeep
VVB
tp640
a(Vyou
VPRP
tp641
a(Vawake
VRB
tp642
a(Vat
VIN
tp643
a(Vnight
VNN
tp644
a(V.
V.
tp645
aa(lp646
(VThere
VEX
tp647
a(Vare
VVBP
tp648
a(Vsome
VDT
tp649
a(Von
VIN
tp650
a(Vthe
VDT
tp651
a(Vother
VJJ
tp652
a(Vhand
VNN
tp653
a(Vwho
VWP
tp654
a(Vsimply
VRB
tp655
a(Vresort
VVBP
tp656
a(Vto
VTO
tp657
a(Vprovocation
VNN
tp658
a(Vand
VCC
tp659
a(Vwho
VWP
tp660
a(Vsay
VVBP
tp661
a(Valmost
VRB
tp662
a(Vanything
VNN
tp663
a(V.
V.
tp664
aa(lp665
(VIt
VPRP
tp666
a(Vwill
VMD
tp667
a(Vdo
VVB
tp668
a(Vmuch
VRB
tp669
a(Vfor
VIN
tp670
a(Vthe
VDT
tp671
a(Vpopularity
VNN
tp672
a(Vof
VIN
tp673
a(Vthe
VDT
tp674
a(VEuropean
VNNP
tp675
a(VUnion
VNNP
tp676
a(Vwhen
VWRB
tp677
a(Vit
VPRP
tp678
a(Vrecognizes
VVBZ
tp679
a(Vthat
VIN
tp680
a(Vwater
VNN
tp681
a(Vis
VVBZ
tp682
a(Vnot
VRB
tp683
a(Va
VDT
tp684
a(Vwristwatch
VNN
tp685
a(V,
V,
tp686
a(Vfax
VNN
tp687
a(Vis
VVBZ
tp688
a(Vnot
VRB
tp689
a(Va
VDT
tp690
a(Vfilm
VNN
tp691
a(Vand
VCC
tp692
a(Va
VDT
tp693
a(Vdemocracy
VNN
tp694
a(Vis
VVBZ
tp695
a(Vdependent
VJJ
tp696
a(Von
VIN
tp697
a(Vdocumentaries
VNNS
tp698
a(V.
V.
tp699
aa(lp700
(VOf
VIN
tp701
a(Vthose
VDT
tp702
a(Vemployed
VVBN
tp703
a(Vin
VIN
tp704
a(Vthe
VDT
tp705
a(VEuropean
VNNP
tp706
a(VParliament
VNNP
tp707
a(V,
V,
tp708
a(V59
VCD
tp709
a(V%
VNN
tp710
a(Vare
VVBP
tp711
a(Vwomen
VNNS
tp712
a(Vand
VCC
tp713
a(V,
V,
tp714
a(Vat
VIN
tp715
a(Vthe
VDT
tp716
a(Vsame
VJJ
tp717
a(Vtime
VNN
tp718
a(V,
V,
tp719
a(Vover
VIN
tp720
a(V50
VCD
tp721
a(V%
VNN
tp722
a(Vof
VIN
tp723
a(Vthese
VDT
tp724
a(Vwomen
VNNS
tp725
a(Vdeal
VVBP
tp726
a(Vwith
VIN
tp727
a(Vmatters
VNNS
tp728
a(Vof
VIN
tp729
a(Vsubstance
VNN
tp730
a(V.
V.
tp731
aa(lp732
(VIn
VIN
tp733
a(Vthe
VDT
tp734
a(Vwords
VNNS
tp735
a(Vof
VIN
tp736
a(VAristotle
VNNP
tp737
a(V,
V,
tp738
a(Vit
VPRP
tp739
a(Vis
VVBZ
tp740
a(Vnot
VRB
tp741
a(Vabout
VIN
tp742
a(Voutward
VJJ
tp743
a(Vappearance
VNN
tp744
a(Vbut
VCC
tp745
a(Vabout
VIN
tp746
a(Vinward
VJJ
tp747
a(Vsignificance
VNN
tp748
a(V.
V.
tp749
aa(lp750
(VIn
VIN
tp751
a(Vsome
VDT
tp752
a(Vcountries
VNNS
tp753
a(Va
VDT
tp754
a(Vsystem
VNN
tp755
a(Vis
VVBZ
tp756
a(Valready
VRB
tp757
a(Vup
VRB
tp758
a(Vand
VCC
tp759
a(Vrunning
VVBG
tp760
a(V;
V:
tp761
a(Vhowever
VRB
tp762
a(V,
V,
tp763
a(Vthere
VEX
tp764
a(Vare
VVBP
tp765
a(Valso
VRB
tp766
a(Vsome
VDT
tp767
a(Vcountries
VNNS
tp768
a(Vwhere
VWRB
tp769
a(Vit
VPRP
tp770
a(Vwill
VMD
tp771
a(Vprobably
VRB
tp772
a(Vtake
VVB
tp773
a(Va
VDT
tp774
a(Vlong
VJJ
tp775
a(Vtime
VNN
tp776
a(Vto
VTO
tp777
a(Vintroduce
VVB
tp778
a(Vthe
VDT
tp779
a(Vdatabase
VNN
tp780
a(V.
V.
tp781
aa(lp782
(VWhen
VWRB
tp783
a(Vwe
VPRP
tp784
a(Vwere
VVBD
tp785
a(Vdissatisfied
VVBN
tp786
a(Vwith
VIN
tp787
a(Vthe
VDT
tp788
a(Vpolitical
VJJ
tp789
a(Vsituation
VNN
tp790
a(Vin
VIN
tp791
a(Vthat
VDT
tp792
a(Vcountry
VNN
tp793
a(V,
V,
tp794
a(Vthe
VDT
tp795
a(Vnegotiations
VNNS
tp796
a(Vwere
VVBD
tp797
a(Vsuspended
VVBN
tp798
a(Vfor
VIN
tp799
a(Va
VDT
tp800
a(Vnumber
VNN
tp801
a(Vof
VIN
tp802
a(Vyears
VNNS
tp803
a(V.
V.
tp804
aa(lp805
(VI
VPRP
tp806
a(Vam
VVBP
tp807
a(Vin
VIN
tp808
a(Va
VDT
tp809
a(Vposition
VNN
tp810
a(Vof
VIN
tp811
a(Vpower
VNN
tp812
a(Vand
VCC
tp813
a(Vtry
VVB
tp814
a(Vto
VTO
tp815
a(Vexploit
VVB
tp816
a(Vit
VPRP
tp817
a(V.
V.
tp818
aa(lp819
(VWe
VPRP
tp820
a(Vhave
VVBP
tp821
a(Vreinforced
VVBN
tp822
a(Vour
VPRP$
tp823
a(Vrelationship
VNN
tp824
a(Vwith
VIN
tp825
a(Vour
VPRP$
tp826
a(Vglobal
VJJ
tp827
a(Vpartners
VNNS
tp828
a(V.
V.
tp829
aa(lp830
(VWe
VPRP
tp831
a(Vneed
VVBP
tp832
a(Vreform
VNN
tp833
a(V,
V,
tp834
a(Vbut
VCC
tp835
a(Vwe
VPRP
tp836
a(Vcan
VMD
tp837
a(Valso
VRB
tp838
a(Vimplement
VVB
tp839
a(Vit
VPRP
tp840
a(Vwithin
VIN
tp841
a(Vthese
VDT
tp842
a(Vpolicy
VNN
tp843
a(Vsectors
VNNS
tp844
a(V.
V.
tp845
aa(lp846
(VEurope
VNNP
tp847
a(Vmust
VMD
tp848
a(Vbe
VVB
tp849
a(Vable
VJJ
tp850
a(Vto
VTO
tp851
a(Vreact
VVB
tp852
a(Vto
VTO
tp853
a(Vrapid
VJJ
tp854
a(Vchanges
VNNS
tp855
a(Vin
VIN
tp856
a(Vthe
VDT
tp857
a(Vworld
VNN
tp858
a(V.
V.
tp859
aa(lp860
(VHowever
VRB
tp861
a(V,
V,
tp862
a(Vwhether
VIN
tp863
a(Vyou
VPRP
tp864
a(Vlike
VIN
tp865
a(Vit
VPRP
tp866
a(Vor
VCC
tp867
a(Vnot
VRB
tp868
a(V,
V,
tp869
a(Vdecisions
VNNS
tp870
a(Vwere
VVBD
tp871
a(Vtaken
VVBN
tp872
a(Vat
VIN
tp873
a(Vintergovernmental
VJJ
tp874
a(Vlevel
VNN
tp875
a(V.
V.
tp876
aa(lp877
(VToday
VNN
tp878
a(V,
V,
tp879
a(Vthe
VDT
tp880
a(Vcommon
VJJ
tp881
a(Vview
VNN
tp882
a(Vis
VVBZ
tp883
a(Vthat
VIN
tp884
a(Vthe
VDT
tp885
a(Vwoman
VNN
tp886
a(Vand
VCC
tp887
a(Vher
VPRP$
tp888
a(Vtestimony
VNN
tp889
a(Vshould
VMD
tp890
a(Vbe
VVB
tp891
a(Vrelied
VVBN
tp892
a(Vupon
VIN
tp893
a(Vin
VIN
tp894
a(Vcourt
VNN
tp895
a(V.
V.
tp896
aa(lp897
(VThe
VDT
tp898
a(Vjoint
VJJ
tp899
a(Vdeclaration
VNN
tp900
a(Vof
VIN
tp901
a(V16
VCD
tp902
a(VApril
VNNP
tp903
a(Vissued
VVBN
tp904
a(Vby
VIN
tp905
a(Vall
VPDT
tp906
a(Vthe
VDT
tp907
a(VACTA
VNNP
tp908
a(Vparties
VNNS
tp909
a(Vis
VVBZ
tp910
a(Vquite
VRB
tp911
a(Vclear
VJJ
tp912
a(V.
V.
tp913
aa(lp914
(VThe
VDT
tp915
a(VPreussen
VNNP
tp916
a(VGloria
VNNP
tp917
a(V.
V.
tp918
aa(lp919
(VI
VPRP
tp920
a(Vhave
VVBP
tp921
a(Vone
VCD
tp922
a(Vthing
VNN
tp923
a(Vto
VTO
tp924
a(Vsay
VVB
tp925
a(Von
VIN
tp926
a(Vthe
VDT
tp927
a(Vsubject
VNN
tp928
a(Vof
VIN
tp929
a(Vthe
VDT
tp930
a(VMens
VNNPS
tp931
a(Vfile
VNN
tp932
a(V.
V.
tp933
aa(lp934
(VIt
VPRP
tp935
a(Vis
VVBZ
tp936
a(Vtrue
VJJ
tp937
a(Vthat
VIN
tp938
a(Vbeing
VVBG
tp939
a(Von
VIN
tp940
a(Vthe
VDT
tp941
a(Vleft
VNN
tp942
a(Vdoes
VVBZ
tp943
a(Vnot
VRB
tp944
a(Vmake
VVB
tp945
a(Vyou
VPRP
tp946
a(Vproof
VNN
tp947
a(Vagainst
VIN
tp948
a(Va
VDT
tp949
a(Vfascist
VJJ
tp950
a(Vmindset
VNN
tp951
a(V.
V.
tp952
aa(lp953
(VAccess
VNN
tp954
a(Vto
VTO
tp955
a(Vmedicines
VNNS
tp956
a(Vis
VVBZ
tp957
a(Vnot
VRB
tp958
a(Vonly
VRB
tp959
a(Va
VDT
tp960
a(Vquestion
VNN
tp961
a(Vof
VIN
tp962
a(Vmoney
VNN
tp963
a(V.
V.
tp964
aa(lp965
(VI
VPRP
tp966
a(Vrecall
VVBP
tp967
a(Va
VDT
tp968
a(Vmilitary
VJJ
tp969
a(Vregulation
VNN
tp970
a(Vwhich
VWDT
tp971
a(Vstipulated
VVBD
tp972
a(Vthat
VIN
tp973
a(Va
VDT
tp974
a(Vsingle
VJJ
tp975
a(Vwagon
VNN
tp976
a(Vcould
VMD
tp977
a(Vcarry
VVB
tp978
a(V8
VCD
tp979
a(Vhorses
VNNS
tp980
a(Vor
VCC
tp981
a(V48
VCD
tp982
a(Vmen
VNNS
tp983
a(V.
V.
tp984
aa(lp985
(VIt
VPRP
tp986
a(Vwas
VVBD
tp987
a(Vswift
VJJ
tp988
a(Vand
VCC
tp989
a(Veffective
VJJ
tp990
a(Vand
VCC
tp991
a(Vsucceeded
VVBD
tp992
a(Vin
VIN
tp993
a(Vits
VPRP$
tp994
a(Vpurpose
VNN
tp995
a(Vof
VIN
tp996
a(Vremoving
VVBG
tp997
a(Vof
VIN
tp998
a(Van
VDT
tp999
a(Vevil
VJJ
tp1000
a(Vregime
VNN
tp1001
a(V.
V.
tp1002
aa(lp1003
(VThe
VDT
tp1004
a(Vsecond
VJJ
tp1005
a(Vis
VVBZ
tp1006
a(Vthat
VIN
tp1007
a(Vthe
VDT
tp1008
a(Vpeople
VNNS
tp1009
a(Vsitting
VVBG
tp1010
a(Vbehind
VIN
tp1011
a(Vthe
VDT
tp1012
a(Vglass
VNN
tp1013
a(Vscreens
VNNS
tp1014
a(V-
V:
tp1015
a(Vthe
VDT
tp1016
a(Vinterpreters
VNNS
tp1017
a(V-
V:
tp1018
a(Valso
VRB
tp1019
a(Vwant
VVBP
tp1020
a(Vto
VTO
tp1021
a(Vgo
VVB
tp1022
a(Vhome
VNN
tp1023
a(V.
V.
tp1024
aa(lp1025
(VLooking
VVBG
tp1026
a(Vat
VIN
tp1027
a(Vthe
VDT
tp1028
a(Vpriorities
VNNS
tp1029
a(V,
V,
tp1030
a(Vit
VPRP
tp1031
a(Vis
VVBZ
tp1032
a(Vfunny
VJJ
tp1033
a(Vto
VTO
tp1034
a(Vsee
VVB
tp1035
a(Vthat
VIN
tp1036
a(Vsome
VDT
tp1037
a(Veleven
VNNS
tp1038
a(Vremain
VVBP
tp1039
a(Vof
VIN
tp1040
a(Vthe
VDT
tp1041
a(Voriginal
VJJ
tp1042
a(Veighteen
VCD
tp1043
a(Vguidelines
VNNS
tp1044
a(V.
V.
tp1045
aa(lp1046
(VOn
VIN
tp1047
a(Vthe
VDT
tp1048
a(Vground
VNN
tp1049
a(V,
V,
tp1050
a(Vwe
VPRP
tp1051
a(Vonly
VRB
tp1052
a(Vwanted
VVBD
tp1053
a(V\u2026
VCD
tp1054
aa(lp1055
(VIn
VIN
tp1056
a(Va
VDT
tp1057
a(Vdebate
VNN
tp1058
a(Vyesterday
VNN
tp1059
a(Von
VIN
tp1060
a(Vthe
VDT
tp1061
a(Vsituation
VNN
tp1062
a(Vin
VIN
tp1063
a(VIraq
VNNP
tp1064
a(V,
V,
tp1065
a(Va
VDT
tp1066
a(Vdeeply
VRB
tp1067
a(Vrespected
VJJ
tp1068
a(VFrench
VJJ
tp1069
a(Vcolleague
VNN
tp1070
a(Vsaid
VVBD
tp1071
a(Vthat
VIN
tp1072
a(Vit
VPRP
tp1073
a(Vwas
VVBD
tp1074
a(Vhardly
VRB
tp1075
a(Vthe
VDT
tp1076
a(Vtime
VNN
tp1077
a(Vto
VTO
tp1078
a(Vlay
VVB
tp1079
a(Vblame
VNN
tp1080
a(Vwhen
VWRB
tp1081
a(Vmen
VNNS
tp1082
a(V,
V,
tp1083
a(Vwomen
VNNS
tp1084
a(Vand
VCC
tp1085
a(Vchildren
VNNS
tp1086
a(Vwere
VVBD
tp1087
a(Vdying
VVBG
tp1088
a(Vin
VIN
tp1089
a(Vthis
VDT
tp1090
a(Vtragic
VJJ
tp1091
a(Vwar
VNN
tp1092
a(V.
V.
tp1093
aa(lp1094
(VThe
VDT
tp1095
a(Vexperts
VNNS
tp1096
a(Vsay
VVBP
tp1097
a(Va
VDT
tp1098
a(Vmaximum
VNN
tp1099
a(Vof
VIN
tp1100
a(V10
VCD
tp1101
a(V%
VNN
tp1102
a(V,
V,
tp1103
a(Vwhich
VWDT
tp1104
a(Vwould
VMD
tp1105
a(Vmean
VVB
tp1106
a(Va
VDT
tp1107
a(Vrequirement
VNN
tp1108
a(Vten
VCD
tp1109
a(Vtimes
VNNS
tp1110
a(Vmore
VRBR
tp1111
a(Vstringent
VJJ
tp1112
a(V.
V.
tp1113
aa(lp1114
(VWe
VPRP
tp1115
a(Vhave
VVBP
tp1116
a(Valso
VRB
tp1117
a(Vprovided
VVBN
tp1118
a(Vthese
VDT
tp1119
a(Vauthorities
VNNS
tp1120
a(Vwith
VIN
tp1121
a(Vappropriate
VJJ
tp1122
a(Vguidelines
VNNS
tp1123
a(V.
V.
tp1124
aa(lp1125
(VThese
VDT
tp1126
a(Vevents
VNNS
tp1127
a(Vdo
VVBP
tp1128
a(V,
V,
tp1129
a(Vhowever
VRB
tp1130
a(V,
V,
tp1131
a(Vgive
VVB
tp1132
a(Vus
VPRP
tp1133
a(Vthe
VDT
tp1134
a(Vopportunity
VNN
tp1135
a(Vto
VTO
tp1136
a(Vrebuild
VVB
tp1137
a(Vconfidence
VNN
tp1138
a(Veven
VRB
tp1139
a(Vat
VIN
tp1140
a(Vthis
VDT
tp1141
a(Vlevel
VNN
tp1142
a(V.
V.
tp1143
aa(lp1144
(VSuch
VJJ
tp1145
a(Vcomparisons
VNNS
tp1146
a(Vcreate
VVBP
tp1147
a(Vconfusion
VNN
tp1148
a(Vand
VCC
tp1149
a(Vmight
VMD
tp1150
a(Veven
VRB
tp1151
a(Vgive
VVB
tp1152
a(Vthe
VDT
tp1153
a(Vimpression
VNN
tp1154
a(Vthat
VIN
tp1155
a(Vparticular
VJJ
tp1156
a(Valcoholic
VJJ
tp1157
a(Vdrinks
VNNS
tp1158
a(Vcould
VMD
tp1159
a(Vsafely
VRB
tp1160
a(Vbe
VVB
tp1161
a(Vconsumed
VVBN
tp1162
a(Vin
VIN
tp1163
a(Vlarger
VJJR
tp1164
a(Vquantities
VNNS
tp1165
a(V.
V.
tp1166
aa(lp1167
(VThe
VDT
tp1168
a(Vdebate
VNN
tp1169
a(Vshows
VVBZ
tp1170
a(Vthat
VIN
tp1171
a(Vthis
VDT
tp1172
a(Vsubject
VNN
tp1173
a(Vis
VVBZ
tp1174
a(Va
VDT
tp1175
a(Vcentral
VJJ
tp1176
a(Vissue
VNN
tp1177
a(Vfor
VIN
tp1178
a(VEurope
VNNP
tp1179
a(Vand
VCC
tp1180
a(Vthat
VIN
tp1181
a(Vit
VPRP
tp1182
a(Vis
VVBZ
tp1183
a(Va
VDT
tp1184
a(Vpriority
VNN
tp1185
a(Vwhich
VWDT
tp1186
a(Vthe
VDT
tp1187
a(VCommission
VNNP
tp1188
a(Vbelieves
VVBZ
tp1189
a(Vcan
VMD
tp1190
a(Vcontribute
VVB
tp1191
a(Vtowards
VIN
tp1192
a(Vimproving
VVBG
tp1193
a(Vthe
VDT
tp1194
a(Vquality
VNN
tp1195
a(Vof
VIN
tp1196
a(Vlife
VNN
tp1197
a(Vand
VCC
tp1198
a(Vpreserving
VVBG
tp1199
a(Vresources
VNNS
tp1200
a(V,
V,
tp1201
a(Vespecially
VRB
tp1202
a(Vfor
VIN
tp1203
a(Vthe
VDT
tp1204
a(Vbenefit
VNN
tp1205
a(Vof
VIN
tp1206
a(Vfuture
VJJ
tp1207
a(Vgenerations
VNNS
tp1208
a(V.
V.
tp1209
aa(lp1210
(VThere
VEX
tp1211
a(Vis
VVBZ
tp1212
a(Vstill
VRB
tp1213
a(Va
VDT
tp1214
a(Vvery
VRB
tp1215
a(Vlong
VJJ
tp1216
a(Vway
VNN
tp1217
a(Vto
VTO
tp1218
a(Vgo
VVB
tp1219
a(Vbefore
VIN
tp1220
a(Vthe
VDT
tp1221
a(Vwhole
VNN
tp1222
a(Vof
VIN
tp1223
a(VEurope
VNNP
tp1224
a(V,
V,
tp1225
a(Vaway
VRB
tp1226
a(Vfrom
VIN
tp1227
a(Vthe
VDT
tp1228
a(Vsong
VNN
tp1229
a(Vfestival
VNN
tp1230
a(V,
V,
tp1231
a(Vvotes
VNNS
tp1232
a(Vfor
VIN
tp1233
a(VTurkey
VNNP
tp1234
a(V.
V.
tp1235
aa(lp1236
(VWe
VPRP
tp1237
a(Vfound
VVBD
tp1238
a(Vit
VPRP
tp1239
a(Vregrettable
VJJ
tp1240
a(Vthat
VIN
tp1241
a(Vthe
VDT
tp1242
a(Vconcept
VNN
tp1243
a(Vof
VIN
tp1244
a(Vmicrocredit
VNN
tp1245
a(Vwas
VVBD
tp1246
a(Vnot
VRB
tp1247
a(Vmentioned
VVBN
tp1248
a(Vin
VIN
tp1249
a(Vthe
VDT
tp1250
a(Voriginal
VJJ
tp1251
a(Vmaterial
VNN
tp1252
a(V.
V.
tp1253
aa(lp1254
(VWe
VPRP
tp1255
a(Vneed
VVBP
tp1256
a(Vto
VTO
tp1257
a(Vcommunicate
VVB
tp1258
a(Vand
VCC
tp1259
a(Vtherefore
VRB
tp1260
a(Vraise
VVB
tp1261
a(Vawareness
VNN
tp1262
a(Vso
VRB
tp1263
a(Vas
VIN
tp1264
a(Vto
VTO
tp1265
a(Vinvolve
VVB
tp1266
a(Vcivil
VJJ
tp1267
a(Vsociety
VNN
tp1268
a(V.
V.
tp1269
aa(lp1270
(VI
VPRP
tp1271
a(Vhave
VVBP
tp1272
a(Vtwo
VCD
tp1273
a(Vquestions
VNNS
tp1274
a(Vabout
VIN
tp1275
a(Vthat
VDT
tp1276
a(V.
V.
tp1277
aa(lp1278
(VNo
VDT
tp1279
a(Vmilitary
VJJ
tp1280
a(Varsenals
VNNS
tp1281
a(Vand
VCC
tp1282
a(Vno
VDT
tp1283
a(Vnew
VJJ
tp1284
a(Vnuclear
VJJ
tp1285
a(Varms
VNNS
tp1286
a(Vrace
VNN
tp1287
a(Vcan
VMD
tp1288
a(Vprovide
VVB
tp1289
a(Vsecurity
VNN
tp1290
a(Vagainst
VIN
tp1291
a(Vthe
VDT
tp1292
a(Vresentment
VNN
tp1293
a(Vof
VIN
tp1294
a(Vthe
VDT
tp1295
a(Vpoor
VJJ
tp1296
a(V.
V.
tp1297
aa(lp1298
(VThey
VPRP
tp1299
a(Vare
VVBP
tp1300
a(Voften
VRB
tp1301
a(Vnot
VRB
tp1302
a(Vgiven
VVBN
tp1303
a(Vhealth
VNN
tp1304
a(Vinsurance
VNN
tp1305
a(V,
V,
tp1306
a(Vbeing
VVBG
tp1307
a(Vforced
VVBN
tp1308
a(Veven
VRB
tp1309
a(Vto
VTO
tp1310
a(Vpay
VVB
tp1311
a(Vfor
VIN
tp1312
a(Vit
VPRP
tp1313
a(Vout
VIN
tp1314
a(Vof
VIN
tp1315
a(Vtheir
VPRP$
tp1316
a(Vown
VJJ
tp1317
a(Vpocket
VNN
tp1318
a(V.
V.
tp1319
aa(lp1320
(VInstead
VRB
tp1321
a(V,
V,
tp1322
a(Vonce
VRB
tp1323
a(Vagain
VRB
tp1324
a(V,
V,
tp1325
a(Vthe
VDT
tp1326
a(Vworn-out
VJJ
tp1327
a(Vcredo
VNN
tp1328
a(Vof
VIN
tp1329
a(Vultra-liberalism
VNN
tp1330
a(Vseems
VVBZ
tp1331
a(Vto
VTO
tp1332
a(Vhave
VVB
tp1333
a(Vdominated
VVBN
tp1334
a(Vthe
VDT
tp1335
a(Vproceedings
VNNS
tp1336
a(V.
V.
tp1337
aa(lp1338
(VThere
VEX
tp1339
a(Vis
VVBZ
tp1340
a(Vno
VDT
tp1341
a(Vreal
VJJ
tp1342
a(Vrespect
VNN
tp1343
a(Vfor
VIN
tp1344
a(Vthe
VDT
tp1345
a(Vsmaller
VJJR
tp1346
a(VMember
VNNP
tp1347
a(VStates
VNNPS
tp1348
a(V,
V,
tp1349
a(Vmerely
VRB
tp1350
a(Vlip-service
VJJ
tp1351
a(V.
V.
tp1352
aa(lp1353
(VPractice
VNN
tp1354
a(Vwill
VMD
tp1355
a(Vshow
VVB
tp1356
a(Vwhether
VIN
tp1357
a(Vthese
VDT
tp1358
a(Vreally
VRB
tp1359
a(Vbring
VVB
tp1360
a(Vprogress
VNN
tp1361
a(V.
V.
tp1362
aa(lp1363
(VIn
VIN
tp1364
a(Vanother
VDT
tp1365
a(Vpositive
VJJ
tp1366
a(Vdevelopment
VNN
tp1367
a(V,
V,
tp1368
a(VI
VPRP
tp1369
a(Valso
VRB
tp1370
a(Vwelcome
VVBP
tp1371
a(Vthe
VDT
tp1372
a(Vadoption
VNN
tp1373
a(Vof
VIN
tp1374
a(Vthe
VDT
tp1375
a(VConstitution
VNNP
tp1376
a(Vof
VIN
tp1377
a(VMontenegro
VNNP
tp1378
a(Vonly
VRB
tp1379
a(Va
VDT
tp1380
a(Vfew
VJJ
tp1381
a(Vdays
VNNS
tp1382
a(Vafter
VIN
tp1383
a(Vthe
VDT
tp1384
a(VSAA
VNNP
tp1385
a(Vwas
VVBD
tp1386
a(Vsigned
VVBN
tp1387
a(V.
V.
tp1388
aa(lp1389
(VIt
VPRP
tp1390
a(Vwas
VVBD
tp1391
a(Vconfused
VVBN
tp1392
a(V.
V.
tp1393
aa(lp1394
(VTheir
VPRP$
tp1395
a(Vaccession
VNN
tp1396
a(Vwill
VMD
tp1397
a(Vnot
VRB
tp1398
a(Vonly
VRB
tp1399
a(Vbenefit
VVB
tp1400
a(Vthem
VPRP
tp1401
a(V,
V,
tp1402
a(Vbut
VCC
tp1403
a(Vwill
VMD
tp1404
a(Valso
VRB
tp1405
a(Vadd
VVB
tp1406
a(Vsomething
VNN
tp1407
a(Vto
VTO
tp1408
a(Vthe
VDT
tp1409
a(VEU
VNNP
tp1410
a(V.
V.
tp1411
aa(lp1412
(VI
VPRP
tp1413
a(Vspoke
VVBD
tp1414
a(Vin
VIN
tp1415
a(Vour
VPRP$
tp1416
a(Vplenary
VJJ
tp1417
a(Vmeeting
VNN
tp1418
a(Vin
VIN
tp1419
a(VLuxembourg
VNNP
tp1420
a(Vall
VPDT
tp1421
a(Vthose
VDT
tp1422
a(Vyears
VNNS
tp1423
a(Vago
VIN
tp1424
a(Vin
VIN
tp1425
a(Vsupport
VNN
tp1426
a(Vof
VIN
tp1427
a(Vthe
VDT
tp1428
a(Vfirst
VJJ
tp1429
a(VLive
VJJ
tp1430
a(VAid
VNN
tp1431
a(Vevent
VNN
tp1432
a(V.
V.
tp1433
aa(lp1434
(VHowever
VRB
tp1435
a(V,
V,
tp1436
a(Vmy
VPRP$
tp1437
a(Vhope
VNN
tp1438
a(Vlies
VVBZ
tp1439
a(Vin
VIN
tp1440
a(VCommissioner
VNNP
tp1441
a(VPatten
VNNP
tp1442
a(V&apos;
VNN
tp1443
a(Vs
VVBZ
tp1444
a(Vwords
VNNS
tp1445
a(V,
V,
tp1446
a(Vin
VIN
tp1447
a(VMr
VNNP
tp1448
a(VSolana
VNNP
tp1449
a(V&apos;
VNN
tp1450
a(Vs
VVBZ
tp1451
a(Vwords
VNNS
tp1452
a(V,
V,
tp1453
a(Vin
VIN
tp1454
a(Vactions
VNNS
tp1455
a(Vand
VCC
tp1456
a(Vsigns
VNNS
tp1457
a(V,
V,
tp1458
a(Vand
VCC
tp1459
a(VI
VPRP
tp1460
a(Vwould
VMD
tp1461
a(Vlike
VVB
tp1462
a(Vto
VTO
tp1463
a(Vtell
VVB
tp1464
a(Vyou
VPRP
tp1465
a(Vof
VIN
tp1466
a(Vthe
VDT
tp1467
a(Vgreat
VJJ
tp1468
a(Vhope
VNN
tp1469
a(Vthat
VIN
tp1470
a(VI
VPRP
tp1471
a(Vhave
VVBP
tp1472
a(Vin
VIN
tp1473
a(VIsraeli
VJJ
tp1474
a(Vsociety
VNN
tp1475
a(V.
V.
tp1476
aa(lp1477
(VOn
VIN
tp1478
a(Vthe
VDT
tp1479
a(Vother
VJJ
tp1480
a(Vhand
VNN
tp1481
a(V,
V,
tp1482
a(Vthey
VPRP
tp1483
a(Vthen
VRB
tp1484
a(Valso
VRB
tp1485
a(Vhave
VVBP
tp1486
a(Vto
VTO
tp1487
a(Vpay
VVB
tp1488
a(Vin
VIN
tp1489
a(Vdribs
VNNS
tp1490
a(Vand
VCC
tp1491
a(Vdrabs
VNNS
tp1492
a(V,
V,
tp1493
a(Vthat
VDT
tp1494
a(Vis
VVBZ
tp1495
a(Vto
VTO
tp1496
a(Vsay
VVB
tp1497
a(V,
V,
tp1498
a(Vby
VIN
tp1499
a(Vunderestimating
VVBG
tp1500
a(Vtheir
VPRP$
tp1501
a(VGNI
VNNP
tp1502
a(V.
V.
tp1503
aa(lp1504
(VThose
VDT
tp1505
a(Vfluctuations
VNNS
tp1506
a(Vaccounted
VVBD
tp1507
a(Vfor
VIN
tp1508
a(Vabout
VRB
tp1509
a(V20
VCD
tp1510
a(V%
VNN
tp1511
a(Vof
VIN
tp1512
a(Vthe
VDT
tp1513
a(Vjob
VNN
tp1514
a(Vlosses
VNNS
tp1515
a(Vincurred
VVBN
tp1516
a(Vin
VIN
tp1517
a(Vthe
VDT
tp1518
a(VUnion
VNNP
tp1519
a(Vbetween
VIN
tp1520
a(V1993
VCD
tp1521
a(Vand
VCC
tp1522
a(V1995
VCD
tp1523
a(V.
V.
tp1524
aa(lp1525
(VWhat
VWP
tp1526
a(Vdo
VVBP
tp1527
a(Vyou
VPRP
tp1528
a(Vmean
VVB
tp1529
a(Vby
VIN
tp1530
a(Vthat
VDT
tp1531
a(V?
V.
tp1532
aa(lp1533
(VWe
VPRP
tp1534
a(Vdo
VVBP
tp1535
a(V,
V,
tp1536
a(Vhowever
VRB
tp1537
a(V,
V,
tp1538
a(Vsee
VVB
tp1539
a(Va
VDT
tp1540
a(Vneed
VNN
tp1541
a(Vto
VTO
tp1542
a(Vmaintain
VVB
tp1543
a(Vsome
VDT
tp1544
a(Vtop-down
VJJ
tp1545
a(Vmeasurements
VNNS
tp1546
a(V.
V.
tp1547
aa(lp1548
(VI
VPRP
tp1549
a(Vbelieve
VVBP
tp1550
a(VI
VPRP
tp1551
a(Vam
VVBP
tp1552
a(Vas
VIN
tp1553
a(Vsensitive
VJJ
tp1554
a(Vas
VIN
tp1555
a(Vanybody
VNN
tp1556
a(Vhere
VRB
tp1557
a(Vto
VTO
tp1558
a(Vthe
VDT
tp1559
a(Vimportance
VNN
tp1560
a(Vof
VIN
tp1561
a(Vbooks
VNNS
tp1562
a(V,
V,
tp1563
a(Vof
VIN
tp1564
a(Vculture
VNN
tp1565
a(V.
V.
tp1566
aa(lp1567
(VThese
VDT
tp1568
a(Vinclude
VVBP
tp1569
a(Vthe
VDT
tp1570
a(Venergy
VNN
tp1571
a(Vsector
VNN
tp1572
a(V,
V,
tp1573
a(VIran
VNNP
tp1574
a(Vand
VCC
tp1575
a(Vclimate
VNN
tp1576
a(Vchange
VNN
tp1577
a(V.
V.
tp1578
aa(lp1579
(VCombined
VVBN
tp1580
a(Vgoods
VNNS
tp1581
a(Vtransport
VNN
tp1582
aa(lp1583
(VFor
VIN
tp1584
a(Vthis
VDT
tp1585
a(Vreason
VNN
tp1586
a(V,
V,
tp1587
a(Vthe
VDT
tp1588
a(VEuropean
VNNP
tp1589
a(VEnterprise
VNNP
tp1590
a(VNetwork
VNNP
tp1591
a(Vmust
VMD
tp1592
a(Vbe
VVB
tp1593
a(Vstrengthened
VVBN
tp1594
a(V.
V.
tp1595
aa(lp1596
(VWe
VPRP
tp1597
a(Vlook
VVBP
tp1598
a(Vforward
VRB
tp1599
a(Vto
VTO
tp1600
a(Vhearing
VVBG
tp1601
a(Vmore
VJJR
tp1602
a(Vof
VIN
tp1603
a(Vhis
VPRP$
tp1604
a(Videas
VNNS
tp1605
a(Vover
VIN
tp1606
a(Vthe
VDT
tp1607
a(Vnext
VJJ
tp1608
a(Vfew
VJJ
tp1609
a(Vmonths
VNNS
tp1610
a(V.
V.
tp1611
aa(lp1612
(VThe
VDT
tp1613
a(Vpresence
VNN
tp1614
a(Vtoday
VNN
tp1615
a(Vof
VIN
tp1616
a(Vnew
VJJ
tp1617
a(VMembers
VNNS
tp1618
a(Vsignals
VVBZ
tp1619
a(Vthe
VDT
tp1620
a(Vcompletion
VNN
tp1621
a(Vof
VIN
tp1622
a(Vthe
VDT
tp1623
a(Vfifth
VJJ
tp1624
a(Venlargement
VNN
tp1625
a(Vof
VIN
tp1626
a(Vour
VPRP$
tp1627
a(VUnion
VNNP
tp1628
a(V.
V.
tp1629
aa(lp1630
(VThe
VDT
tp1631
a(Vdraft
VNN
tp1632
a(Varticle
VNN
tp1633
a(Vconcerning
VVBG
tp1634
a(Vthe
VDT
tp1635
a(Vprotection
VNN
tp1636
a(Vof
VIN
tp1637
a(Vchildren
VNNS
tp1638
a(Vincorporates
VVBZ
tp1639
a(Vthe
VDT
tp1640
a(Vmain
VJJ
tp1641
a(Vprinciples
VNNS
tp1642
a(Vof
VIN
tp1643
a(Vthe
VDT
tp1644
a(VNew
VNNP
tp1645
a(VYork
VNNP
tp1646
a(VConvention
VNNP
tp1647
a(Vas
VIN
tp1648
a(Vthe
VDT
tp1649
a(Vright
VNN
tp1650
a(Vto
VTO
tp1651
a(Vsuch
VJJ
tp1652
a(Vprotection
VNN
tp1653
a(Vand
VCC
tp1654
a(Vcare
VNN
tp1655
a(Vas
VIN
tp1656
a(Vis
VVBZ
tp1657
a(Vnecessary
VJJ
tp1658
a(Vfor
VIN
tp1659
a(Vtheir
VPRP$
tp1660
a(Vwell-being
VNN
tp1661
a(Vand
VCC
tp1662
a(Vconsideration
VNN
tp1663
a(V.
V.
tp1664
aa(lp1665
(VThey
VPRP
tp1666
a(Vneed
VVBP
tp1667
a(Va
VDT
tp1668
a(V&apos;
VJJ
tp1669
a(VEuropean
VJJ
tp1670
a(Vsoul
VNN
tp1671
a(V&apos;
VNN
tp1672
a(V,
V,
tp1673
a(Vas
VIN
tp1674
a(Va
VDT
tp1675
a(Vdistinguished
VJJ
tp1676
a(VSpanish
VJJ
tp1677
a(Vprofessor
VNN
tp1678
a(Vonce
VRB
tp1679
a(Vsaid
VVBD
tp1680
a(V.
V.
tp1681
aa(lp1682
(VWe
VPRP
tp1683
a(Vshould
VMD
tp1684
a(Vexport
VVB
tp1685
a(Von
VIN
tp1686
a(Vthe
VDT
tp1687
a(Vhook
VNN
tp1688
a(Vand
VCC
tp1689
a(Vnot
VRB
tp1690
a(Vthe
VDT
tp1691
a(Vhoof
VNN
tp1692
a(V.
V.
tp1693
aa(lp1694
(VA
VDT
tp1695
a(Vgood
VJJ
tp1696
a(Vtrade
VNN
tp1697
a(Vdeal
VNN
tp1698
a(Vmust
VMD
tp1699
a(Valso
VRB
tp1700
a(Vbe
VVB
tp1701
a(Vfair
VJJ
tp1702
a(V.
V.
tp1703
aa(lp1704
(VThis
VDT
tp1705
a(Vmeans
VVBZ
tp1706
a(Vpressing
VVBG
tp1707
a(Vto
VTO
tp1708
a(Vkeep
VVB
tp1709
a(Vall
VDT
tp1710
a(Voptions
VNNS
tp1711
a(V\u2013
VNN
tp1712
a(Vtaxation
VNN
tp1713
a(V,
V,
tp1714
a(Vemissions
VNNS
tp1715
a(Vcharging
VVBG
tp1716
a(Vand
VCC
tp1717
a(Vemissions
VNNS
tp1718
a(Vtrading
VVBG
tp1719
a(V\u2013
VRB
tp1720
a(Vopen
VJJ
tp1721
a(V.
V.
tp1722
aa(lp1723
(VNor
VCC
tp1724
a(Vare
VVBP
tp1725
a(Vthere
VEX
tp1726
a(Vany
VDT
tp1727
a(Vconclusions
VNNS
tp1728
a(Vabout
VIN
tp1729
a(Vbuildings
VNNS
tp1730
a(Vpolicy
VNN
tp1731
a(Vin
VIN
tp1732
a(VBrussels
VNNP
tp1733
a(V.
V.
tp1734
aa(lp1735
(VYou
VPRP
tp1736
a(Vare
VVBP
tp1737
a(Vthe
VDT
tp1738
a(Vonly
VJJ
tp1739
a(Vperson
VNN
tp1740
a(Vwho
VWP
tp1741
a(Vever
VRB
tp1742
a(Vdecided
VVBD
tp1743
a(V,
V,
tp1744
a(Vwhen
VWRB
tp1745
a(VPresident-in-Office
VNNP
tp1746
a(Vof
VIN
tp1747
a(Vthe
VDT
tp1748
a(VCouncil
VNNP
tp1749
a(V,
V,
tp1750
a(Vto
VTO
tp1751
a(Venter
VVB
tp1752
a(Van
VDT
tp1753
a(Velection
VNN
tp1754
a(Vcampaign
VNN
tp1755
a(Vby
VIN
tp1756
a(Vfounding
VNN
tp1757
a(V,
V,
tp1758
a(Vin
VIN
tp1759
a(Va
VDT
tp1760
a(Vfit
VNN
tp1761
a(Vof
VIN
tp1762
a(Vmegalomania
VNN
tp1763
a(Vwhich
VWDT
tp1764
a(Vfinds
VVBZ
tp1765
a(Vno
VDT
tp1766
a(Vparallel
VNN
tp1767
a(Vin
VIN
tp1768
a(Vthe
VDT
tp1769
a(Vhistory
VNN
tp1770
a(Vof
VIN
tp1771
a(Vwestern
VJJ
tp1772
a(Vdemocracy
VNN
tp1773
a(V,
V,
tp1774
a(Va
VDT
tp1775
a(Vparty
VNN
tp1776
a(Vwhich
VWDT
tp1777
a(Vbears
VVBZ
tp1778
a(Vyour
VPRP$
tp1779
a(Vown
VJJ
tp1780
a(Vname
VNN
tp1781
a(V.
V.
tp1782
aa(lp1783
(VI
VPRP
tp1784
a(Vhave
VVBP
tp1785
a(Vseen
VVBN
tp1786
a(Vthe
VDT
tp1787
a(Vpictures
VNNS
tp1788
a(V.
V.
tp1789
aa(lp1790
(VTo
VTO
tp1791
a(VSasha
VNNP
tp1792
a(V,
V,
tp1793
a(Vthe
VDT
tp1794
a(Vjudge
VNN
tp1795
a(Vfrom
VIN
tp1796
a(VNis
VNNP
tp1797
a(V,
V,
tp1798
a(Vwho
VWP
tp1799
a(Vdied
VVBD
tp1800
a(Vsomewhere
VRB
tp1801
a(Vnear
VIN
tp1802
a(VSplit
VNN
tp1803
a(Vafter
VIN
tp1804
a(Vdreadful
VJJ
tp1805
a(Vtorture
VVBP
tp1806
a(V,
V,
tp1807
a(Vas
VIN
tp1808
a(Vwe
VPRP
tp1809
a(Vheard
VVBD
tp1810
a(Vlater
VRB
tp1811
a(V.
V.
tp1812
aa(lp1813
(VAnd
VCC
tp1814
a(Vif
VIN
tp1815
a(Vthey
VPRP
tp1816
a(Vwere
VVBD
tp1817
a(Vnot
VRB
tp1818
a(Vdiscussed
VVBN
tp1819
a(Vin
VIN
tp1820
a(VSingapore
VNNP
tp1821
a(Vwe
VPRP
tp1822
a(Vwould
VMD
tp1823
a(Vlike
VVB
tp1824
a(Vto
VTO
tp1825
a(Vknow
VVB
tp1826
a(Vwhy
VWRB
tp1827
a(V.
V.
tp1828
aa(lp1829
(VIt
VPRP
tp1830
a(Vis
VVBZ
tp1831
a(Va
VDT
tp1832
a(Vpolicy
VNN
tp1833
a(Vthat
VWDT
tp1834
a(Vis
VVBZ
tp1835
a(Vslowly
VRB
tp1836
a(Vedging
VVBG
tp1837
a(Vtowards
VIN
tp1838
a(Vdespair
VNN
tp1839
a(V.
V.
tp1840
aa(lp1841
(VOf
VIN
tp1842
a(Vcourse
VNN
tp1843
a(V,
V,
tp1844
a(Vthough
VRB
tp1845
a(V,
V,
tp1846
a(Vit
VPRP
tp1847
a(Vwould
VMD
tp1848
a(Vbe
VVB
tp1849
a(Vvery
VRB
tp1850
a(Vfrustrating
VJJ
tp1851
a(Vto
VTO
tp1852
a(Vproduce
VVB
tp1853
a(Vmany
VJJ
tp1854
a(Vdifferent
VJJ
tp1855
a(Vkinds
VNNS
tp1856
a(Vof
VIN
tp1857
a(Vpackage
VNN
tp1858
a(Vaccording
VVBG
tp1859
a(Vto
VTO
tp1860
a(Vhow
VWRB
tp1861
a(Vhard
VJJ
tp1862
a(Vthe
VDT
tp1863
a(Vwater
VNN
tp1864
a(Vis
VVBZ
tp1865
a(V.
V.
tp1866
aa(lp1867
(VIn
VIN
tp1868
a(Vfact
VNN
tp1869
a(V,
V,
tp1870
a(Veven
VRB
tp1871
a(Vbefore
VIN
tp1872
a(Vthe
VDT
tp1873
a(Vcrisis
VNN
tp1874
a(Verupted
VVBD
tp1875
a(V,
V,
tp1876
a(Vthe
VDT
tp1877
a(Vamount
VNN
tp1878
a(Vof
VIN
tp1879
a(Vdevelopment
VNN
tp1880
a(Vaid
VNN
tp1881
a(Vfrom
VIN
tp1882
a(Vmany
VJJ
tp1883
a(VEU
VNNP
tp1884
a(VMember
VNNP
tp1885
a(VStates
VNNPS
tp1886
a(Vwas
VVBD
tp1887
a(Vfar
VRB
tp1888
a(Vless
VJJR
tp1889
a(Vthan
VIN
tp1890
a(Vwhat
VWP
tp1891
a(Vthey
VPRP
tp1892
a(Vhad
VVBD
tp1893
a(Vpromised
VVBN
tp1894
a(V.
V.
tp1895
aa(lp1896
(VHowever
VRB
tp1897
a(V,
V,
tp1898
a(Vit
VPRP
tp1899
a(Vis
VVBZ
tp1900
a(Vin
VIN
tp1901
a(Vthe
VDT
tp1902
a(Vfinal
VJJ
tp1903
a(Vresult
VNN
tp1904
a(Vof
VIN
tp1905
a(Vthe
VDT
tp1906
a(Vvote
VNN
tp1907
a(Von
VIN
tp1908
a(Vthe
VDT
tp1909
a(Vreport
VNN
tp1910
a(Von
VIN
tp1911
a(Vinformation
VNN
tp1912
a(Vtechnology
VNN
tp1913
a(Vin
VIN
tp1914
a(Vthe
VDT
tp1915
a(Vfield
VNN
tp1916
a(Vof
VIN
tp1917
a(Vcustoms
VNNS
tp1918
a(Vand
VCC
tp1919
a(Vexcise
VNN
tp1920
a(V.
V.
tp1921
aa.