(lp1
(lp2
(VThey
VPRP
tp3
a(Vhave
VVBP
tp4
a(Va
VDT
tp5
a(Vpain
VNN
tp6
a(Vthreshold
VNN
tp7
a(V.
V.
tp8
aa(lp9
(VLet
VVB
tp10
a(Vthem
VPRP
tp11
a(Vput
VVB
tp12
a(Vprinciple
VNN
tp13
a(Vabove
VIN
tp14
a(Vparty
VNN
tp15
a(V.
V.
tp16
aa(lp17
(VWe
VPRP
tp18
a(Vwere
VVBD
tp19
a(Vobliged
VVBN
tp20
a(Vto
VTO
tp21
a(Vbring
VVB
tp22
a(Vour
VPRP$
tp23
a(Vlegislation
VNN
tp24
a(Vinto
VIN
tp25
a(Vline
VNN
tp26
a(Vwith
VIN
tp27
a(Vthe
VDT
tp28
a(VEU
VNNP
tp29
a(V\u2019
VCD
tp30
a(Vs
VNNS
tp31
a(Vvisa
VNN
tp32
a(Vpolicy
VNN
tp33
a(V,
V,
tp34
a(Vwhich
VWDT
tp35
a(Vproved
VVBD
tp36
a(Vextremely
VRB
tp37
a(Vexpensive
VJJ
tp38
a(V,
V,
tp39
a(Vand
VCC
tp40
a(Vto
VTO
tp41
a(Vintroduce
VVB
tp42
a(Vvisas
VNNS
tp43
a(Vfor
VIN
tp44
a(Vour
VPRP$
tp45
a(Veastern
VJJ
tp46
a(Vneighbours
VNNS
tp47
a(V.
V.
tp48
aa(lp49
(VThe
VDT
tp50
a(Vnext
VJJ
tp51
a(Vitem
VNN
tp52
a(Vis
VVBZ
tp53
a(Vthe
VDT
tp54
a(Vdebate
VNN
tp55
a(Von
VIN
tp56
a(Vthe
VDT
tp57
a(Vreport
VNN
tp58
a(V(
VCD
tp59
a(VA5-0055
VNN
tp60
a(V/
V:
tp61
a(V2004
VCD
tp62
a(V)
VCD
tp63
a(Vby
VIN
tp64
a(VMrs
VNNP
tp65
a(VJunker
VNNP
tp66
a(V,
V,
tp67
a(Von
VIN
tp68
a(Vbehalf
VNN
tp69
a(Vof
VIN
tp70
a(Vthe
VDT
tp71
a(VCommittee
VNNP
tp72
a(Von
VIN
tp73
a(VDevelopment
VNNP
tp74
a(Vand
VCC
tp75
a(VCooperation
VNNP
tp76
a(V,
V,
tp77
a(Von
VIN
tp78
a(Vpopulation
VNN
tp79
a(Vand
VCC
tp80
a(Vdevelopment
VNN
tp81
a(V:
V:
tp82
a(Vten
VCD
tp83
a(Vyears
VNNS
tp84
a(Vafter
VIN
tp85
a(Vthe
VDT
tp86
a(Vinternational
VJJ
tp87
a(Vconference
VNN
tp88
a(Von
VIN
tp89
a(Vpopulation
VNN
tp90
a(Vand
VCC
tp91
a(Vdevelopment
VNN
tp92
a(V(
VCD
tp93
a(VCairo-1994
VNN
tp94
a(V)
VNN
tp95
a(V.
V.
tp96
aa(lp97
(VTwo
VCD
tp98
a(Vyears
VNNS
tp99
a(Vlater
VRB
tp100
a(Vand
VCC
tp101
a(Va
VDT
tp102
a(Vnumber
VNN
tp103
a(Vof
VIN
tp104
a(V&apos;
VNN
tp105
a(VChernobyls
VNNS
tp106
a(V&apos;
VVBP
tp107
a(V,
V,
tp108
a(Vand
VCC
tp109
a(Vhistory
VNN
tp110
a(Vhas
VVBZ
tp111
a(Vshown
VVBN
tp112
a(Vthat
VIN
tp113
a(Vthe
VDT
tp114
a(VPortuguese
VNNP
tp115
a(Vwere
VVBD
tp116
a(Vright
VJJ
tp117
a(Vto
VTO
tp118
a(Vsay
VVB
tp119
a(Vno
VDT
tp120
a(V.
V.
tp121
aa(lp122
(VThe
VDT
tp123
a(Vintention
VNN
tp124
a(Vis
VVBZ
tp125
a(Vnot
VRB
tp126
a(Vto
VTO
tp127
a(Vreplace
VVB
tp128
a(Vit
VPRP
tp129
a(Vbut
VCC
tp130
a(Vfor
VIN
tp131
a(Vthe
VDT
tp132
a(Vlast
VJJ
tp133
a(Vpart
VNN
tp134
a(V,
V,
tp135
a(Vwhich
VWDT
tp136
a(Vstarts
VVBZ
tp137
a(V&apos;
VRB
tp138
a(Vin
VIN
tp139
a(Vaddition
VNN
tp140
a(Vto
VTO
tp141
a(Vthe
VDT
tp142
a(Vshort-term
VJJ
tp143
a(Vdevelopment
VNN
tp144
a(Vcosts
VNNS
tp145
a(V&apos;
VVBP
tp146
a(V,
V,
tp147
a(Vto
VTO
tp148
a(Vbe
VVB
tp149
a(Vincluded
VVBN
tp150
a(Vin
VIN
tp151
a(Vthis
VDT
tp152
a(Vreport
VNN
tp153
a(V.
V.
tp154
aa(lp155
(VI
VPRP
tp156
a(Vwas
VVBD
tp157
a(Valso
VRB
tp158
a(Vvery
VRB
tp159
a(Vinterested
VJJ
tp160
a(Vto
VTO
tp161
a(Vhear
VVB
tp162
a(VBaroness
VNNP
tp163
a(VNicholson
VNNP
tp164
a(V&apos;s
VVBZ
tp165
a(Vvery
VRB
tp166
a(Vfrank
VJJ
tp167
a(Vand
VCC
tp168
a(Vhonest
VJJ
tp169
a(Vreport
VNN
tp170
a(V.
V.
tp171
aa(lp172
(VThe
VDT
tp173
a(VEuropean
VNNP
tp174
a(VParliament
VNNP
tp175
a(Vmust
VMD
tp176
a(Vand
VCC
tp177
a(Vshould
VMD
tp178
a(Vbe
VVB
tp179
a(Vinvolved
VVBN
tp180
a(Vin
VIN
tp181
a(Vthese
VDT
tp182
a(V&apos;
VJJ
tp183
a(Vinternational
VJJ
tp184
a(Vprocedures
VNNS
tp185
a(V&apos;
VVBP
tp186
a(V,
V,
tp187
a(Vbefore
VIN
tp188
a(Vand
VCC
tp189
a(Vafterwards
VRB
tp190
a(V.
V.
tp191
aa(lp192
(VI
VPRP
tp193
a(Vbelieve
VVBP
tp194
a(Vthat
VIN
tp195
a(Vwe
VPRP
tp196
a(Vneed
VVBP
tp197
a(Va
VDT
tp198
a(Vbudget
VNN
tp199
a(V,
V,
tp200
a(Vone
VCD
tp201
a(Vhundred
VCD
tp202
a(Vpercent
VNN
tp203
a(V.
V.
tp204
aa(lp205
(VHowever
VRB
tp206
a(V,
V,
tp207
a(Vcurrent
VJJ
tp208
a(Vtendencies
VNNS
tp209
a(Vare
VVBP
tp210
a(Vnot
VRB
tp211
a(Vencouraging
VVBG
tp212
a(V.
V.
tp213
aa(lp214
(VUnfortunately
VRB
tp215
a(V,
V,
tp216
a(Vthe
VDT
tp217
a(VCommissioner
VNNP
tp218
a(Vhas
VVBZ
tp219
a(Vmade
VVBN
tp220
a(Vno
VDT
tp221
a(Vreference
VNN
tp222
a(Vto
VTO
tp223
a(Vthem
VPRP
tp224
a(V.
V.
tp225
aa(lp226
(VNo
VDT
tp227
a(Vbasis
VNN
tp228
a(Vfor
VIN
tp229
a(Vinfringement
VNN
tp230
a(Vproceedings
VNNS
tp231
a(Vwas
VVBD
tp232
a(Vapparent
VJJ
tp233
a(Vfrom
VIN
tp234
a(Vthe
VDT
tp235
a(Vreply
VNN
tp236
a(Vfrom
VIN
tp237
a(VIreland
VNNP
tp238
a(V.
V.
tp239
aa(lp240
(VWhen
VWRB
tp241
a(VI
VPRP
tp242
a(Vlook
VVBP
tp243
a(Vat
VIN
tp244
a(Vindividual
VJJ
tp245
a(Vactions
VNNS
tp246
a(V,
V,
tp247
a(VI
VPRP
tp248
a(Vsometimes
VRB
tp249
a(Vget
VVB
tp250
a(Vthe
VDT
tp251
a(Vimpression
VNN
tp252
a(Vthat
VIN
tp253
a(Vtime
VNN
tp254
a(Vis
VVBZ
tp255
a(Vrunning
VVBG
tp256
a(Vaway
VRB
tp257
a(Vfrom
VIN
tp258
a(Vus
VPRP
tp259
a(V.
V.
tp260
aa(lp261
(VI
VPRP
tp262
a(Vpromise
VVBP
tp263
a(Vto
VTO
tp264
a(Vkeep
VVB
tp265
a(Vup
VRP
tp266
a(Vour
VPRP$
tp267
a(Veffort
VNN
tp268
a(Vand
VCC
tp269
a(Vto
VTO
tp270
a(Vstrengthen
VVB
tp271
a(Vour
VPRP$
tp272
a(Vlinks
VNNS
tp273
a(Vwith
VIN
tp274
a(Vcivil
VJJ
tp275
a(Vsociety
VNN
tp276
a(V.
V.
tp277
aa(lp278
(VThe
VDT
tp279
a(Vword
VNN
tp280
a(V\u2018
VNN
tp281
a(Vabstract
VJJ
tp282
a(V\u2019
VNN
tp283
a(Vseems
VVBZ
tp284
a(Vappropriate
VJJ
tp285
a(Vfor
VIN
tp286
a(Vour
VPRP$
tp287
a(Vdocument
VNN
tp288
a(V,
V,
tp289
a(Vwhich
VWDT
tp290
a(Vis
VVBZ
tp291
a(Vindeed
VRB
tp292
a(Vfull
VJJ
tp293
a(Vof
VIN
tp294
a(Vprinciples
VNNS
tp295
a(Vand
VCC
tp296
a(Vhigh
VJJ
tp297
a(Vhopes
VNNS
tp298
a(V,
V,
tp299
a(Vbut
VCC
tp300
a(Vdoes
VVBZ
tp301
a(Vnot
VRB
tp302
a(Vgive
VVB
tp303
a(Vany
VDT
tp304
a(Vindication
VNN
tp305
a(Vas
VIN
tp306
a(Vto
VTO
tp307
a(Vwhether
VIN
tp308
a(Vthese
VDT
tp309
a(Vwill
VMD
tp310
a(Vone
VCD
tp311
a(Vday
VNN
tp312
a(Vbe
VVB
tp313
a(Vrealised
VVBN
tp314
a(V.
V.
tp315
aa(lp316
(VThere
VEX
tp317
a(Vis
VVBZ
tp318
a(Vno
VDT
tp319
a(Vmiracle
VNN
tp320
a(Vsolution
VNN
tp321
a(Vto
VTO
tp322
a(Vthis
VDT
tp323
a(V.
V.
tp324
aa(lp325
(VIt
VPRP
tp326
a(Vcertainly
VRB
tp327
a(Vmeans
VVBZ
tp328
a(Vthat
VIN
tp329
a(Vthey
VPRP
tp330
a(Vregard
VVBP
tp331
a(Vthe
VDT
tp332
a(Vactions
VNNS
tp333
a(Vof
VIN
tp334
a(Vthe
VDT
tp335
a(VEuropean
VNNP
tp336
a(VUnion
VNNP
tp337
a(Vas
VIN
tp338
a(Vbeing
VVBG
tp339
a(Vtoo
VRB
tp340
a(Vfar
VRB
tp341
a(Vremoved
VVBN
tp342
a(Vfrom
VIN
tp343
a(Vtheir
VPRP$
tp344
a(Veveryday
VJJ
tp345
a(Vlives
VNNS
tp346
a(V.
V.
tp347
aa(lp348
(VWith
VIN
tp349
a(Vrespect
VNN
tp350
a(Vto
VTO
tp351
a(Vthe
VDT
tp352
a(Vimports
VNNS
tp353
a(Vof
VIN
tp354
a(Vfood
VNN
tp355
a(Vof
VIN
tp356
a(Vanimal
VNN
tp357
a(Vorigin
VNN
tp358
a(V,
V,
tp359
a(Vthe
VDT
tp360
a(Vresidues
VNNS
tp361
a(Vtesting
VNN
tp362
a(Vsystem
VNN
tp363
a(Vcurrently
VRB
tp364
a(Vin
VIN
tp365
a(Vplace
VNN
tp366
a(Vwill
VMD
tp367
a(Vbe
VVB
tp368
a(Vused
VVBN
tp369
a(Vto
VTO
tp370
a(Vcheck
VVB
tp371
a(Vfor
VIN
tp372
a(Vthe
VDT
tp373
a(Vuse
VNN
tp374
a(Vof
VIN
tp375
a(Vbanned
VVBN
tp376
a(Vsubstances
VNNS
tp377
a(V.
V.
tp378
aa(lp379
(V(
VNN
tp380
a(VSV
VNN
tp381
a(V)
VCD
tp382
a(VHigh
VJJ
tp383
a(Vbrominated
VVBN
tp384
a(Vflame
VNN
tp385
a(Vretardants
VNNS
tp386
a(Vare
VVBP
tp387
a(Vto
VTO
tp388
a(Vbe
VVB
tp389
a(Vfound
VVBN
tp390
a(Vhigh
VRB
tp391
a(Vup
VRB
tp392
a(Vin
VIN
tp393
a(Vthe
VDT
tp394
a(Vfood
VNN
tp395
a(Vchain
VNN
tp396
a(V.
V.
tp397
aa(lp398
(VThis
VDT
tp399
a(Vwill
VMD
tp400
a(Vbe
VVB
tp401
a(Vto
VTO
tp402
a(Vthe
VDT
tp403
a(Vbenefit
VNN
tp404
a(Vof
VIN
tp405
a(Vthe
VDT
tp406
a(Ventire
VJJ
tp407
a(Vregion
VNN
tp408
a(Vof
VIN
tp409
a(Vsouthern
VJJ
tp410
a(VAfrica
VNNP
tp411
a(V,
V,
tp412
a(Vas
VIN
tp413
a(Vhas
VVBZ
tp414
a(Vrightly
VRB
tp415
a(Vbeen
VVBN
tp416
a(Vsaid
VVBD
tp417
a(Va
VDT
tp418
a(Vnumber
VNN
tp419
a(Vof
VIN
tp420
a(Vtimes
VNNS
tp421
a(V.
V.
tp422
aa(lp423
(VIf
VIN
tp424
a(VRegulation
VNN
tp425
a(V(
VCD
tp426
a(VEC
VNNP
tp427
a(V)
VCD
tp428
a(VNo
VDT
tp429
a(V320
VCD
tp430
a(V/
V:
tp431
a(V2006
VCD
tp432
a(Vis
VVBZ
tp433
a(Vimplemented
VVBN
tp434
a(V,
V,
tp435
a(Vthe
VDT
tp436
a(VCzech
VNNP
tp437
a(VRepublic
VNNP
tp438
a(Vwill
VMD
tp439
a(Vbe
VVB
tp440
a(Vpenalised
VVBN
tp441
a(Vfor
VIN
tp442
a(Vits
VPRP$
tp443
a(Vappropriate
VJJ
tp444
a(Vbehaviour
VNN
tp445
a(Vtowards
VIN
tp446
a(Vforeign
VJJ
tp447
a(Vinvestors
VNNS
tp448
a(Vfrom
VIN
tp449
a(Vthe
VDT
tp450
a(Voriginal
VJJ
tp451
a(VEU
VNNP
tp452
a(Vcountries
VNNS
tp453
a(Vthat
VIN
tp454
a(Vit
VPRP
tp455
a(Vhas
VVBZ
tp456
a(Vallowed
VVBN
tp457
a(Vto
VTO
tp458
a(Vtake
VVB
tp459
a(Vover
VRP
tp460
a(Vthe
VDT
tp461
a(Vsugar
VNN
tp462
a(Vindustry
VNN
tp463
a(Vin
VIN
tp464
a(Vthe
VDT
tp465
a(Vcountry
VNN
tp466
a(V.
V.
tp467
aa(lp468
(VBrian
VNNP
tp469
a(VCassidy
VNNP
tp470
a(Vwould
VMD
tp471
a(Vlike
VVB
tp472
a(Va
VDT
tp473
a(Vnew
VJJ
tp474
a(Vdeal
VNN
tp475
a(V,
V,
tp476
a(Vas
VIN
tp477
a(Vhe
VPRP
tp478
a(Vputs
VVBZ
tp479
a(Vit
VPRP
tp480
a(V,
V,
tp481
a(Vof
VIN
tp482
a(Va
VDT
tp483
a(Vnon-Keynesian
VJJ
tp484
a(Vtype
VNN
tp485
a(V,
V,
tp486
a(Vbased
VVBN
tp487
a(V-
V:
tp488
a(Vhe
VPRP
tp489
a(Vadds
VVBZ
tp490
a(V-
V:
tp491
a(Von
VIN
tp492
a(Vecosolidarity
VNN
tp493
a(V.
V.
tp494
aa(lp495
(VWe
VPRP
tp496
a(Vneed
VVBP
tp497
a(Van
VDT
tp498
a(Vinstrument
VNN
tp499
a(Vto
VTO
tp500
a(Vdeal
VVB
tp501
a(Vwith
VIN
tp502
a(Vthis
VDT
tp503
a(Vproblem
VNN
tp504
a(V.
V.
tp505
aa(lp506
(VEven
VRB
tp507
a(Vif
VIN
tp508
a(Vwe
VPRP
tp509
a(Vinvest
VVBP
tp510
a(Vthe
VDT
tp511
a(Vplanned
VJJ
tp512
a(Vannual
VJJ
tp513
a(Vamount
VNN
tp514
a(Vof
VIN
tp515
a(VEUR
V$
tp516
a(V8.4
VCD
tp517
a(Vmillion
VCD
tp518
a(Vin
VIN
tp519
a(Vthe
VDT
tp520
a(Vparty
VNN
tp521
a(Vproject
VNN
tp522
a(V,
V,
tp523
a(Vthere
VEX
tp524
a(Vis
VVBZ
tp525
a(Vlittle
VJJ
tp526
a(Vchance
VNN
tp527
a(Vthat
VIN
tp528
a(Vthis
VDT
tp529
a(Vwill
VMD
tp530
a(Vdo
VVB
tp531
a(Vanything
VNN
tp532
a(Vto
VTO
tp533
a(Vcreate
VVB
tp534
a(Va
VDT
tp535
a(Vsense
VNN
tp536
a(Vof
VIN
tp537
a(VEuropean
VJJ
tp538
a(Videntity
VNN
tp539
a(V.
V.
tp540
aa(lp541
(VHow
VWRB
tp542
a(Vwill
VMD
tp543
a(Vwe
VPRP
tp544
a(Vinteract
VVBP
tp545
a(Vwith
VIN
tp546
a(Vthese
VDT
tp547
a(Vcountries
VNNS
tp548
a(V?
V.
tp549
aa(lp550
(VThat
VIN
tp551
a(Vthey
VPRP
tp552
a(Vwill
VMD
tp553
a(Vin
VIN
tp554
a(Vfuture
VJJ
tp555
a(Vbe
VVB
tp556
a(Vobliged
VVBN
tp557
a(Vto
VTO
tp558
a(Vactually
VRB
tp559
a(Vtake
VVB
tp560
a(Vthese
VDT
tp561
a(Vsteps
VNNS
tp562
a(Vand
VCC
tp563
a(Vwill
VMD
tp564
a(Vno
VRB
tp565
a(Vlonger
VRB
tp566
a(Vbe
VVB
tp567
a(Vallowed
VVBN
tp568
a(Vmerely
VRB
tp569
a(Vto
VTO
tp570
a(Vaim
VVB
tp571
a(Vto
VTO
tp572
a(Vdo
VVB
tp573
a(Vso
VRB
tp574
a(Vis
VVBZ
tp575
a(Vanother
VDT
tp576
a(Vof
VIN
tp577
a(Vthe
VDT
tp578
a(Vsignificant
VJJ
tp579
a(Vtriumphs
VNNS
tp580
a(Vof
VIN
tp581
a(Vthe
VDT
tp582
a(Vconciliation
VNN
tp583
a(Vprocess
VNN
tp584
a(V.
V.
tp585
aa(lp586
(VLet
VVB
tp587
a(Vme
VPRP
tp588
a(Valso
VRB
tp589
a(Vsay
VVBP
tp590
a(Vthat
VIN
tp591
a(Vthe
VDT
tp592
a(VPalestinians
VNNPS
tp593
a(Vhave
VVBP
tp594
a(Vthe
VDT
tp595
a(Vright
VNN
tp596
a(Vto
VTO
tp597
a(Va
VDT
tp598
a(Vstate
VNN
tp599
a(V.
V.
tp600
aa(lp601
(VQuite
VRB
tp602
a(Vrightly
VRB
tp603
a(V,
V,
tp604
a(Vthe
VDT
tp605
a(VCommittee
VNNP
tp606
a(Von
VIN
tp607
a(VRegional
VNNP
tp608
a(VPolicy
VNNP
tp609
a(Vrejects
VVBZ
tp610
a(Vthe
VDT
tp611
a(Vproposal
VNN
tp612
a(Vto
VTO
tp613
a(Vcreate
VVB
tp614
a(Va
VDT
tp615
a(Vreserve
VNN
tp616
a(Vand
VCC
tp617
a(Valso
VRB
tp618
a(Vinsists
VVBZ
tp619
a(Vthat
VIN
tp620
a(Vappropriations
VNNS
tp621
a(Vunused
VJJ
tp622
a(Vafter
VIN
tp623
a(V2
VCD
tp624
a(Vyears
VNNS
tp625
a(Vshould
VMD
tp626
a(Vremain
VVB
tp627
a(Vavailable
VJJ
tp628
a(Vfor
VIN
tp629
a(Vthe
VDT
tp630
a(Vsame
VJJ
tp631
a(Vcountry
VNN
tp632
a(Vto
VTO
tp633
a(Vwhich
VWDT
tp634
a(Vthey
VPRP
tp635
a(Vwere
VVBD
tp636
a(Voriginally
VRB
tp637
a(Vallocated
VVBN
tp638
a(V.
V.
tp639
aa(lp640
(VThe
VDT
tp641
a(VTreaty
VNNP
tp642
a(Vof
VIN
tp643
a(VLisbon
VNNP
tp644
a(Vmust
VMD
tp645
a(Vdevelop
VVB
tp646
a(Vits
VPRP$
tp647
a(Vappeal
VNN
tp648
a(V,
V,
tp649
a(Vparticularly
VRB
tp650
a(Vsince
VIN
tp651
a(Vit
VPRP
tp652
a(Vwill
VMD
tp653
a(Vnot
VRB
tp654
a(Vbe
VVB
tp655
a(Vput
VVBN
tp656
a(Vto
VTO
tp657
a(Va
VDT
tp658
a(Vreferendum
VNN
tp659
a(Vin
VIN
tp660
a(Vthe
VDT
tp661
a(Vcountries
VNNS
tp662
a(Vthat
VWDT
tp663
a(Vrejected
VVBD
tp664
a(Vthe
VDT
tp665
a(Vearlier
VJJR
tp666
a(Vversion
VNN
tp667
a(V.
V.
tp668
aa(lp669
(Vin
VIN
tp670
a(Vorder
VNN
tp671
a(Vnot
VRB
tp672
a(Vto
VTO
tp673
a(Vlead
VVB
tp674
a(Vto
VTO
tp675
a(Vsocial
VJJ
tp676
a(Vrevolution
VNN
tp677
a(V.
V.
tp678
aa(lp679
(VI
VPRP
tp680
a(Vpropose
VVBP
tp681
a(Vthat
VIN
tp682
a(Vthe
VDT
tp683
a(VEuropean
VNNP
tp684
a(VParliament
VNNP
tp685
a(Vshould
VMD
tp686
a(Vinvite
VVB
tp687
a(Vthese
VDT
tp688
a(Vexperts
VNNS
tp689
a(Vto
VTO
tp690
a(Va
VDT
tp691
a(Vhearing
VNN
tp692
a(Von
VIN
tp693
a(Vsafety
VNN
tp694
a(Vstandards
VNNS
tp695
a(Vat
VIN
tp696
a(Vthe
VDT
tp697
a(Vplant
VNN
tp698
a(V.
V.
tp699
aa(lp700
(VI
VPRP
tp701
a(Vthink
VVBP
tp702
a(Vthat
VIN
tp703
a(Vwe
VPRP
tp704
a(Vare
VVBP
tp705
a(Vtalking
VVBG
tp706
a(Vin
VIN
tp707
a(Vterms
VNNS
tp708
a(Vof
VIN
tp709
a(Vadding
VVBG
tp710
a(Vthe
VDT
tp711
a(Vall-important
VJJ
tp712
a(V,
V,
tp713
a(Vfinishing
VVBG
tp714
a(Vtouches
VNNS
tp715
a(Vto
VTO
tp716
a(Va
VDT
tp717
a(Vdirective
VNN
tp718
a(Vthat
VWDT
tp719
a(Vmainly
VRB
tp720
a(Vdeals
VVBZ
tp721
a(Vwith
VIN
tp722
a(Vthe
VDT
tp723
a(Vposition
VNN
tp724
a(Vof
VIN
tp725
a(Vemployees
VNNS
tp726
a(V.
V.
tp727
aa(lp728
(VA
VDT
tp729
a(Vpackage
VNN
tp730
a(Vthat
VWDT
tp731
a(Vclearly
VRB
tp732
a(Vbore
VVBD
tp733
a(Vour
VPRP$
tp734
a(Vfingerprints
VNNS
tp735
a(V.
V.
tp736
aa(lp737
(VThis
VDT
tp738
a(Vworks
VVBZ
tp739
a(Vbetter
VJJR
tp740
a(Vthan
VIN
tp741
a(Vanything
VNN
tp742
a(Vwe
VPRP
tp743
a(Vhave
VVBP
tp744
a(Vhere
VRB
tp745
a(V.
V.
tp746
aa(lp747
(VI
VPRP
tp748
a(Vtherefore
VRB
tp749
a(Vvery
VRB
tp750
a(Vmuch
VJJ
tp751
a(Vregret
VNN
tp752
a(Vthat
VIN
tp753
a(Vthese
VDT
tp754
a(Vrelations
VNNS
tp755
a(Vare
VVBP
tp756
a(Vcoming
VVBG
tp757
a(Vunder
VIN
tp758
a(Vpressure
VNN
tp759
a(Vbecause
VIN
tp760
a(Vof
VIN
tp761
a(Vthe
VDT
tp762
a(Vrepeated
VVBN
tp763
a(Vviolations
VNNS
tp764
a(Vof
VIN
tp765
a(Vhuman
VJJ
tp766
a(Vrights
VNNS
tp767
a(Vby
VIN
tp768
a(Vthe
VDT
tp769
a(VEgyptian
VJJ
tp770
a(Vauthorities
VNNS
tp771
a(V.
V.
tp772
aa(lp773
(VIt
VPRP
tp774
a(Vis
VVBZ
tp775
a(Valso
VRB
tp776
a(Vcrucial
VJJ
tp777
a(Vto
VTO
tp778
a(Vgive
VVB
tp779
a(VEU
VNNP
tp780
a(Vcitizens
VNNS
tp781
a(Vclear
VJJ
tp782
a(Vand
VCC
tp783
a(Vcomprehensive
VJJ
tp784
a(Vfact-based
VJJ
tp785
a(Vinformation
VNN
tp786
a(Von
VIN
tp787
a(Vthe
VDT
tp788
a(Vimplications
VNNS
tp789
a(Vof
VIN
tp790
a(VIceland
VNNP
tp791
a(V&apos;s
VNNS
tp792
a(Vaccession
VNN
tp793
a(V.
V.
tp794
aa(lp795
(VI
VPRP
tp796
a(Valso
VRB
tp797
a(Vnoted
VVBD
tp798
a(Va
VDT
tp799
a(Vmistake
VNN
tp800
a(Vin
VIN
tp801
a(Vthe
VDT
tp802
a(Vcompromise
VNN
tp803
a(Vmotion
VNN
tp804
a(Vfor
VIN
tp805
a(Va
VDT
tp806
a(Vresolution
VNN
tp807
a(V,
V,
tp808
a(Vwhich
VWDT
tp809
a(Vyou
VPRP
tp810
a(Vno
VDT
tp811
a(Vdoubt
VNN
tp812
a(Voverlooked
VVBD
tp813
a(V.
V.
tp814
aa(lp815
(VI
VPRP
tp816
a(Vrealised
VVBD
tp817
a(Vthat
VIN
tp818
a(Vthere
VEX
tp819
a(Vwas
VVBD
tp820
a(Va
VDT
tp821
a(Vneed
VNN
tp822
a(Vto
VTO
tp823
a(Vadvise
VVB
tp824
a(Vthe
VDT
tp825
a(Vaccession
VNN
tp826
a(Vcandidates
VNNS
tp827
a(Vabout
VIN
tp828
a(Vthe
VDT
tp829
a(Vbenefits
VNNS
tp830
a(Vand
VCC
tp831
a(Vthe
VDT
tp832
a(Vnecessity
VNN
tp833
a(Vof
VIN
tp834
a(Vregional
VJJ
tp835
a(Vdevelopment
VNN
tp836
a(V.
V.
tp837
aa(lp838
(VI
VPRP
tp839
a(Vcall
VVBP
tp840
a(Von
VIN
tp841
a(Vmy
VPRP$
tp842
a(Vauthority
VNN
tp843
a(Vto
VTO
tp844
a(Vmaintain
VVB
tp845
a(Vthe
VDT
tp846
a(Vorder
VNN
tp847
a(Vof
VIN
tp848
a(Vvoting
VNN
tp849
a(V,
V,
tp850
a(Vadvised
VVBN
tp851
a(Vby
VIN
tp852
a(Vthe
VDT
tp853
a(Vservices
VNNS
tp854
a(V.
V.
tp855
aa(lp856
(VEnergy
VNNP
tp857
a(Vsecurity
VNN
tp858
a(Vis
VVBZ
tp859
a(Vcertainly
VRB
tp860
a(Vone
VCD
tp861
a(Vof
VIN
tp862
a(Vthe
VDT
tp863
a(Vkey
VJJ
tp864
a(Vaspects
VNNS
tp865
a(Vof
VIN
tp866
a(Vthat
VDT
tp867
a(Vstrategy
VNN
tp868
a(V.
V.
tp869
aa(lp870
(VRemembering
VVBG
tp871
a(Vthat
VDT
tp872
a(Vadministrator
VNN
tp873
a(Vgrade
VNN
tp874
a(V12
VCD
tp875
a(Vwill
VMD
tp876
a(Vcorrespond
VVB
tp877
a(Vto
VTO
tp878
a(Va
VDT
tp879
a(Vhigher
VJJR
tp880
a(Vlevel
VNN
tp881
a(Vthan
VIN
tp882
a(Vtoday
VNN
tp883
a(V&apos;s
VNNS
tp884
a(Vgrade
VNN
tp885
a(VA4
VNN
tp886
a(V,
V,
tp887
a(Vthe
VDT
tp888
a(Vtotal
VJJ
tp889
a(Vnumber
VNN
tp890
a(Vof
VIN
tp891
a(Vcandidates
VNNS
tp892
a(Vappointed
VVBN
tp893
a(Vto
VTO
tp894
a(Vvacant
VJJ
tp895
a(Vposts
VNNS
tp896
a(Vat
VIN
tp897
a(Vthese
VDT
tp898
a(Vgrades
VNNS
tp899
a(Vwill
VMD
tp900
a(Vnot
VRB
tp901
a(Vexceed
VVB
tp902
a(V20
VCD
tp903
a(V%
VNN
tp904
a(Vof
VIN
tp905
a(Vthe
VDT
tp906
a(Vtotal
VJJ
tp907
a(Vnumber
VNN
tp908
a(Vof
VIN
tp909
a(Vthe
VDT
tp910
a(Vappointments
VNNS
tp911
a(Vby
VIN
tp912
a(Vexternal
VJJ
tp913
a(Vrecruitment
VNN
tp914
a(Vto
VTO
tp915
a(Vthe
VDT
tp916
a(Vadministrator
VNN
tp917
a(Vfunction
VNN
tp918
a(Vgroup
VNN
tp919
a(Vin
VIN
tp920
a(Vany
VDT
tp921
a(Vone
VCD
tp922
a(Vyear
VNN
tp923
a(V.
V.
tp924
aa(lp925
(VI
VPRP
tp926
a(Vwould
VMD
tp927
a(Vnot
VRB
tp928
a(Vlike
VVB
tp929
a(Vto
VTO
tp930
a(Vbe
VVB
tp931
a(Vin
VIN
tp932
a(Vthis
VDT
tp933
a(Vbuilding
VNN
tp934
a(Vat
VIN
tp935
a(Vmidnight
VNN
tp936
a(Von
VIN
tp937
a(V31
VCD
tp938
a(VDecember
VNNP
tp939
a(V-
V:
tp940
a(Va
VDT
tp941
a(Vmere
VJJ
tp942
a(V43
VCD
tp943
a(Vdays
VNNS
tp944
a(Vfrom
VIN
tp945
a(Vnow
VRB
tp946
a(V.
V.
tp947
aa(lp948
(VWe
VPRP
tp949
a(Vlook
VVBP
tp950
a(Vforward
VRB
tp951
a(Vto
VTO
tp952
a(Vworking
VVBG
tp953
a(Vwith
VIN
tp954
a(Vher
VPRP
tp955
a(V.
V.
tp956
aa(lp957
(VConsequently
VRB
tp958
a(V,
V,
tp959
a(Vpriority
VNN
tp960
a(Vmust
VMD
tp961
a(Vbe
VVB
tp962
a(Vgiven
VVBN
tp963
a(Vto
VTO
tp964
a(Veconomic
VJJ
tp965
a(Vconsolidation
VNN
tp966
a(Vand
VCC
tp967
a(Vto
VTO
tp968
a(Vlevelling
VVBG
tp969
a(Vout
VRP
tp970
a(Vthe
VDT
tp971
a(Vdifferences
VNNS
tp972
a(Vbetween
VIN
tp973
a(Vcountries
VNNS
tp974
a(Vof
VIN
tp975
a(Vthe
VDT
tp976
a(Vso-called
VJJ
tp977
a(VOld
VNNP
tp978
a(VUnion
VNNP
tp979
a(Vand
VCC
tp980
a(Vthe
VDT
tp981
a(VNew
VNNP
tp982
a(V.
V.
tp983
aa(lp984
(V(
VNN
tp985
a(VDE
VNN
tp986
a(V)
VCD
tp987
a(VMr
VNNP
tp988
a(VPresident
VNNP
tp989
a(V,
V,
tp990
a(Vin
VIN
tp991
a(Vmany
VJJ
tp992
a(Vways
VNNS
tp993
a(V,
V,
tp994
a(VPakistan
VNNP
tp995
a(Vis
VVBZ
tp996
a(Va
VDT
tp997
a(Vfragile
VJJ
tp998
a(Vcountry
VNN
tp999
a(V.
V.
tp1000
aa(lp1001
(VThere
VEX
tp1002
a(Vhave
VVBP
tp1003
a(Vbeen
VVBN
tp1004
a(Vsome
VDT
tp1005
a(Vpositive
VJJ
tp1006
a(Vdevelopments
VNNS
tp1007
a(Vin
VIN
tp1008
a(Vsome
VDT
tp1009
a(Vareas
VNNS
tp1010
a(V,
V,
tp1011
a(Vfor
VIN
tp1012
a(Vexample
VNN
tp1013
a(V,
V,
tp1014
a(Vrecent
VJJ
tp1015
a(Vcooperation
VNN
tp1016
a(Vwith
VIN
tp1017
a(Vthe
VDT
tp1018
a(VInternational
VNNP
tp1019
a(VWar
VNNP
tp1020
a(VCrimes
VNNP
tp1021
a(VTribunal
VNNP
tp1022
a(V.
V.
tp1023
aa(lp1024
(VWe
VPRP
tp1025
a(Vmust
VMD
tp1026
a(Vprovide
VVB
tp1027
a(Vour
VPRP$
tp1028
a(Veducational
VJJ
tp1029
a(Vestablishments
VNNS
tp1030
a(V,
V,
tp1031
a(Vschools
VNNS
tp1032
a(V,
V,
tp1033
a(Vuniversities
VNNS
tp1034
a(V,
V,
tp1035
a(Vfurther
VRB
tp1036
a(Veducation
VNN
tp1037
a(Vcolleges
VNNS
tp1038
a(V,
V,
tp1039
a(Vwith
VIN
tp1040
a(Vadequate
VJJ
tp1041
a(Vcomputers
VNNS
tp1042
a(Vand
VCC
tp1043
a(Vnetwork
VNN
tp1044
a(Vaccess
VNN
tp1045
a(V.
V.
tp1046
aa(lp1047
(VUnfortunately
VRB
tp1048
a(V,
V,
tp1049
a(Vthere
VEX
tp1050
a(Vis
VVBZ
tp1051
a(Vno
VDT
tp1052
a(Vundisputed
VJJ
tp1053
a(Vevidence
VNN
tp1054
a(Vthat
VIN
tp1055
a(Vthis
VDT
tp1056
a(Vgrowth
VNN
tp1057
a(Vwould
VMD
tp1058
a(Voccur
VVB
tp1059
a(V.
V.
tp1060
aa(lp1061
(VThe
VDT
tp1062
a(Vresult
VNN
tp1063
a(Vwas
VVBD
tp1064
a(Vthat
VIN
tp1065
a(Vthe
VDT
tp1066
a(VGermans
VNNPS
tp1067
a(Vgot
VVBD
tp1068
a(Vtheir
VPRP$
tp1069
a(Vway
VNN
tp1070
a(V,
V,
tp1071
a(Vand
VCC
tp1072
a(Vconsequently
VRB
tp1073
a(Vthere
VEX
tp1074
a(Vis
VVBZ
tp1075
a(Vno
VDT
tp1076
a(Vrequirement
VNN
tp1077
a(Vto
VTO
tp1078
a(Vallow
VVB
tp1079
a(Vasylum
VNN
tp1080
a(Vseekers
VNNS
tp1081
a(Vto
VTO
tp1082
a(Vwork
VVB
tp1083
a(Vif
VIN
tp1084
a(Va
VDT
tp1085
a(Vdecision
VNN
tp1086
a(Von
VIN
tp1087
a(Vtheir
VPRP$
tp1088
a(Vcase
VNN
tp1089
a(Vis
VVBZ
tp1090
a(Vnot
VRB
tp1091
a(Vforthcoming
VJJ
tp1092
a(Vwithin
VIN
tp1093
a(Va
VDT
tp1094
a(Vyear
VNN
tp1095
a(V.
V.
tp1096
aa(lp1097
(V&quot;
VNN
tp1098
a(VNow
VRB
tp1099
a(Vyou
VPRP
tp1100
a(Vcan
VMD
tp1101
a(Vhave
VVB
tp1102
a(Va
VDT
tp1103
a(Vlook
VNN
tp1104
a(V!
V.
tp1105
a(V&quot;
VIN
tp1106
a(Vthey
VPRP
tp1107
a(Vtell
VVBP
tp1108
a(Vus
VPRP
tp1109
a(V.
V.
tp1110
aa(lp1111
(VHere
VRB
tp1112
a(V,
V,
tp1113
a(Vthere
VEX
tp1114
a(Vis
VVBZ
tp1115
a(Vhigh
VJJ
tp1116
a(Vtechnology
VNN
tp1117
a(V,
V,
tp1118
a(VI
VPRP
tp1119
a(Vknow
VVBP
tp1120
a(V.
V.
tp1121
aa(lp1122
(VI
VPRP
tp1123
a(Vam
VVBP
tp1124
a(Vvery
VRB
tp1125
a(Vpleased
VJJ
tp1126
a(Vwith
VIN
tp1127
a(Vthe
VDT
tp1128
a(Vcommitment
VNN
tp1129
a(Vof
VIN
tp1130
a(Vthe
VDT
tp1131
a(Vgovernment
VNN
tp1132
a(Vof
VIN
tp1133
a(Vthe
VDT
tp1134
a(VFormer
VJJ
tp1135
a(VYugoslav
VNNP
tp1136
a(VRepublic
VNNP
tp1137
a(Vof
VIN
tp1138
a(VMacedonia
VNNP
tp1139
a(Vto
VTO
tp1140
a(Vthe
VDT
tp1141
a(Vestablishment
VNN
tp1142
a(Vof
VIN
tp1143
a(Vthat
VDT
tp1144
a(Vuniversity
VNN
tp1145
a(V.
V.
tp1146
aa(lp1147
(VAs
VIN
tp1148
a(Va
VDT
tp1149
a(Vresult
VNN
tp1150
a(V,
V,
tp1151
a(VI
VPRP
tp1152
a(Vmust
VMD
tp1153
a(Vsay
VVB
tp1154
a(Vonce
VRB
tp1155
a(Vagain
VRB
tp1156
a(Vthat
VIN
tp1157
a(VI
VPRP
tp1158
a(Vam
VVBP
tp1159
a(Vnot
VRB
tp1160
a(Vgoing
VVBG
tp1161
a(Vto
VTO
tp1162
a(Vvote
VVB
tp1163
a(Vin
VIN
tp1164
a(Vfavour
VNN
tp1165
a(Vof
VIN
tp1166
a(VAgenda
VNNP
tp1167
a(V2000
VCD
tp1168
a(V.
V.
tp1169
aa(lp1170
(VIt
VPRP
tp1171
a(Vwill
VMD
tp1172
a(Vnot
VRB
tp1173
a(Vbe
VVB
tp1174
a(Vwith
VIN
tp1175
a(Vpessimism
VNN
tp1176
a(Vthat
VIN
tp1177
a(Vwe
VPRP
tp1178
a(Vwill
VMD
tp1179
a(Vwin
VVB
tp1180
a(Vthe
VDT
tp1181
a(Vnext
VJJ
tp1182
a(Veconomic
VJJ
tp1183
a(Vbattles
VNNS
tp1184
a(V.
V.
tp1185
aa(lp1186
(VThat
VDT
tp1187
a(Vwas
VVBD
tp1188
a(Vthe
VDT
tp1189
a(Vstart
VNN
tp1190
a(Vof
VIN
tp1191
a(Vthe
VDT
tp1192
a(Vcrisis
VNN
tp1193
a(V,
V,
tp1194
a(Vand
VCC
tp1195
a(Vif
VIN
tp1196
a(Vshe
VPRP
tp1197
a(Vis
VVBZ
tp1198
a(Vcriticised
VVBN
tp1199
a(Vfor
VIN
tp1200
a(Vthat
VDT
tp1201
a(Vpolitical
VJJ
tp1202
a(Vmisjudgement
VNN
tp1203
a(Vshe
VPRP
tp1204
a(Vshould
VMD
tp1205
a(Vnot
VRB
tp1206
a(Vtake
VVB
tp1207
a(Vit
VPRP
tp1208
a(Vas
VIN
tp1209
a(Va
VDT
tp1210
a(Vpersonal
VJJ
tp1211
a(Vcomment
VNN
tp1212
a(V.
V.
tp1213
aa(lp1214
(VPakistan
VNNP
tp1215
a(Vmust
VMD
tp1216
a(Vbe
VVB
tp1217
a(Vhelped
VVBN
tp1218
a(V,
V,
tp1219
a(Vbut
VCC
tp1220
a(Vthrough
VIN
tp1221
a(Vclear
VJJ
tp1222
a(Vagreements
VNNS
tp1223
a(V,
V,
tp1224
a(Vincluding
VVBG
tp1225
a(Vthose
VDT
tp1226
a(Vwith
VIN
tp1227
a(Vregard
VNN
tp1228
a(Vto
VTO
tp1229
a(Vthe
VDT
tp1230
a(Vpolitical
VJJ
tp1231
a(Vsituation
VNN
tp1232
a(Vin
VIN
tp1233
a(Vthe
VDT
tp1234
a(Vregion
VNN
tp1235
a(V.
V.
tp1236
aa(lp1237
(VIndeed
VRB
tp1238
a(V,
V,
tp1239
a(Vthe
VDT
tp1240
a(Vsame
VJJ
tp1241
a(Vapplies
VVBZ
tp1242
a(Vto
VTO
tp1243
a(VIndia
VNNP
tp1244
a(V,
V,
tp1245
a(Vwhich
VWDT
tp1246
a(Vis
VVBZ
tp1247
a(Vthe
VDT
tp1248
a(Vthird
VJJ
tp1249
a(Vmost
VRBS
tp1250
a(Vattractive
VJJ
tp1251
a(Vcountry
VNN
tp1252
a(Vin
VIN
tp1253
a(Vthe
VDT
tp1254
a(Vworld
VNN
tp1255
a(Vin
VIN
tp1256
a(Vterms
VNNS
tp1257
a(Vof
VIN
tp1258
a(Vforeign
VJJ
tp1259
a(Vinvestment
VNN
tp1260
a(V,
V,
tp1261
a(Vwith
VIN
tp1262
a(VEurope
VNNP
tp1263
a(Vbeing
VVBG
tp1264
a(Vone
VCD
tp1265
a(Vof
VIN
tp1266
a(Vthe
VDT
tp1267
a(Vbiggest
VJJS
tp1268
a(Vinvestors
VNNS
tp1269
a(V,
V,
tp1270
a(Vaccounting
VVBG
tp1271
a(Vfor
VIN
tp1272
a(Vinvestments
VNNS
tp1273
a(Vof
VIN
tp1274
a(Vmore
VJJR
tp1275
a(Vthan
VIN
tp1276
a(VEUR
V$
tp1277
a(V1
VCD
tp1278
a(Vbillion
VCD
tp1279
a(Vin
VIN
tp1280
a(V2004
VCD
tp1281
a(V.
V.
tp1282
aa(lp1283
(VThe
VDT
tp1284
a(Vreason
VNN
tp1285
a(Vis
VVBZ
tp1286
a(Vthat
VIN
tp1287
a(V,
V,
tp1288
a(Vfollowing
VVBG
tp1289
a(Va
VDT
tp1290
a(Vvoluntary
VJJ
tp1291
a(Vagreement
VNN
tp1292
a(Vconcluded
VVBD
tp1293
a(Vbetween
VIN
tp1294
a(Vthe
VDT
tp1295
a(VCommission
VNNP
tp1296
a(Vand
VCC
tp1297
a(Vthe
VDT
tp1298
a(Vcar
VNN
tp1299
a(Vindustry
VNN
tp1300
a(Vmore
VJJR
tp1301
a(Vthan
VIN
tp1302
a(Vten
VCD
tp1303
a(Vyears
VNNS
tp1304
a(Vago
VRB
tp1305
a(V,
V,
tp1306
a(Vthe
VDT
tp1307
a(Vlatter
VJJ
tp1308
a(Vhas
VVBZ
tp1309
a(Vknowingly
VRB
tp1310
a(Vand
VCC
tp1311
a(Vwilfully
VRB
tp1312
a(Vfailed
VVBD
tp1313
a(Vto
VTO
tp1314
a(Vmeet
VVB
tp1315
a(Vits
VPRP$
tp1316
a(Vtargets
VNNS
tp1317
a(V.
V.
tp1318
aa(lp1319
(VMy
VPRP$
tp1320
a(Vparty
VNN
tp1321
a(V,
V,
tp1322
a(Vthe
VDT
tp1323
a(VSocialist
VNNP
tp1324
a(VParty
VNNP
tp1325
a(Vin
VIN
tp1326
a(Vthe
VDT
tp1327
a(VNetherlands
VNNP
tp1328
a(V,
V,
tp1329
a(Vconsiders
VVBZ
tp1330
a(Vthe
VDT
tp1331
a(Vreturn
VNN
tp1332
a(Vof
VIN
tp1333
a(Vsuch
VPDT
tp1334
a(Va
VDT
tp1335
a(Vsuperstate
VNN
tp1336
a(Vas
VIN
tp1337
a(Va
VDT
tp1338
a(Vthreat
VNN
tp1339
a(Vto
VTO
tp1340
a(Vdemocracy
VNN
tp1341
a(V,
V,
tp1342
a(Vpublic
VJJ
tp1343
a(Vservices
VNNS
tp1344
a(V,
V,
tp1345
a(Vpeace
VNN
tp1346
a(Vand
VCC
tp1347
a(Vrefugees
VNNS
tp1348
a(V.
V.
tp1349
aa(lp1350
(VDespite
VIN
tp1351
a(Vfrequent
VJJ
tp1352
a(Vpromises
VNNS
tp1353
a(Vby
VIN
tp1354
a(Vthe
VDT
tp1355
a(VTurkish
VJJ
tp1356
a(VGovernment
VNN
tp1357
a(V,
V,
tp1358
a(Vhuman
VJJ
tp1359
a(Vrights
VNNS
tp1360
a(Vviolations
VNNS
tp1361
a(Vcontinue
VVBP
tp1362
a(Vthere
VEX
tp1363
a(V.
V.
tp1364
aa(lp1365
(VBefore
VIN
tp1366
a(Vusing
VVBG
tp1367
a(Vmoney
VNN
tp1368
a(Vthat
VWDT
tp1369
a(Vis
VVBZ
tp1370
a(Vnot
VRB
tp1371
a(Vthere
VRB
tp1372
a(V,
V,
tp1373
a(Vfor
VIN
tp1374
a(Vpolitical
VJJ
tp1375
a(Vobjectives
VNNS
tp1376
a(V,
V,
tp1377
a(Vwe
VPRP
tp1378
a(Vmust
VMD
tp1379
a(Vtake
VVB
tp1380
a(Vaccount
VNN
tp1381
a(Vof
VIN
tp1382
a(Vhow
VWRB
tp1383
a(Vthe
VDT
tp1384
a(Vcurrent
VJJ
tp1385
a(Vbanking
VNN
tp1386
a(Vsystem
VNN
tp1387
a(Vactually
VRB
tp1388
a(Vworks
VVBZ
tp1389
a(V.
V.
tp1390
aa(lp1391
(VEverything
VNN
tp1392
a(Vis
VVBZ
tp1393
a(Vable
VJJ
tp1394
a(Vto
VTO
tp1395
a(Vcirculate
VVB
tp1396
a(Vin
VIN
tp1397
a(Vour
VPRP$
tp1398
a(Vglobal
VJJ
tp1399
a(Vworld
VNN
tp1400
a(V;
V:
tp1401
a(Vdo
VVB
tp1402
a(Vwe
VPRP
tp1403
a(Vreally
VRB
tp1404
a(Vwish
VVBP
tp1405
a(Vto
VTO
tp1406
a(Vrestrict
VVB
tp1407
a(V-
V:
tp1408
a(Vsometimes
VRB
tp1409
a(Vfor
VIN
tp1410
a(Vabsurd
VJJ
tp1411
a(Vreasons
VNNS
tp1412
a(V-
V:
tp1413
a(Vonly
VRB
tp1414
a(Vpeople
VNNS
tp1415
a(Vwho
VWP
tp1416
a(Vare
VVBP
tp1417
a(Vforced
VVBN
tp1418
a(Vinto
VIN
tp1419
a(Vtheir
VPRP$
tp1420
a(Vsituation
VNN
tp1421
a(V?
V.
tp1422
aa(lp1423
(VWith
VIN
tp1424
a(Vthe
VDT
tp1425
a(Varrival
VNN
tp1426
a(Vin
VIN
tp1427
a(Vpower
VNN
tp1428
a(Vof
VIN
tp1429
a(Vthe
VDT
tp1430
a(VTaliban
VNNP
tp1431
a(Vin
VIN
tp1432
a(VKabul
VNNP
tp1433
a(Vin
VIN
tp1434
a(V1996
VCD
tp1435
a(V,
V,
tp1436
a(Vthe
VDT
tp1437
a(VEU
VNNP
tp1438
a(Vagreed
VVBD
tp1439
a(Va
VDT
tp1440
a(VCommon
VJJ
tp1441
a(VPosition
VNN
tp1442
a(Von
VIN
tp1443
a(VAfghanistan
VNNP
tp1444
a(V.
V.
tp1445
aa(lp1446
(VEven
VRB
tp1447
a(Vif
VIN
tp1448
a(Vterrorists
VNNS
tp1449
a(Vbegin
VVBP
tp1450
a(Vto
VTO
tp1451
a(Vuse
VVB
tp1452
a(Vpigeons
VNNS
tp1453
a(Vfor
VIN
tp1454
a(Vcorrespondence
VNN
tp1455
a(V.
V.
tp1456
aa(lp1457
(VThe
VDT
tp1458
a(VStone
VNNP
tp1459
a(VAge
VNNP
tp1460
a(Vdid
VVBD
tp1461
a(Vnot
VRB
tp1462
a(Vend
VVB
tp1463
a(Vbecause
VIN
tp1464
a(Vwe
VPRP
tp1465
a(Vno
VRB
tp1466
a(Vlonger
VRBR
tp1467
a(Vhad
VVBD
tp1468
a(Vany
VDT
tp1469
a(Vstones
VNNS
tp1470
a(Vavailable
VJJ
tp1471
a(V.
V.
tp1472
aa(lp1473
(VThe
VDT
tp1474
a(VChinese
VNNPS
tp1475
a(Vare
VVBP
tp1476
a(Vprevailing
VVBG
tp1477
a(V.
V.
tp1478
aa(lp1479
(VAs
VIN
tp1480
a(Va
VDT
tp1481
a(Vresult
VNN
tp1482
a(V,
V,
tp1483
a(Vthe
VDT
tp1484
a(VAct
VNNP
tp1485
a(Von
VIN
tp1486
a(Vsanctions
VNNS
tp1487
a(Vagainst
VIN
tp1488
a(VIran
VNNP
tp1489
a(Vand
VCC
tp1490
a(VLibya
VNNP
tp1491
a(Vis
VVBZ
tp1492
a(Vlosing
VVBG
tp1493
a(Vsome
VDT
tp1494
a(Vof
VIN
tp1495
a(Vits
VPRP$
tp1496
a(Vterror
VNN
tp1497
a(V,
V,
tp1498
a(Vat
VIN
tp1499
a(Vany
VDT
tp1500
a(Vrate
VNN
tp1501
a(V.
V.
tp1502
aa(lp1503
(VWithin
VIN
tp1504
a(Vthis
VDT
tp1505
a(Vtheology
VNN
tp1506
a(Va
VDT
tp1507
a(Vnumber
VNN
tp1508
a(Vof
VIN
tp1509
a(Vextraordinarily
VRB
tp1510
a(Vadventurous
VJJ
tp1511
a(Vtactics
VNNS
tp1512
a(Vwere
VVBD
tp1513
a(Vdeployed
VVBN
tp1514
a(V.
V.
tp1515
aa(lp1516
(VClimate
VNN
tp1517
a(Vchange
VNN
tp1518
a(Vis
VVBZ
tp1519
a(Vthreatening
VJJ
tp1520
a(VEuropean
VJJ
tp1521
a(Vforests
VNNS
tp1522
a(V,
V,
tp1523
a(Vwith
VIN
tp1524
a(Van
VDT
tp1525
a(Vincrease
VNN
tp1526
a(Vin
VIN
tp1527
a(Vforest
VNN
tp1528
a(Vfires
VNNS
tp1529
a(V,
V,
tp1530
a(Vwith
VIN
tp1531
a(Vdiseases
VNNS
tp1532
a(Vpassing
VVBG
tp1533
a(Vfrom
VIN
tp1534
a(Vone
VCD
tp1535
a(Vcountry
VNN
tp1536
a(Vto
VTO
tp1537
a(Vanother
VDT
tp1538
a(Vand
VCC
tp1539
a(Vputting
VVBG
tp1540
a(Ventire
VJJ
tp1541
a(Vspecies
VNNS
tp1542
a(Vat
VIN
tp1543
a(Vrisk
VNN
tp1544
a(V,
V,
tp1545
a(Vand
VCC
tp1546
a(Vwith
VIN
tp1547
a(Vdisasters
VNNS
tp1548
a(Vcaused
VVBN
tp1549
a(Vby
VIN
tp1550
a(Vextreme
VJJ
tp1551
a(Vweather
VNN
tp1552
a(Vconditions
VNNS
tp1553
a(V.
V.
tp1554
aa(lp1555
(VOur
VPRP$
tp1556
a(Vmessage
VNN
tp1557
a(Vwas
VVBD
tp1558
a(Vvery
VRB
tp1559
a(Vstrong
VJJ
tp1560
a(Vand
VCC
tp1561
a(Vvery
VRB
tp1562
a(Vclear
VJJ
tp1563
a(V.
V.
tp1564
aa(lp1565
(VIf
VIN
tp1566
a(Vbanana
VNN
tp1567
a(Vproduction
VNN
tp1568
a(Vwere
VVBD
tp1569
a(Vto
VTO
tp1570
a(Vcease
VVB
tp1571
a(Von
VIN
tp1572
a(Vthe
VDT
tp1573
a(Visland
VNN
tp1574
a(Vof
VIN
tp1575
a(VMadeira
VNNP
tp1576
a(V,
V,
tp1577
a(Vit
VPRP
tp1578
a(Vwould
VMD
tp1579
a(Vrepresent
VVB
tp1580
a(Van
VDT
tp1581
a(Venormous
VJJ
tp1582
a(Venvironmental
VJJ
tp1583
a(Vcatastrophe
VNN
tp1584
a(Vas
VRB
tp1585
a(Vwell
VRB
tp1586
a(Vas
VIN
tp1587
a(Va
VDT
tp1588
a(Vserious
VJJ
tp1589
a(Vloss
VNN
tp1590
a(Vof
VIN
tp1591
a(Vincome
VNN
tp1592
a(Vfor
VIN
tp1593
a(Vthousands
VNNS
tp1594
a(Vof
VIN
tp1595
a(Vfamilies
VNNS
tp1596
a(V.
V.
tp1597
aa(lp1598
(VThat
VDT
tp1599
a(Vwould
VMD
tp1600
a(Vbe
VVB
tp1601
a(Vthe
VDT
tp1602
a(Vworst
VJJS
tp1603
a(Vpossible
VJJ
tp1604
a(Voutcome
VNN
tp1605
a(V.
V.
tp1606
aa(lp1607
(VIt
VPRP
tp1608
a(Vmay
VMD
tp1609
a(Vbe
VVB
tp1610
a(Va
VDT
tp1611
a(Vnatural
VJJ
tp1612
a(Vreaction
VNN
tp1613
a(V,
V,
tp1614
a(Vbut
VCC
tp1615
a(Vit
VPRP
tp1616
a(Vwould
VMD
tp1617
a(Vbe
VVB
tp1618
a(Vthe
VDT
tp1619
a(Vwrong
VJJ
tp1620
a(Vlesson
VNN
tp1621
a(Vto
VTO
tp1622
a(Vdraw
VVB
tp1623
a(Vfrom
VIN
tp1624
a(Vpast
VJJ
tp1625
a(Vexperience
VNN
tp1626
a(V.
V.
tp1627
aa(lp1628
(VThe
VDT
tp1629
a(VFinno-Ugric
VJJ
tp1630
a(VMari
VNNP
tp1631
a(Vpeople
VNNS
tp1632
a(Vare
VVBP
tp1633
a(Vcurrently
VRB
tp1634
a(Vsuffering
VVBG
tp1635
a(Vsevere
VJJ
tp1636
a(Vdiscrimination
VNN
tp1637
a(V.
V.
tp1638
aa(lp1639
(VWe
VPRP
tp1640
a(Vare
VVBP
tp1641
a(Vnot
VRB
tp1642
a(Vvery
VRB
tp1643
a(Vsatisfied
VVBN
tp1644
a(Vby
VIN
tp1645
a(Vthe
VDT
tp1646
a(Vfact
VNN
tp1647
a(Vthat
VIN
tp1648
a(Vthe
VDT
tp1649
a(VCouncil
VNNP
tp1650
a(Vhas
VVBZ
tp1651
a(Vcut
VVBN
tp1652
a(Vdown
VRP
tp1653
a(Venormously
VRB
tp1654
a(Vin
VIN
tp1655
a(Van
VDT
tp1656
a(Varea
VNN
tp1657
a(Vwhere
VWRB
tp1658
a(Vthis
VDT
tp1659
a(VParliament
VNNP
tp1660
a(Vhas
VVBZ
tp1661
a(Vmajor
VJJ
tp1662
a(Vrights
VNNS
tp1663
a(V-
V:
tp1664
a(VCategory
VNN
tp1665
a(V3
VCD
tp1666
a(V.
V.
tp1667
aa(lp1668
(VWaterborne
VJJ
tp1669
a(Vtraffic
VNN
tp1670
a(Vis
VVBZ
tp1671
a(Vpopular
VJJ
tp1672
a(V,
V,
tp1673
a(Vpartly
VRB
tp1674
a(Vbecause
VIN
tp1675
a(Vit
VPRP
tp1676
a(Vis
VVBZ
tp1677
a(Venvironmentally
VRB
tp1678
a(Vfriendly
VJJ
tp1679
a(V.
V.
tp1680
aa(lp1681
(VThere
VEX
tp1682
a(Vis
VVBZ
tp1683
a(Va
VDT
tp1684
a(Vcrowd
VNN
tp1685
a(Vof
VIN
tp1686
a(V70
VCD
tp1687
a(V000
VCD
tp1688
a(Vand
VCC
tp1689
a(Vall
VDT
tp1690
a(Veyes
VNNS
tp1691
a(Vare
VVBP
tp1692
a(Von
VIN
tp1693
a(Vthe
VDT
tp1694
a(Vpitch
VNN
tp1695
a(Vand
VCC
tp1696
a(Von
VIN
tp1697
a(Vthe
VDT
tp1698
a(Vplayers
VNNS
tp1699
a(V.
V.
tp1700
aa(lp1701
(VHe
VPRP
tp1702
a(Vsaid
VVBD
tp1703
a(Vthat
VIN
tp1704
a(Vhis
VPRP$
tp1705
a(Vfather
VNN
tp1706
a(Vloved
VVBD
tp1707
a(Vmankind
VNN
tp1708
a(Vin
VIN
tp1709
a(Vgeneral
VJJ
tp1710
a(V,
V,
tp1711
a(Vbut
VCC
tp1712
a(Vhated
VVBD
tp1713
a(Vevery
VDT
tp1714
a(Vindividual
VNN
tp1715
a(Vin
VIN
tp1716
a(Vparticular
VJJ
tp1717
a(V.
V.
tp1718
aa(lp1719
(VSo
VRB
tp1720
a(V,
V,
tp1721
a(Vwhy
VWRB
tp1722
a(Von
VIN
tp1723
a(Vearth
VNN
tp1724
a(Vare
VVBP
tp1725
a(Vwe
VPRP
tp1726
a(Vhelping
VVBG
tp1727
a(Vto
VTO
tp1728
a(Vbring
VVB
tp1729
a(Vabout
VRP
tp1730
a(Va
VDT
tp1731
a(Vdemocratically-elected
VJJ
tp1732
a(Vgovernment
VNN
tp1733
a(Vwhich
VWDT
tp1734
a(Vis
VVBZ
tp1735
a(Vdoing
VVBG
tp1736
a(Vits
VPRP$
tp1737
a(Vbest
VJJS
tp1738
a(Vto
VTO
tp1739
a(Vkeep
VVB
tp1740
a(Vthe
VDT
tp1741
a(Vpeace
VNN
tp1742
a(V?
V.
tp1743
a(V&apos;
VIN
tp1744
aa(lp1745
(VWe
VPRP
tp1746
a(Vmight
VMD
tp1747
a(Vhave
VVB
tp1748
a(Vto
VTO
tp1749
a(Vaward
VNN
tp1750
a(Vourselves
VPRP
tp1751
a(Va
VDT
tp1752
a(VLisbon
VNNP
tp1753
a(Vmedal
VNN
tp1754
a(Vfor
VIN
tp1755
a(Vstamina
VNN
tp1756
a(Vat
VIN
tp1757
a(Vsome
VDT
tp1758
a(Vstage
VNN
tp1759
a(V.
V.
tp1760
aa(lp1761
(V,
V,
tp1762
a(V.
V.
tp1763
a(V\u2013
VCD
tp1764
a(VWe
VPRP
tp1765
a(Vexpress
VVBP
tp1766
a(Vour
VPRP$
tp1767
a(Vheartfelt
VJJ
tp1768
a(Vcondolences
VNNS
tp1769
a(Vto
VTO
tp1770
a(Vthe
VDT
tp1771
a(Vfamilies
VNNS
tp1772
a(Vof
VIN
tp1773
a(Vthe
VDT
tp1774
a(Vvictims
VNNS
tp1775
a(Vof
VIN
tp1776
a(VBeslan
VNNP
tp1777
a(V.
V.
tp1778
aa(lp1779
(VIt
VPRP
tp1780
a(Vgoes
VVBZ
tp1781
a(Vback
VRB
tp1782
a(Vto
VTO
tp1783
a(Vcolonial
VJJ
tp1784
a(Vtimes
VNNS
tp1785
a(Vwhen
VWRB
tp1786
a(Vthe
VDT
tp1787
a(VBritish
VNNPS
tp1788
a(Vcame
VVBD
tp1789
a(Vback
VRB
tp1790
a(Vfrom
VIN
tp1791
a(Vthe
VDT
tp1792
a(Vcolonised
VVBN
tp1793
a(Vcountries
VNNS
tp1794
a(Vand
VCC
tp1795
a(Vhung
VVBD
tp1796
a(Vtheir
VPRP$
tp1797
a(Vtrophies
VNNS
tp1798
a(Von
VIN
tp1799
a(Vthe
VDT
tp1800
a(Vwall
VNN
tp1801
a(V.
V.
tp1802
aa(lp1803
(VEuropean
VJJ
tp1804
a(Vlaw
VNN
tp1805
a(Vrecognises
VVBZ
tp1806
a(Va
VDT
tp1807
a(Vworker
VNN
tp1808
a(Vas
VIN
tp1809
a(Vsomeone
VNN
tp1810
a(Vessentially
VRB
tp1811
a(Vwith
VIN
tp1812
a(Vthe
VDT
tp1813
a(Vminimum
VJJ
tp1814
a(Vage
VNN
tp1815
a(Vof
VIN
tp1816
a(V16
VCD
tp1817
a(V,
V,
tp1818
a(Vso
VRB
tp1819
a(Vwhat
VWP
tp1820
a(Vhappens
VVBZ
tp1821
a(Vwhen
VWRB
tp1822
a(Va
VDT
tp1823
a(V17-year
VJJ
tp1824
a(Vold
VJJ
tp1825
a(Vchallenges
VNNS
tp1826
a(Vthe
VDT
tp1827
a(Vfact
VNN
tp1828
a(Vthat
VIN
tp1829
a(Vhe
VPRP
tp1830
a(Vwas
VVBD
tp1831
a(Vnot
VRB
tp1832
a(Vable
VJJ
tp1833
a(Vto
VTO
tp1834
a(Vmove
VVB
tp1835
a(Vto
VTO
tp1836
a(Va
VDT
tp1837
a(Vbig
VJJ
tp1838
a(Vclub
VNN
tp1839
a(Vin
VIN
tp1840
a(Va
VDT
tp1841
a(Vcountry
VNN
tp1842
a(Vthat
VWDT
tp1843
a(Vwas
VVBD
tp1844
a(Vnot
VRB
tp1845
a(Vhis
VPRP$
tp1846
a(Vown
VJJ
tp1847
a(V,
V,
tp1848
a(Vin
VIN
tp1849
a(Vthe
VDT
tp1850
a(Vcurrent
VJJ
tp1851
a(Vsituation
VNN
tp1852
a(Vthat
VIN
tp1853
a(Vwe
VPRP
tp1854
a(Vfind
VVBP
tp1855
a(Vourselves
VPRP
tp1856
a(Vin
VIN
tp1857
a(V?
V.
tp1858
aa(lp1859
(VThis
VDT
tp1860
a(Vsituation
VNN
tp1861
a(Vtherefore
VRB
tp1862
a(Vbacks
VVBZ
tp1863
a(Vup
VRP
tp1864
a(Vthe
VDT
tp1865
a(VCommission
VNNP
tp1866
a(V&apos;s
VNNS
tp1867
a(Vanalysis
VNN
tp1868
a(V.
V.
tp1869
aa(lp1870
(VThe
VDT
tp1871
a(Vway
VNN
tp1872
a(Vwe
VPRP
tp1873
a(Vhandle
VVBP
tp1874
a(Vthe
VDT
tp1875
a(Vproblems
VNNS
tp1876
a(Vof
VIN
tp1877
a(VNorth
VNNP
tp1878
a(VKorea
VNNP
tp1879
a(Vwill
VMD
tp1880
a(Vhave
VVB
tp1881
a(Va
VDT
tp1882
a(Vdirect
VJJ
tp1883
a(Vinfluence
VNN
tp1884
a(Von
VIN
tp1885
a(VIran
VNNP
tp1886
a(Vas
VRB
tp1887
a(Vwell
VRB
tp1888
a(V.
V.
tp1889
aa(lp1890
(VHowever
VRB
tp1891
a(V,
V,
tp1892
a(Vit
VPRP
tp1893
a(Vis
VVBZ
tp1894
a(Vnot
VRB
tp1895
a(Venough
VJJ
tp1896
a(Vto
VTO
tp1897
a(Vcross
VVB
tp1898
a(Vour
VPRP$
tp1899
a(Vfingers
VNNS
tp1900
a(Vand
VCC
tp1901
a(Vwait
VVB
tp1902
a(Vfor
VIN
tp1903
a(Vthe
VDT
tp1904
a(Voutcome
VNN
tp1905
a(V.
V.
tp1906
aa(lp1907
(VHowever
VRB
tp1908
a(V,
V,
tp1909
a(Vthe
VDT
tp1910
a(VCommittee
VNNP
tp1911
a(Vof
VIN
tp1912
a(VInquiry
VNNP
tp1913
a(Vin
VIN
tp1914
a(VBelgium
VNNP
tp1915
a(Vhas
VVBZ
tp1916
a(Vshown
VVBN
tp1917
a(Vthat
VIN
tp1918
a(Vthings
VNNS
tp1919
a(Vare
VVBP
tp1920
a(Vgoing
VVBG
tp1921
a(Vbadly
VRB
tp1922
a(Vwrong
VJJ
tp1923
a(Vthere
VEX
tp1924
a(V.
V.
tp1925
aa(lp1926
(VI
VPRP
tp1927
a(Vhave
VVBP
tp1928
a(Vreceived
VVBN
tp1929
a(Va
VDT
tp1930
a(Vrequest
VNN
tp1931
a(Vfrom
VIN
tp1932
a(V34
VCD
tp1933
a(VMembers
VNNS
tp1934
a(Vto
VTO
tp1935
a(Vpostpone
VVB
tp1936
a(Vevery
VDT
tp1937
a(Vitem
VNN
tp1938
a(Von
VIN
tp1939
a(Vthe
VDT
tp1940
a(Vagenda
VNN
tp1941
a(Vto
VTO
tp1942
a(Vour
VPRP$
tp1943
a(VJuly
VNNP
tp1944
a(Vpart-session
VNN
tp1945
a(V.
V.
tp1946
aa(lp1947
(VThe
VDT
tp1948
a(Vaim
VNN
tp1949
a(Vis
VVBZ
tp1950
a(Vno
VRB
tp1951
a(Vlonger
VRB
tp1952
a(Vemployment
VNN
tp1953
a(Vwith
VIN
tp1954
a(Va
VDT
tp1955
a(Vliving
VNN
tp1956
a(Vwage
VNN
tp1957
a(Vand
VCC
tp1958
a(Vquality
VNN
tp1959
a(Vjobs
VNNS
tp1960
a(V,
V,
tp1961
a(Vbut
VCC
tp1962
a(Vrather
VRB
tp1963
a(Vthe
VDT
tp1964
a(Vderegulation
VNN
tp1965
a(Vof
VIN
tp1966
a(Vworking
VVBG
tp1967
a(Vconditions
VNNS
tp1968
a(Vand
VCC
tp1969
a(Vwages
VNNS
tp1970
a(V.
V.
tp1971
aa(lp1972
(VIn
VIN
tp1973
a(Vthe
VDT
tp1974
a(Vname
VNN
tp1975
a(Vof
VIN
tp1976
a(Vwhat
VWP
tp1977
a(Vshould
VMD
tp1978
a(Vthey
VPRP
tp1979
a(Vbe
VVB
tp1980
a(Vdeprived
VVBN
tp1981
a(Vof
VIN
tp1982
a(Vtheir
VPRP$
tp1983
a(Vlivelihood
VNN
tp1984
a(V?
V.
tp1985
aa(lp1986
(VFor
VIN
tp1987
a(Vexample
VNN
tp1988
a(Vthe
VDT
tp1989
a(VAmu
VNNP
tp1990
a(VDarya
VNNP
tp1991
a(V,
V,
tp1992
a(Vwhere
VWRB
tp1993
a(Vthe
VDT
tp1994
a(Vmajor
VJJ
tp1995
a(Vproblems
VNNS
tp1996
a(Vlie
VVBP
tp1997
a(V,
V,
tp1998
a(Vis
VVBZ
tp1999
a(Vreported
VVBN
tp2000
a(Vto
VTO
tp2001
a(Vhave
VVB
tp2002
a(V70
VCD
tp2003
a(V%
VNN
tp2004
a(Vof
VIN
tp2005
a(Vthe
VDT
tp2006
a(Vnormal
VJJ
tp2007
a(Vwater
VNN
tp2008
a(Vlevel
VNN
tp2009
a(Vin
VIN
tp2010
a(Vits
VPRP$
tp2011
a(Vupper
VJJ
tp2012
a(Vreaches
VNNS
tp2013
a(Vand
VCC
tp2014
a(Vjust
VRB
tp2015
a(V40-45
VCD
tp2016
a(V%
VNN
tp2017
a(Vin
VIN
tp2018
a(Vthe
VDT
tp2019
a(Vlower
VJJR
tp2020
a(Vstretches
VNNS
tp2021
a(V.
V.
tp2022
aa(lp2023
(VBut
VCC
tp2024
a(Vthere
VEX
tp2025
a(Vare
VVBP
tp2026
a(Vcertainly
VRB
tp2027
a(Valso
VRB
tp2028
a(Vsome
VDT
tp2029
a(Vgrounds
VNNS
tp2030
a(Vfor
VIN
tp2031
a(Vconfidence
VNN
tp2032
a(V.
V.
tp2033
aa(lp2034
(VIn
VIN
tp2035
a(Vthat
VDT
tp2036
a(Vrespect
VNN
tp2037
a(V,
V,
tp2038
a(VI
VPRP
tp2039
a(Vshould
VMD
tp2040
a(Vlike
VVB
tp2041
a(Vto
VTO
tp2042
a(Vstand
VVB
tp2043
a(Vup
VRP
tp2044
a(Vfor
VIN
tp2045
a(Vmusic
VNN
tp2046
a(Veducation
VNN
tp2047
a(V,
V,
tp2048
a(Vincluding
VVBG
tp2049
a(Vclassical
VJJ
tp2050
a(Vmusic
VNN
tp2051
a(Vand
VCC
tp2052
a(Vopera
VNN
tp2053
a(V.
V.
tp2054
aa(lp2055
(V-
V:
tp2056
a(VAt
VIN
tp2057
a(Vthe
VDT
tp2058
a(Vend
VNN
tp2059
a(Vof
VIN
tp2060
a(Vthe
VDT
tp2061
a(Vvote
VNN
tp2062
a(V:
V:
tp2063
aa(lp2064
(VThat
VDT
tp2065
a(Vmust
VMD
tp2066
a(Vaffect
VVB
tp2067
a(Vsafety
VNN
tp2068
a(V.
V.
tp2069
aa(lp2070
(VThus
VRB
tp2071
a(Vit
VPRP
tp2072
a(Vis
VVBZ
tp2073
a(Vensured
VVBN
tp2074
a(Vthat
VIN
tp2075
a(Vpeople
VNNS
tp2076
a(Vwho
VWP
tp2077
a(Vmake
VVBP
tp2078
a(Vuse
VNN
tp2079
a(Vof
VIN
tp2080
a(Vtheir
VPRP$
tp2081
a(Vright
VNN
tp2082
a(Vto
VTO
tp2083
a(Vmove
VVB
tp2084
a(Vto
VTO
tp2085
a(Vother
VJJ
tp2086
a(Vcountries
VNNS
tp2087
a(Vwithin
VIN
tp2088
a(Vthe
VDT
tp2089
a(VCommunity
VNNP
tp2090
a(Vwill
VMD
tp2091
a(Vnot
VRB
tp2092
a(Vsuffer
VVB
tp2093
a(Vwhen
VWRB
tp2094
a(Vdifferent
VJJ
tp2095
a(Vnational
VJJ
tp2096
a(Vlegislation
VNN
tp2097
a(Vis
VVBZ
tp2098
a(Vapplied
VVBN
tp2099
a(V.
V.
tp2100
aa(lp2101
(VThe
VDT
tp2102
a(Vaim
VNN
tp2103
a(Vshould
VMD
tp2104
a(Vbe
VVB
tp2105
a(Vfor
VIN
tp2106
a(Vthe
VDT
tp2107
a(VTransatlantic
VNNP
tp2108
a(VLegislative
VJJ
tp2109
a(VDialogue
VNN
tp2110
a(Vto
VTO
tp2111
a(Vbecome
VVB
tp2112
a(Vone
VCD
tp2113
a(Vof
VIN
tp2114
a(Vthe
VDT
tp2115
a(Vmost
VRBS
tp2116
a(Vimportant
VJJ
tp2117
a(Vplatforms
VNNS
tp2118
a(Vfor
VIN
tp2119
a(VEU
VNNP
tp2120
a(Vforeign
VJJ
tp2121
a(Vpolicy-making
VNN
tp2122
a(V.
V.
tp2123
aa(lp2124
(VThey
VPRP
tp2125
a(Vhave
VVBP
tp2126
a(Vto
VTO
tp2127
a(Vbe
VVB
tp2128
a(Vindependent
VJJ
tp2129
a(Vand
VCC
tp2130
a(Vbe
VVB
tp2131
a(Vseen
VVBN
tp2132
a(Vto
VTO
tp2133
a(Vbe
VVB
tp2134
a(Vindependent
VJJ
tp2135
a(V.
V.
tp2136
aa(lp2137
(VSo
VRB
tp2138
a(Vlet
VVB
tp2139
a(Vus
VPRP
tp2140
a(Vlook
VVB
tp2141
a(Vat
VIN
tp2142
a(Vthe
VDT
tp2143
a(Vachievements
VNNS
tp2144
a(Vof
VIN
tp2145
a(Vthe
VDT
tp2146
a(VBali
VNNP
tp2147
a(Vconference
VNN
tp2148
a(Vin
VIN
tp2149
a(Vthe
VDT
tp2150
a(Vlight
VNN
tp2151
a(Vof
VIN
tp2152
a(Vthe
VDT
tp2153
a(Vold
VJJ
tp2154
a(Vprinciple
VNN
tp2155
a(Vof
VIN
tp2156
a(Vsustainable
VJJ
tp2157
a(Vdevelopment
VNN
tp2158
a(V,
V,
tp2159
a(Va
VDT
tp2160
a(Vprinciple
VNN
tp2161
a(Vvalued
VVBN
tp2162
a(Vnot
VRB
tp2163
a(Vonly
VRB
tp2164
a(Vin
VIN
tp2165
a(VEurope
VNNP
tp2166
a(Vbut
VCC
tp2167
a(Vat
VIN
tp2168
a(Vinternational
VJJ
tp2169
a(Vlevel
VNN
tp2170
a(Vtoo
VRB
tp2171
a(V.
V.
tp2172
aa(lp2173
(VOn
VIN
tp2174
a(V29
VCD
tp2175
a(VJune
VNNP
tp2176
a(V,
V,
tp2177
a(Vthe
VDT
tp2178
a(VUS
VNNP
tp2179
a(VSupreme
VNNP
tp2180
a(VCourt
VNNP
tp2181
a(Vruled
VVBD
tp2182
a(Vthat
VIN
tp2183
a(Vmilitary
VJJ
tp2184
a(Vtribunals
VNNS
tp2185
a(Vwere
VVBD
tp2186
a(Villegal
VJJ
tp2187
a(V.
V.
tp2188
a(VAt
VIN
tp2189
a(V7.45
VCD
tp2190
a(Vp.m.
VNN
tp2191
aa.