(lp1
(lp2
(VSpeakers
VNNS
tp3
a(Vfrom
VIN
tp4
a(Vmany
VJJ
tp5
a(Vcountries
VNNS
tp6
a(Vwill
VMD
tp7
a(Vbe
VVB
tp8
a(Vattending
VVBG
tp9
a(Vthat
VIN
tp10
a(Vseminar
VNN
tp11
a(V.
V.
tp12
aa(lp13
(VWhy
VWRB
tp14
a(Vnot
VRB
tp15
a(Vpick
VVB
tp16
a(Van
VDT
tp17
a(Veasy
VJJ
tp18
a(Vtarget
VNN
tp19
a(V,
V,
tp20
a(Vone
VCD
tp21
a(Vthat
VWDT
tp22
a(Vdoes
VVBZ
tp23
a(Vnot
VRB
tp24
a(Vmove
VVB
tp25
a(Vabout
VRB
tp26
a(V?
V.
tp27
aa(lp28
(VThere
VEX
tp29
a(Vare
VVBP
tp30
a(Vtwo
VCD
tp31
a(Vor
VCC
tp32
a(Vthree
VCD
tp33
a(Vaspects
VNNS
tp34
a(Vthat
VIN
tp35
a(VI
VPRP
tp36
a(Vsee
VVBP
tp37
a(Vas
VRB
tp38
a(Vimportant
VJJ
tp39
a(V.
V.
tp40
aa(lp41
(VWe
VPRP
tp42
a(Vare
VVBP
tp43
a(Valso
VRB
tp44
a(Vdividing
VVBG
tp45
a(Vup
VRP
tp46
a(Vthe
VDT
tp47
a(Vconcept
VNN
tp48
a(Vof
VIN
tp49
a(Vhuman
VJJ
tp50
a(Vdignity
VNN
tp51
a(Vwhen
VWRB
tp52
a(Vwe
VPRP
tp53
a(Vdeliberately
VRB
tp54
a(Vproduce
VVBP
tp55
a(Vembryos
VNNS
tp56
a(Vin
VIN
tp57
a(Vorder
VNN
tp58
a(Vto
VTO
tp59
a(Vhave
VVB
tp60
a(Va
VDT
tp61
a(Vready
VJJ
tp62
a(Vsupply
VNN
tp63
a(Vof
VIN
tp64
a(Vspare
VJJ
tp65
a(Vparts
VNNS
tp66
a(V.
V.
tp67
aa(lp68
(VThe
VDT
tp69
a(Vpeople
VNNS
tp70
a(V,
V,
tp71
a(Vthe
VDT
tp72
a(Vcitizens
VNNS
tp73
a(V,
V,
tp74
a(Vmust
VMD
tp75
a(Vbe
VVB
tp76
a(Vinformed
VVBN
tp77
a(Vabout
VIN
tp78
a(Vwhat
VWP
tp79
a(Vchanges
VNNS
tp80
a(Vwill
VMD
tp81
a(Vbe
VVB
tp82
a(Vimplemented
VVBN
tp83
a(Vand
VCC
tp84
a(Vhow
VWRB
tp85
a(Vthese
VDT
tp86
a(Vwill
VMD
tp87
a(Vaffect
VVB
tp88
a(Vthem
VPRP
tp89
a(V,
V,
tp90
a(Vin
VIN
tp91
a(Vorder
VNN
tp92
a(Vto
VTO
tp93
a(Venable
VVB
tp94
a(Vthem
VPRP
tp95
a(Vto
VTO
tp96
a(Vmake
VVB
tp97
a(Vinformed
VJJ
tp98
a(Vdecisions
VNNS
tp99
a(Vin
VIN
tp100
a(Vall
VDT
tp101
a(Vcases
VNNS
tp102
a(V,
V,
tp103
a(Vand
VCC
tp104
a(Vall
VDT
tp105
a(Vchanges
VNNS
tp106
a(Vmust
VMD
tp107
a(Vbe
VVB
tp108
a(Vmade
VVBN
tp109
a(Vin
VIN
tp110
a(Va
VDT
tp111
a(Vcitizen-friendly
VJJ
tp112
a(Vmanner
VNN
tp113
a(V.
V.
tp114
aa(lp115
(VShe
VPRP
tp116
a(Vcan
VMD
tp117
a(Vconfirm
VVB
tp118
a(Vthat
VIN
tp119
a(Vwe
VPRP
tp120
a(Vtook
VVBD
tp121
a(Von
VRP
tp122
a(Vabout
VIN
tp123
a(V80
VCD
tp124
a(V%
VNN
tp125
a(Vof
VIN
tp126
a(VParliament
VNNP
tp127
a(V\u2019
VCD
tp128
a(Vs
VNNS
tp129
a(Vproposals
VNNS
tp130
a(V.
V.
tp131
aa(lp132
(VI
VPRP
tp133
a(Vam
VVBP
tp134
a(Vglad
VJJ
tp135
a(Valso
VRB
tp136
a(Vthat
VIN
tp137
a(Vthe
VDT
tp138
a(VDepartment
VNNP
tp139
a(Vof
VIN
tp140
a(VAgriculture
VNNP
tp141
a(Vis
VVBZ
tp142
a(Vcarrying
VVBG
tp143
a(Vout
VRP
tp144
a(Va
VDT
tp145
a(Vfurther
VJJ
tp146
a(Vinvestigation
VNN
tp147
a(V,
V,
tp148
a(Vunder
VIN
tp149
a(Vthe
VDT
tp150
a(Vchairmanship
VNN
tp151
a(Vof
VIN
tp152
a(Va
VDT
tp153
a(Vvery
VRB
tp154
a(Vwell-known
VJJ
tp155
a(Vindividual
VNN
tp156
a(Vin
VIN
tp157
a(VEuropean
VJJ
tp158
a(Vcircles
VNNS
tp159
a(V,
V,
tp160
a(VProfessor
VNNP
tp161
a(VPatrick
VNNP
tp162
a(VWall
VNNP
tp163
a(V.
V.
tp164
aa(lp165
(VThey
VPRP
tp166
a(Vare
VVBP
tp167
a(Vsimply
VRB
tp168
a(Vrecognised
VVBN
tp169
a(Vby
VIN
tp170
a(Vthe
VDT
tp171
a(Vinstitutions
VNNS
tp172
a(V.
V.
tp173
aa(lp174
(VAs
VIN
tp175
a(VI
VPRP
tp176
a(Vsaid
VVBD
tp177
a(Vin
VIN
tp178
a(Vmy
VPRP$
tp179
a(Vfirst
VJJ
tp180
a(Vspeech
VNN
tp181
a(V,
V,
tp182
a(Vwe
VPRP
tp183
a(Vwere
VVBD
tp184
a(Vthe
VDT
tp185
a(Vfirst
VJJ
tp186
a(Vto
VTO
tp187
a(Vsend
VVB
tp188
a(Vspecialists
VNNS
tp189
a(Vto
VTO
tp190
a(Vthe
VDT
tp191
a(Vscene
VNN
tp192
a(Vof
VIN
tp193
a(Vthe
VDT
tp194
a(Vdisaster
VNN
tp195
a(Vin
VIN
tp196
a(Vthe
VDT
tp197
a(Vcases
VNNS
tp198
a(Vof
VIN
tp199
a(Vthe
VDT
tp200
a(Vtsunami
VNN
tp201
a(Vand
VCC
tp202
a(Vhurricane
VNN
tp203
a(VKatrina
VNNP
tp204
a(V.
V.
tp205
aa(lp206
(VFor
VIN
tp207
a(Vinstance
VNN
tp208
a(Vrestriction
VNN
tp209
a(Vof
VIN
tp210
a(Vcorporate
VJJ
tp211
a(Venterprise
VNN
tp212
a(Vin
VIN
tp213
a(Vthe
VDT
tp214
a(Vinternal
VJJ
tp215
a(Vmarket
VNN
tp216
a(Vis
VVBZ
tp217
a(Vexercised
VVBN
tp218
a(Vin
VIN
tp219
a(Vthe
VDT
tp220
a(Varea
VNN
tp221
a(Vof
VIN
tp222
a(Vthe
VDT
tp223
a(Vproduction
VNN
tp224
a(Vand
VCC
tp225
a(Vinstallation
VNN
tp226
a(Vof
VIN
tp227
a(Vmachinery
VNN
tp228
a(Vand
VCC
tp229
a(Vequipment
VNN
tp230
a(V,
V,
tp231
a(Vin
VIN
tp232
a(Vthe
VDT
tp233
a(Varea
VNN
tp234
a(Vof
VIN
tp235
a(Vmetal
VNN
tp236
a(Vconstructions
VNNS
tp237
a(V,
V,
tp238
a(Vbuilding
VVBG
tp239
a(Vwork
VNN
tp240
a(V,
V,
tp241
a(Vdecorating
VVBG
tp242
a(V,
V,
tp243
a(Vprocessing
VNN
tp244
a(Vof
VIN
tp245
a(Vnatural
VJJ
tp246
a(Vstone
VNN
tp247
a(Vand
VCC
tp248
a(Vso
VRB
tp249
a(Von
VIN
tp250
a(V.
V.
tp251
aa(lp252
(VThe
VDT
tp253
a(Vsymbolic
VJJ
tp254
a(Vgesture
VNN
tp255
a(Vof
VIN
tp256
a(Vtheir
VPRP$
tp257
a(Vrepresentatives
VNNS
tp258
a(Vbeing
VVBG
tp259
a(Vpresent
VJJ
tp260
a(Vat
VIN
tp261
a(Vthe
VDT
tp262
a(Vopening
VNN
tp263
a(Vof
VIN
tp264
a(Vthe
VDT
tp265
a(Vlatest
VJJS
tp266
a(Vcultural
VJJ
tp267
a(Vevent
VNN
tp268
a(Vheld
VVBN
tp269
a(Vin
VIN
tp270
a(VIndonesia
VNNP
tp271
a(Vwith
VIN
tp272
a(Vthe
VDT
tp273
a(Vsupport
VNN
tp274
a(Vof
VIN
tp275
a(Vthe
VDT
tp276
a(VPortuguese
VNNP
tp277
a(VEmbassy
VNNP
tp278
a(Vdid
VVBD
tp279
a(Vnot
VRB
tp280
a(Vgo
VVB
tp281
a(Vunnoticed
VJJ
tp282
a(V.
V.
tp283
aa(lp284
(VI
VPRP
tp285
a(Vwould
VMD
tp286
a(Vencourage
VVB
tp287
a(Vthe
VDT
tp288
a(VEU
VNNP
tp289
a(Vto
VTO
tp290
a(Vcontinue
VVB
tp291
a(Vto
VTO
tp292
a(Vshow
VVB
tp293
a(Vsupport
VNN
tp294
a(Vfor
VIN
tp295
a(Vthe
VDT
tp296
a(Vprocess
VNN
tp297
a(Vat
VIN
tp298
a(Vthis
VDT
tp299
a(Vcrucial
VJJ
tp300
a(Vtime
VNN
tp301
a(V.
V.
tp302
aa(lp303
(VThe
VDT
tp304
a(Vnational
VJJ
tp305
a(V,
V,
tp306
a(Vregional
VJJ
tp307
a(Vand
VCC
tp308
a(Vlocal
VJJ
tp309
a(Vauthorities
VNNS
tp310
a(Vjoined
VVBD
tp311
a(Vefforts
VNNS
tp312
a(Vso
VIN
tp313
a(Vthat
VIN
tp314
a(Vlife
VNN
tp315
a(Von
VIN
tp316
a(Vthe
VDT
tp317
a(Visland
VNN
tp318
a(Vcould
VMD
tp319
a(Vgo
VVB
tp320
a(Vback
VRB
tp321
a(Vto
VTO
tp322
a(Vnormal
VJJ
tp323
a(V.
V.
tp324
a(VTherefore
VRB
tp325
a(V,
V,
tp326
a(Vit
VPRP
tp327
a(Vis
VVBZ
tp328
a(Vimportant
VJJ
tp329
a(Vto
VTO
tp330
a(Vannounce
VVB
tp331
a(Vthat
VIN
tp332
a(Vtourists
VNNS
tp333
a(Vcan
VMD
tp334
a(Vreturn
VVB
tp335
a(Vto
VTO
tp336
a(VMadeira
VNNP
tp337
a(V.
V.
tp338
aa(lp339
(VHumane
VNNP
tp340
a(Vtrapping
VNN
tp341
aa(lp342
(VThe
VDT
tp343
a(Vfact
VNN
tp344
a(Vis
VVBZ
tp345
a(V,
V,
tp346
a(V-
V:
tp347
a(Vand
VCC
tp348
a(Vthat
VDT
tp349
a(Vhas
VVBZ
tp350
a(Vbeen
VVBN
tp351
a(Vappropriately
VRB
tp352
a(Vdocumented
VVBN
tp353
a(Von
VIN
tp354
a(Vtelevision
VNN
tp355
a(V-
V:
tp356
a(Vthat
VIN
tp357
a(Vthere
VEX
tp358
a(Vstill
VRB
tp359
a(Vexist
VVBP
tp360
a(Vhorrors
VNNS
tp361
a(Vsuch
VJJ
tp362
a(Vas
VIN
tp363
a(Vslavery
VNN
tp364
a(V.
V.
tp365
aa(lp366
(VWe
VPRP
tp367
a(Vcannot
VVBP
tp368
a(Vtolerate
VVB
tp369
a(Va
VDT
tp370
a(Vsituation
VNN
tp371
a(Vin
VIN
tp372
a(Vwhich
VWDT
tp373
a(Vthere
VEX
tp374
a(Vis
VVBZ
tp375
a(Va
VDT
tp376
a(Vcountry
VNN
tp377
a(Vlike
VIN
tp378
a(VBelarus
VNNP
tp379
a(V,
V,
tp380
a(Vrun
VVBN
tp381
a(Vby
VIN
tp382
a(Va
VDT
tp383
a(Vdictator
VNN
tp384
a(V,
V,
tp385
a(Vin
VIN
tp386
a(Vthe
VDT
tp387
a(Vvery
VJJ
tp388
a(Vcentre
VNN
tp389
a(Vof
VIN
tp390
a(VEurope
VNNP
tp391
a(V.
V.
tp392
aa(lp393
(VThis
VDT
tp394
a(Vmeans
VVBZ
tp395
a(Vthat
VIN
tp396
a(Vit
VPRP
tp397
a(Vis
VVBZ
tp398
a(Vvital
VJJ
tp399
a(Vthat
VIN
tp400
a(Vwe
VPRP
tp401
a(Vact
VVBP
tp402
a(Vin
VIN
tp403
a(Vthe
VDT
tp404
a(Vinterests
VNNS
tp405
a(Vof
VIN
tp406
a(Vthe
VDT
tp407
a(Vwelfare
VNN
tp408
a(Vof
VIN
tp409
a(Vanimals
VNNS
tp410
a(Vnot
VRB
tp411
a(Vmerely
VRB
tp412
a(Vwithin
VIN
tp413
a(Vthe
VDT
tp414
a(VEU
VNNP
tp415
a(V,
V,
tp416
a(Vbut
VCC
tp417
a(Valso
VRB
tp418
a(Vseek
VVB
tp419
a(Vout
VRP
tp420
a(Vallies
VNNS
tp421
a(V.
V.
tp422
aa(lp423
(VI
VPRP
tp424
a(Vmentioned
VVBD
tp425
a(Vearlier
VRBR
tp426
a(Vthat
VIN
tp427
a(Vin
VIN
tp428
a(Vone
VCD
tp429
a(Vof
VIN
tp430
a(Vthe
VDT
tp431
a(Vcases
VNNS
tp432
a(Vthe
VDT
tp433
a(VWorld
VNNP
tp434
a(VBank
VNNP
tp435
a(Vstudied
VVBD
tp436
a(V,
V,
tp437
a(Vwith
VIN
tp438
a(Vthe
VDT
tp439
a(Vadoption
VNN
tp440
a(Vof
VIN
tp441
a(Va
VDT
tp442
a(Vvery
VRB
tp443
a(Vsmall
VJJ
tp444
a(Vnumber
VNN
tp445
a(Vof
VIN
tp446
a(Vimprovements
VNNS
tp447
a(Vin
VIN
tp448
a(Vthe
VDT
tp449
a(Vtreatment
VNN
tp450
a(Vof
VIN
tp451
a(Vbirds
VNNS
tp452
a(V,
V,
tp453
a(Va
VDT
tp454
a(Vfarm
VNN
tp455
a(Vmanaged
VVBD
tp456
a(Vto
VTO
tp457
a(Vsave
VVB
tp458
a(VUSD
VNNP
tp459
a(V320
VCD
tp460
a(V000
VCD
tp461
a(Vper
VIN
tp462
a(Vyear
VNN
tp463
a(V.
V.
tp464
aa(lp465
(VFor
VIN
tp466
a(V50
VCD
tp467
a(Vyears
VNNS
tp468
a(V,
V,
tp469
a(Vgrowth
VNN
tp470
a(Vin
VIN
tp471
a(Vinternational
VJJ
tp472
a(Vtrade
VNN
tp473
a(Vhas
VVBZ
tp474
a(Vbeen
VVBN
tp475
a(Vfaster
VJJR
tp476
a(Vthan
VIN
tp477
a(Vgrowth
VNN
tp478
a(Vin
VIN
tp479
a(Vgross
VJJ
tp480
a(Vworld
VNN
tp481
a(Vproduct
VNN
tp482
a(V.
V.
tp483
aa(lp484
(VThat
VDT
tp485
a(Vis
VVBZ
tp486
a(Vdescribed
VVBN
tp487
a(Vin
VIN
tp488
a(VArticle
VNNP
tp489
a(V3
VCD
tp490
a(V(
VNN
tp491
a(V2
VCD
tp492
a(V)
VCD
tp493
a(V(
VNN
tp494
a(Vb
VNN
tp495
a(V)
VNN
tp496
a(Vof
VIN
tp497
a(VDirective
VNNP
tp498
a(V96
VCD
tp499
a(V/
V:
tp500
a(V71
VCD
tp501
a(V/
V:
tp502
a(VEC
VNNP
tp503
a(V,
V,
tp504
a(Valso
VRB
tp505
a(Vknown
VVBN
tp506
a(Vas
VIN
tp507
a(Vthe
VDT
tp508
a(VPosting
VNN
tp509
a(Vof
VIN
tp510
a(VWorkers
VNNS
tp511
a(VDirective
VNNP
tp512
a(V.
V.
tp513
aa(lp514
(VToday
VNN
tp515
a(V\u2019
VCD
tp516
a(Vs
VNNS
tp517
a(Vdebts
VNNS
tp518
a(Vare
VVBP
tp519
a(Vtomorrow
VNN
tp520
a(V\u2019
VRB
tp521
a(Vs
VVBZ
tp522
a(Vtaxes
VNNS
tp523
a(V.
V.
tp524
aa(lp525
(VLet
VVB
tp526
a(Vthem
VPRP
tp527
a(Vapply
VVB
tp528
a(Vtheir
VPRP$
tp529
a(Vlegislation
VNN
tp530
a(Vand
VCC
tp531
a(Vseal
VVB
tp532
a(Vany
VDT
tp533
a(Vloopholes
VNNS
tp534
a(Vin
VIN
tp535
a(Vit
VPRP
tp536
a(V.
V.
tp537
aa(lp538
(VThe
VDT
tp539
a(Vfood
VNN
tp540
a(Vin
VIN
tp541
a(VEurope
VNNP
tp542
a(Vis
VVBZ
tp543
a(Vsafe
VJJ
tp544
a(V.
V.
tp545
aa(lp546
(VThe
VDT
tp547
a(VUnited
VNNP
tp548
a(VKingdom
VNNP
tp549
a(V&apos;s
VNNS
tp550
a(Vblocking
VVBG
tp551
a(Vof
VIN
tp552
a(Vthe
VDT
tp553
a(VEuropean
VJJ
tp554
a(Vdecision-making
VJJ
tp555
a(Vprocess
VNN
tp556
a(Vhas
VVBZ
tp557
a(Vbeen
VVBN
tp558
a(Vseized
VVBN
tp559
a(Vupon
VIN
tp560
a(Vwith
VIN
tp561
a(Vboth
VDT
tp562
a(Vhands
VNNS
tp563
a(Vin
VIN
tp564
a(Vvarious
VJJ
tp565
a(Vquarters
VNNS
tp566
a(Vas
VIN
tp567
a(Van
VDT
tp568
a(Vargument
VNN
tp569
a(Vfor
VIN
tp570
a(Vabolishing
VVBG
tp571
a(Vthe
VDT
tp572
a(Vright
VNN
tp573
a(Vof
VIN
tp574
a(Vveto
VNN
tp575
a(V.
V.
tp576
aa(lp577
(VAfter
VIN
tp578
a(Veastward
VRB
tp579
a(Venlargement
VNN
tp580
a(Vto
VTO
tp581
a(Vinclude
VVB
tp582
a(Vthe
VDT
tp583
a(Vcountries
VNNS
tp584
a(Vof
VIN
tp585
a(VCentral
VNNP
tp586
a(Vand
VCC
tp587
a(VEastern
VNNP
tp588
a(VEurope
VNNP
tp589
a(V,
V,
tp590
a(Vwe
VPRP
tp591
a(Vwill
VMD
tp592
a(V-
V:
tp593
a(Vafter
VIN
tp594
a(VChina
VNNP
tp595
a(V-
V:
tp596
a(Vbe
VVB
tp597
a(Vthe
VDT
tp598
a(Vlargest
VJJS
tp599
a(Vinternal
VJJ
tp600
a(Vmarket
VNN
tp601
a(Vin
VIN
tp602
a(Vthe
VDT
tp603
a(Vworld
VNN
tp604
a(V.
V.
tp605
aa(lp606
(VIt
VPRP
tp607
a(Vwas
VVBD
tp608
a(Vthe
VDT
tp609
a(Vbiggest
VJJS
tp610
a(Vdemonstration
VNN
tp611
a(Vsince
VIN
tp612
a(V1996
VCD
tp613
a(V.
V.
tp614
aa(lp615
(VMr
VNNP
tp616
a(VKazulin
VNNP
tp617
a(V&apos;s
VVBZ
tp618
a(Vwife
VNN
tp619
a(VIrina
VNNP
tp620
a(Vis
VVBZ
tp621
a(Vfighting
VVBG
tp622
a(Vtirelessly
VRB
tp623
a(Vto
VTO
tp624
a(Vobtain
VVB
tp625
a(Vher
VPRP$
tp626
a(Vhusband
VNN
tp627
a(V&apos;s
VNNS
tp628
a(Vfreedom
VNN
tp629
a(V,
V,
tp630
a(Vdespite
VIN
tp631
a(Vbeing
VVBG
tp632
a(Vgravely
VRB
tp633
a(Vill
VRB
tp634
a(V.
V.
tp635
aa(lp636
(VIt
VPRP
tp637
a(Vis
VVBZ
tp638
a(Vessential
VJJ
tp639
a(Vthat
VIN
tp640
a(Vgood
VJJ
tp641
a(Vinformation
VNN
tp642
a(Vbe
VVB
tp643
a(Vprovided
VVBN
tp644
a(Vin
VIN
tp645
a(Vschools
VNNS
tp646
a(Vand
VCC
tp647
a(Vhospitals
VNNS
tp648
a(V,
V,
tp649
a(Vthe
VDT
tp650
a(Vsort
VNN
tp651
a(Vof
VIN
tp652
a(Vinformation
VNN
tp653
a(Vthat
VWDT
tp654
a(Vtreats
VVBZ
tp655
a(Vpeople
VNNS
tp656
a(V&apos;s
VVBZ
tp657
a(Vmoral
VJJ
tp658
a(Vchoices
VNNS
tp659
a(Vwith
VIN
tp660
a(Vrespect
VNN
tp661
a(V,
V,
tp662
a(Vand
VCC
tp663
a(Vshould
VMD
tp664
a(Valso
VRB
tp665
a(Vinclude
VVB
tp666
a(Vinformation
VNN
tp667
a(Vabout
VIN
tp668
a(Vall
VDT
tp669
a(Vsexually
VRB
tp670
a(Vtransmittable
VJJ
tp671
a(Vdiseases
VNNS
tp672
a(V,
V,
tp673
a(Vsince
VIN
tp674
a(Vthese
VDT
tp675
a(Vincrease
VNN
tp676
a(Vvulnerability
VNN
tp677
a(Vfor
VIN
tp678
a(VAIDS
VNN
tp679
a(V.
V.
tp680
aa(lp681
(VIf
VIN
tp682
a(Vwe
VPRP
tp683
a(Vare
VVBP
tp684
a(Vopen
VJJ
tp685
a(V,
V,
tp686
a(Vthen
VRB
tp687
a(Vthey
VPRP
tp688
a(Vneed
VVBP
tp689
a(Vto
VTO
tp690
a(Vbe
VVB
tp691
a(Vopen
VJJ
tp692
a(Vtoo
VRB
tp693
a(V.
V.
tp694
aa(lp695
(VIt
VPRP
tp696
a(Vis
VVBZ
tp697
a(Vchanging
VVBG
tp698
a(Vall
VPDT
tp699
a(Vthe
VDT
tp700
a(Vtime
VNN
tp701
a(Vand
VCC
tp702
a(Von
VIN
tp703
a(VFriday
VNNP
tp704
a(V,
V,
tp705
a(Vor
VCC
tp706
a(Vat
VIN
tp707
a(Vthe
VDT
tp708
a(Vweekend
VNN
tp709
a(V,
V,
tp710
a(Vthere
VEX
tp711
a(Vwill
VMD
tp712
a(Vbe
VVB
tp713
a(Vanother
VDT
tp714
a(Vdraft
VNN
tp715
a(V.
V.
tp716
aa(lp717
(VBefore
VIN
tp718
a(Vwe
VPRP
tp719
a(Vare
VVBP
tp720
a(Vtoo
VRB
tp721
a(Vcongratulatory
VJJ
tp722
a(VI
VPRP
tp723
a(Vwould
VMD
tp724
a(V,
V,
tp725
a(Vhowever
VRB
tp726
a(V,
V,
tp727
a(Vdraw
VVB
tp728
a(Vattention
VNN
tp729
a(Vto
VTO
tp730
a(Vthe
VDT
tp731
a(Vproblem
VNN
tp732
a(Vof
VIN
tp733
a(Vthe
VDT
tp734
a(VCode
VNNP
tp735
a(Vof
VIN
tp736
a(VGood
VJJ
tp737
a(VAdministrative
VJJ
tp738
a(VBehaviour
VNNP
tp739
a(V.
V.
tp740
aa(lp741
(VConsequently
VRB
tp742
a(V,
V,
tp743
a(Vthe
VDT
tp744
a(Vrapporteur
VNN
tp745
a(Vproposes
VVBZ
tp746
a(Vincreasing
VVBG
tp747
a(Vthe
VDT
tp748
a(VPHARE
VNN
tp749
a(Vprogramme
VNN
tp750
a(Vby
VIN
tp751
a(VEUR
V$
tp752
a(V25
VCD
tp753
a(Vmillion
VCD
tp754
a(Vnow
VRB
tp755
a(V.
V.
tp756
aa(lp757
(VWe
VPRP
tp758
a(Vare
VVBP
tp759
a(Vwell
VRB
tp760
a(Vahead
VRB
tp761
a(V,
V,
tp762
a(Vand
VCC
tp763
a(VI
VPRP
tp764
a(Vthink
VVBP
tp765
a(Vthat
VIN
tp766
a(Vlegislation
VNN
tp767
a(Vis
VVBZ
tp768
a(Vbringing
VVBG
tp769
a(Vgood
VJJ
tp770
a(Vsolutions
VNNS
tp771
a(V.
V.
tp772
aa(lp773
(VWe
VPRP
tp774
a(Vwill
VMD
tp775
a(Vcontinue
VVB
tp776
a(Vto
VTO
tp777
a(Vsupport
VVB
tp778
a(VMexico
VNNP
tp779
a(Vin
VIN
tp780
a(Vits
VPRP$
tp781
a(Vefforts
VNNS
tp782
a(V.
V.
tp783
aa(lp784
(VMy
VPRP$
tp785
a(Vonly
VJJ
tp786
a(Vcriticism
VNN
tp787
a(Vis
VVBZ
tp788
a(Vthat
VIN
tp789
a(Van
VDT
tp790
a(Vattempt
VNN
tp791
a(Vhas
VVBZ
tp792
a(Vbeen
VVBN
tp793
a(Vmade
VVBN
tp794
a(Vto
VTO
tp795
a(Vhijack
VVB
tp796
a(Vthe
VDT
tp797
a(Vreport
VNN
tp798
a(Von
VIN
tp799
a(Vbehalf
VNN
tp800
a(Vof
VIN
tp801
a(Vthe
VDT
tp802
a(VTaiwan
VNNP
tp803
a(Vlobby
VNN
tp804
a(V.
V.
tp805
aa(lp806
(VThese
VDT
tp807
a(Vare
VVBP
tp808
a(Vall
VDT
tp809
a(Vareas
VNNS
tp810
a(Vwhich
VWDT
tp811
a(Vare
VVBP
tp812
a(Vnot
VRB
tp813
a(Vexactly
VRB
tp814
a(Vmarginal
VJJ
tp815
a(V.
V.
tp816
aa(lp817
(VIndeed
VRB
tp818
a(V,
V,
tp819
a(Vit
VPRP
tp820
a(Vis
VVBZ
tp821
a(Va
VDT
tp822
a(Vmatter
VNN
tp823
a(Vof
VIN
tp824
a(Vgreat
VJJ
tp825
a(Vconcern
VNN
tp826
a(Vto
VTO
tp827
a(Vme
VPRP
tp828
a(Vthat
VIN
tp829
a(V,
V,
tp830
a(Vas
VIN
tp831
a(Vhe
VPRP
tp832
a(Vmentioned
VVBD
tp833
a(V,
V,
tp834
a(Vthe
VDT
tp835
a(Vagreement
VNN
tp836
a(Vjust
VRB
tp837
a(Vsigned
VVBN
tp838
a(Vwith
VIN
tp839
a(VEgypt
VNNP
tp840
a(Vwas
VVBD
tp841
a(Vdone
VVBN
tp842
a(Vagainst
VIN
tp843
a(Va
VDT
tp844
a(Vbackground
VNN
tp845
a(Vof
VIN
tp846
a(Vvery
VRB
tp847
a(Vconsiderable
VJJ
tp848
a(Vrepression
VNN
tp849
a(Vin
VIN
tp850
a(Vthat
VDT
tp851
a(Vcountry
VNN
tp852
a(V,
V,
tp853
a(Vthe
VDT
tp854
a(Vmost
VRBS
tp855
a(Vimportant
VJJ
tp856
a(Vin
VIN
tp857
a(Vthe
VDT
tp858
a(Vregion
VNN
tp859
a(V.
V.
tp860
aa(lp861
(VIt
VPRP
tp862
a(Vis
VVBZ
tp863
a(Vvital
VJJ
tp864
a(Vthat
VIN
tp865
a(Vthis
VDT
tp866
a(Vafternoon
VNN
tp867
a(Vin
VIN
tp868
a(Vthis
VDT
tp869
a(VHouse
VNNP
tp870
a(Vwe
VPRP
tp871
a(Vput
VVBD
tp872
a(Vaside
VRB
tp873
a(Vour
VPRP$
tp874
a(Vprejudices
VNNS
tp875
a(Vand
VCC
tp876
a(Vwe
VPRP
tp877
a(Vdefend
VVBP
tp878
a(Vthose
VDT
tp879
a(Vwho
VWP
tp880
a(Vhave
VVBP
tp881
a(Vno
VDT
tp882
a(Vone
VNN
tp883
a(Vleft
VVBD
tp884
a(Vto
VTO
tp885
a(Vdefend
VVB
tp886
a(Vthem
VPRP
tp887
a(V.
V.
tp888
aa(lp889
(VI
VPRP
tp890
a(Vwould
VMD
tp891
a(Vcite
VVB
tp892
a(Vthe
VDT
tp893
a(Vexamples
VNNS
tp894
a(Vof
VIN
tp895
a(Vthe
VDT
tp896
a(VZapatero
VNNP
tp897
a(VGovernment
VNNP
tp898
a(Vin
VIN
tp899
a(VSpain
VNNP
tp900
a(Vand
VCC
tp901
a(Valso
VRB
tp902
a(Vthe
VDT
tp903
a(Vgovernments
VNNS
tp904
a(Vof
VIN
tp905
a(VItaly
VNNP
tp906
a(V,
V,
tp907
a(Vthe
VDT
tp908
a(VNetherlands
VNNP
tp909
a(Vand
VCC
tp910
a(V,
V,
tp911
a(Vlast
VJJ
tp912
a(Vbut
VCC
tp913
a(Vnot
VRB
tp914
a(Vleast
VJJS
tp915
a(V,
V,
tp916
a(VBelgium
VNNP
tp917
a(V.
V.
tp918
aa(lp919
(VThat
VDT
tp920
a(Vis
VVBZ
tp921
a(Vnot
VRB
tp922
a(Vsurprising
VJJ
tp923
a(Vgiven
VVBN
tp924
a(Vthe
VDT
tp925
a(Vnumber
VNN
tp926
a(Vof
VIN
tp927
a(VIranian
VJJ
tp928
a(Vdiplomats
VNNS
tp929
a(Vthat
VWDT
tp930
a(Vwere
VVBD
tp931
a(Vkilled
VVBN
tp932
a(Vthree
VCD
tp933
a(Vor
VCC
tp934
a(Vso
VRB
tp935
a(Vyears
VNNS
tp936
a(Vago
VRB
tp937
a(Vby
VIN
tp938
a(Vthe
VDT
tp939
a(VTaliban
VNNP
tp940
a(Vin
VIN
tp941
a(VAfghanistan
VNNP
tp942
a(V.
V.
tp943
aa(lp944
(VWith
VIN
tp945
a(Vthe
VDT
tp946
a(VTemporary
VJJ
tp947
a(VWork
VNN
tp948
a(VDirective
VNN
tp949
a(V,
V,
tp950
a(Von
VIN
tp951
a(Vthe
VDT
tp952
a(Vone
VCD
tp953
a(Vhand
VNN
tp954
a(V,
V,
tp955
a(Vthe
VDT
tp956
a(Vprinciple
VNN
tp957
a(Vof
VIN
tp958
a(Vequal
VJJ
tp959
a(Vtreatment
VNN
tp960
a(Vfrom
VIN
tp961
a(Vday
VNN
tp962
a(Vone
VCD
tp963
a(Vis
VVBZ
tp964
a(Vbecoming
VVBG
tp965
a(Vthe
VDT
tp966
a(Vrule
VNN
tp967
a(Vin
VIN
tp968
a(VEurope
VNNP
tp969
a(V.
V.
tp970
aa(lp971
(VThe
VDT
tp972
a(Vpotential
VNN
tp973
a(Vfor
VIN
tp974
a(Venergy
VNN
tp975
a(Vsaving
VNN
tp976
a(Vin
VIN
tp977
a(Vthe
VDT
tp978
a(VUnited
VNNP
tp979
a(VStates
VNNPS
tp980
a(Vis
VVBZ
tp981
a(Venormous
VJJ
tp982
a(V.
V.
tp983
aa(lp984
(VThese
VDT
tp985
a(Vare
VVBP
tp986
a(Vsome
VDT
tp987
a(Vaspects
VNNS
tp988
a(Vof
VIN
tp989
a(Vthe
VDT
tp990
a(Vprogress
VNN
tp991
a(Vthat
VWDT
tp992
a(Vhas
VVBZ
tp993
a(Vbeen
VVBN
tp994
a(Vachieved
VVBN
tp995
a(Vin
VIN
tp996
a(Vthe
VDT
tp997
a(Vcourse
VNN
tp998
a(Vof
VIN
tp999
a(Vthe
VDT
tp1000
a(Vtough
VJJ
tp1001
a(Vnegotiations
VNNS
tp1002
a(Vof
VIN
tp1003
a(Vrecent
VJJ
tp1004
a(Vmonths
VNNS
tp1005
a(V.
V.
tp1006
aa(lp1007
(VThe
VDT
tp1008
a(Vquestion
VNN
tp1009
a(Vwas
VVBD
tp1010
a(Vtherefore
VRB
tp1011
a(Vasked
VVBN
tp1012
a(Vin
VIN
tp1013
a(Vthe
VDT
tp1014
a(Vleader
VNN
tp1015
a(Vin
VIN
tp1016
a(Vtoday
VNN
tp1017
a(V&apos;
VVBP
tp1018
a(Vs
VNNS
tp1019
a(Vissue
VNN
tp1020
a(Vof
VIN
tp1021
a(Vthe
VDT
tp1022
a(VHerald
VNNP
tp1023
a(VTribune
VNNP
tp1024
a(V:
V:
tp1025
a(V&quot;
VVB
tp1026
a(VWho
VWP
tp1027
a(Vare
VVBP
tp1028
a(Vthese
VDT
tp1029
a(VWestern
VJJ
tp1030
a(Vcrusaders
VNNS
tp1031
a(Vto
VTO
tp1032
a(Vbe
VVB
tp1033
a(Vlecturing
VVBG
tp1034
a(Vthe
VDT
tp1035
a(VAsians
VNNPS
tp1036
a(V?
V.
tp1037
a(V&quot;
VSYM
tp1038
a(V-
V:
tp1039
a(Va
VDT
tp1040
a(Vquestion
VNN
tp1041
a(Vthat
VWDT
tp1042
a(Vmay
VMD
tp1043
a(Vbe
VVB
tp1044
a(Va
VDT
tp1045
a(Vbitter
VJJ
tp1046
a(Vpill
VNN
tp1047
a(Vfor
VIN
tp1048
a(Vus
VPRP
tp1049
a(Vto
VTO
tp1050
a(Vswallow
VVB
tp1051
a(V.
V.
tp1052
aa(lp1053
(VDuring
VIN
tp1054
a(Vyour
VPRP$
tp1055
a(VPresidency
VNNP
tp1056
a(V,
V,
tp1057
a(Vyou
VPRP
tp1058
a(Vcould
VMD
tp1059
a(Vhave
VVB
tp1060
a(Vdone
VVBN
tp1061
a(Vmore
VRBR
tp1062
a(Vthan
VIN
tp1063
a(Vlook
VVB
tp1064
a(Vat
VIN
tp1065
a(Vrefugees
VNNS
tp1066
a(V.
V.
tp1067
aa(lp1068
(VThe
VDT
tp1069
a(VECB
VNN
tp1070
a(Vadopted
VVBD
tp1071
a(Va
VDT
tp1072
a(Vdifferent
VJJ
tp1073
a(Vstrategy
VNN
tp1074
a(Vfor
VIN
tp1075
a(Vthe
VDT
tp1076
a(Vcrisis
VNN
tp1077
a(Vthan
VIN
tp1078
a(Vother
VJJ
tp1079
a(Vleading
VVBG
tp1080
a(Vcentral
VJJ
tp1081
a(Vbanks
VNNS
tp1082
a(Varound
VIN
tp1083
a(Vthe
VDT
tp1084
a(Vworld
VNN
tp1085
a(V.
V.
tp1086
aa(lp1087
(VThere
VEX
tp1088
a(Vis
VVBZ
tp1089
a(Va
VDT
tp1090
a(Vsubstantial
VJJ
tp1091
a(Vnumber
VNN
tp1092
a(Vof
VIN
tp1093
a(Vother
VJJ
tp1094
a(Vissues
VNNS
tp1095
a(Vthat
VIN
tp1096
a(VI
VPRP
tp1097
a(Vdo
VVBP
tp1098
a(Vnot
VRB
tp1099
a(Vhave
VVB
tp1100
a(Vtime
VNN
tp1101
a(Vto
VTO
tp1102
a(Vdiscuss
VVB
tp1103
a(Vin
VIN
tp1104
a(Vdepth
VNN
tp1105
a(V,
V,
tp1106
a(Vbut
VCC
tp1107
a(Vimmigration
VNN
tp1108
a(Vand
VCC
tp1109
a(Vwater
VNN
tp1110
a(Vresources
VNNS
tp1111
a(Vin
VIN
tp1112
a(Vthe
VDT
tp1113
a(Vregion
VNN
tp1114
a(Vare
VVBP
tp1115
a(Vtwo
VCD
tp1116
a(Vof
VIN
tp1117
a(Vthese
VDT
tp1118
a(V.
V.
tp1119
aa(lp1120
(VThe
VDT
tp1121
a(VStuttgart-Ulm
VNNP
tp1122
a(Vsection
VNN
tp1123
a(V,
V,
tp1124
a(Vwhich
VWDT
tp1125
a(Vrepresents
VVBZ
tp1126
a(Vthe
VDT
tp1127
a(Vmost
VRBS
tp1128
a(Vsignificant
VJJ
tp1129
a(Vbottleneck
VNN
tp1130
a(V,
V,
tp1131
a(Vwill
VMD
tp1132
a(Vbe
VVB
tp1133
a(Vcomplete
VJJ
tp1134
a(Vby
VIN
tp1135
a(V2020
VCD
tp1136
a(V.
V.
tp1137
aa(lp1138
(VThe
VDT
tp1139
a(VCommission
VNNP
tp1140
a(Vis
VVBZ
tp1141
a(Valso
VRB
tp1142
a(Vorganising
VVBG
tp1143
a(Vthe
VDT
tp1144
a(Vexchange
VNN
tp1145
a(Vof
VIN
tp1146
a(Vbest
VJJS
tp1147
a(Vpractices
VNNS
tp1148
a(Vamong
VIN
tp1149
a(Vnational
VJJ
tp1150
a(Vcivil
VJJ
tp1151
a(Vservants
VNNS
tp1152
a(Von
VIN
tp1153
a(Vspecific
VJJ
tp1154
a(Vtopics
VNNS
tp1155
a(V.
V.
tp1156
aa(lp1157
(VRecently
VRB
tp1158
a(V,
V,
tp1159
a(Vcarcasses
VNNS
tp1160
a(Vof
VIN
tp1161
a(Vdolphins
VNNS
tp1162
a(Vwere
VVBD
tp1163
a(Vfound
VVBN
tp1164
a(Vin
VIN
tp1165
a(Vthe
VDT
tp1166
a(VGulf
VNNP
tp1167
a(Vof
VIN
tp1168
a(VMarseille
VNNP
tp1169
a(V.
V.
tp1170
a(VThese
VDT
tp1171
a(Vcreatures
VNNS
tp1172
a(Vhad
VVBD
tp1173
a(Vbeen
VVBN
tp1174
a(Vused
VVBN
tp1175
a(Vfor
VIN
tp1176
a(Vsuch
VJJ
tp1177
a(Vpurpose
VNN
tp1178
a(Vand
VCC
tp1179
a(Vtheir
VPRP$
tp1180
a(Vthroats
VNNS
tp1181
a(Vhad
VVBD
tp1182
a(Vbeen
VVBN
tp1183
a(Vripped
VVBN
tp1184
a(Vopen
VJJ
tp1185
a(Vby
VIN
tp1186
a(Vthe
VDT
tp1187
a(Vexplosion
VNN
tp1188
a(Vof
VIN
tp1189
a(Vsmall
VJJ
tp1190
a(Vbombs
VNNS
tp1191
a(V.
V.
tp1192
aa(lp1193
(VThe
VDT
tp1194
a(Vmodel
VNN
tp1195
a(Vfor
VIN
tp1196
a(Vthis
VDT
tp1197
a(Vfortification
VNN
tp1198
a(Vof
VIN
tp1199
a(Vthe
VDT
tp1200
a(VEU
VNNP
tp1201
a(V&apos;s
VNNS
tp1202
a(Vborders
VNNS
tp1203
a(Vis
VVBZ
tp1204
a(VGermany
VNNP
tp1205
a(V&apos;s
VNNS
tp1206
a(Vsystem
VNN
tp1207
a(Vof
VIN
tp1208
a(Vbulkheads
VNNS
tp1209
a(Von
VIN
tp1210
a(Vits
VPRP$
tp1211
a(Vborder
VNN
tp1212
a(Vwith
VIN
tp1213
a(VPoland
VNNP
tp1214
a(V.
V.
tp1215
aa(lp1216
(VThat
VDT
tp1217
a(Vdepends
VVBZ
tp1218
a(Von
VIN
tp1219
a(Vus
VPRP
tp1220
a(V.
V.
tp1221
aa(lp1222
(VFirstly
VRB
tp1223
a(V,
V,
tp1224
a(Va
VDT
tp1225
a(Vveritable
VJJ
tp1226
a(VMarshall
VNNP
tp1227
a(VPlan
VNNP
tp1228
a(Vfor
VIN
tp1229
a(VTunisia
VNNP
tp1230
a(Vand
VCC
tp1231
a(VEgypt
VNNP
tp1232
a(Vwhich
VWDT
tp1233
a(Vwould
VMD
tp1234
a(Vprovide
VVB
tp1235
a(Vtangible
VJJ
tp1236
a(Vhelp
VNN
tp1237
a(Vacross
VIN
tp1238
a(Vthe
VDT
tp1239
a(Vboard
VNN
tp1240
a(Vbut
VCC
tp1241
a(V,
V,
tp1242
a(Vat
VIN
tp1243
a(Vthe
VDT
tp1244
a(Vsame
VJJ
tp1245
a(Vtime
VNN
tp1246
a(V,
V,
tp1247
a(Vexpect
VVBP
tp1248
a(Vin
VIN
tp1249
a(Vreturn
VNN
tp1250
a(Vthe
VDT
tp1251
a(Vfull
VJJ
tp1252
a(Vcooperation
VNN
tp1253
a(Vof
VIN
tp1254
a(Vthe
VDT
tp1255
a(VTunisian
VJJ
tp1256
a(Vauthorities
VNNS
tp1257
a(Vin
VIN
tp1258
a(Vblocking
VVBG
tp1259
a(Vtheir
VPRP$
tp1260
a(Vcoasts
VNNS
tp1261
a(Vso
VRB
tp1262
a(Vas
VIN
tp1263
a(Vnot
VRB
tp1264
a(Vto
VTO
tp1265
a(Vallow
VVB
tp1266
a(Vfurther
VJJ
tp1267
a(Villegal
VJJ
tp1268
a(Vemigration
VNN
tp1269
a(Vby
VIN
tp1270
a(Vsea
VNN
tp1271
a(V.
V.
tp1272
aa(lp1273
(VLet
VVB
tp1274
a(Vus
VPRP
tp1275
a(Vnot
VRB
tp1276
a(Vforget
VVB
tp1277
a(Vthat
VIN
tp1278
a(VHungary
VNNP
tp1279
a(Vwill
VMD
tp1280
a(Vthus
VRB
tp1281
a(Vbecome
VVB
tp1282
a(Vthe
VDT
tp1283
a(Vfirst
VJJ
tp1284
a(Vcountry
VNN
tp1285
a(Vto
VTO
tp1286
a(Vjoin
VVB
tp1287
a(Vthe
VDT
tp1288
a(VMEDIA
VNNP
tp1289
a(Vprogramme
VNN
tp1290
a(V.
V.
tp1291
aa(lp1292
(V(
VIN
tp1293
a(Vthe
VDT
tp1294
a(Vrapporteur
VNN
tp1295
a(Vcontinued
VVBN
tp1296
a(Vin
VIN
tp1297
a(VEnglish
VJJ
tp1298
a(V)
VNN
tp1299
aa(lp1300
(VYou
VPRP
tp1301
a(Vdo
VVBP
tp1302
a(Vnot
VRB
tp1303
a(Vhave
VVB
tp1304
a(Vto
VTO
tp1305
a(Vbe
VVB
tp1306
a(Vgood
VJJ
tp1307
a(Vat
VIN
tp1308
a(Vmathematics
VNNS
tp1309
a(Vto
VTO
tp1310
a(Vwork
VVB
tp1311
a(Vout
VRP
tp1312
a(Vthat
VIN
tp1313
a(V,
V,
tp1314
a(Vunless
VIN
tp1315
a(Vwe
VPRP
tp1316
a(Vhave
VVBP
tp1317
a(Va
VDT
tp1318
a(Vglobal
VJJ
tp1319
a(Vban
VNN
tp1320
a(V,
V,
tp1321
a(Vthe
VDT
tp1322
a(Vproblem
VNN
tp1323
a(Vwill
VMD
tp1324
a(Vnever
VRB
tp1325
a(Vbe
VVB
tp1326
a(Vsolved
VVBN
tp1327
a(V.
V.
tp1328
aa(lp1329
(VIt
VPRP
tp1330
a(Vwill
VMD
tp1331
a(Vnot
VRB
tp1332
a(Vbe
VVB
tp1333
a(Veasy
VJJ
tp1334
a(V.
V.
tp1335
aa(lp1336
(VIt
VPRP
tp1337
a(Vis
VVBZ
tp1338
a(Vtime
VNN
tp1339
a(Vfor
VIN
tp1340
a(Vthe
VDT
tp1341
a(Vkilling
VVBG
tp1342
a(Vto
VTO
tp1343
a(Vstop
VVB
tp1344
a(V.
V.
tp1345
aa(lp1346
(VI
VPRP
tp1347
a(Vbelieve
VVBP
tp1348
a(Vthat
VIN
tp1349
a(Vthere
VEX
tp1350
a(Vis
VVBZ
tp1351
a(Vstill
VRB
tp1352
a(Va
VDT
tp1353
a(Vchance
VNN
tp1354
a(Vof
VIN
tp1355
a(Vsaving
VVBG
tp1356
a(Vthe
VDT
tp1357
a(Vbreeding
VNN
tp1358
a(Vof
VIN
tp1359
a(Vthese
VDT
tp1360
a(Vanimals
VNNS
tp1361
a(V,
V,
tp1362
a(Vat
VIN
tp1363
a(Vleast
VJJS
tp1364
a(Vin
VIN
tp1365
a(Vcertain
VJJ
tp1366
a(Vareas
VNNS
tp1367
a(V.
V.
tp1368
aa(lp1369
(VThey
VPRP
tp1370
a(Vhave
VVBP
tp1371
a(Valways
VRB
tp1372
a(Vassumed
VVBN
tp1373
a(Vthat
VIN
tp1374
a(Va
VDT
tp1375
a(Vperson
VNN
tp1376
a(Vis
VVBZ
tp1377
a(Vinnocent
VJJ
tp1378
a(Vuntil
VIN
tp1379
a(Vproven
VJJ
tp1380
a(Vguilty
VJJ
tp1381
a(V.
V.
tp1382
aa(lp1383
(VSri
VNNP
tp1384
a(VLanka
VNNP
tp1385
a(Vhas
VVBZ
tp1386
a(Vstill
VRB
tp1387
a(Vnot
VRB
tp1388
a(Vjoined
VVBD
tp1389
a(Vthe
VDT
tp1390
a(VOttawa
VNNP
tp1391
a(VConvention
VNNP
tp1392
a(Vbanning
VVBG
tp1393
a(Vanti-personnel
VJJ
tp1394
a(Vmines
VNNS
tp1395
a(V.
V.
tp1396
aa(lp1397
(VBut
VCC
tp1398
a(V,
V,
tp1399
a(VMr
VNNP
tp1400
a(VPresident
VNNP
tp1401
a(V,
V,
tp1402
a(Vthe
VDT
tp1403
a(Vbest
VJJS
tp1404
a(Vresults
VNNS
tp1405
a(Vtake
VVBP
tp1406
a(Vtime
VNN
tp1407
a(Vto
VTO
tp1408
a(Vachieve
VVB
tp1409
a(V:
V:
tp1410
a(Vthey
VPRP
tp1411
a(Vare
VVBP
tp1412
a(Vlike
VIN
tp1413
a(Vmosaics
VNNS
tp1414
a(V,
V,
tp1415
a(Vbuilt
VVBD
tp1416
a(Vone
VCD
tp1417
a(Vpiece
VNN
tp1418
a(Vat
VIN
tp1419
a(Va
VDT
tp1420
a(Vtime
VNN
tp1421
a(V.
V.
tp1422
aa(lp1423
(VAfter
VIN
tp1424
a(Vall
VDT
tp1425
a(V,
V,
tp1426
a(Vthe
VDT
tp1427
a(Vministers
VNNS
tp1428
a(Vagree
VVBP
tp1429
a(Von
VIN
tp1430
a(Va
VDT
tp1431
a(V48-hour
VJJ
tp1432
a(Vmaximum
VNN
tp1433
a(Vworking
VVBG
tp1434
a(Vweek
VNN
tp1435
a(Vin
VIN
tp1436
a(Vthe
VDT
tp1437
a(VEU
VNNP
tp1438
a(V.
V.
tp1439
aa(lp1440
(VI
VPRP
tp1441
a(Vhave
VVBP
tp1442
a(Va
VDT
tp1443
a(Vnumber
VNN
tp1444
a(Vof
VIN
tp1445
a(Vpoints
VNNS
tp1446
a(Vto
VTO
tp1447
a(Vmake
VVB
tp1448
a(V.
V.
tp1449
aa(lp1450
(VRecent
VJJ
tp1451
a(Vfigures
VNNS
tp1452
a(Vshow
VVBP
tp1453
a(Va
VDT
tp1454
a(Vwidening
VVBG
tp1455
a(Vgap
VNN
tp1456
a(Vbetween
VIN
tp1457
a(Vthe
VDT
tp1458
a(Vrichest
VJJS
tp1459
a(Vand
VCC
tp1460
a(Vpoorest
VJJS
tp1461
a(Vfamilies
VNNS
tp1462
a(Vin
VIN
tp1463
a(Vsome
VDT
tp1464
a(Vcountries
VNNS
tp1465
a(Vas
VIN
tp1466
a(Va
VDT
tp1467
a(Vresult
VNN
tp1468
a(Vof
VIN
tp1469
a(Vthe
VDT
tp1470
a(Vunequal
VJJ
tp1471
a(Vdistribution
VNN
tp1472
a(Vof
VIN
tp1473
a(VEuropean
VJJ
tp1474
a(Veconomic
VJJ
tp1475
a(Vprogress
VNN
tp1476
a(V.
V.
tp1477
aa(lp1478
(VIn
VIN
tp1479
a(Vthe
VDT
tp1480
a(Vyear
VNN
tp1481
a(V2000
VCD
tp1482
a(V,
V,
tp1483
a(V198
VCD
tp1484
a(VMembers
VNNS
tp1485
a(Vof
VIN
tp1486
a(Vthe
VDT
tp1487
a(VUnited
VNNP
tp1488
a(VNations
VNNPS
tp1489
a(Vadopted
VVBD
tp1490
a(Vspecific
VJJ
tp1491
a(VMillennium
VNNP
tp1492
a(VDevelopment
VNNP
tp1493
a(VGoals
VNNP
tp1494
a(V.
V.
tp1495
aa(lp1496
(VThere
VEX
tp1497
a(Vis
VVBZ
tp1498
a(Va
VDT
tp1499
a(Vdifference
VNN
tp1500
a(Vbetween
VIN
tp1501
a(Vterrorists
VNNS
tp1502
a(V,
V,
tp1503
a(Vfundamentalists
VNNS
tp1504
a(V,
V,
tp1505
a(Vand
VCC
tp1506
a(Vsome
VDT
tp1507
a(VMuslim
VJJ
tp1508
a(Vbrothers
VNNS
tp1509
a(V.
V.
tp1510
aa(lp1511
(VThe
VDT
tp1512
a(Vaction
VNN
tp1513
a(Vplan
VNN
tp1514
a(Vfor
VIN
tp1515
a(Vnew
VJJ
tp1516
a(Vlegislation
VNN
tp1517
a(Vmust
VMD
tp1518
a(Vbe
VVB
tp1519
a(Vless
VRBR
tp1520
a(Vdiffident
VJJ
tp1521
a(V.
V.
tp1522
aa(lp1523
(VIn
VIN
tp1524
a(Vthat
VDT
tp1525
a(Vrespect
VNN
tp1526
a(VI
VPRP
tp1527
a(Vcannot
VVBP
tp1528
a(Vsupport
VNN
tp1529
a(Vthis
VDT
tp1530
a(Voral
VJJ
tp1531
a(Vamendment
VNN
tp1532
a(Vhowever
VRB
tp1533
a(Vgood
VJJ
tp1534
a(Vit
VPRP
tp1535
a(Vmight
VMD
tp1536
a(Vbe
VVB
tp1537
a(V.
V.
tp1538
aa(lp1539
(VThe
VDT
tp1540
a(Vcases
VNNS
tp1541
a(Vof
VIN
tp1542
a(Vmassive
VJJ
tp1543
a(Vcorruption
VNN
tp1544
a(Vin
VIN
tp1545
a(Vconnection
VNN
tp1546
a(Vwith
VIN
tp1547
a(Vcigarette
VNN
tp1548
a(Vsmuggling
VNN
tp1549
a(Vand
VCC
tp1550
a(Vother
VJJ
tp1551
a(Vcases
VNNS
tp1552
a(Vwe
VPRP
tp1553
a(Vhave
VVBP
tp1554
a(Vbeen
VVBN
tp1555
a(Vreading
VVBG
tp1556
a(Vabout
VRB
tp1557
a(Vare
VVBP
tp1558
a(Vthings
VNNS
tp1559
a(Vwe
VPRP
tp1560
a(Vthought
VVBD
tp1561
a(Vhad
VVBD
tp1562
a(Vbeen
VVBN
tp1563
a(Vconsigned
VVBN
tp1564
a(Vto
VTO
tp1565
a(Vhistory
VNN
tp1566
a(V.
V.
tp1567
aa(lp1568
(VI
VPRP
tp1569
a(Vurge
VVBP
tp1570
a(Vit
VPRP
tp1571
a(Vnot
VRB
tp1572
a(Vto
VTO
tp1573
a(Vdo
VVB
tp1574
a(Vthis
VDT
tp1575
a(V.
V.
tp1576
aa(lp1577
(VThere
VEX
tp1578
a(Vis
VVBZ
tp1579
a(Valso
VRB
tp1580
a(Van
VDT
tp1581
a(Vintention
VNN
tp1582
a(Vto
VTO
tp1583
a(Vboycott
VNN
tp1584
a(Vthe
VDT
tp1585
a(VWorld
VNNP
tp1586
a(VIce
VNNP
tp1587
a(VHockey
VNN
tp1588
a(VChampionships
VNNS
tp1589
a(Vin
VIN
tp1590
a(V2014
VCD
tp1591
a(V.
V.
tp1592
aa(lp1593
(VThe
VDT
tp1594
a(Vtitle
VNN
tp1595
a(Vof
VIN
tp1596
a(Veach
VDT
tp1597
a(Vline
VNN
tp1598
a(Vis
VVBZ
tp1599
a(Vthe
VDT
tp1600
a(Vname
VNN
tp1601
a(Vof
VIN
tp1602
a(Van
VDT
tp1603
a(VInstitute
VNNP
tp1604
a(V.
V.
tp1605
aa(lp1606
(VUnder
VIN
tp1607
a(Vno
VDT
tp1608
a(Vcircumstances
VNNS
tp1609
a(Vcan
VMD
tp1610
a(Vthese
VDT
tp1611
a(Vinclude
VVBP
tp1612
a(Vchildren
VNNS
tp1613
a(Vover
VIN
tp1614
a(V21
VCD
tp1615
a(Vwho
VWP
tp1616
a(Vare
VVBP
tp1617
a(Vnot
VRB
tp1618
a(Ventitled
VVBN
tp1619
a(Vto
VTO
tp1620
a(Vmaintenance
VNN
tp1621
a(V,
V,
tp1622
a(Vor
VCC
tp1623
a(Vrelatives
VNNS
tp1624
a(Vin
VIN
tp1625
a(Van
VDT
tp1626
a(Vascending
VVBG
tp1627
a(Vline
VNN
tp1628
a(Vwho
VWP
tp1629
a(Vare
VVBP
tp1630
a(Vnot
VRB
tp1631
a(Ventitled
VVBN
tp1632
a(Vto
VTO
tp1633
a(Vmaintenance
VNN
tp1634
a(V.
V.
tp1635
aa(lp1636
(VThat
VDT
tp1637
a(Vis
VVBZ
tp1638
a(Valarmist
VJJ
tp1639
a(Vtalk
VNN
tp1640
a(Vto
VTO
tp1641
a(Vwhich
VWDT
tp1642
a(VI
VPRP
tp1643
a(Vdo
VVBP
tp1644
a(Vnot
VRB
tp1645
a(Vsubscribe
VVB
tp1646
a(V.
V.
tp1647
aa(lp1648
(VThe
VDT
tp1649
a(Vway
VNN
tp1650
a(Vis
VVBZ
tp1651
a(Vnow
VRB
tp1652
a(Vopen
VJJ
tp1653
a(Vfor
VIN
tp1654
a(VPresident
VNNP
tp1655
a(VLukashenko
VNNP
tp1656
a(Vto
VTO
tp1657
a(Vput
VVB
tp1658
a(Vup
VRP
tp1659
a(Vhis
VPRP$
tp1660
a(Vcandidature
VNN
tp1661
a(Vfor
VIN
tp1662
a(Vthe
VDT
tp1663
a(Vpresidential
VJJ
tp1664
a(Velections
VNNS
tp1665
a(Vin
VIN
tp1666
a(V2006
VCD
tp1667
a(Vand
VCC
tp1668
a(Vbe
VVB
tp1669
a(Velected
VVBN
tp1670
a(Vfor
VIN
tp1671
a(Va
VDT
tp1672
a(Vthird
VJJ
tp1673
a(Vtime
VNN
tp1674
a(V,
V,
tp1675
a(Vif
VIN
tp1676
a(Vnot
VRB
tp1677
a(Vbecome
VVBN
tp1678
a(Vpresident
VNN
tp1679
a(Vfor
VIN
tp1680
a(Vlife
VNN
tp1681
a(V.
V.
tp1682
aa(lp1683
(VSetting
VVBG
tp1684
a(Vup
VRP
tp1685
a(Va
VDT
tp1686
a(Vpermanent
VJJ
tp1687
a(VEU
VNNP
tp1688
a(Voperational
VJJ
tp1689
a(Vheadquarters
VNN
tp1690
a(V,
V,
tp1691
a(Vplaced
VVBN
tp1692
a(Valongside
VIN
tp1693
a(Vthe
VDT
tp1694
a(VCivilian
VNNP
tp1695
a(VPlanning
VNNP
tp1696
a(Vand
VCC
tp1697
a(VConduct
VNNP
tp1698
a(VCapability
VNNP
tp1699
a(V,
V,
tp1700
a(Vwould
VMD
tp1701
a(Vmaximise
VVB
tp1702
a(Vthe
VDT
tp1703
a(Vbenefits
VNNS
tp1704
a(Vof
VIN
tp1705
a(Vcivil-military
VJJ
tp1706
a(Vcoordination
VNN
tp1707
a(V.
V.
tp1708
aa(lp1709
(VSLIM
VNNP
tp1710
a(Vis
VVBZ
tp1711
a(Va
VDT
tp1712
a(Vworthwhile
VJJ
tp1713
a(Vundertaking
VNN
tp1714
a(V.
V.
tp1715
aa(lp1716
(VOnce
VRB
tp1717
a(Vagain
VRB
tp1718
a(V,
V,
tp1719
a(Vone
VCD
tp1720
a(Vcould
VMD
tp1721
a(Vstate
VVB
tp1722
a(Vwith
VIN
tp1723
a(Va
VDT
tp1724
a(Vcertain
VJJ
tp1725
a(Vdegree
VNN
tp1726
a(Vof
VIN
tp1727
a(Vself-mockery
VNN
tp1728
a(Vthat
VIN
tp1729
a(Vit
VPRP
tp1730
a(Vhas
VVBZ
tp1731
a(Vdeveloped
VVBN
tp1732
a(Vfrom
VIN
tp1733
a(Va
VDT
tp1734
a(Vfun
VNN
tp1735
a(Vplaything
VNN
tp1736
a(Vof
VIN
tp1737
a(Vthe
VDT
tp1738
a(VGreens
VNNS
tp1739
a(Vto
VTO
tp1740
a(Va
VDT
tp1741
a(Vcrucial
VJJ
tp1742
a(Vinstrument
VNN
tp1743
a(Vin
VIN
tp1744
a(Vthe
VDT
tp1745
a(VEU
VNNP
tp1746
a(V&apos;
VNN
tp1747
a(Vs
VVBZ
tp1748
a(Vtoolbox
VNN
tp1749
a(V.
V.
tp1750
aa(lp1751
(VThe
VDT
tp1752
a(Vwork
VNN
tp1753
a(Vwe
VPRP
tp1754
a(Vare
VVBP
tp1755
a(Vasking
VVBG
tp1756
a(Vfor
VIN
tp1757
a(Vcosts
VNNS
tp1758
a(Vmoney
VNN
tp1759
a(V,
V,
tp1760
a(Vwhether
VIN
tp1761
a(Vin
VIN
tp1762
a(Vterms
VNNS
tp1763
a(Vof
VIN
tp1764
a(Vpersonnel
VNNS
tp1765
a(Vor
VCC
tp1766
a(Vresources
VNNS
tp1767
a(V,
V,
tp1768
a(Vand
VCC
tp1769
a(Vwe
VPRP
tp1770
a(Vshould
VMD
tp1771
a(Vbe
VVB
tp1772
a(Vfully
VRB
tp1773
a(Vsupportive
VJJ
tp1774
a(Vof
VIN
tp1775
a(Vthat
VDT
tp1776
a(V.
V.
tp1777
aa(lp1778
(VNevertheless
VRB
tp1779
a(V,
V,
tp1780
a(VI
VPRP
tp1781
a(Vhope
VVBP
tp1782
a(VI
VPRP
tp1783
a(Vcan
VMD
tp1784
a(Vgive
VVB
tp1785
a(Vyou
VPRP
tp1786
a(Vsome
VDT
tp1787
a(Vclarification
VNN
tp1788
a(V.
V.
tp1789
aa(lp1790
(VThe
VDT
tp1791
a(Vlabelling
VNN
tp1792
a(Vscheme
VNN
tp1793
a(Vproposed
VVBN
tp1794
a(Vby
VIN
tp1795
a(Vthe
VDT
tp1796
a(Vrapporteur
VNN
tp1797
a(Vgives
VVBZ
tp1798
a(Vconsumers
VNNS
tp1799
a(Vreal
VJJ
tp1800
a(Vinformation
VNN
tp1801
a(Vand
VCC
tp1802
a(Vinvolves
VVBZ
tp1803
a(Vthem
VPRP
tp1804
a(Vin
VIN
tp1805
a(Va
VDT
tp1806
a(Vpositive
VJJ
tp1807
a(Vway
VNN
tp1808
a(Vin
VIN
tp1809
a(Vrelation
VNN
tp1810
a(Vto
VTO
tp1811
a(Vthe
VDT
tp1812
a(Venvironment
VNN
tp1813
a(V.
V.
tp1814
aa(lp1815
(VMadam
VNNP
tp1816
a(VPresident
VNNP
tp1817
a(V,
V,
tp1818
a(Vthe
VDT
tp1819
a(Vpersecution
VNN
tp1820
a(Von
VIN
tp1821
a(Vracist
VJJ
tp1822
a(Vgrounds
VNNS
tp1823
a(Vof
VIN
tp1824
a(Vpeople
VNNS
tp1825
a(Vin
VIN
tp1826
a(Veastern
VJJ
tp1827
a(VGermany
VNNP
tp1828
a(Vby
VIN
tp1829
a(Vtheir
VPRP$
tp1830
a(Vfellow
VJJ
tp1831
a(Vhuman
VJJ
tp1832
a(Vbeings
VNNS
tp1833
a(Vis
VVBZ
tp1834
a(Vbecoming
VVBG
tp1835
a(Van
VDT
tp1836
a(Vincreasingly
VRB
tp1837
a(Vserious
VJJ
tp1838
a(Vissue
VNN
tp1839
a(V.
V.
tp1840
aa(lp1841
(VThe
VDT
tp1842
a(Vaim
VNN
tp1843
a(Vof
VIN
tp1844
a(Vthis
VDT
tp1845
a(Vregulation
VNN
tp1846
a(Vis
VVBZ
tp1847
a(V,
V,
tp1848
a(Vinter
VNN
tp1849
a(Valia
VNN
tp1850
a(V,
V,
tp1851
a(Vto
VTO
tp1852
a(Vimpose
VVB
tp1853
a(Vcontrols
VNNS
tp1854
a(Von
VIN
tp1855
a(Vexports
VNNS
tp1856
a(Vof
VIN
tp1857
a(Vequipment
VNN
tp1858
a(Vwhich
VWDT
tp1859
a(Vmay
VMD
tp1860
a(Vbe
VVB
tp1861
a(Vused
VVBN
tp1862
a(Vfor
VIN
tp1863
a(Vsuch
VJJ
tp1864
a(Vpurposes
VNNS
tp1865
a(Vin
VIN
tp1866
a(Va
VDT
tp1867
a(Vthird
VJJ
tp1868
a(Vcountry
VNN
tp1869
a(V,
V,
tp1870
a(Vwhich
VWDT
tp1871
a(Vwill
VMD
tp1872
a(Vin
VIN
tp1873
a(Vprinciple
VNN
tp1874
a(Vinclude
VVBP
tp1875
a(Velectric
VJJ
tp1876
a(Vshock
VNN
tp1877
a(Vequipment
VNN
tp1878
a(V.
V.
tp1879
aa(lp1880
(VHe
VPRP
tp1881
a(Vtherefore
VRB
tp1882
a(Vdeserves
VVBZ
tp1883
a(V,
V,
tp1884
a(Vand
VCC
tp1885
a(Vwill
VMD
tp1886
a(Vhave
VVB
tp1887
a(V,
V,
tp1888
a(Vour
VPRP$
tp1889
a(Vfull
VJJ
tp1890
a(Vsupport
VNN
tp1891
a(Vin
VIN
tp1892
a(Vthe
VDT
tp1893
a(Vpresent
VJJ
tp1894
a(Vdraft
VNN
tp1895
a(VREACH
VNN
tp1896
a(Vtest
VNN
tp1897
a(Vmethod
VNN
tp1898
a(Vregulation
VNN
tp1899
a(Vas
VRB
tp1900
a(Vwell
VRB
tp1901
a(V.
V.
tp1902
aa(lp1903
(VThe
VDT
tp1904
a(Velectorate
VNN
tp1905
a(V,
V,
tp1906
a(VI
VPRP
tp1907
a(Vam
VVBP
tp1908
a(Vconvinced
VJJ
tp1909
a(V,
V,
tp1910
a(Vwill
VMD
tp1911
a(Vnot
VRB
tp1912
a(Vbe
VVB
tp1913
a(Vforced
VVBN
tp1914
a(Vto
VTO
tp1915
a(Vbuy
VVB
tp1916
a(Va
VDT
tp1917
a(Vpig
VNN
tp1918
a(Vin
VIN
tp1919
a(Va
VDT
tp1920
a(Vpoke
VNN
tp1921
a(V.
V.
tp1922
aa(lp1923
(VHe
VPRP
tp1924
a(Vat
VIN
tp1925
a(Vleast
VJJS
tp1926
a(Vsent
VVBN
tp1927
a(Vme
VPRP
tp1928
a(Van
VDT
tp1929
a(Vemail
VNN
tp1930
a(Vin
VIN
tp1931
a(Vthe
VDT
tp1932
a(Vlast
VJJ
tp1933
a(V20
VCD
tp1934
a(Vminutes
VNNS
tp1935
a(Vsaying
VVBG
tp1936
a(Vthat
VIN
tp1937
a(Vhe
VPRP
tp1938
a(Vintended
VVBD
tp1939
a(Vto
VTO
tp1940
a(Vspeak
VVB
tp1941
a(Von
VIN
tp1942
a(Vit
VPRP
tp1943
a(V.
V.
tp1944
aa(lp1945
(VWe
VPRP
tp1946
a(Vare
VVBP
tp1947
a(V,
V,
tp1948
a(Vof
VIN
tp1949
a(Vcourse
VNN
tp1950
a(V,
V,
tp1951
a(Vloyal
VJJ
tp1952
a(Vto
VTO
tp1953
a(Vthe
VDT
tp1954
a(Vdecisions
VNNS
tp1955
a(Vtaken
VVBN
tp1956
a(Vin
VIN
tp1957
a(VHelsinki
VNNP
tp1958
a(V.
V.
tp1959
aa(lp1960
(VIn
VIN
tp1961
a(Vthe
VDT
tp1962
a(Vnineteenth
VJJ
tp1963
a(Vcentury
VNN
tp1964
a(VEurope
VNNP
tp1965
a(Voften
VRB
tp1966
a(Vtried
VVBD
tp1967
a(Vto
VTO
tp1968
a(Vforget
VVB
tp1969
a(Vthat
VIN
tp1970
a(Vthe
VDT
tp1971
a(VPolish
VJJ
tp1972
a(Vpeople
VNNS
tp1973
a(Vexisted
VVBD
tp1974
a(Vand
VCC
tp1975
a(Vhad
VVBD
tp1976
a(Va
VDT
tp1977
a(Vright
VNN
tp1978
a(Vto
VTO
tp1979
a(Vindependence
VNN
tp1980
a(V.
V.
tp1981
aa(lp1982
(VSince
VIN
tp1983
a(Vthen
VRB
tp1984
a(V,
V,
tp1985
a(Vthe
VDT
tp1986
a(Vtotal
VJJ
tp1987
a(Vnumber
VNN
tp1988
a(Vof
VIN
tp1989
a(Vasylum
VNN
tp1990
a(Vseekers
VNNS
tp1991
a(Vhas
VVBZ
tp1992
a(Vdropped
VVBN
tp1993
a(Vconsiderably
VRB
tp1994
a(V.
V.
tp1995
aa(lp1996
(VMore
VRBR
tp1997
a(Vbicycles
VNNS
tp1998
a(Vcould
VMD
tp1999
a(Vbe
VVB
tp2000
a(Vprovided
VVBN
tp2001
a(Vfor
VIN
tp2002
a(Vthe
VDT
tp2003
a(Vemployees
VNNS
tp2004
a(Vand
VCC
tp2005
a(VMembers
VNNS
tp2006
a(Vof
VIN
tp2007
a(VParliament
VNNP
tp2008
a(Vhere
VRB
tp2009
a(Vin
VIN
tp2010
a(VStrasbourg
VNNP
tp2011
a(Vinstead
VRB
tp2012
a(V.
V.
tp2013
aa(lp2014
(VShe
VPRP
tp2015
a(Vis
VVBZ
tp2016
a(Vstrip-searched
VVBN
tp2017
a(Von
VIN
tp2018
a(Vevery
VDT
tp2019
a(Vpossible
VJJ
tp2020
a(Voccasion
VNN
tp2021
a(V.
V.
tp2022
aa(lp2023
(VMadam
VNNP
tp2024
a(VPresident
VNNP
tp2025
a(V,
V,
tp2026
a(VI
VPRP
tp2027
a(Vcould
VMD
tp2028
a(Vnot
VRB
tp2029
a(Vvote
VVB
tp2030
a(Vin
VIN
tp2031
a(Vtime
VNN
tp2032
a(V.
V.
tp2033
aa(lp2034
(VAlmost
VRB
tp2035
a(Vall
VDT
tp2036
a(Vcases
VNNS
tp2037
a(Vin
VIN
tp2038
a(Vcountries
VNNS
tp2039
a(Vother
VJJ
tp2040
a(Vthan
VIN
tp2041
a(Vthe
VDT
tp2042
a(Vbasic
VJJ
tp2043
a(Vcountries
VNNS
tp2044
a(V,
V,
tp2045
a(Vby
VIN
tp2046
a(Vwhich
VWDT
tp2047
a(VI
VPRP
tp2048
a(Vmean
VVBP
tp2049
a(VChina
VNNP
tp2050
a(V,
V,
tp2051
a(VHong
VNNP
tp2052
a(VKong
VNNP
tp2053
a(Vand
VCC
tp2054
a(VSingapore
VNNP
tp2055
a(V,
V,
tp2056
a(Vare
VVBP
tp2057
a(Vpeople
VNNS
tp2058
a(Vwho
VWP
tp2059
a(Ventered
VVBD
tp2060
a(Vother
VJJ
tp2061
a(Vcountries
VNNS
tp2062
a(Vas
VIN
tp2063
a(Vhealthy
VJJ
tp2064
a(Vpeople
VNNS
tp2065
a(Vand
VCC
tp2066
a(Vlater
VRB
tp2067
a(Vmanifested
VVBD
tp2068
a(Vthe
VDT
tp2069
a(Vdisease
VNN
tp2070
a(V.
V.
tp2071
aa(lp2072
(VThe
VDT
tp2073
a(VCommission
VNNP
tp2074
a(Vaccepts
VVBZ
tp2075
a(Vthat
VIN
tp2076
a(Vthese
VDT
tp2077
a(Vderogations
VNNS
tp2078
a(Vare
VVBP
tp2079
a(Vnecessary
VJJ
tp2080
a(V.
V.
tp2081
aa(lp2082
(VHIV
VNN
tp2083
a(V,
V,
tp2084
a(Vtuberculosis
VNN
tp2085
a(Vand
VCC
tp2086
a(Vmalaria
VNN
tp2087
a(Vare
VVBP
tp2088
a(Vthe
VDT
tp2089
a(Vworld
VNN
tp2090
a(V&apos;s
VNNS
tp2091
a(Vgreatest
VJJS
tp2092
a(Vkillers
VNNS
tp2093
a(Vand
VCC
tp2094
a(Vare
VVBP
tp2095
a(Vthe
VDT
tp2096
a(Vmost
VRBS
tp2097
a(Vserious
VJJ
tp2098
a(Vdiseases
VNNS
tp2099
a(Vaffecting
VVBG
tp2100
a(Vthe
VDT
tp2101
a(Vworld
VNN
tp2102
a(Vtoday
VNN
tp2103
a(V.
V.
tp2104
aa(lp2105
(VThat
VDT
tp2106
a(Vis
VVBZ
tp2107
a(Vwhat
VWP
tp2108
a(Vhappens
VVBZ
tp2109
a(Vin
VIN
tp2110
a(Vsuch
VJJ
tp2111
a(Vcases
VNNS
tp2112
a(V.
V.
tp2113
aa(lp2114
(VThe
VDT
tp2115
a(Vsmoker
VNN
tp2116
a(Vof
VIN
tp2117
a(Vrolling
VVBG
tp2118
a(Vtobacco
VNN
tp2119
a(Vis
VVBZ
tp2120
a(Vin
VIN
tp2121
a(Vno
VDT
tp2122
a(Vway
VNN
tp2123
a(Vwarned
VVBD
tp2124
a(Vof
VIN
tp2125
a(Vthe
VDT
tp2126
a(Vhealth
VNN
tp2127
a(Vrisks
VNNS
tp2128
a(Vto
VTO
tp2129
a(Vwhich
VWDT
tp2130
a(Vhe
VPRP
tp2131
a(Vis
VVBZ
tp2132
a(Vbeing
VVBG
tp2133
a(Vexposed
VVBN
tp2134
a(V,
V,
tp2135
a(Vnot
VRB
tp2136
a(Vby
VIN
tp2137
a(Vthe
VDT
tp2138
a(Vprice
VNN
tp2139
a(V,
V,
tp2140
a(Vnor
VCC
tp2141
a(Vby
VIN
tp2142
a(Vany
VDT
tp2143
a(Vindication
VNN
tp2144
a(Vof
VIN
tp2145
a(Vthe
VDT
tp2146
a(Vtar
VNN
tp2147
a(Vcontent
VNN
tp2148
a(V.
V.
tp2149
aa(lp2150
(VThis
VDT
tp2151
a(Vcase
VNN
tp2152
a(Vhas
VVBZ
tp2153
a(Vbeen
VVBN
tp2154
a(Vpublicised
VVBN
tp2155
a(Vin
VIN
tp2156
a(Vthe
VDT
tp2157
a(Vmedia
VNNS
tp2158
a(V,
V,
tp2159
a(Vand
VCC
tp2160
a(Vwe
VPRP
tp2161
a(Vare
VVBP
tp2162
a(Vtalking
VVBG
tp2163
a(Vabout
VIN
tp2164
a(Va
VDT
tp2165
a(Vpunishment
VNN
tp2166
a(Vof
VIN
tp2167
a(Vup
VRB
tp2168
a(Vto
VTO
tp2169
a(Vone
VCD
tp2170
a(Vyear
VNN
tp2171
a(V.
V.
tp2172
aa(lp2173
(VI
VPRP
tp2174
a(Vthink
VVBP
tp2175
a(Vit
VPRP
tp2176
a(Vwould
VMD
tp2177
a(Vbe
VVB
tp2178
a(Vslightly
VRB
tp2179
a(Voverstating
VVBG
tp2180
a(Vthe
VDT
tp2181
a(Vcase
VNN
tp2182
a(Vto
VTO
tp2183
a(Vview
VVB
tp2184
a(Vthe
VDT
tp2185
a(VInternet
VNN
tp2186
a(Vas
VIN
tp2187
a(Vthe
VDT
tp2188
a(Vroot
VNN
tp2189
a(Vof
VIN
tp2190
a(Vall
VDT
tp2191
a(Vevil
VJJ
tp2192
a(Vor
VCC
tp2193
a(Vas
VIN
tp2194
a(Va
VDT
tp2195
a(Vsafe
VJJ
tp2196
a(Vhaven
VNN
tp2197
a(V.
V.
tp2198
aa.