(lp1
(lp2
(VOn
VIN
tp3
a(V31
VCD
tp4
a(VMay
VNNP
tp5
a(V1998
VCD
tp6
a(Vthe
VDT
tp7
a(VEuropean
VNNP
tp8
a(VMonetary
VNNP
tp9
a(VInstitute
VNNP
tp10
a(Vchanged
VVBD
tp11
a(Vto
VTO
tp12
a(Vthe
VDT
tp13
a(VEuropean
VJJ
tp14
a(VCentral
VNNP
tp15
a(VBank
VNNP
tp16
a(V.
V.
tp17
aa(lp18
(VIf
VIN
tp19
a(Vwe
VPRP
tp20
a(Vreally
VRB
tp21
a(Vwanted
VVBD
tp22
a(Vaction
VNN
tp23
a(Von
VIN
tp24
a(VGaza
VNNP
tp25
a(V,
V,
tp26
a(Vwe
VPRP
tp27
a(Vwould
VMD
tp28
a(Vuse
VVB
tp29
a(Vthe
VDT
tp30
a(Vpower
VNN
tp31
a(Vthat
VIN
tp32
a(Vthis
VDT
tp33
a(Vtrade
VNN
tp34
a(Vgives
VVBZ
tp35
a(Vus
VPRP
tp36
a(Vby
VIN
tp37
a(Vimposing
VVBG
tp38
a(Veconomic
VJJ
tp39
a(Vsanctions
VNNS
tp40
a(V.
V.
tp41
aa(lp42
(VWhat
VWP
tp43
a(Velse
VRB
tp44
a(Vdoes
VVBZ
tp45
a(Vthe
VDT
tp46
a(VCommission
VNNP
tp47
a(Vhave
VVBP
tp48
a(Vup
VRP
tp49
a(Vits
VPRP$
tp50
a(Vsleeve
VNN
tp51
a(V?
V.
tp52
aa(lp53
(VIn
VIN
tp54
a(Vaddition
VNN
tp55
a(V,
V,
tp56
a(Vthe
VDT
tp57
a(Vregions
VNNS
tp58
a(V&apos;
VVBP
tp59
a(Vposition
VNN
tp60
a(Vwithin
VIN
tp61
a(Vthe
VDT
tp62
a(VUnion
VNNP
tp63
a(Vis
VVBZ
tp64
a(Valtered
VVBN
tp65
a(Vby
VIN
tp66
a(Vclimate
VNN
tp67
a(Vchange
VNN
tp68
a(V.
V.
tp69
aa(lp70
(VWe
VPRP
tp71
a(Vhave
VVBP
tp72
a(Vno
VDT
tp73
a(Vtime
VNN
tp74
a(Vfor
VIN
tp75
a(Vthat
VDT
tp76
a(V.
V.
tp77
aa(lp78
(VOverall
VRB
tp79
a(Vthe
VDT
tp80
a(Vreport
VNN
tp81
a(Vcontains
VVBZ
tp82
a(Vsensible
VJJ
tp83
a(Vconsiderations
VNNS
tp84
a(Vand
VCC
tp85
a(Vprovides
VVBZ
tp86
a(Vscope
VNN
tp87
a(Vfor
VIN
tp88
a(Van
VDT
tp89
a(Vinteresting
VJJ
tp90
a(Vdebate
VNN
tp91
a(Vin
VIN
tp92
a(Vthe
VDT
tp93
a(Vfuture
VNN
tp94
a(V.
V.
tp95
aa(lp96
(VIt
VPRP
tp97
a(Valso
VRB
tp98
a(Vundertook
VVBD
tp99
a(Vto
VTO
tp100
a(Vlimit
VVB
tp101
a(Vthe
VDT
tp102
a(Vuse
VNN
tp103
a(Vof
VIN
tp104
a(Vemergency
VNN
tp105
a(Vlaws
VNNS
tp106
a(Vby
VIN
tp107
a(Vrestricting
VVBG
tp108
a(Vthem
VPRP
tp109
a(Vto
VTO
tp110
a(Vactivities
VNNS
tp111
a(Vthat
VWDT
tp112
a(Vthreatened
VVBD
tp113
a(Vstate
VNN
tp114
a(Vsecurity
VNN
tp115
a(V,
V,
tp116
a(Vand
VCC
tp117
a(Vit
VPRP
tp118
a(Vwas
VVBD
tp119
a(Vpreparing
VVBG
tp120
a(Vto
VTO
tp121
a(Vset
VVB
tp122
a(Vup
VRP
tp123
a(Va
VDT
tp124
a(Vnational
VJJ
tp125
a(Vcouncil
VNN
tp126
a(Von
VIN
tp127
a(Vhuman
VJJ
tp128
a(Vrights
VNNS
tp129
a(V.
V.
tp130
aa(lp131
(VWhoever
VWP
tp132
a(Vhas
VVBZ
tp133
a(Vconfidential
VJJ
tp134
a(Vinformation
VNN
tp135
a(Vat
VIN
tp136
a(Vtheir
VPRP$
tp137
a(Vdisposal
VNN
tp138
a(Vdoes
VVBZ
tp139
a(Vwell
VRB
tp140
a(Vto
VTO
tp141
a(Vprotect
VVB
tp142
a(Vthat
VIN
tp143
a(Vconfidential
VJJ
tp144
a(Vinformation
VNN
tp145
a(V.
V.
tp146
aa(lp147
(VIn
VIN
tp148
a(Vthe
VDT
tp149
a(VBelgian
VJJ
tp150
a(Vfederation
VNN
tp151
a(V,
V,
tp152
a(Vthe
VDT
tp153
a(Vfederal
VJJ
tp154
a(Vstates
VNNS
tp155
a(Vare
VVBP
tp156
a(Vequal
VJJ
tp157
a(Vpursuant
VJJ
tp158
a(Vto
VTO
tp159
a(Vthe
VDT
tp160
a(Vrules
VNNS
tp161
a(Vin
VIN
tp162
a(Vthe
VDT
tp163
a(Vconstitution
VNN
tp164
a(V.
V.
tp165
aa(lp166
(VAfter
VIN
tp167
a(V11
VCD
tp168
a(Vdays
VNNS
tp169
a(Vof
VIN
tp170
a(Vprotest
VNN
tp171
a(Vagainst
VIN
tp172
a(Vthe
VDT
tp173
a(Velection
VNN
tp174
a(Vresults
VVBZ
tp175
a(Vby
VIN
tp176
a(Vthe
VDT
tp177
a(Vopposition
VNN
tp178
a(Vmovement
VNN
tp179
a(Vunder
VIN
tp180
a(Vformer
VJJ
tp181
a(Vhead
VNN
tp182
a(Vof
VIN
tp183
a(Vstate
VNN
tp184
a(VLevon
VNNP
tp185
a(VTer-Petrosian
VNNP
tp186
a(V,
V,
tp187
a(Vpolice
VNN
tp188
a(Vtried
VVBD
tp189
a(Vto
VTO
tp190
a(Vdisperse
VVB
tp191
a(Vthe
VDT
tp192
a(Vdemonstrators
VNNS
tp193
a(V.
V.
tp194
aa(lp195
(VIndeed
VRB
tp196
a(V,
V,
tp197
a(Vever
VRB
tp198
a(Vsince
VIN
tp199
a(Vthe
VDT
tp200
a(Vstart
VNN
tp201
a(Vof
VIN
tp202
a(Vthe
VDT
tp203
a(VIsraeli-Palestinian
VJJ
tp204
a(Vconflict
VNN
tp205
a(V,
V,
tp206
a(Vthere
VEX
tp207
a(Vhas
VVBZ
tp208
a(Valways
VRB
tp209
a(Vbeen
VVBN
tp210
a(Va
VDT
tp211
a(Vgroundswell
VNN
tp212
a(Vof
VIN
tp213
a(VArab
VNNP
tp214
a(Vpublic
VJJ
tp215
a(Vopinion
VNN
tp216
a(V.
V.
tp217
aa(lp218
(VI
VPRP
tp219
a(Vunderstand
VVBP
tp220
a(Vthose
VDT
tp221
a(Vwho
VWP
tp222
a(Vare
VVBP
tp223
a(Vtoday
VNN
tp224
a(Vraising
VVBG
tp225
a(Vtheir
VPRP$
tp226
a(Vconcerns
VNNS
tp227
a(Vand
VCC
tp228
a(Vspeaking
VNN
tp229
a(Vof
VIN
tp230
a(Vthe
VDT
tp231
a(Vlack
VNN
tp232
a(Vof
VIN
tp233
a(Vrespect
VNN
tp234
a(Vfor
VIN
tp235
a(Vpeople
VNNS
tp236
a(V&apos;s
VNNS
tp237
a(Vrights
VNNS
tp238
a(Vand
VCC
tp239
a(Vthe
VDT
tp240
a(Vmultifaceted
VJJ
tp241
a(Vproblems
VNNS
tp242
a(Vthat
VWDT
tp243
a(VUkraine
VNNP
tp244
a(Vis
VVBZ
tp245
a(Vgrappling
VVBG
tp246
a(Vwith
VIN
tp247
a(Vtoday
VNN
tp248
a(V.
V.
tp249
aa(lp250
(VIt
VPRP
tp251
a(Vstates
VVBZ
tp252
a(V,
V,
tp253
a(Vfor
VIN
tp254
a(Vexample
VNN
tp255
a(V,
V,
tp256
a(Vthat
VIN
tp257
a(Va
VDT
tp258
a(Vcountry
VNN
tp259
a(Vhas
VVBZ
tp260
a(Va
VDT
tp261
a(Vminimum
VJJ
tp262
a(Vage
VNN
tp263
a(Vfor
VIN
tp264
a(Vmarriage
VNN
tp265
a(V,
V,
tp266
a(Vand
VCC
tp267
a(Vthat
VDT
tp268
a(Vis
VVBZ
tp269
a(Vincorrect
VJJ
tp270
a(V.
V.
tp271
aa(lp272
(VWill
VMD
tp273
a(Vthe
VDT
tp274
a(Vtaxpayer
VNN
tp275
a(Vagree
VVBP
tp276
a(Vto
VTO
tp277
a(Vaid
VVB
tp278
a(Vbeing
VVBG
tp279
a(Vpaid
VVBN
tp280
a(Veven
VRB
tp281
a(Vif
VIN
tp282
a(Vnothing
VNN
tp283
a(Vis
VVBZ
tp284
a(Vproduced
VVBN
tp285
a(V?
V.
tp286
aa(lp287
(VThere
VEX
tp288
a(Vis
VVBZ
tp289
a(Vone
VCD
tp290
a(Vcategory
VNN
tp291
a(Vin
VIN
tp292
a(Vwhich
VWDT
tp293
a(Vthis
VDT
tp294
a(Vit
VPRP
tp295
a(Vis
VVBZ
tp296
a(Vdifficult
VJJ
tp297
a(Vto
VTO
tp298
a(Vdo
VVB
tp299
a(Vso
VRB
tp300
a(Vand
VCC
tp301
a(VI
VPRP
tp302
a(Vintend
VVBP
tp303
a(Vto
VTO
tp304
a(Vtake
VVB
tp305
a(Vthis
VDT
tp306
a(Vup
VRP
tp307
a(Vagain
VRB
tp308
a(Vat
VIN
tp309
a(Va
VDT
tp310
a(Vlater
VJJ
tp311
a(Vstage
VNN
tp312
a(V.
V.
tp313
aa(lp314
(VHowever
VRB
tp315
a(V,
V,
tp316
a(Vthe
VDT
tp317
a(VCouncil
VNNP
tp318
a(Vlooks
VVBZ
tp319
a(Vfavourably
VRB
tp320
a(Vupon
VIN
tp321
a(Vthe
VDT
tp322
a(Vimportant
VJJ
tp323
a(Vdecision
VNN
tp324
a(Vtaken
VVBN
tp325
a(Vrecently
VRB
tp326
a(Vto
VTO
tp327
a(Vgive
VVB
tp328
a(Vthe
VDT
tp329
a(VTamazight
VNN
tp330
a(Vlanguage
VNN
tp331
a(Vthe
VDT
tp332
a(Vstatus
VNN
tp333
a(Vof
VIN
tp334
a(Va
VDT
tp335
a(Vnational
VJJ
tp336
a(Vlanguage
VNN
tp337
a(V.
V.
tp338
aa(lp339
(VWe
VPRP
tp340
a(Vknow
VVBP
tp341
a(Vthat
VIN
tp342
a(Vthere
VEX
tp343
a(Vare
VVBP
tp344
a(Vother
VJJ
tp345
a(Vpaths
VNNS
tp346
a(Vto
VTO
tp347
a(Vfollow
VVB
tp348
a(V,
V,
tp349
a(Vpaths
VNNS
tp350
a(Vthat
VWDT
tp351
a(Vlead
VVBP
tp352
a(Vto
VTO
tp353
a(Vsolidarity
VNN
tp354
a(Vand
VCC
tp355
a(Vjustice
VNN
tp356
a(Vand
VCC
tp357
a(Va
VDT
tp358
a(Vsociety
VNN
tp359
a(Vfor
VIN
tp360
a(Vall
VDT
tp361
a(Vour
VPRP$
tp362
a(Vcitizens
VNNS
tp363
a(V.
V.
tp364
aa(lp365
(VThat
VDT
tp366
a(Vis
VVBZ
tp367
a(Va
VDT
tp368
a(Vdifferent
VJJ
tp369
a(Vmatter
VNN
tp370
a(Vfrom
VIN
tp371
a(Vreconstruction
VNN
tp372
a(Vaid
VNN
tp373
a(Vproper
VJJ
tp374
a(V.
V.
tp375
aa(lp376
(VThe
VDT
tp377
a(Vconsequence
VNN
tp378
a(Vof
VIN
tp379
a(Vthis
VDT
tp380
a(Vis
VVBZ
tp381
a(Vthe
VDT
tp382
a(Vestablishment
VNN
tp383
a(Vof
VIN
tp384
a(Vso
VRB
tp385
a(Vmany
VJJ
tp386
a(Vdifferent
VJJ
tp387
a(Vsystems
VNNS
tp388
a(Vand
VCC
tp389
a(Vthe
VDT
tp390
a(Vemergence
VNN
tp391
a(Vof
VIN
tp392
a(Vsafety
VNN
tp393
a(Vproblems
VNNS
tp394
a(V.
V.
tp395
aa(lp396
(VI
VPRP
tp397
a(Vhave
VVBP
tp398
a(Vbeen
VVBN
tp399
a(Vhere
VRB
tp400
a(Vfor
VIN
tp401
a(V16
VCD
tp402
a(Vyears
VNNS
tp403
a(V.
V.
tp404
aa(lp405
(VI
VPRP
tp406
a(Vknow
VVBP
tp407
a(Vthat
VIN
tp408
a(Vwe
VPRP
tp409
a(Vrequire
VVBP
tp410
a(Vthe
VDT
tp411
a(Vcommitment
VNN
tp412
a(Vof
VIN
tp413
a(Vthe
VDT
tp414
a(VMember
VNNP
tp415
a(VStates
VNNPS
tp416
a(V,
V,
tp417
a(Vbut
VCC
tp418
a(Vdo
VVBP
tp419
a(Vyou
VPRP
tp420
a(Vnot
VRB
tp421
a(Vthink
VVB
tp422
a(Vthat
VIN
tp423
a(Vwhat
VWP
tp424
a(Vwe
VPRP
tp425
a(Vbasically
VRB
tp426
a(Vneed
VVBP
tp427
a(Vis
VVBZ
tp428
a(Va
VDT
tp429
a(Vpolitical
VJJ
tp430
a(Vwill
VNN
tp431
a(Vwhich
VWDT
tp432
a(V,
V,
tp433
a(Vuntil
VIN
tp434
a(Vnow
VRB
tp435
a(V,
V,
tp436
a(VI
VPRP
tp437
a(Vhave
VVBP
tp438
a(Vnot
VRB
tp439
a(Vseen
VVBN
tp440
a(Vfrom
VIN
tp441
a(Vany
VDT
tp442
a(Vquarter
VNN
tp443
a(V?
V.
tp444
aa(lp445
(VI
VPRP
tp446
a(Vwould
VMD
tp447
a(Vhope
VVB
tp448
a(Vthat
VIN
tp449
a(Vby
VIN
tp450
a(Vthe
VDT
tp451
a(Vtime
VNN
tp452
a(Vthis
VDT
tp453
a(Vprogramme
VNN
tp454
a(Vis
VVBZ
tp455
a(Vin
VIN
tp456
a(Vits
VPRP$
tp457
a(Vfinal
VJJ
tp458
a(Vstages
VNNS
tp459
a(Vthe
VDT
tp460
a(VCommission
VNNP
tp461
a(Vwill
VMD
tp462
a(Vventure
VVB
tp463
a(Vto
VTO
tp464
a(Vadopt
VVB
tp465
a(Va
VDT
tp466
a(Vstrict
VJJ
tp467
a(Vpolicy
VNN
tp468
a(Vand
VCC
tp469
a(Vdraft
VNN
tp470
a(Vrules
VNNS
tp471
a(Vfor
VIN
tp472
a(Vrestraint
VNN
tp473
a(Vin
VIN
tp474
a(Vthis
VDT
tp475
a(Vsector
VNN
tp476
a(V,
V,
tp477
a(Vwhich
VWDT
tp478
a(Vwill
VMD
tp479
a(Vprevent
VVB
tp480
a(Vharmful
VJJ
tp481
a(V,
V,
tp482
a(Villegal
VJJ
tp483
a(Vand
VCC
tp484
a(Vunwanted
VJJ
tp485
a(Vcontent
VNN
tp486
a(V.
V.
tp487
aa(lp488
(VWhere
VWRB
tp489
a(Vare
VVBP
tp490
a(Vyou
VPRP
tp491
a(Vgoing
VVBG
tp492
a(Vto
VTO
tp493
a(Vget
VVB
tp494
a(Vit
VPRP
tp495
a(Vfrom
VIN
tp496
a(V?
V.
tp497
aa(lp498
(VThere
VEX
tp499
a(Vis
VVBZ
tp500
a(Va
VDT
tp501
a(Vsaying
VVBG
tp502
a(V:
V:
tp503
a(V&apos;
VVB
tp504
a(VIf
VIN
tp505
a(Vyou
VPRP
tp506
a(Vdo
VVBP
tp507
a(Vnot
VRB
tp508
a(Vchange
VVB
tp509
a(Vdirection
VNN
tp510
a(V,
V,
tp511
a(Vyou
VPRP
tp512
a(Vfinish
VVBP
tp513
a(Vup
VRP
tp514
a(Vat
VIN
tp515
a(Vthe
VDT
tp516
a(Vpoint
VNN
tp517
a(Vyou
VPRP
tp518
a(Vwere
VVBD
tp519
a(Vheading
VVBG
tp520
a(Vfor
VIN
tp521
a(Vwhen
VWRB
tp522
a(Vyou
VPRP
tp523
a(Vstarted
VVBD
tp524
a(Vout
VRP
tp525
a(V&apos;
VNN
tp526
a(V.
V.
tp527
aa(lp528
(VWe
VPRP
tp529
a(Vall
VDT
tp530
a(Vfelt
VVBD
tp531
a(Vemotional
VJJ
tp532
a(Vseeing
VVBG
tp533
a(Vthe
VDT
tp534
a(Vlast
VJJ
tp535
a(Viron
VNN
tp536
a(Vcurtain
VNN
tp537
a(Vcome
VVB
tp538
a(Vdown
VRB
tp539
a(V,
V,
tp540
a(Vseeing
VVBG
tp541
a(VSlovak
VNNP
tp542
a(Vand
VCC
tp543
a(VAustrian
VJJ
tp544
a(Vministers
VNNS
tp545
a(Vsymbolically
VRB
tp546
a(Vcut
VVBD
tp547
a(Vdown
VRP
tp548
a(Vthe
VDT
tp549
a(Vwooden
VJJ
tp550
a(Vbarrier
VNN
tp551
a(Vat
VIN
tp552
a(Vthe
VDT
tp553
a(VBerg-Petr\u017ealka
VNNP
tp554
a(Vcrossing
VVBG
tp555
a(Vpoint
VNN
tp556
a(Vto
VTO
tp557
a(Vthe
VDT
tp558
a(Veast
VJJ
tp559
a(Vof
VIN
tp560
a(VVienna
VNNP
tp561
a(V.
V.
tp562
aa(lp563
(VThis
VDT
tp564
a(Vis
VVBZ
tp565
a(Vset
VVBN
tp566
a(Vout
VRP
tp567
a(Vmainly
VRB
tp568
a(Vin
VIN
tp569
a(Vthe
VDT
tp570
a(Vannex
VNN
tp571
a(Vto
VTO
tp572
a(Vthe
VDT
tp573
a(Vreport
VNN
tp574
a(V.
V.
tp575
aa(lp576
(VVice-President
VNN
tp577
a(Vof
VIN
tp578
a(Vthe
VDT
tp579
a(VCommission
VNNP
tp580
a(V.
V.
tp581
a(V-
V:
tp582
a(VOf
VIN
tp583
a(Vcourse
VNN
tp584
a(V,
V,
tp585
a(VI
VPRP
tp586
a(Vcan
VMD
tp587
a(Vonly
VRB
tp588
a(Vshare
VVB
tp589
a(Vyour
VPRP$
tp590
a(Vconcern
VNN
tp591
a(V.
V.
tp592
aa(lp593
(VOften
VRB
tp594
a(V,
V,
tp595
a(Vthrough
VIN
tp596
a(Vtheir
VPRP$
tp597
a(Vchoice
VNN
tp598
a(Vto
VTO
tp599
a(Vdevote
VVB
tp600
a(Vthemselves
VPRP
tp601
a(Vto
VTO
tp602
a(Vtheir
VPRP$
tp603
a(Vfamilies
VNNS
tp604
a(Vand
VCC
tp605
a(Vnot
VRB
tp606
a(Vto
VTO
tp607
a(Vdevelop
VVB
tp608
a(Va
VDT
tp609
a(Vprofessional
VJJ
tp610
a(Vcareer
VNN
tp611
a(V,
V,
tp612
a(Vthey
VPRP
tp613
a(Vhardly
VRB
tp614
a(Vhave
VVBP
tp615
a(Vindividual
VJJ
tp616
a(Vpension
VNN
tp617
a(Vrights
VNNS
tp618
a(V.
V.
tp619
aa(lp620
(VWe
VPRP
tp621
a(Vare
VVBP
tp622
a(Vpretending
VVBG
tp623
a(Vto
VTO
tp624
a(Vbelieve
VVB
tp625
a(Vthat
VIN
tp626
a(Vthe
VDT
tp627
a(Vnon-existence
VNN
tp628
a(Vof
VIN
tp629
a(Vsomething
VNN
tp630
a(Vcan
VMD
tp631
a(Vbe
VVB
tp632
a(Vproved
VVBN
tp633
a(V.
V.
tp634
aa(lp635
(VThis
VDT
tp636
a(Vis
VVBZ
tp637
a(Valso
VRB
tp638
a(Vreflected
VVBN
tp639
a(Vin
VIN
tp640
a(Vthe
VDT
tp641
a(Vfact
VNN
tp642
a(Vthat
VIN
tp643
a(Vthey
VPRP
tp644
a(Vhave
VVBP
tp645
a(Vlower
VJJR
tp646
a(Vpensions
VNNS
tp647
a(V,
V,
tp648
a(Vfor
VIN
tp649
a(Vexample
VNN
tp650
a(V.
V.
tp651
aa(lp652
(VAs
VIN
tp653
a(Vfor
VIN
tp654
a(Vthe
VDT
tp655
a(Vother
VJJ
tp656
a(Vproblems
VNNS
tp657
a(V,
V,
tp658
a(Vwe
VPRP
tp659
a(Vcan
VMD
tp660
a(Vtalk
VVB
tp661
a(Vabout
VIN
tp662
a(Vthese
VDT
tp663
a(V.
V.
tp664
aa(lp665
(VThere
VEX
tp666
a(Vis
VVBZ
tp667
a(Vnothing
VNN
tp668
a(Vnew
VJJ
tp669
a(Vabout
VIN
tp670
a(Vthis
VDT
tp671
a(Vsort
VNN
tp672
a(Vof
VIN
tp673
a(Vpropaganda
VNN
tp674
a(Von
VIN
tp675
a(Vthe
VDT
tp676
a(Vpart
VNN
tp677
a(Vof
VIN
tp678
a(VMembers
VNNS
tp679
a(Vwho
VWP
tp680
a(Vmake
VVBP
tp681
a(Va
VDT
tp682
a(Vspeech
VNN
tp683
a(Vand
VCC
tp684
a(Vthen
VRB
tp685
a(Vwalk
VVB
tp686
a(Vout
VRP
tp687
a(V.
V.
tp688
aa(lp689
(VWe
VPRP
tp690
a(Vall
VDT
tp691
a(Vhave
VVBP
tp692
a(Vthe
VDT
tp693
a(Vsame
VJJ
tp694
a(Vdeadline
VNN
tp695
a(Vto
VTO
tp696
a(Vmeet
VVB
tp697
a(Vand
VCC
tp698
a(Vthat
VDT
tp699
a(Vis
VVBZ
tp700
a(V2012
VCD
tp701
a(V.
V.
tp702
aa(lp703
(VTechnology
VNN
tp704
a(Vis
VVBZ
tp705
a(Vrepresented
VVBN
tp706
a(Vby
VIN
tp707
a(Va
VDT
tp708
a(Vcomputer
VNN
tp709
a(Vor
VCC
tp710
a(Va
VDT
tp711
a(Vmusical
VJJ
tp712
a(Vinstrument
VNN
tp713
a(V,
V,
tp714
a(Vperhaps
VRB
tp715
a(Vby
VIN
tp716
a(Va
VDT
tp717
a(Vwheelchair
VNN
tp718
a(V,
V,
tp719
a(Vas
VIN
tp720
a(Va
VDT
tp721
a(Vmeans
VNN
tp722
a(Vto
VTO
tp723
a(Vdevelop
VVB
tp724
a(Va
VDT
tp725
a(Vskill
VNN
tp726
a(V.
V.
tp727
aa(lp728
(VI
VPRP
tp729
a(Vam
VVBP
tp730
a(Vgoing
VVBG
tp731
a(Vto
VTO
tp732
a(Vgive
VVB
tp733
a(Vthe
VDT
tp734
a(Vfloor
VNN
tp735
a(Vto
VTO
tp736
a(Vall
VPDT
tp737
a(Vthose
VDT
tp738
a(Vgroup
VNN
tp739
a(Vchairmen
VNNS
tp740
a(Vwho
VWP
tp741
a(Vexpress
VVBP
tp742
a(Vthe
VDT
tp743
a(Vdesire
VNN
tp744
a(Vto
VTO
tp745
a(Vspeak
VVB
tp746
a(V,
V,
tp747
a(Vasking
VVBG
tp748
a(Vthem
VPRP
tp749
a(Vto
VTO
tp750
a(Vconfine
VVB
tp751
a(Vtheir
VPRP$
tp752
a(Vspeaking
VNN
tp753
a(Vtime
VNN
tp754
a(Vto
VTO
tp755
a(Vone
VCD
tp756
a(Vminute
VNN
tp757
a(V.
V.
tp758
aa(lp759
(VZimbabwe
VNNP
tp760
a(V\u2019
VCD
tp761
a(Vs
VNNS
tp762
a(Vpolitical
VJJ
tp763
a(Vand
VCC
tp764
a(Veconomic
VJJ
tp765
a(Vfortunes
VNNS
tp766
a(Vare
VVBP
tp767
a(Vat
VIN
tp768
a(Vtheir
VPRP$
tp769
a(Vlowest
VJJS
tp770
a(Vpoint
VNN
tp771
a(Vin
VIN
tp772
a(Vits
VPRP$
tp773
a(V26-year
VJJ
tp774
a(Vhistory
VNN
tp775
a(Vas
VIN
tp776
a(Van
VDT
tp777
a(Vindependent
VJJ
tp778
a(Vnation
VNN
tp779
a(V.
V.
tp780
aa(lp781
(VThere
VEX
tp782
a(Vis
VVBZ
tp783
a(Vone
VCD
tp784
a(Vcomment
VNN
tp785
a(Vwhich
VWDT
tp786
a(VI
VPRP
tp787
a(Vcannot
VVBP
tp788
a(Vleave
VVB
tp789
a(Vhanging
VVBG
tp790
a(Vin
VIN
tp791
a(Vthe
VDT
tp792
a(Vair
VNN
tp793
a(V,
V,
tp794
a(VMr
VNNP
tp795
a(VPresident
VNNP
tp796
a(V.
V.
tp797
aa(lp798
(VThe
VDT
tp799
a(Vintegration
VNN
tp800
a(Vof
VIN
tp801
a(Vthese
VDT
tp802
a(Vstates
VNNS
tp803
a(Vmeans
VVBZ
tp804
a(Vfar
VRB
tp805
a(Vmore
VJJR
tp806
a(Vthan
VIN
tp807
a(Vrestructuring
VVBG
tp808
a(Vnational
VJJ
tp809
a(Veconomic
VJJ
tp810
a(Vsystems
VNNS
tp811
a(Vto
VTO
tp812
a(Vadapt
VVB
tp813
a(Vthem
VPRP
tp814
a(Vto
VTO
tp815
a(Vnew
VJJ
tp816
a(Vlegal
VJJ
tp817
a(Vnorms
VNNS
tp818
a(Vand
VCC
tp819
a(Vregulations
VNNS
tp820
a(V.
V.
tp821
aa(lp822
(VOur
VPRP$
tp823
a(Vcitizens
VNNS
tp824
a(V&apos;
VVBP
tp825
a(Vunderstanding
VVBG
tp826
a(Vwill
VMD
tp827
a(Vbe
VVB
tp828
a(Veven
VRB
tp829
a(Vharder
VJJR
tp830
a(Vto
VTO
tp831
a(Vgain
VVB
tp832
a(Vthan
VIN
tp833
a(Vmine
VPRP
tp834
a(V.
V.
tp835
aa(lp836
(VI
VPRP
tp837
a(Vthought
VVBD
tp838
a(Vhe
VPRP
tp839
a(Vwas
VVBD
tp840
a(Vgoing
VVBG
tp841
a(Vto
VTO
tp842
a(Vexplain
VVB
tp843
a(Vwhy
VWRB
tp844
a(Vthe
VDT
tp845
a(VMinutes
VNNPS
tp846
a(Vstate
VNN
tp847
a(Vthat
VIN
tp848
a(Vhe
VPRP
tp849
a(Vvoted
VVBD
tp850
a(Von
VIN
tp851
a(Vmany
VJJ
tp852
a(Vof
VIN
tp853
a(Vthe
VDT
tp854
a(Vamendments
VNNS
tp855
a(Vto
VTO
tp856
a(Vthe
VDT
tp857
a(Vvan
VNN
tp858
a(VHulten
VNNP
tp859
a(Vreport
VNN
tp860
a(V,
V,
tp861
a(Veven
VRB
tp862
a(Vthough
VIN
tp863
a(Vhe
VPRP
tp864
a(Vwas
VVBD
tp865
a(Vnot
VRB
tp866
a(Vin
VIN
tp867
a(Vthe
VDT
tp868
a(VChamber
VNNP
tp869
a(Vat
VIN
tp870
a(Vall
VDT
tp871
a(V.
V.
tp872
aa(lp873
(VStress
VNN
tp874
a(Vtests
VNNS
tp875
a(Von
VIN
tp876
a(Vnuclear
VJJ
tp877
a(Vfacilities
VNNS
tp878
a(Vrepresent
VVBP
tp879
a(Va
VDT
tp880
a(Vstep
VNN
tp881
a(Vforward
VRB
tp882
a(V.
V.
tp883
aa(lp884
(VThis
VDT
tp885
a(Vmeans
VVBZ
tp886
a(Vthat
VIN
tp887
a(Vthe
VDT
tp888
a(Vnext
VJJ
tp889
a(Vtime
VNN
tp890
a(VI
VPRP
tp891
a(Vgo
VVBP
tp892
a(Vand
VCC
tp893
a(Vbuy
VVBP
tp894
a(Vmy
VPRP$
tp895
a(Vechinacea
VNN
tp896
a(V,
V,
tp897
a(VI
VPRP
tp898
a(Vhave
VVBP
tp899
a(Va
VDT
tp900
a(V25
VCD
tp901
a(V%
VNN
tp902
a(Vchance
VNN
tp903
a(Vof
VIN
tp904
a(Vactually
VRB
tp905
a(Vpurchasing
VVBG
tp906
a(Vwhat
VWP
tp907
a(VI
VPRP
tp908
a(Vwant
VVBP
tp909
a(V.
V.
tp910
aa(lp911
(VThis
VDT
tp912
a(Vwill
VMD
tp913
a(Vdramatically
VRB
tp914
a(Vchange
VVB
tp915
a(Vthe
VDT
tp916
a(Vway
VNN
tp917
a(Vit
VPRP
tp918
a(Voperates
VVBZ
tp919
a(V.
V.
tp920
aa(lp921
(VHuman
VNNP
tp922
a(VRights
VNNPS
tp923
a(VWatch
VNNP
tp924
a(Valso
VRB
tp925
a(Vhas
VVBZ
tp926
a(Vthe
VDT
tp927
a(Vsurnames
VNNS
tp928
a(Vof
VIN
tp929
a(V35
VCD
tp930
a(Vstudents
VNNS
tp931
a(Vwho
VWP
tp932
a(Vhave
VVBP
tp933
a(Vbeen
VVBN
tp934
a(Vconvicted
VVBN
tp935
a(Vsince
VIN
tp936
a(V2005
VCD
tp937
a(Vfor
VIN
tp938
a(Vtheir
VPRP$
tp939
a(Vpolitical
VJJ
tp940
a(Vactivities
VNNS
tp941
a(Vin
VIN
tp942
a(Vstudent
VNN
tp943
a(Vunions
VNNS
tp944
a(V.
V.
tp945
aa(lp946
(VWe
VPRP
tp947
a(Vshall
VMD
tp948
a(Vreject
VVB
tp949
a(Vthose
VDT
tp950
a(Vpoints
VNNS
tp951
a(Vdealing
VVBG
tp952
a(Vwith
VIN
tp953
a(Vcompensation
VNN
tp954
a(Vfunds
VNNS
tp955
a(V.
V.
tp956
aa(lp957
(VWe
VPRP
tp958
a(Vknow
VVBP
tp959
a(Vour
VPRP$
tp960
a(Vcountry
VNN
tp961
a(Vis
VVBZ
tp962
a(Vable
VJJ
tp963
a(Vto
VTO
tp964
a(Vrespond
VVB
tp965
a(Vto
VTO
tp966
a(Vits
VPRP$
tp967
a(Vpartners
VNNS
tp968
a(V&apos;
VVBP
tp969
a(Vcalls
VNNS
tp970
a(Vand
VCC
tp971
a(Vcan
VMD
tp972
a(Vtake
VVB
tp973
a(Vits
VPRP$
tp974
a(Vplace
VNN
tp975
a(Vin
VIN
tp976
a(Vthe
VDT
tp977
a(Vfirst
VJJ
tp978
a(Vrank
VNN
tp979
a(Vimmediately
VRB
tp980
a(V.
V.
tp981
aa(lp982
(VFor
VIN
tp983
a(Vinstance
VNN
tp984
a(Vthe
VDT
tp985
a(Vsocial
VJJ
tp986
a(Vprotocol
VNN
tp987
a(Vis
VVBZ
tp988
a(Vnot
VRB
tp989
a(Va
VDT
tp990
a(Vlegal
VJJ
tp991
a(Vbasis
VNN
tp992
a(V,
V,
tp993
a(Vbut
VCC
tp994
a(Vshould
VMD
tp995
a(Vbecome
VVB
tp996
a(Vso
VRB
tp997
a(Vas
VRB
tp998
a(Vsoon
VRB
tp999
a(Vas
VIN
tp1000
a(Vpossible
VJJ
tp1001
a(V,
V,
tp1002
a(Vand
VCC
tp1003
a(VParliament
VNNP
tp1004
a(Vshould
VMD
tp1005
a(Vnot
VRB
tp1006
a(Vcease
VVB
tp1007
a(Vcalling
VVBG
tp1008
a(Vfor
VIN
tp1009
a(Vthat
VDT
tp1010
a(V.
V.
tp1011
aa(lp1012
(VTwo
VCD
tp1013
a(Vyears
VNNS
tp1014
a(Vago
VRB
tp1015
a(V,
V,
tp1016
a(Vthree
VCD
tp1017
a(Vout
VIN
tp1018
a(Vof
VIN
tp1019
a(Vevery
VDT
tp1020
a(Vfive
VCD
tp1021
a(VGazans
VNNPS
tp1022
a(Vdepended
VVBD
tp1023
a(Von
VIN
tp1024
a(VUN
VNNP
tp1025
a(Vassistance
VNN
tp1026
a(V;
V:
tp1027
a(Vit
VPRP
tp1028
a(Vis
VVBZ
tp1029
a(Vnow
VRB
tp1030
a(Vfour
VCD
tp1031
a(Vout
VIN
tp1032
a(Vof
VIN
tp1033
a(Vevery
VDT
tp1034
a(Vfive
VCD
tp1035
a(V.
V.
tp1036
aa(lp1037
(VOur
VPRP$
tp1038
a(Vhumanitarian
VJJ
tp1039
a(Vassistance
VNN
tp1040
a(Vin
VIN
tp1041
a(VEast
VNNP
tp1042
a(VChad
VNNP
tp1043
a(Vis
VVBZ
tp1044
a(Vongoing
VJJ
tp1045
a(V(
VCD
tp1046
a(Van
VDT
tp1047
a(Vaverage
VNN
tp1048
a(Vof
VIN
tp1049
a(VEUR
V$
tp1050
a(V30
VCD
tp1051
a(Vmillion
VCD
tp1052
a(Veach
VDT
tp1053
a(Vyear
VNN
tp1054
a(V)
VRB
tp1055
a(V,
V,
tp1056
a(Vand
VCC
tp1057
a(Vneeds
VNNS
tp1058
a(Vare
VVBP
tp1059
a(Vadequately
VRB
tp1060
a(Vcovered
VVBN
tp1061
a(V.
V.
tp1062
aa(lp1063
(VMoreover
VRB
tp1064
a(V,
V,
tp1065
a(Vfrom
VIN
tp1066
a(V2011
VCD
tp1067
a(V,
V,
tp1068
a(Velectronic
VJJ
tp1069
a(Vtagging
VNN
tp1070
a(Vwill
VMD
tp1071
a(Vprevent
VVB
tp1072
a(Vconfusion
VNN
tp1073
a(Vand
VCC
tp1074
a(Vdeception
VNN
tp1075
a(V.
V.
tp1076
aa(lp1077
(VThe
VDT
tp1078
a(Vfact
VNN
tp1079
a(Vthat
VIN
tp1080
a(V15
VCD
tp1081
a(V%
VNN
tp1082
a(Vsucceed
VVB
tp1083
a(Vagain
VRB
tp1084
a(Vconfirms
VVBZ
tp1085
a(Vthe
VDT
tp1086
a(Vlevel
VNN
tp1087
a(Vof
VIN
tp1088
a(Vexcellence
VNN
tp1089
a(V.
V.
tp1090
aa(lp1091
(VI
VPRP
tp1092
a(Vhope
VVBP
tp1093
a(Vthat
VIN
tp1094
a(Vforeign
VJJ
tp1095
a(Vmedia
VNNS
tp1096
a(Vwill
VMD
tp1097
a(Vbe
VVB
tp1098
a(Vable
VJJ
tp1099
a(Vto
VTO
tp1100
a(Vdo
VVB
tp1101
a(Vtheir
VPRP$
tp1102
a(Vwork
VNN
tp1103
a(Vwithout
VIN
tp1104
a(Vrestrictions
VNNS
tp1105
a(V.
V.
tp1106
aa(lp1107
(VIt
VPRP
tp1108
a(Vhas
VVBZ
tp1109
a(Voverrun
VVBN
tp1110
a(V.
V.
tp1111
aa(lp1112
(VThen
VRB
tp1113
a(Vwe
VPRP
tp1114
a(Vcan
VMD
tp1115
a(Vshow
VVB
tp1116
a(Vthat
VIN
tp1117
a(VEurope
VNNP
tp1118
a(Vis
VVBZ
tp1119
a(Vtaking
VVBG
tp1120
a(Vthe
VDT
tp1121
a(Vlead
VNN
tp1122
a(Vin
VIN
tp1123
a(Vopening
VVBG
tp1124
a(Vup
VRP
tp1125
a(Vmarkets
VNNS
tp1126
a(V,
V,
tp1127
a(Vboth
VDT
tp1128
a(Vabroad
VRB
tp1129
a(Vand
VCC
tp1130
a(Vat
VIN
tp1131
a(Vhome
VNN
tp1132
a(V.
V.
tp1133
aa(lp1134
(V(
VNN
tp1135
a(VPL
VNN
tp1136
a(V)
VCD
tp1137
a(VMr
VNNP
tp1138
a(VPresident
VNNP
tp1139
a(V,
V,
tp1140
a(Vnext
VJJ
tp1141
a(Vyear
VNN
tp1142
a(Vwe
VPRP
tp1143
a(Vshall
VMD
tp1144
a(Vcelebrate
VVB
tp1145
a(Vthe
VDT
tp1146
a(V50th
VJJ
tp1147
a(Vanniversary
VNN
tp1148
a(Vof
VIN
tp1149
a(Vthe
VDT
tp1150
a(VTreaties
VNNPS
tp1151
a(Vof
VIN
tp1152
a(VRome
VNNP
tp1153
a(V.
V.
tp1154
aa(lp1155
(VI
VPRP
tp1156
a(Vwould
VMD
tp1157
a(Vremind
VVB
tp1158
a(Vthem
VPRP
tp1159
a(Vof
VIN
tp1160
a(Vthe
VDT
tp1161
a(Vfine
VJJ
tp1162
a(Vdust
VNN
tp1163
a(Vthat
VWDT
tp1164
a(Vis
VVBZ
tp1165
a(Vnow
VRB
tp1166
a(Vpolluting
VVBG
tp1167
a(VGerman
VJJ
tp1168
a(Vcities
VNNS
tp1169
a(Vin
VIN
tp1170
a(Vparticular
VJJ
tp1171
a(Vand
VCC
tp1172
a(Vis
VVBZ
tp1173
a(Vcausing
VVBG
tp1174
a(Va
VDT
tp1175
a(Vnumber
VNN
tp1176
a(Vof
VIN
tp1177
a(Vproblems
VNNS
tp1178
a(V.
V.
tp1179
aa(lp1180
(VBut
VCC
tp1181
a(Vlet
VVB
tp1182
a(Vus
VPRP
tp1183
a(Vnot
VRB
tp1184
a(Vforget
VVB
tp1185
a(Vthat
VIN
tp1186
a(Vwe
VPRP
tp1187
a(Vhave
VVBP
tp1188
a(Va
VDT
tp1189
a(Vbase
VNN
tp1190
a(Von
VIN
tp1191
a(Vwhich
VWDT
tp1192
a(Vto
VTO
tp1193
a(Vbuild
VVB
tp1194
a(V.
V.
tp1195
aa(lp1196
(VDifferences
VNNS
tp1197
a(Vin
VIN
tp1198
a(Vnational
VJJ
tp1199
a(Vinterests
VNNS
tp1200
a(Vare
VVBP
tp1201
a(Vmaking
VVBG
tp1202
a(Vthemselves
VPRP
tp1203
a(Vfelt
VVBD
tp1204
a(Vin
VIN
tp1205
a(Vthe
VDT
tp1206
a(Vconstruction
VNN
tp1207
a(Vof
VIN
tp1208
a(Va
VDT
tp1209
a(Vsingle
VJJ
tp1210
a(Venergy
VNN
tp1211
a(Vmarket
VNN
tp1212
a(V.
V.
tp1213
aa(lp1214
(VWe
VPRP
tp1215
a(Vmust
VMD
tp1216
a(Vnot
VRB
tp1217
a(Vfall
VVB
tp1218
a(Vinto
VIN
tp1219
a(Vthe
VDT
tp1220
a(Vsame
VJJ
tp1221
a(Vsort
VNN
tp1222
a(Vof
VIN
tp1223
a(Vcrisis
VNN
tp1224
a(Vwe
VPRP
tp1225
a(Vhad
VVBD
tp1226
a(Vin
VIN
tp1227
a(Vthe
VDT
tp1228
a(V1930s
VNNS
tp1229
a(V.
V.
tp1230
aa(lp1231
(VIt
VPRP
tp1232
a(Vshould
VMD
tp1233
a(Valso
VRB
tp1234
a(Vput
VVB
tp1235
a(Vtogether
VRB
tp1236
a(Va
VDT
tp1237
a(Vteam
VNN
tp1238
a(Vof
VIN
tp1239
a(Vcoordinators
VNNS
tp1240
a(Vand
VCC
tp1241
a(Vexperts
VNNS
tp1242
a(Vto
VTO
tp1243
a(Vcover
VVB
tp1244
a(Vall
VDT
tp1245
a(Vthree
VCD
tp1246
a(Vprojects
VNNS
tp1247
a(V,
V,
tp1248
a(Vwhich
VWDT
tp1249
a(V,
V,
tp1250
a(Vcuriously
VRB
tp1251
a(Venough
VRB
tp1252
a(V,
V,
tp1253
a(Vit
VPRP
tp1254
a(Vhas
VVBZ
tp1255
a(Vstill
VRB
tp1256
a(Vnot
VRB
tp1257
a(Vdone
VVBN
tp1258
a(V.
V.
tp1259
aa(lp1260
(VAfter
VIN
tp1261
a(Vsuch
VPDT
tp1262
a(Va
VDT
tp1263
a(Vperiod
VNN
tp1264
a(V,
V,
tp1265
a(Vthe
VDT
tp1266
a(Vtechniques
VNNS
tp1267
a(Vhave
VVBP
tp1268
a(Vmoved
VVBN
tp1269
a(Von
VIN
tp1270
a(Vfar
VRB
tp1271
a(Vahead
VRB
tp1272
a(Vof
VIN
tp1273
a(Vus
VPRP
tp1274
a(V.
V.
tp1275
aa(lp1276
(VWe
VPRP
tp1277
a(Vmust
VMD
tp1278
a(Vsay
VVB
tp1279
a(Vthat
VIN
tp1280
a(Vwe
VPRP
tp1281
a(Vare
VVBP
tp1282
a(Vthe
VDT
tp1283
a(Vmain
VJJ
tp1284
a(Vnet
VJJ
tp1285
a(Vimporter
VNN
tp1286
a(Vand
VCC
tp1287
a(Vthe
VDT
tp1288
a(Vsecond
VJJ
tp1289
a(Vlargest
VJJS
tp1290
a(Vconsumer
VNN
tp1291
a(Vof
VIN
tp1292
a(Voil
VNN
tp1293
a(Vin
VIN
tp1294
a(Vthe
VDT
tp1295
a(Vworld
VNN
tp1296
a(V.
V.
tp1297
aa(lp1298
(VIt
VPRP
tp1299
a(Vmeans
VVBZ
tp1300
a(Va
VDT
tp1301
a(Vtangible
VJJ
tp1302
a(Vbenefit
VNN
tp1303
a(Vprovided
VVBN
tp1304
a(Vby
VIN
tp1305
a(Vthe
VDT
tp1306
a(VUnion
VNNP
tp1307
a(Vto
VTO
tp1308
a(Vcitizens
VNNS
tp1309
a(Vin
VIN
tp1310
a(Vtheir
VPRP$
tp1311
a(Vdaily
VJJ
tp1312
a(Vlives
VNNS
tp1313
a(V.
V.
tp1314
aa(lp1315
(VI
VPRP
tp1316
a(Vcall
VVBP
tp1317
a(Von
VIN
tp1318
a(Vthe
VDT
tp1319
a(VCouncil
VNNP
tp1320
a(Vto
VTO
tp1321
a(Vsupport
VVB
tp1322
a(Vthe
VDT
tp1323
a(VEuropean
VJJ
tp1324
a(VCommission
VNNP
tp1325
a(Vproposals
VNNS
tp1326
a(Vand
VCC
tp1327
a(Vto
VTO
tp1328
a(Vstand
VVB
tp1329
a(Vup
VRP
tp1330
a(Vto
VTO
tp1331
a(Vthe
VDT
tp1332
a(Vpressure
VNN
tp1333
a(Vexerted
VVBN
tp1334
a(Vby
VIN
tp1335
a(Vone
VCD
tp1336
a(Vor
VCC
tp1337
a(Vtwo
VCD
tp1338
a(VMember
VNNP
tp1339
a(VStates
VNNPS
tp1340
a(V.
V.
tp1341
aa(lp1342
(VAccordingly
VRB
tp1343
a(V,
V,
tp1344
a(Vsince
VIN
tp1345
a(V2001
VCD
tp1346
a(V,
V,
tp1347
a(VBrussels
VNNP
tp1348
a(Vairport
VNN
tp1349
a(Vhas
VVBZ
tp1350
a(Vdoubled
VVBN
tp1351
a(Vits
VPRP$
tp1352
a(Vsafety
VNN
tp1353
a(Vsupplement
VNN
tp1354
a(Vwhich
VWDT
tp1355
a(Vit
VPRP
tp1356
a(Vcharges
VVBZ
tp1357
a(Veach
VDT
tp1358
a(Vof
VIN
tp1359
a(Vits
VPRP$
tp1360
a(Vpassengers
VNNS
tp1361
a(V.
V.
tp1362
aa(lp1363
(VWe
VPRP
tp1364
a(Vcontinue
VVBP
tp1365
a(Vto
VTO
tp1366
a(Vsupport
VVB
tp1367
a(Vthe
VDT
tp1368
a(Vdemocratic
VJJ
tp1369
a(Vopening
VNN
tp1370
a(Vlaunched
VVBN
tp1371
a(Vby
VIN
tp1372
a(Vthe
VDT
tp1373
a(Vgovernment
VNN
tp1374
a(V.
V.
tp1375
aa(lp1376
(VOn
VIN
tp1377
a(V24
VCD
tp1378
a(VJanuary
VNNP
tp1379
a(V2008
VCD
tp1380
a(V,
V,
tp1381
a(VMr
VNNP
tp1382
a(VPresident
VNNP
tp1383
a(V,
V,
tp1384
a(VI
VPRP
tp1385
a(Vsubmitted
VVBD
tp1386
a(Va
VDT
tp1387
a(Vquestion
VNN
tp1388
a(Vto
VTO
tp1389
a(Vthe
VDT
tp1390
a(VEuropean
VNNP
tp1391
a(VParliament
VNNP
tp1392
a(Vabout
VIN
tp1393
a(Vthe
VDT
tp1394
a(Vdecision
VNN
tp1395
a(Vto
VTO
tp1396
a(Vreduce
VVB
tp1397
a(Vthe
VDT
tp1398
a(Vbudget
VNN
tp1399
a(Vfor
VIN
tp1400
a(Vinviting
VVBG
tp1401
a(Vthe
VDT
tp1402
a(Vpress
VNN
tp1403
a(V.
V.
tp1404
aa(lp1405
(VIt
VPRP
tp1406
a(Vhas
VVBZ
tp1407
a(Vbeen
VVBN
tp1408
a(Vin
VIN
tp1409
a(Va
VDT
tp1410
a(Vresigned
VJJ
tp1411
a(Vmood
VNN
tp1412
a(V.
V.
tp1413
aa(lp1414
(VThis
VDT
tp1415
a(Vhas
VVBZ
tp1416
a(Vhappened
VVBN
tp1417
a(Vto
VTO
tp1418
a(Vthe
VDT
tp1419
a(VMayor
VNNP
tp1420
a(Vof
VIN
tp1421
a(Vmy
VPRP$
tp1422
a(Vcity
VNN
tp1423
a(V,
V,
tp1424
a(VLondon
VNNP
tp1425
a(V,
V,
tp1426
a(VMr
VNNP
tp1427
a(VLivingstone
VNNP
tp1428
a(V,
V,
tp1429
a(Vwho
VWP
tp1430
a(Vbelongs
VVBZ
tp1431
a(Vto
VTO
tp1432
a(Vthe
VDT
tp1433
a(VLabour
VNNP
tp1434
a(VParty
VNNP
tp1435
a(V.
V.
tp1436
aa(lp1437
(VGlobal
VJJ
tp1438
a(Veconomic
VJJ
tp1439
a(Vgovernance
VNN
tp1440
a(V(
VNN
tp1441
aa(lp1442
(VI
VPRP
tp1443
a(Vstill
VRB
tp1444
a(Vsee
VVBP
tp1445
a(Vthe
VDT
tp1446
a(Vunfortunate
VJJ
tp1447
a(Vfact
VNN
tp1448
a(Vthat
VIN
tp1449
a(Vcomplete
VJJ
tp1450
a(Vreciprocity
VNN
tp1451
a(Vis
VVBZ
tp1452
a(Vyet
VRB
tp1453
a(Vto
VTO
tp1454
a(Vbe
VVB
tp1455
a(Vachieved
VVBN
tp1456
a(Vas
VIN
tp1457
a(Va
VDT
tp1458
a(Vgreat
VJJ
tp1459
a(Vproblem
VNN
tp1460
a(V.
V.
tp1461
aa(lp1462
(VLet
VVB
tp1463
a(Vus
VPRP
tp1464
a(Vdeprive
VVB
tp1465
a(Vhim
VPRP
tp1466
a(Vof
VIN
tp1467
a(Vthat
VDT
tp1468
a(Vhope
VNN
tp1469
a(V!
V.
tp1470
aa(lp1471
(VAll
VPDT
tp1472
a(Vthe
VDT
tp1473
a(VCommission
VNNP
tp1474
a(V&apos;s
VNNS
tp1475
a(Vdocuments
VNNS
tp1476
a(Vrepeat
VNN
tp1477
a(Vad
VNN
tp1478
a(Vnauseam
VNN
tp1479
a(Vthat
VIN
tp1480
a(Vthe
VDT
tp1481
a(Vinternal
VJJ
tp1482
a(Vmarket
VNN
tp1483
a(Vwill
VMD
tp1484
a(Vonly
VRB
tp1485
a(Vfunction
VVB
tp1486
a(Vwell
VRB
tp1487
a(V-
V:
tp1488
a(Vor
VCC
tp1489
a(Vfunction
VVB
tp1490
a(Vbetter
VJJR
tp1491
a(V,
V,
tp1492
a(Vif
VIN
tp1493
a(Vyou
VPRP
tp1494
a(Vprefer
VVBP
tp1495
a(V-
V:
tp1496
a(Vwith
VIN
tp1497
a(VVAT
VNN
tp1498
a(Vat
VIN
tp1499
a(Vsource
VNN
tp1500
a(V.
V.
tp1501
aa(lp1502
(VIt
VPRP
tp1503
a(Vis
VVBZ
tp1504
a(Vcaught
VVBN
tp1505
a(Vbetween
VIN
tp1506
a(Vthe
VDT
tp1507
a(Vdevil
VNNP
tp1508
a(Vand
VCC
tp1509
a(Vthe
VDT
tp1510
a(Vdeep
VJJ
tp1511
a(Vblue
VJJ
tp1512
a(Vsea
VNN
tp1513
a(V.
V.
tp1514
aa(lp1515
(VNorway
VNNP
tp1516
a(Vhas
VVBZ
tp1517
a(Vset
VVBN
tp1518
a(Va
VDT
tp1519
a(Vgood
VJJ
tp1520
a(Vexample
VNN
tp1521
a(Vby
VIN
tp1522
a(Vsaying
VVBG
tp1523
a(Vthat
VIN
tp1524
a(Vit
VPRP
tp1525
a(Vdoes
VVBZ
tp1526
a(Vnot
VRB
tp1527
a(Vintend
VVB
tp1528
a(Vto
VTO
tp1529
a(Vmake
VVB
tp1530
a(Vuse
VNN
tp1531
a(Vof
VIN
tp1532
a(Vits
VPRP$
tp1533
a(Vsinks
VNNS
tp1534
a(Vin
VIN
tp1535
a(Vthe
VDT
tp1536
a(Vsame
VJJ
tp1537
a(Vway
VNN
tp1538
a(V.
V.
tp1539
aa(lp1540
(VHis
VPRP$
tp1541
a(Vson
VNN
tp1542
a(Vwas
VVBD
tp1543
a(Vin
VIN
tp1544
a(Vprison
VNN
tp1545
a(Vlast
VJJ
tp1546
a(Vtime
VNN
tp1547
a(Vhe
VPRP
tp1548
a(Vwas
VVBD
tp1549
a(Vhere
VRB
tp1550
a(V,
V,
tp1551
a(Vas
VRB
tp1552
a(Vare
VVBP
tp1553
a(Vhundreds
VNNS
tp1554
a(Vof
VIN
tp1555
a(Vpeople
VNNS
tp1556
a(V,
V,
tp1557
a(Vsimply
VRB
tp1558
a(Vfor
VIN
tp1559
a(Vfighting
VVBG
tp1560
a(Vfor
VIN
tp1561
a(Vfreedom
VNN
tp1562
a(V.
V.
tp1563
aa(lp1564
(VPut
VVB
tp1565
a(Vanother
VDT
tp1566
a(Vway
VNN
tp1567
a(V,
V,
tp1568
a(Vwhat
VWP
tp1569
a(Vwe
VPRP
tp1570
a(Vknow
VVBP
tp1571
a(Vright
VRB
tp1572
a(Vnow
VRB
tp1573
a(Vis
VVBZ
tp1574
a(Vthat
VIN
tp1575
a(Vwe
VPRP
tp1576
a(Vare
VVBP
tp1577
a(Vgoing
VVBG
tp1578
a(Vto
VTO
tp1579
a(Vhave
VVB
tp1580
a(Vmore
VJJR
tp1581
a(Vof
VIN
tp1582
a(Vthe
VDT
tp1583
a(Vsame
VJJ
tp1584
a(V.
V.
tp1585
aa(lp1586
(VMuch
VJJ
tp1587
a(Vhope
VNN
tp1588
a(Vwas
VVBD
tp1589
a(Vkindled
VVBN
tp1590
a(Vwhen
VWRB
tp1591
a(Vhe
VPRP
tp1592
a(Vmet
VVBD
tp1593
a(Vthe
VDT
tp1594
a(VPrime
VNNP
tp1595
a(VMinister
VNNP
tp1596
a(Vin
VIN
tp1597
a(VApril
VNNP
tp1598
a(Vof
VIN
tp1599
a(Vthis
VDT
tp1600
a(Vyear
VNN
tp1601
a(V,
V,
tp1602
a(Vbut
VCC
tp1603
a(V,
V,
tp1604
a(Vfollowing
VVBG
tp1605
a(Vthese
VDT
tp1606
a(Vconversations
VNNS
tp1607
a(V,
V,
tp1608
a(Vthe
VDT
tp1609
a(Vauthorities
VNNS
tp1610
a(Vstepped
VVBD
tp1611
a(Vup
VRP
tp1612
a(Vtheir
VPRP$
tp1613
a(Vaction
VNN
tp1614
a(Vagainst
VIN
tp1615
a(Vthe
VDT
tp1616
a(Vadherents
VNNS
tp1617
a(Vof
VIN
tp1618
a(Vthis
VDT
tp1619
a(Vchurch
VNN
tp1620
a(Vand
VCC
tp1621
a(Vof
VIN
tp1622
a(Vother
VJJ
tp1623
a(Vreligions
VNNS
tp1624
a(V.
V.
tp1625
aa(lp1626
(VI
VPRP
tp1627
a(Vwould
VMD
tp1628
a(Vlike
VVB
tp1629
a(Vto
VTO
tp1630
a(Vstress
VNN
tp1631
a(V,
V,
tp1632
a(Vhowever
VRB
tp1633
a(V,
V,
tp1634
a(Vthat
VIN
tp1635
a(Vthis
VDT
tp1636
a(Vfigure
VNN
tp1637
a(Vhad
VVBD
tp1638
a(Vbeen
VVBN
tp1639
a(Vcalculated
VVBN
tp1640
a(Vby
VIN
tp1641
a(Vthe
VDT
tp1642
a(VCommission
VNNP
tp1643
a(Vin
VIN
tp1644
a(VJanuary
VNNP
tp1645
a(Vand
VCC
tp1646
a(Vit
VPRP
tp1647
a(Valready
VRB
tp1648
a(Vappears
VVBZ
tp1649
a(Vto
VTO
tp1650
a(Vhave
VVB
tp1651
a(Vbeen
VVBN
tp1652
a(Vcompletely
VRB
tp1653
a(Vovertaken
VVBN
tp1654
a(Vby
VIN
tp1655
a(Vevents
VNNS
tp1656
a(V.
V.
tp1657
aa(lp1658
(VThe
VDT
tp1659
a(Vconsumer
VNN
tp1660
a(Vis
VVBZ
tp1661
a(Vjust
VRB
tp1662
a(Vunlucky
VJJ
tp1663
a(Vin
VIN
tp1664
a(Vbeing
VVBG
tp1665
a(Vnot
VRB
tp1666
a(Vthe
VDT
tp1667
a(Vfirst
VJJ
tp1668
a(V,
V,
tp1669
a(Vbut
VCC
tp1670
a(Vthe
VDT
tp1671
a(Vumpteenth
VJJ
tp1672
a(Vclaimant
VNN
tp1673
a(V.
V.
tp1674
aa(lp1675
(VI
VPRP
tp1676
a(Vthink
VVBP
tp1677
a(Va
VDT
tp1678
a(Vnumber
VNN
tp1679
a(Vof
VIN
tp1680
a(Vthe
VDT
tp1681
a(Vcountries
VNNS
tp1682
a(Vthat
VWDT
tp1683
a(Vare
VVBP
tp1684
a(Vgoing
VVBG
tp1685
a(Vto
VTO
tp1686
a(Vbe
VVB
tp1687
a(Vjoining
VVBG
tp1688
a(VEurope
VNNP
tp1689
a(Vare
VVBP
tp1690
a(Vnot
VRB
tp1691
a(Vnecessarily
VRB
tp1692
a(Vgoing
VVBG
tp1693
a(Vto
VTO
tp1694
a(Vfeel
VVB
tp1695
a(Vinterested
VJJ
tp1696
a(Vin
VIN
tp1697
a(VAriane
VNNP
tp1698
a(Vor
VCC
tp1699
a(Vin
VIN
tp1700
a(Vspace
VNN
tp1701
a(Vdevelopments
VNNS
tp1702
a(Vwhose
VWP$
tp1703
a(Vspin-offs
VNNS
tp1704
a(Vtoday
VNN
tp1705
a(Vbenefit
VVBP
tp1706
a(Vmainly
VRB
tp1707
a(VFrance
VNNP
tp1708
a(V,
V,
tp1709
a(VItaly
VNNP
tp1710
a(V,
V,
tp1711
a(Vthe
VDT
tp1712
a(VUnited
VNNP
tp1713
a(VKingdom
VNNP
tp1714
a(Vand
VCC
tp1715
a(VGermany
VNNP
tp1716
a(V,
V,
tp1717
a(Vbut
VCC
tp1718
a(Vnot
VRB
tp1719
a(Vnecessarily
VRB
tp1720
a(VLithuania
VNNP
tp1721
a(V,
V,
tp1722
a(VCyprus
VNNP
tp1723
a(Vor
VCC
tp1724
a(VMalta
VNNP
tp1725
a(V.
V.
tp1726
aa(lp1727
(Vin
VIN
tp1728
a(Vwriting
VVBG
tp1729
a(V.
V.
tp1730
a(V-
V:
tp1731
a(VI
VPRP
tp1732
a(Vvoted
VVBD
tp1733
a(Vfor
VIN
tp1734
a(Vthis
VDT
tp1735
a(Vresolution
VNN
tp1736
a(V,
V,
tp1737
a(Valthough
VIN
tp1738
a(VI
VPRP
tp1739
a(Vcannot
VVBP
tp1740
a(Vquite
VRB
tp1741
a(Vget
VVB
tp1742
a(Vthe
VDT
tp1743
a(Vstrong
VJJ
tp1744
a(Vsmell
VNN
tp1745
a(Vof
VIN
tp1746
a(Vhypocrisy
VNN
tp1747
a(V,
V,
tp1748
a(Von
VIN
tp1749
a(Vthe
VDT
tp1750
a(Vpart
VNN
tp1751
a(Vof
VIN
tp1752
a(Vthe
VDT
tp1753
a(VEU
VNNP
tp1754
a(Vinstitutions
VNNS
tp1755
a(V,
V,
tp1756
a(Vout
VIN
tp1757
a(Vof
VIN
tp1758
a(Vmy
VPRP$
tp1759
a(Vnostrils
VNNS
tp1760
a(V.
V.
tp1761
aa(lp1762
(VWhat
VWP
tp1763
a(Vwas
VVBD
tp1764
a(Vtheir
VPRP$
tp1765
a(Vfinal
VJJ
tp1766
a(Vdestination
VNN
tp1767
a(V?
V.
tp1768
aa(lp1769
(VMadam
VNNP
tp1770
a(VPresident
VNNP
tp1771
a(V,
V,
tp1772
a(Vladies
VNNS
tp1773
a(Vand
VCC
tp1774
a(Vgentlemen
VNNS
tp1775
a(V,
V,
tp1776
a(VI
VPRP
tp1777
a(Vthink
VVBP
tp1778
a(Vthe
VDT
tp1779
a(Vgenuine
VJJ
tp1780
a(Vsatisfaction
VNN
tp1781
a(Vthat
VWDT
tp1782
a(Vhas
VVBZ
tp1783
a(Vemerged
VVBN
tp1784
a(Vin
VIN
tp1785
a(Vthis
VDT
tp1786
a(Vdebate
VNN
tp1787
a(Vshows
VVBZ
tp1788
a(Vthat
VIN
tp1789
a(VMembers
VNNS
tp1790
a(Vwere
VVBD
tp1791
a(Vaware
VJJ
tp1792
a(Vof
VIN
tp1793
a(Vjust
VRB
tp1794
a(Vhow
VWRB
tp1795
a(Vdifficult
VJJ
tp1796
a(Vyet
VRB
tp1797
a(Vimportant
VJJ
tp1798
a(Vthe
VDT
tp1799
a(Vtask
VNN
tp1800
a(Vfacing
VVBG
tp1801
a(Vus
VPRP
tp1802
a(Vwas
VVBD
tp1803
a(V.
V.
tp1804
aa(lp1805
(VYou
VPRP
tp1806
a(Vhave
VVBP
tp1807
a(Vdared
VVBN
tp1808
a(V.
V.
tp1809
aa(lp1810
(VThe
VDT
tp1811
a(Vnew
VJJ
tp1812
a(VIraqi
VJJ
tp1813
a(VGovernment
VNN
tp1814
a(Vis
VVBZ
tp1815
a(Vdemonstrating
VVBG
tp1816
a(Vthis
VDT
tp1817
a(Vto
VTO
tp1818
a(Vus
VPRP
tp1819
a(V.
V.
tp1820
aa(lp1821
(VIt
VPRP
tp1822
a(Vis
VVBZ
tp1823
a(Vinvention
VNN
tp1824
a(Vand
VCC
tp1825
a(Vcreativity
VNN
tp1826
a(Vthat
VIN
tp1827
a(Vwe
VPRP
tp1828
a(Vare
VVBP
tp1829
a(Vhere
VRB
tp1830
a(Vto
VTO
tp1831
a(Vsupport
VVB
tp1832
a(Vand
VCC
tp1833
a(Vnothing
VNN
tp1834
a(Velse
VRB
tp1835
a(V.
V.
tp1836
aa(lp1837
(VI
VPRP
tp1838
a(Vshould
VMD
tp1839
a(Vlike
VVB
tp1840
a(Vto
VTO
tp1841
a(Vmention
VVB
tp1842
a(VAmendment
VNNP
tp1843
a(VNo
VNNP
tp1844
a(V13
VCD
tp1845
a(Vin
VIN
tp1846
a(Vparticular
VJJ
tp1847
a(V,
V,
tp1848
a(Vwhich
VWDT
tp1849
a(Vmore
VRBR
tp1850
a(Vor
VCC
tp1851
a(Vless
VRBR
tp1852
a(Vstates
VVBZ
tp1853
a(Vthat
VIN
tp1854
a(Vanyone
VNN
tp1855
a(Vwho
VWP
tp1856
a(Vhas
VVBZ
tp1857
a(Vpaid
VVBN
tp1858
a(Veven
VRB
tp1859
a(Va
VDT
tp1860
a(Vsmall
VJJ
tp1861
a(Vamount
VNN
tp1862
a(Vof
VIN
tp1863
a(Vtax
VNN
tp1864
a(Vanywhere
VRB
tp1865
a(Vshould
VMD
tp1866
a(Vhave
VVB
tp1867
a(Van
VDT
tp1868
a(Vautomatic
VJJ
tp1869
a(Vright
VNN
tp1870
a(Vto
VTO
tp1871
a(Va
VDT
tp1872
a(Vresidence
VNN
tp1873
a(Vpermit
VNN
tp1874
a(V.
V.
tp1875
aa(lp1876
(VThe
VDT
tp1877
a(VEU
VNNP
tp1878
a(Vcan
VMD
tp1879
a(Vdo
VVB
tp1880
a(Vanything
VNN
tp1881
a(Vif
VIN
tp1882
a(Vit
VPRP
tp1883
a(Vputs
VVBZ
tp1884
a(Vits
VPRP$
tp1885
a(Vmind
VNN
tp1886
a(Vto
VTO
tp1887
a(Vit
VPRP
tp1888
a(V.
V.
tp1889
aa(lp1890
(VOn
VIN
tp1891
a(Vthe
VDT
tp1892
a(Vinterim
VJJ
tp1893
a(Vmanagement
VNN
tp1894
a(Vstatement
VNN
tp1895
a(Vfor
VIN
tp1896
a(Vshare
VNN
tp1897
a(Vissuers
VNNS
tp1898
a(V,
V,
tp1899
a(Vwe
VPRP
tp1900
a(Vagree
VVBP
tp1901
a(Von
VIN
tp1902
a(Vthe
VDT
tp1903
a(Vcompromise
VNN
tp1904
a(Vthat
VWDT
tp1905
a(Vhas
VVBZ
tp1906
a(Vbeen
VVBN
tp1907
a(Vtabled
VVBN
tp1908
a(V.
V.
tp1909
aa(lp1910
(VThese
VDT
tp1911
a(Vare
VVBP
tp1912
a(Vthe
VDT
tp1913
a(Vsame
VJJ
tp1914
a(Vgovernments
VNNS
tp1915
a(Vwith
VIN
tp1916
a(Vwhich
VWDT
tp1917
a(Vwe
VPRP
tp1918
a(Vmust
VMD
tp1919
a(Vdeliberate
VVB
tp1920
a(Von
VIN
tp1921
a(Vthe
VDT
tp1922
a(Vadvent
VNN
tp1923
a(Vof
VIN
tp1924
a(Va
VDT
tp1925
a(Vgeneration
VNN
tp1926
a(Vof
VIN
tp1927
a(Vsenior
VJJ
tp1928
a(Vcitizens
VNNS
tp1929
a(Vvery
VRB
tp1930
a(Vadvanced
VVBD
tp1931
a(Vin
VIN
tp1932
a(Vyears
VNNS
tp1933
a(V.
V.
tp1934
aa(lp1935
(VAlthough
VIN
tp1936
a(Vthere
VEX
tp1937
a(Vhave
VVBP
tp1938
a(Vbeen
VVBN
tp1939
a(Vmany
VJJ
tp1940
a(Vimprovements
VNNS
tp1941
a(Vin
VIN
tp1942
a(Vthe
VDT
tp1943
a(Varea
VNN
tp1944
a(Vof
VIN
tp1945
a(Vequal
VJJ
tp1946
a(Vopportunities
VNNS
tp1947
a(Vfor
VIN
tp1948
a(Vwomen
VNNS
tp1949
a(V,
V,
tp1950
a(Vthere
VEX
tp1951
a(Vis
VVBZ
tp1952
a(Vstill
VRB
tp1953
a(Vmuch
VJJ
tp1954
a(Vto
VTO
tp1955
a(Vbe
VVB
tp1956
a(Vdone
VVBN
tp1957
a(V.
V.
tp1958
aa(lp1959
(VIf
VIN
tp1960
a(Vwe
VPRP
tp1961
a(Vhave
VVBP
tp1962
a(Vhappy
VJJ
tp1963
a(Vchildren
VNNS
tp1964
a(V,
V,
tp1965
a(Vwe
VPRP
tp1966
a(Vwill
VMD
tp1967
a(Vhave
VVB
tp1968
a(Va
VDT
tp1969
a(Vhappy
VJJ
tp1970
a(Vsociety
VNN
tp1971
a(V.
V.
tp1972
aa(lp1973
(VThe
VDT
tp1974
a(Vrole
VNN
tp1975
a(Vof
VIN
tp1976
a(Vumpire
VNN
tp1977
a(Vbetween
VIN
tp1978
a(Vthe
VDT
tp1979
a(VIsraelis
VNNPS
tp1980
a(Vand
VCC
tp1981
a(Vthe
VDT
tp1982
a(VPalestinians
VNNPS
tp1983
a(Vis
VVBZ
tp1984
a(Vnot
VRB
tp1985
a(Venough
VRB
tp1986
a(V.
V.
tp1987
aa(lp1988
(VIt
VPRP
tp1989
a(Vcreates
VVBZ
tp1990
a(Va
VDT
tp1991
a(VEurope
VNNP
tp1992
a(Vwhich
VWDT
tp1993
a(Vis
VVBZ
tp1994
a(Valso
VRB
tp1995
a(Vimbued
VVBN
tp1996
a(Vwith
VIN
tp1997
a(Vthese
VDT
tp1998
a(Videas
VNNS
tp1999
a(V.
V.
tp2000
aa(lp2001
(VThe
VDT
tp2002
a(Vapproach
VNN
tp2003
a(Vhas
VVBZ
tp2004
a(Vbeen
VVBN
tp2005
a(Vvery
VRB
tp2006
a(Vmuch
VJJ
tp2007
a(Vwelcomed
VVBN
tp2008
a(Vby
VIN
tp2009
a(Vthe
VDT
tp2010
a(VMusicians
VNNPS
tp2011
a(VUnion
VNNP
tp2012
a(Vof
VIN
tp2013
a(VGreat
VNNP
tp2014
a(VBritain
VNNP
tp2015
a(Vwho
VWP
tp2016
a(Vacted
VVBD
tp2017
a(Vto
VTO
tp2018
a(Vcoordinate
VVB
tp2019
a(Vthe
VDT
tp2020
a(Vwork
VNN
tp2021
a(Vof
VIN
tp2022
a(Vmusicians
VNNS
tp2023
a(V&apos;
VVBP
tp2024
a(Vunions
VNNS
tp2025
a(Vacross
VIN
tp2026
a(Vthe
VDT
tp2027
a(VEuropean
VNNP
tp2028
a(VUnion
VNNP
tp2029
a(V.
V.
tp2030
aa(lp2031
(VIf
VIN
tp2032
a(Vhe
VPRP
tp2033
a(Vtravels
VVBZ
tp2034
a(Vto
VTO
tp2035
a(VHeathrow
VNNP
tp2036
a(Vwith
VIN
tp2037
a(VBMI
VNN
tp2038
a(Vand
VCC
tp2039
a(Vreturns
VNNS
tp2040
a(Vwith
VIN
tp2041
a(VLufthansa
VNNP
tp2042
a(V,
V,
tp2043
a(Vhe
VPRP
tp2044
a(Vnow
VRB
tp2045
a(Vpays
VVBZ
tp2046
a(VEUR
V$
tp2047
a(V70
VCD
tp2048
a(Vin
VIN
tp2049
a(Vcharges
VNNS
tp2050
a(V.
V.
tp2051
aa(lp2052
(VEurope
VNNP
tp2053
a(Vshould
VMD
tp2054
a(Vbe
VVB
tp2055
a(Vmaking
VVBG
tp2056
a(Vincreasing
VVBG
tp2057
a(Vefforts
VNNS
tp2058
a(Vto
VTO
tp2059
a(Vbring
VVB
tp2060
a(Vpeace
VNN
tp2061
a(Vto
VTO
tp2062
a(Vthe
VDT
tp2063
a(VMiddle
VNNP
tp2064
a(VEast
VNNP
tp2065
a(V,
V,
tp2066
a(Vbut
VCC
tp2067
a(Vso
VRB
tp2068
a(Vfar
VRB
tp2069
a(Vit
VPRP
tp2070
a(Vhas
VVBZ
tp2071
a(Vfailed
VVBN
tp2072
a(Vin
VIN
tp2073
a(Vits
VPRP$
tp2074
a(Vtask
VNN
tp2075
a(V.
V.
tp2076
aa(lp2077
(VToday
VNN
tp2078
a(Vis
VVBZ
tp2079
a(Vthe
VDT
tp2080
a(Vanniversary
VNN
tp2081
a(Vof
VIN
tp2082
a(Vthe
VDT
tp2083
a(Vbirth
VNN
tp2084
a(Vof
VIN
tp2085
a(VAlexander
VNNP
tp2086
a(VHamilton
VNNP
tp2087
a(V,
V,
tp2088
a(Vone
VCD
tp2089
a(Vof
VIN
tp2090
a(Vthe
VDT
tp2091
a(Vfathers
VNNS
tp2092
a(Vof
VIN
tp2093
a(Vthe
VDT
tp2094
a(VAmerican
VNNP
tp2095
a(VConstitution
VNNP
tp2096
a(V,
V,
tp2097
a(Vwhose
VWP$
tp2098
a(Vpicture
VNN
tp2099
a(Vcan
VMD
tp2100
a(Vtoday
VNN
tp2101
a(Vbe
VVB
tp2102
a(Vfound
VVBN
tp2103
a(Von
VIN
tp2104
a(Vten-dollar
VJJ
tp2105
a(Vnotes
VNNS
tp2106
a(V.
V.
tp2107
aa(lp2108
(VAsking
VVBG
tp2109
a(Vquestions
VNNS
tp2110
a(Vlike
VIN
tp2111
a(Vthis
VDT
tp2112
a(Vis
VVBZ
tp2113
a(Vallowed
VVBN
tp2114
a(V.
V.
tp2115
aa.