(lp1
(lp2
(VWe
VPRP
tp3
a(Vneed
VVBP
tp4
a(Vto
VTO
tp5
a(Vgive
VVB
tp6
a(Vthe
VDT
tp7
a(VAmericans
VNNPS
tp8
a(Vthe
VDT
tp9
a(Vimpression
VNN
tp10
a(Vthat
VIN
tp11
a(Vwe
VPRP
tp12
a(Vare
VVBP
tp13
a(Vnot
VRB
tp14
a(Vnecessarily
VRB
tp15
a(Vreliant
VVB
tp16
a(Von
VIN
tp17
a(Vthem
VPRP
tp18
a(V.
V.
tp19
a(VWe
VPRP
tp20
a(Vwould
VMD
tp21
a(Vlike
VVB
tp22
a(Vto
VTO
tp23
a(Vdo
VVB
tp24
a(Vit
VPRP
tp25
a(Vwith
VIN
tp26
a(Vthem
VPRP
tp27
a(V,
V,
tp28
a(Vbut
VCC
tp29
a(Vthey
VPRP
tp30
a(Vare
VVBP
tp31
a(Vnot
VRB
tp32
a(Vour
VPRP$
tp33
a(Vonly
VJJ
tp34
a(Vpartner
VNN
tp35
a(V-
V:
tp36
a(Vparticularly
VRB
tp37
a(Vwhen
VWRB
tp38
a(Vit
VPRP
tp39
a(Vcomes
VVBZ
tp40
a(Vto
VTO
tp41
a(Vclimate
VNN
tp42
a(Vchange
VNN
tp43
a(V.
V.
tp44
aa(lp45
(VAs
VIN
tp46
a(Vthe
VDT
tp47
a(Vlegislation
VNN
tp48
a(Vstands
VVBZ
tp49
a(V,
V,
tp50
a(Vlocal
VJJ
tp51
a(Vand
VCC
tp52
a(Vregional
VJJ
tp53
a(Vauthorities
VNNS
tp54
a(Vand
VCC
tp55
a(Vthe
VDT
tp56
a(Vsocial
VJJ
tp57
a(Vpartners
VNNS
tp58
a(Vare
VVBP
tp59
a(Vnot
VRB
tp60
a(Ventitled
VVBN
tp61
a(Vto
VTO
tp62
a(Vbe
VVB
tp63
a(Vinvolved
VVBN
tp64
a(Vin
VIN
tp65
a(Vproject
VNN
tp66
a(Vselection
VNN
tp67
a(V.
V.
tp68
aa(lp69
(VThe
VDT
tp70
a(VCouncil
VNNP
tp71
a(Valso
VRB
tp72
a(Vhopes
VVBZ
tp73
a(Vthat
VIN
tp74
a(Vthe
VDT
tp75
a(VNigerian
VJJ
tp76
a(Vstate
VNN
tp77
a(Vauthorities
VNNS
tp78
a(Vwill
VMD
tp79
a(Vbe
VVB
tp80
a(Vsympathetic
VJJ
tp81
a(Vto
VTO
tp82
a(Vthe
VDT
tp83
a(Videa
VNN
tp84
a(Vof
VIN
tp85
a(Vrepeating
VVBG
tp86
a(Vthe
VDT
tp87
a(Velection
VNN
tp88
a(Vprocess
VNN
tp89
a(Vin
VIN
tp90
a(Vinstances
VNNS
tp91
a(Vwhere
VWRB
tp92
a(Vthere
VEX
tp93
a(Vis
VVBZ
tp94
a(Virrefutable
VJJ
tp95
a(Vevidence
VNN
tp96
a(Vof
VIN
tp97
a(Vgrave
VJJ
tp98
a(Velectoral
VJJ
tp99
a(Vfraud
VNN
tp100
a(V.
V.
tp101
aa(lp102
(VWe
VPRP
tp103
a(Vare
VVBP
tp104
a(Vall
VDT
tp105
a(Vlosers
VNNS
tp106
a(Vnow
VRB
tp107
a(V,
V,
tp108
a(Vbut
VCC
tp109
a(Vtests
VNNS
tp110
a(Vare
VVBP
tp111
a(Vnow
VRB
tp112
a(Vbeginning
VVBG
tp113
a(Vin
VIN
tp114
a(VSweden
VNNP
tp115
a(Von
VIN
tp116
a(Va
VDT
tp117
a(Vnew
VJJ
tp118
a(Vmedicine
VNN
tp119
a(Vto
VTO
tp120
a(Vcombat
VVB
tp121
a(VHIV
VNN
tp122
a(V.
V.
tp123
aa(lp124
(VWhat
VWP
tp125
a(Vwill
VMD
tp126
a(Vthe
VDT
tp127
a(VCommission
VNNP
tp128
a(Vdo
VVBP
tp129
a(Vto
VTO
tp130
a(Vcombat
VVB
tp131
a(Vthe
VDT
tp132
a(Vproblem
VNN
tp133
a(Vof
VIN
tp134
a(Vviolence
VNN
tp135
a(Vagainst
VIN
tp136
a(Velderly
VJJ
tp137
a(Vpeople
VNNS
tp138
a(Vthroughout
VIN
tp139
a(VEurope
VNNP
tp140
a(V?
V.
tp141
aa(lp142
(VThey
VPRP
tp143
a(Vwant
VVBP
tp144
a(Vto
VTO
tp145
a(Vlook
VVB
tp146
a(Vagain
VRB
tp147
a(Vat
VIN
tp148
a(Vthe
VDT
tp149
a(Vcosts
VNNS
tp150
a(Vin
VIN
tp151
a(V2004
VCD
tp152
a(Vbefore
VIN
tp153
a(Vsigning
VVBG
tp154
a(Vup
VRP
tp155
a(Vto
VTO
tp156
a(Vmore
VRBR
tp157
a(V.
V.
tp158
aa(lp159
(VIt
VPRP
tp160
a(Vmust
VMD
tp161
a(Vbe
VVB
tp162
a(Vsaid
VVBN
tp163
a(V,
V,
tp164
a(Vhowever
VRB
tp165
a(V,
V,
tp166
a(Vthat
VIN
tp167
a(Vamong
VIN
tp168
a(Vour
VPRP$
tp169
a(Vfellow
VJJ
tp170
a(Vcitizens
VNNS
tp171
a(Vand
VCC
tp172
a(Vuntil
VIN
tp173
a(Vrecently
VRB
tp174
a(Vthere
VEX
tp175
a(Vwere
VVBD
tp176
a(Vmixed
VJJ
tp177
a(Vperceptions
VNNS
tp178
a(Vof
VIN
tp179
a(Vthe
VDT
tp180
a(Veuro
VNN
tp181
a(V.
V.
tp182
aa(lp183
(VI
VPRP
tp184
a(Vhope
VVBP
tp185
a(Vit
VPRP
tp186
a(Vis
VVBZ
tp187
a(Vsuccessful
VJJ
tp188
a(V.
V.
tp189
aa(lp190
(VWhen
VWRB
tp191
a(Vthe
VDT
tp192
a(Vfinal
VJJ
tp193
a(Vstructure
VNN
tp194
a(Vis
VVBZ
tp195
a(Vcomplete
VJJ
tp196
a(Vthere
VEX
tp197
a(Vwill
VMD
tp198
a(Vnot
VRB
tp199
a(Veven
VRB
tp200
a(Vbe
VVB
tp201
a(Vas
VRB
tp202
a(Vmany
VJJ
tp203
a(Vas
VIN
tp204
a(V80
VCD
tp205
a(V.
V.
tp206
aa(lp207
(VShe
VPRP
tp208
a(Vhas
VVBZ
tp209
a(Vbeen
VVBN
tp210
a(Vconvicted
VVBN
tp211
a(Vof
VIN
tp212
a(Vnothing
VNN
tp213
a(Vand
VCC
tp214
a(Vnonetheless
VRB
tp215
a(Vis
VVBZ
tp216
a(Vin
VIN
tp217
a(Vthe
VDT
tp218
a(Vhighest
VJJS
tp219
a(Vcategory
VNN
tp220
a(Vof
VIN
tp221
a(Vsecurity
VNN
tp222
a(Vprison
VNN
tp223
a(V.
V.
tp224
aa(lp225
(VWhat
VWDT
tp226
a(Vcan
VMD
tp227
a(Vbe
VVB
tp228
a(Vdone
VVBN
tp229
a(Vin
VIN
tp230
a(Vthe
VDT
tp231
a(Vshort
VJJ
tp232
a(Vterm
VNN
tp233
a(V?
V.
tp234
aa(lp235
(VNobody
VNN
tp236
a(Vis
VVBZ
tp237
a(Vasking
VVBG
tp238
a(Vfor
VIN
tp239
a(Va
VDT
tp240
a(VChristmas
VNNP
tp241
a(Vtree
VNN
tp242
a(V.
V.
tp243
aa(lp244
(VWe
VPRP
tp245
a(Vare
VVBP
tp246
a(Vfacing
VVBG
tp247
a(Va
VDT
tp248
a(Vtotally
VRB
tp249
a(Vsuicidal
VJJ
tp250
a(Vspiral
VNN
tp251
a(Vof
VIN
tp252
a(Vviolence
VNN
tp253
a(V.
V.
tp254
aa(lp255
(VI
VPRP
tp256
a(Vsee
VVBP
tp257
a(Vthat
VIN
tp258
a(Vas
VIN
tp259
a(Vsafer
VJJR
tp260
a(Vthan
VIN
tp261
a(Vif
VIN
tp262
a(Vevery
VDT
tp263
a(Vsmall-time
VJJ
tp264
a(Vvinedresser
VNN
tp265
a(Vor
VCC
tp266
a(Vwinegrower
VNN
tp267
a(Vdecides
VVBZ
tp268
a(Vfor
VIN
tp269
a(Vhimself
VPRP
tp270
a(Vand
VCC
tp271
a(Vends
VVBZ
tp272
a(Vup
VRP
tp273
a(Von
VIN
tp274
a(Va
VDT
tp275
a(Vsteep
VJJ
tp276
a(Vslope
VNN
tp277
a(Vright
VNN
tp278
a(Vin
VIN
tp279
a(Va
VDT
tp280
a(Vcloud
VNN
tp281
a(Vof
VIN
tp282
a(Vthe
VDT
tp283
a(Vplant
VNN
tp284
a(Vprotection
VNN
tp285
a(Vagent
VNN
tp286
a(Vhe
VPRP
tp287
a(Vis
VVBZ
tp288
a(Vspraying
VVBG
tp289
a(V.
V.
tp290
aa(lp291
(VParliament
VNNP
tp292
a(Vwould
VMD
tp293
a(Vbe
VVB
tp294
a(Vshowing
VVBG
tp295
a(Vitself
VPRP
tp296
a(Vin
VIN
tp297
a(Va
VDT
tp298
a(Vvery
VRB
tp299
a(Vpoor
VJJ
tp300
a(Vlight
VNN
tp301
a(Vif
VIN
tp302
a(Vit
VPRP
tp303
a(Vrejected
VVBD
tp304
a(Vthis
VDT
tp305
a(Vchance
VNN
tp306
a(Vof
VIN
tp307
a(Va
VDT
tp308
a(Vserious
VJJ
tp309
a(Vand
VCC
tp310
a(Vresponsible
VJJ
tp311
a(Vsystem
VNN
tp312
a(Vof
VIN
tp313
a(Vremuneration
VNN
tp314
a(V.
V.
tp315
aa(lp316
(VCommunication
VNN
tp317
a(Vis
VVBZ
tp318
a(Vsomething
VNN
tp319
a(Vto
VTO
tp320
a(Vwhich
VWDT
tp321
a(Vall
VDT
tp322
a(Vof
VIN
tp323
a(Vus
VPRP
tp324
a(Vhere
VRB
tp325
a(Vare
VVBP
tp326
a(Ventitled
VVBN
tp327
a(V.
V.
tp328
aa(lp329
(VWe
VPRP
tp330
a(Vknow
VVBP
tp331
a(Vthe
VDT
tp332
a(Vgrowing
VVBG
tp333
a(Vevidence
VNN
tp334
a(Vshows
VVBZ
tp335
a(Vthat
VDT
tp336
a(Vchildren
VNNS
tp337
a(Vand
VCC
tp338
a(Vadolescents
VNNS
tp339
a(Vare
VVBP
tp340
a(Vstarting
VVBG
tp341
a(Vdrinking
VNN
tp342
a(Vat
VIN
tp343
a(Va
VDT
tp344
a(Vyounger
VJJR
tp345
a(Vage
VNN
tp346
a(Vand
VCC
tp347
a(Vdrinking
VNN
tp348
a(Vat
VIN
tp349
a(Vworrying
VJJ
tp350
a(Vlevels
VNNS
tp351
a(Vat
VIN
tp352
a(Va
VDT
tp353
a(Vyounger
VJJR
tp354
a(Vage
VNN
tp355
a(V.
V.
tp356
aa(lp357
(V(
VNN
tp358
a(VPT
VNN
tp359
a(V)
VCD
tp360
a(VI
VPRP
tp361
a(Vam
VVBP
tp362
a(Vneither
VCC
tp363
a(Van
VDT
tp364
a(Vexpert
VNN
tp365
a(Vin
VIN
tp366
a(Vcriminal
VJJ
tp367
a(Vpolicy
VNN
tp368
a(Vnor
VCC
tp369
a(Va
VDT
tp370
a(VMinister
VNNP
tp371
a(Vfor
VIN
tp372
a(VJustice
VNNP
tp373
a(V.
V.
tp374
aa(lp375
(Vin
VIN
tp376
a(Vwriting
VVBG
tp377
a(V.
V.
tp378
a(V-
V:
tp379
a(V(
VCD
tp380
a(VFR
VNN
tp381
a(V)
VCD
tp382
a(VEuropeans
VNNS
tp383
a(Vare
VVBP
tp384
a(Va
VDT
tp385
a(Vdisappearing
VVBG
tp386
a(Vspecies
VNNS
tp387
a(V.
V.
tp388
aa(lp389
(VIf
VIN
tp390
a(Vthey
VPRP
tp391
a(Vdo
VVBP
tp392
a(Vnot
VRB
tp393
a(V,
V,
tp394
a(Vand
VCC
tp395
a(Vthe
VDT
tp396
a(Vclaimant
VNN
tp397
a(Vis
VVBZ
tp398
a(Vtransferred
VVBN
tp399
a(V,
V,
tp400
a(Vthey
VPRP
tp401
a(Vwill
VMD
tp402
a(Vnot
VRB
tp403
a(Vbe
VVB
tp404
a(Vable
VJJ
tp405
a(Vto
VTO
tp406
a(Vkeep
VVB
tp407
a(Vin
VIN
tp408
a(Vcontact
VNN
tp409
a(Vwith
VIN
tp410
a(Vthe
VDT
tp411
a(Vprocedure
VNN
tp412
a(Vor
VCC
tp413
a(Vtheir
VPRP$
tp414
a(Vlawyer
VNN
tp415
a(V,
V,
tp416
a(Vwhich
VWDT
tp417
a(Vis
VVBZ
tp418
a(Vunfair
VJJ
tp419
a(V.
V.
tp420
aa(lp421
(VAnd
VCC
tp422
a(Vyes
VRB
tp423
a(V,
V,
tp424
a(VMr
VNNP
tp425
a(VPresident
VNNP
tp426
a(Vand
VCC
tp427
a(VCommissioner
VNNP
tp428
a(V,
V,
tp429
a(Vour
VPRP$
tp430
a(Vinflation
VNN
tp431
a(Vis
VVBZ
tp432
a(Vfalling
VVBG
tp433
a(V.
V.
tp434
a(VIt
VPRP
tp435
a(Vis
VVBZ
tp436
a(Vfalling
VVBG
tp437
a(Vsignificantly
VRB
tp438
a(V-
V:
tp439
a(Vand
VCC
tp440
a(Vam
VVBP
tp441
a(VI
VPRP
tp442
a(Vwrong
VJJ
tp443
a(Vin
VIN
tp444
a(Vstating
VVBG
tp445
a(Vthat
VIN
tp446
a(Vother
VJJ
tp447
a(VMember
VNNP
tp448
a(VStates
VNNPS
tp449
a(Vhave
VVBP
tp450
a(Vhigher
VJJR
tp451
a(Vinflation
VNN
tp452
a(Vrates
VNNS
tp453
a(Vthan
VIN
tp454
a(Vours
VPRP
tp455
a(V?
V.
tp456
aa(lp457
(VHowever
VRB
tp458
a(V,
V,
tp459
a(VI
VPRP
tp460
a(Vnote
VVBP
tp461
a(Vthat
VIN
tp462
a(Vsince
VIN
tp463
a(Vthe
VDT
tp464
a(Vlaunch
VNN
tp465
a(Vof
VIN
tp466
a(Vthe
VDT
tp467
a(VNew
VNNP
tp468
a(VTransatlantic
VNNP
tp469
a(VAgenda
VNNP
tp470
a(Vin
VIN
tp471
a(V1995
VCD
tp472
a(Vthe
VDT
tp473
a(Vmechanisms
VNNS
tp474
a(Vof
VIN
tp475
a(Vthe
VDT
tp476
a(Vrelationship
VNN
tp477
a(Vhave
VVBP
tp478
a(Vserved
VVBN
tp479
a(Vus
VPRP
tp480
a(Vwell
VRB
tp481
a(V.
V.
tp482
aa(lp483
(VMore
VJJR
tp484
a(Vthan
VIN
tp485
a(V300
VCD
tp486
a(V000
VCD
tp487
a(Vpeople
VNNS
tp488
a(Vgathered
VVBN
tp489
a(Vfor
VIN
tp490
a(Vthe
VDT
tp491
a(VNavruz
VNNP
tp492
a(Vfestival
VNN
tp493
a(Vin
VIN
tp494
a(VDiyarbakir
VNNP
tp495
a(Vunder
VIN
tp496
a(Vthe
VDT
tp497
a(Vbanner
VNN
tp498
a(V&quot;
VNN
tp499
a(VPeace
VNN
tp500
a(V,
V,
tp501
a(VBrotherliness
VNN
tp502
a(Vand
VCC
tp503
a(VDemocracy
VNN
tp504
a(V&quot;
VNN
tp505
a(V.
V.
tp506
aa(lp507
(VIt
VPRP
tp508
a(Vwill
VMD
tp509
a(Vresult
VVB
tp510
a(Vin
VIN
tp511
a(Vus
VPRP
tp512
a(Vhaving
VVBG
tp513
a(Vmore
VRBR
tp514
a(Vharmonised
VJJ
tp515
a(Vmarkets
VNNS
tp516
a(Vfor
VIN
tp517
a(Vthis
VDT
tp518
a(Vsector
VNN
tp519
a(Vwhich
VWDT
tp520
a(Vin
VIN
tp521
a(Vitself
VPRP
tp522
a(Vis
VVBZ
tp523
a(Valready
VRB
tp524
a(Vinternational
VJJ
tp525
a(Vand
VCC
tp526
a(Vborder-transcending
VNN
tp527
a(V.
V.
tp528
aa(lp529
(VBut
VCC
tp530
a(V,
V,
tp531
a(Vlikewise
VRB
tp532
a(V,
V,
tp533
a(Vthe
VDT
tp534
a(Vsame
VJJ
tp535
a(Vmistakes
VNNS
tp536
a(Vthat
VWDT
tp537
a(Vwere
VVBD
tp538
a(Vmade
VVBN
tp539
a(Vby
VIN
tp540
a(Vgovernments
VNNS
tp541
a(Vat
VIN
tp542
a(Vthe
VDT
tp543
a(Vstart
VNN
tp544
a(Vof
VIN
tp545
a(Vthe
VDT
tp546
a(V20th
VJJ
tp547
a(Vcentury
VNN
tp548
a(Vseem
VVBP
tp549
a(Vto
VTO
tp550
a(Vbe
VVB
tp551
a(Vrepeated
VVBN
tp552
a(Vtoday
VNN
tp553
a(Vat
VIN
tp554
a(Vthe
VDT
tp555
a(Vstart
VNN
tp556
a(Vof
VIN
tp557
a(Vthe
VDT
tp558
a(V21st
VJJ
tp559
a(Vcentury
VNN
tp560
a(V.
V.
tp561
aa(lp562
(VA
VDT
tp563
a(Vnumber
VNN
tp564
a(Vof
VIN
tp565
a(Vjudges
VNNS
tp566
a(Vand
VCC
tp567
a(Vlawyers
VNNS
tp568
a(Vremain
VVBP
tp569
a(Vin
VIN
tp570
a(Vdetention
VNN
tp571
a(Vto
VTO
tp572
a(Vthis
VDT
tp573
a(Vday
VNN
tp574
a(V.
V.
tp575
aa(lp576
(VI
VPRP
tp577
a(Vbelieve
VVBP
tp578
a(Vthis
VDT
tp579
a(Vshould
VMD
tp580
a(Vbe
VVB
tp581
a(Vregarded
VVBN
tp582
a(Vas
VIN
tp583
a(Vsomething
VNN
tp584
a(Vsignificant
VJJ
tp585
a(Vand
VCC
tp586
a(V,
V,
tp587
a(Vin
VIN
tp588
a(Vits
VPRP$
tp589
a(Vown
VJJ
tp590
a(Vway
VNN
tp591
a(V,
V,
tp592
a(Vsymbolic
VJJ
tp593
a(V.
V.
tp594
aa(lp595
(VThe
VDT
tp596
a(Vmap
VNN
tp597
a(Vin
VIN
tp598
a(Vquestion
VNN
tp599
a(Vis
VVBZ
tp600
a(Vthat
VIN
tp601
a(Vof
VIN
tp602
a(VEurope
VNNP
tp603
a(Vin
VIN
tp604
a(V1848
VCD
tp605
a(V.
V.
tp606
aa(lp607
(VThat
VDT
tp608
a(Vis
VVBZ
tp609
a(Va
VDT
tp610
a(Vsubsidy
VNN
tp611
a(Vper
VIN
tp612
a(Vannum
VNN
tp613
a(Vof
VIN
tp614
a(Varound
VIN
tp615
a(VECU
VNNP
tp616
a(V200
VCD
tp617
a(V,
V,
tp618
a(V000
VCD
tp619
a(Vper
VIN
tp620
a(Vvessel
VNN
tp621
a(V.
V.
tp622
aa(lp623
(VThe
VDT
tp624
a(Vanswer
VNN
tp625
a(Vis
VVBZ
tp626
a(Vas
VIN
tp627
a(Vresearchers
VNNS
tp628
a(V,
V,
tp629
a(Vscientists
VNNS
tp630
a(V,
V,
tp631
a(Vpolicy
VNN
tp632
a(Vmakers
VNNS
tp633
a(V,
V,
tp634
a(Vworkers
VNNS
tp635
a(Von
VIN
tp636
a(Vthe
VDT
tp637
a(Vshop
VNN
tp638
a(Vfloor
VNN
tp639
a(V,
V,
tp640
a(Vconsumers
VNNS
tp641
a(Vand
VCC
tp642
a(Vcitizens
VNNS
tp643
a(V.
V.
tp644
aa(lp645
(VI
VPRP
tp646
a(Vam
VVBP
tp647
a(Vinterested
VJJ
tp648
a(Vand
VCC
tp649
a(VI
VPRP
tp650
a(Vdo
VVBP
tp651
a(Vknow
VVB
tp652
a(Vit
VPRP
tp653
a(V.
V.
tp654
aa(lp655
(VWe
VPRP
tp656
a(Vhave
VVBP
tp657
a(Vthe
VDT
tp658
a(Vthird
VJJ
tp659
a(Vhighest
VJJS
tp660
a(Vaccident
VNN
tp661
a(Vrate
VNN
tp662
a(Vin
VIN
tp663
a(Vthe
VDT
tp664
a(VEuropean
VNNP
tp665
a(VUnion
VNNP
tp666
a(Vand
VCC
tp667
a(Vwe
VPRP
tp668
a(Vhave
VVBP
tp669
a(Vthe
VDT
tp670
a(Vhighest
VJJS
tp671
a(Vfatality
VNN
tp672
a(Vrate
VNN
tp673
a(Vin
VIN
tp674
a(Vthe
VDT
tp675
a(VEuropean
VNNP
tp676
a(VUnion
VNNP
tp677
a(V.
V.
tp678
aa(lp679
(VCommissioner
VNNP
tp680
a(V:
V:
tp681
a(Vthree
VCD
tp682
a(Vquestions
VNNS
tp683
a(V:
V:
tp684
aa(lp685
(VThe
VDT
tp686
a(Vmost
VRBS
tp687
a(Vexpensive
VJJ
tp688
a(Vfish
VNN
tp689
a(Vin
VIN
tp690
a(Vthe
VDT
tp691
a(Vworld
VNN
tp692
a(V,
V,
tp693
a(Veach
VDT
tp694
a(Vone
VCD
tp695
a(Vselling
VNN
tp696
a(Vfor
VIN
tp697
a(Vtens
VNNS
tp698
a(Vof
VIN
tp699
a(Vthousands
VNNS
tp700
a(Vof
VIN
tp701
a(Veuros
VNNS
tp702
a(V.
V.
tp703
aa(lp704
(VCyprus
VNNP
tp705
a(Vis
VVBZ
tp706
a(Vthe
VDT
tp707
a(Vlast
VJJ
tp708
a(Vcountry
VNN
tp709
a(Vin
VIN
tp710
a(VEurope
VNNP
tp711
a(Vthat
VWDT
tp712
a(Vis
VVBZ
tp713
a(Vstill
VRB
tp714
a(Vdivided
VVBN
tp715
a(V.
V.
tp716
aa(lp717
(VAnyone
VNN
tp718
a(Vwho
VWP
tp719
a(Vbuys
VVBZ
tp720
a(Vtheir
VPRP$
tp721
a(Vchildren
VNNS
tp722
a(Vthe
VDT
tp723
a(Vcheapest
VJJS
tp724
a(Vjunk
VNN
tp725
a(Vtoys
VNNS
tp726
a(Vuntested
VJJ
tp727
a(Vdoes
VVBZ
tp728
a(Vnot
VRB
tp729
a(Vwant
VVB
tp730
a(Vthis
VDT
tp731
a(Vresponsibility
VNN
tp732
a(V!
V.
tp733
aa(lp734
(VThe
VDT
tp735
a(Vposition
VNN
tp736
a(Vis
VVBZ
tp737
a(Valso
VRB
tp738
a(Vsupported
VVBN
tp739
a(Vby
VIN
tp740
a(Vthe
VDT
tp741
a(VEuropean
VNNP
tp742
a(VParliament
VNNP
tp743
a(V&apos;s
VVBZ
tp744
a(VLegal
VNNP
tp745
a(VService
VNNP
tp746
a(V.
V.
tp747
a(VTherefore
VRB
tp748
a(V,
V,
tp749
a(Vin
VIN
tp750
a(Vaccordance
VNN
tp751
a(Vwith
VIN
tp752
a(Vthe
VDT
tp753
a(Vlegislative
VJJ
tp754
a(Vprocess
VNN
tp755
a(V,
V,
tp756
a(Vit
VPRP
tp757
a(Vshould
VMD
tp758
a(Vbe
VVB
tp759
a(Vunderstood
VVBN
tp760
a(Vthat
VIN
tp761
a(Vthis
VDT
tp762
a(Vis
VVBZ
tp763
a(Vthe
VDT
tp764
a(Vfirst
VJJ
tp765
a(Vreading
VNN
tp766
a(Vin
VIN
tp767
a(VParliament
VNNP
tp768
a(V.
V.
tp769
aa(lp770
(VWe
VPRP
tp771
a(Vhave
VVBP
tp772
a(Vto
VTO
tp773
a(Vgive
VVB
tp774
a(Vsomething
VNN
tp775
a(Vconcrete
VJJ
tp776
a(Vto
VTO
tp777
a(Vthe
VDT
tp778
a(Vrest
VNN
tp779
a(Vof
VIN
tp780
a(Vthe
VDT
tp781
a(Vpopulation
VNN
tp782
a(V.
V.
tp783
aa(lp784
(VWe
VPRP
tp785
a(Vcan
VMD
tp786
a(Vcertainly
VRB
tp787
a(Vwonder
VVB
tp788
a(Vabout
VIN
tp789
a(Vthis
VDT
tp790
a(V.
V.
tp791
aa(lp792
(VThat
VDT
tp793
a(Vwas
VVBD
tp794
a(Vthis
VDT
tp795
a(VEuropean
VJJ
tp796
a(VParliament
VNNP
tp797
a(Vin
VIN
tp798
a(Vaction
VNN
tp799
a(V.
V.
tp800
aa(lp801
(VThe
VDT
tp802
a(Vlarge
VJJ
tp803
a(Vcountries
VNNS
tp804
a(Vare
VVBP
tp805
a(Vattacking
VVBG
tp806
a(Vthe
VDT
tp807
a(Vequal
VJJ
tp808
a(Vrights
VNNS
tp809
a(Venshrined
VVBN
tp810
a(Vin
VIN
tp811
a(Vthe
VDT
tp812
a(Vrotating
VVBG
tp813
a(Vpresidencies
VNNS
tp814
a(V.
V.
tp815
aa(lp816
(VTurkey
VNNP
tp817
a(Vneeds
VVBZ
tp818
a(Vto
VTO
tp819
a(Vhonour
VVB
tp820
a(Vall
VDT
tp821
a(Vits
VPRP$
tp822
a(Vcontractual
VJJ
tp823
a(Vobligations
VNNS
tp824
a(V,
V,
tp825
a(Vas
VIN
tp826
a(Vall
VDT
tp827
a(Vprevious
VJJ
tp828
a(Vcandidate
VNN
tp829
a(Vcountries
VNNS
tp830
a(Vhave
VVBP
tp831
a(Vdone
VVBN
tp832
a(V.
V.
tp833
aa(lp834
(VOur
VPRP$
tp835
a(Vcitizens
VNNS
tp836
a(Vcannot
VVBP
tp837
a(Vaccept
VVB
tp838
a(Vthat
VIN
tp839
a(Vthe
VDT
tp840
a(VEuropean
VNNP
tp841
a(VUnion
VNNP
tp842
a(Vtakes
VVBZ
tp843
a(Vdecisions
VNNS
tp844
a(Vin
VIN
tp845
a(Va
VDT
tp846
a(Vway
VNN
tp847
a(Vthat
VWDT
tp848
a(Vis
VVBZ
tp849
a(V,
V,
tp850
a(Vat
VIN
tp851
a(Vleast
VJJS
tp852
a(Von
VIN
tp853
a(Vthe
VDT
tp854
a(Vface
VNN
tp855
a(Vof
VIN
tp856
a(Vit
VPRP
tp857
a(V,
V,
tp858
a(Vbureaucratic
VJJ
tp859
a(V.
V.
tp860
aa(lp861
(VIt
VPRP
tp862
a(Vis
VVBZ
tp863
a(Vhigh
VJJ
tp864
a(Vtime
VNN
tp865
a(Vthat
VIN
tp866
a(Va
VDT
tp867
a(Vprofessional
VJJ
tp868
a(Vand
VCC
tp869
a(Vcoordinated
VVBN
tp870
a(Vinformation
VNN
tp871
a(Vcampaign
VNN
tp872
a(Vwas
VVBD
tp873
a(Vstarted
VVBN
tp874
a(V.
V.
tp875
aa(lp876
(VHundreds
VNNS
tp877
a(Vof
VIN
tp878
a(Vinnocent
VJJ
tp879
a(Vcivilians
VNNS
tp880
a(Vhave
VVBP
tp881
a(Vbeen
VVBN
tp882
a(Vkilled
VVBN
tp883
a(Vand
VCC
tp884
a(Vthousands
VNNS
tp885
a(Vpresently
VRB
tp886
a(Vface
VVBP
tp887
a(Vdeath
VNN
tp888
a(Von
VIN
tp889
a(Va
VDT
tp890
a(Vdaily
VJJ
tp891
a(Vbasis
VNN
tp892
a(V.
V.
tp893
aa(lp894
(VA
VDT
tp895
a(Vsimilar
VJJ
tp896
a(Vposition
VNN
tp897
a(Vis
VVBZ
tp898
a(Vheld
VVBN
tp899
a(Vby
VIN
tp900
a(Vthe
VDT
tp901
a(Vdeveloping
VVBG
tp902
a(Vcountries
VNNS
tp903
a(V,
V,
tp904
a(Vwhich
VWDT
tp905
a(Valso
VRB
tp906
a(Vlack
VVBP
tp907
a(Vconfidence
VNN
tp908
a(Vand
VCC
tp909
a(Vfeel
VVB
tp910
a(Vthat
VIN
tp911
a(Vthe
VDT
tp912
a(Vpharmaceutical
VJJ
tp913
a(Vindustry
VNN
tp914
a(Vin
VIN
tp915
a(Vgeneral
VJJ
tp916
a(Vwill
VMD
tp917
a(Vtake
VVB
tp918
a(Vevery
VDT
tp919
a(Vopportunity
VNN
tp920
a(Vto
VTO
tp921
a(Vtake
VVB
tp922
a(Vall
VPDT
tp923
a(Vthe
VDT
tp924
a(Vcredit
VNN
tp925
a(V,
V,
tp926
a(Vas
VIN
tp927
a(Vit
VPRP
tp928
a(Vhas
VVBZ
tp929
a(Vdone
VVBN
tp930
a(V,
V,
tp931
a(Vin
VIN
tp932
a(Vtheir
VPRP$
tp933
a(Vopinion
VNN
tp934
a(V,
V,
tp935
a(Vover
VIN
tp936
a(Vthe
VDT
tp937
a(Vlast
VJJ
tp938
a(Vfew
VJJ
tp939
a(Vyears
VNNS
tp940
a(V.
V.
tp941
aa(lp942
(VMr
VNNP
tp943
a(VPresident
VNNP
tp944
a(Vof
VIN
tp945
a(Vthe
VDT
tp946
a(VCouncil
VNNP
tp947
a(V,
V,
tp948
a(VMr
VNNP
tp949
a(VPresident
VNNP
tp950
a(Vof
VIN
tp951
a(Vthe
VDT
tp952
a(VCommission
VNNP
tp953
a(V,
V,
tp954
a(Vladies
VNNS
tp955
a(Vand
VCC
tp956
a(Vgentlemen
VNNS
tp957
a(V,
V,
tp958
a(Vas
VIN
tp959
a(Vexpected
VVBN
tp960
a(V,
V,
tp961
a(VMr
VNNP
tp962
a(VBlair
VNNP
tp963
a(Vhas
VVBZ
tp964
a(Vwith
VIN
tp965
a(Vmuch
VJJ
tp966
a(Vflair
VNN
tp967
a(Vand
VCC
tp968
a(Vfeeling
VNN
tp969
a(Vfor
VIN
tp970
a(Vpublic
VJJ
tp971
a(Vrelations
VNNS
tp972
a(Vdrawn
VVBN
tp973
a(Vattention
VNN
tp974
a(Vto
VTO
tp975
a(VEurope
VNNP
tp976
a(Vat
VIN
tp977
a(Vthe
VDT
tp978
a(Vstart
VNN
tp979
a(Vof
VIN
tp980
a(Vthe
VDT
tp981
a(VBritish
VJJ
tp982
a(VPresidency
VNNP
tp983
a(V,
V,
tp984
a(Vpromising
VJJ
tp985
a(Vmuch
VRB
tp986
a(V.
V.
tp987
aa(lp988
(VI
VPRP
tp989
a(Vam
VVBP
tp990
a(Vnot
VRB
tp991
a(Vsure
VJJ
tp992
a(Vwhether
VIN
tp993
a(Vit
VPRP
tp994
a(Vshould
VMD
tp995
a(Vbe
VVB
tp996
a(Vcentralised
VVBN
tp997
a(Vor
VCC
tp998
a(Vdecentralised
VVBN
tp999
a(V,
V,
tp1000
a(Vautonomous
VJJ
tp1001
a(Vor
VCC
tp1002
a(Vindependent
VJJ
tp1003
a(V,
V,
tp1004
a(Vbut
VCC
tp1005
a(Vit
VPRP
tp1006
a(Vmust
VMD
tp1007
a(Vbe
VVB
tp1008
a(Va
VDT
tp1009
a(Vpublic
VJJ
tp1010
a(Vbody
VNN
tp1011
a(V.
V.
tp1012
aa(lp1013
(VIran
VNNP
tp1014
a(Vis
VVBZ
tp1015
a(Va
VDT
tp1016
a(Vcountry
VNN
tp1017
a(Vpopulated
VVBN
tp1018
a(Vby
VIN
tp1019
a(Vpeople
VNNS
tp1020
a(Vjust
VRB
tp1021
a(Vlike
VIN
tp1022
a(Vourselves
VPRP
tp1023
a(V,
V,
tp1024
a(Vwith
VIN
tp1025
a(Vtheir
VPRP$
tp1026
a(Veveryday
VJJ
tp1027
a(Vjoys
VNNS
tp1028
a(Vand
VCC
tp1029
a(Vcares
VVBZ
tp1030
a(V.
V.
tp1031
aa(lp1032
(VHow
VWRB
tp1033
a(Vmany
VJJ
tp1034
a(Vothers
VNNS
tp1035
a(V,
V,
tp1036
a(Vlike
VIN
tp1037
a(Vhim
VPRP
tp1038
a(V,
V,
tp1039
a(Vdo
VVBP
tp1040
a(Vnot
VRB
tp1041
a(Vhave
VVB
tp1042
a(Vthe
VDT
tp1043
a(Vnecessary
VJJ
tp1044
a(Vfunds
VNNS
tp1045
a(Vto
VTO
tp1046
a(Vpay
VVB
tp1047
a(Vfor
VIN
tp1048
a(Vlawyers
VNNS
tp1049
a(Vor
VCC
tp1050
a(Vthe
VDT
tp1051
a(Vexpensive
VJJ
tp1052
a(Vanalyses
VNNS
tp1053
a(Vwhich
VWDT
tp1054
a(Vcould
VMD
tp1055
a(V,
V,
tp1056
a(Vperhaps
VRB
tp1057
a(V,
V,
tp1058
a(Vcompletely
VRB
tp1059
a(Vexonerate
VVB
tp1060
a(Vthem
VPRP
tp1061
a(V?
V.
tp1062
aa(lp1063
(VAt
VIN
tp1064
a(Va
VDT
tp1065
a(Vcertain
VJJ
tp1066
a(Vstage
VNN
tp1067
a(Vhe
VPRP
tp1068
a(Vtold
VVBD
tp1069
a(Vthe
VDT
tp1070
a(VCouncil
VNNP
tp1071
a(Vthat
VIN
tp1072
a(Vhe
VPRP
tp1073
a(Vwould
VMD
tp1074
a(Vrather
VRB
tp1075
a(Vwear
VVB
tp1076
a(Vhis
VPRP$
tp1077
a(Vson
VNN
tp1078
a(V&apos;s
VVBZ
tp1079
a(Vvery
VRB
tp1080
a(Vtight
VJJ
tp1081
a(Vjacket
VNN
tp1082
a(Vthan
VIN
tp1083
a(Vtake
VVB
tp1084
a(Vthe
VDT
tp1085
a(Vmandate
VNN
tp1086
a(Vhe
VPRP
tp1087
a(Vhad
VVBD
tp1088
a(Vbeen
VVBN
tp1089
a(Vgiven
VVBN
tp1090
a(Vinto
VIN
tp1091
a(Vthe
VDT
tp1092
a(Vdiscussions
VNNS
tp1093
a(V-
V:
tp1094
a(Vhe
VPRP
tp1095
a(Vhad
VVBD
tp1096
a(Vno
VDT
tp1097
a(Vroom
VNN
tp1098
a(Vfor
VIN
tp1099
a(Vmanoeuvre
VNN
tp1100
a(V.
V.
tp1101
aa(lp1102
(VThis
VDT
tp1103
a(Vresolution
VNN
tp1104
a(Vmentions
VVBZ
tp1105
a(VJews
VNNPS
tp1106
a(Vin
VIN
tp1107
a(Vparticular
VJJ
tp1108
a(Vas
VIN
tp1109
a(Vthose
VDT
tp1110
a(Vwho
VWP
tp1111
a(Vsuffered
VVBD
tp1112
a(Vworst
VJJS
tp1113
a(Vfrom
VIN
tp1114
a(Vthe
VDT
tp1115
a(VNazi
VJJ
tp1116
a(Vatrocities
VNNS
tp1117
a(V.
V.
tp1118
aa(lp1119
(VWe
VPRP
tp1120
a(Vstand
VVBP
tp1121
a(Vbeside
VIN
tp1122
a(Vthem
VPRP
tp1123
a(Vat
VIN
tp1124
a(Vthis
VDT
tp1125
a(Vextremely
VRB
tp1126
a(Vhard
VJJ
tp1127
a(Vand
VCC
tp1128
a(Vdifficult
VJJ
tp1129
a(Vtime
VNN
tp1130
a(V.
V.
tp1131
aa(lp1132
(VSocial
VNNP
tp1133
a(V,
V,
tp1134
a(Vpolitical
VJJ
tp1135
a(Vand
VCC
tp1136
a(Vreligious
VJJ
tp1137
a(Vtaboos
VNNS
tp1138
a(Vhave
VVBP
tp1139
a(Vno
VDT
tp1140
a(Vplace
VNN
tp1141
a(Vhere
VRB
tp1142
a(V.
V.
tp1143
aa(lp1144
(VFor
VIN
tp1145
a(Vus
VPRP
tp1146
a(Vwe
VPRP
tp1147
a(Vthink
VVBP
tp1148
a(Vit
VPRP
tp1149
a(Vis
VVBZ
tp1150
a(Vimportant
VJJ
tp1151
a(Vto
VTO
tp1152
a(Vhave
VVB
tp1153
a(Vcomprehensive
VJJ
tp1154
a(Vlegislation
VNN
tp1155
a(V.
V.
tp1156
aa(lp1157
(VThe
VDT
tp1158
a(VUK
VNNP
tp1159
a(Vshould
VMD
tp1160
a(Vnot
VRB
tp1161
a(Vstand
VVB
tp1162
a(Vback
VRB
tp1163
a(Vto
VTO
tp1164
a(Vthe
VDT
tp1165
a(Vwall
VNN
tp1166
a(Vwhile
VIN
tp1167
a(Vothers
VNNS
tp1168
a(Vtake
VVBP
tp1169
a(Vto
VTO
tp1170
a(Vthe
VDT
tp1171
a(Vfloor
VNN
tp1172
a(V.
V.
tp1173
aa(lp1174
(VWhen
VWRB
tp1175
a(Vwe
VPRP
tp1176
a(Vcan
VMD
tp1177
a(Vdo
VVB
tp1178
a(Vthat
VDT
tp1179
a(Vthen
VRB
tp1180
a(Vwe
VPRP
tp1181
a(Vwill
VMD
tp1182
a(Vhave
VVB
tp1183
a(Vachieved
VVBN
tp1184
a(Va
VDT
tp1185
a(Vtrue
VJJ
tp1186
a(Vrelationship
VNN
tp1187
a(Vof
VIN
tp1188
a(Vequals
VVBZ
tp1189
a(V.
V.
tp1190
aa(lp1191
(VIn
VIN
tp1192
a(Vother
VJJ
tp1193
a(Vwords
VNNS
tp1194
a(V,
V,
tp1195
a(Vwe
VPRP
tp1196
a(Vare
VVBP
tp1197
a(Vrobbing
VVBG
tp1198
a(VPeter
VNNP
tp1199
a(Vto
VTO
tp1200
a(Vpay
VVB
tp1201
a(VPaul
VNNP
tp1202
a(V!
V.
tp1203
aa(lp1204
(VThis
VDT
tp1205
a(Vis
VVBZ
tp1206
a(Vnot
VRB
tp1207
a(Va
VDT
tp1208
a(Vtime
VNN
tp1209
a(Vfor
VIN
tp1210
a(Vrecrimination
VNN
tp1211
a(Vor
VCC
tp1212
a(Vfinger-pointing
VJJ
tp1213
a(V.
V.
tp1214
aa(lp1215
(VThe
VDT
tp1216
a(Vonly
VJJ
tp1217
a(Vacceptable
VJJ
tp1218
a(Vexperiments
VNNS
tp1219
a(Vare
VVBP
tp1220
a(Vthose
VDT
tp1221
a(Vwhose
VWP$
tp1222
a(Vobjective
VNN
tp1223
a(Vis
VVBZ
tp1224
a(Vto
VTO
tp1225
a(Vprotect
VVB
tp1226
a(Vthe
VDT
tp1227
a(Vhealth
VNN
tp1228
a(Vof
VIN
tp1229
a(Veither
VCC
tp1230
a(Vthe
VDT
tp1231
a(Vunborn
VJJ
tp1232
a(Vchild
VNN
tp1233
a(Vor
VCC
tp1234
a(Vthe
VDT
tp1235
a(Vmother
VNN
tp1236
a(Vor
VCC
tp1237
a(Vboth
VCC
tp1238
a(V,
V,
tp1239
a(Vwithout
VIN
tp1240
a(Vprejudice
VNN
tp1241
a(Vto
VTO
tp1242
a(Vthe
VDT
tp1243
a(Vwoman
VNN
tp1244
a(V&apos;s
VNNS
tp1245
a(Vright
VJJ
tp1246
a(Vto
VTO
tp1247
a(Vdecide
VVB
tp1248
a(V.
V.
tp1249
aa(lp1250
(VThat
VDT
tp1251
a(Vis
VVBZ
tp1252
a(Vwhy
VWRB
tp1253
a(Vthe
VDT
tp1254
a(Vapplication
VNN
tp1255
a(Vof
VIN
tp1256
a(Vthe
VDT
tp1257
a(Vdirective
VNN
tp1258
a(Vwill
VMD
tp1259
a(Valso
VRB
tp1260
a(Vrequire
VVB
tp1261
a(Vspecial
VJJ
tp1262
a(Vattention
VNN
tp1263
a(V.
V.
tp1264
aa(lp1265
(Vand
VCC
tp1266
a(Vthe
VDT
tp1267
a(VCommission
VNNP
tp1268
a(V&apos;
VNN
tp1269
a(Vs
VVBZ
tp1270
a(Vstatement
VNN
tp1271
a(Von
VIN
tp1272
a(Vthe
VDT
tp1273
a(Vsituation
VNN
tp1274
a(Vin
VIN
tp1275
a(VKosovo
VNNP
tp1276
a(V.
V.
tp1277
aa(lp1278
(VNatura
VNNP
tp1279
a(V2000
VCD
tp1280
a(V,
V,
tp1281
a(Vhowever
VRB
tp1282
a(V,
V,
tp1283
a(Vhas
VVBZ
tp1284
a(Va
VDT
tp1285
a(Vcost
VNN
tp1286
a(Vthat
VWDT
tp1287
a(Vhas
VVBZ
tp1288
a(Vnot
VRB
tp1289
a(Vso
VRB
tp1290
a(Vfar
VRB
tp1291
a(Vbeen
VVBN
tp1292
a(Vcalculated
VVBN
tp1293
a(Vprecisely
VRB
tp1294
a(V.
V.
tp1295
aa(lp1296
(VOne
VCD
tp1297
a(Vexample
VNN
tp1298
a(Vis
VVBZ
tp1299
a(VDeutsche
VNNP
tp1300
a(VPost
VNNP
tp1301
a(V,
V,
tp1302
a(Vwhich
VWDT
tp1303
a(Vuses
VVBZ
tp1304
a(Vits
VPRP$
tp1305
a(Vmonopolist
VNN
tp1306
a(V&apos;s
VNNS
tp1307
a(Vprofit
VNN
tp1308
a(Vin
VIN
tp1309
a(Vthe
VDT
tp1310
a(Vpostal
VJJ
tp1311
a(Vservices
VNNS
tp1312
a(Vsector
VNN
tp1313
a(Vto
VTO
tp1314
a(Vovercome
VVB
tp1315
a(Vcompetition
VNN
tp1316
a(Vthrough
VIN
tp1317
a(Vtake-overs
VNNS
tp1318
a(Vtoo
VRB
tp1319
a(V,
V,
tp1320
a(Vas
VIN
tp1321
a(Vhappened
VVBN
tp1322
a(Vin
VIN
tp1323
a(Vthe
VDT
tp1324
a(Vcase
VNN
tp1325
a(Vof
VIN
tp1326
a(VDHL
VNNP
tp1327
a(VInternational
VNNP
tp1328
a(V,
V,
tp1329
a(Vwhich
VWDT
tp1330
a(VDeutsche
VNNP
tp1331
a(VPost
VNNP
tp1332
a(Vacquired
VVBD
tp1333
a(V,
V,
tp1334
a(Vexploiting
VVBG
tp1335
a(Vits
VPRP$
tp1336
a(Vmonopolist
VNN
tp1337
a(V&apos;s
VNNS
tp1338
a(Vprofit
VNN
tp1339
a(Vto
VTO
tp1340
a(Vknock
VVB
tp1341
a(Va
VDT
tp1342
a(Vcompetitor
VNN
tp1343
a(Vout
VIN
tp1344
a(Vof
VIN
tp1345
a(Vthe
VDT
tp1346
a(Vmarket
VNN
tp1347
a(V.
V.
tp1348
aa(lp1349
(VWe
VPRP
tp1350
a(Vare
VVBP
tp1351
a(Vdefinitely
VRB
tp1352
a(Vlagging
VVBG
tp1353
a(Vsomewhat
VRB
tp1354
a(Vbehind
VRB
tp1355
a(V.
V.
tp1356
aa(lp1357
(VI
VPRP
tp1358
a(Vshall
VMD
tp1359
a(Vnow
VRB
tp1360
a(Vturn
VVB
tp1361
a(Vto
VTO
tp1362
a(Vtransatlantic
VNN
tp1363
a(Vrelations
VNNS
tp1364
a(V.
V.
tp1365
aa(lp1366
(VIntellectual
VNNP
tp1367
a(Vproperty
VNN
tp1368
a(Vis
VVBZ
tp1369
a(Va
VDT
tp1370
a(Vprecious
VJJ
tp1371
a(Vasset
VNN
tp1372
a(V.
V.
tp1373
aa(lp1374
(VSince
VIN
tp1375
a(Vdialogue
VNN
tp1376
a(Vis
VVBZ
tp1377
a(Vnot
VRB
tp1378
a(Va
VDT
tp1379
a(Vgoal
VNN
tp1380
a(Vin
VIN
tp1381
a(Vitself
VPRP
tp1382
a(V,
V,
tp1383
a(Vit
VPRP
tp1384
a(Vis
VVBZ
tp1385
a(Vonly
VRB
tp1386
a(Vmeaningful
VJJ
tp1387
a(Vif
VIN
tp1388
a(Vit
VPRP
tp1389
a(Vmakes
VVBZ
tp1390
a(Va
VDT
tp1391
a(Vgood
VJJ
tp1392
a(Vcontribution
VNN
tp1393
a(Vto
VTO
tp1394
a(Vimproving
VVBG
tp1395
a(Vthe
VDT
tp1396
a(Vhuman
VJJ
tp1397
a(Vrights
VNNS
tp1398
a(Vsituation
VNN
tp1399
a(Vin
VIN
tp1400
a(VChina
VNNP
tp1401
a(V.
V.
tp1402
aa(lp1403
(VThe
VDT
tp1404
a(VYanacocha
VNNP
tp1405
a(Vgold
VNN
tp1406
a(Vmine
VNN
tp1407
a(Vin
VIN
tp1408
a(VPeru
VNNP
tp1409
a(Vis
VVBZ
tp1410
a(Vthe
VDT
tp1411
a(Vprototype
VNN
tp1412
a(Vtoxic
VJJ
tp1413
a(Vtragedy
VNN
tp1414
a(V.
V.
tp1415
aa(lp1416
(VBank
VNNP
tp1417
a(Vcharges
VNNS
tp1418
aa(lp1419
(VMr
VNNP
tp1420
a(VPresident
VNNP
tp1421
a(V,
V,
tp1422
a(Vone
VCD
tp1423
a(Vof
VIN
tp1424
a(Vthe
VDT
tp1425
a(Vfactors
VNNS
tp1426
a(Vthat
VWDT
tp1427
a(Vis
VVBZ
tp1428
a(Voften
VRB
tp1429
a(Voverlooked
VVBN
tp1430
a(Vin
VIN
tp1431
a(Vany
VDT
tp1432
a(Vdebate
VNN
tp1433
a(Von
VIN
tp1434
a(Vmigration
VNN
tp1435
a(Vis
VVBZ
tp1436
a(Vthat
VIN
tp1437
a(Vquite
VRB
tp1438
a(Voften
VRB
tp1439
a(Vit
VPRP
tp1440
a(Vis
VVBZ
tp1441
a(Vvery
VRB
tp1442
a(Vdifficult
VJJ
tp1443
a(Vfor
VIN
tp1444
a(Vthose
VDT
tp1445
a(Vwho
VWP
tp1446
a(Vmigrate
VVBP
tp1447
a(Vfrom
VIN
tp1448
a(Vone
VCD
tp1449
a(Vcountry
VNN
tp1450
a(Vto
VTO
tp1451
a(Vanother
VDT
tp1452
a(V,
V,
tp1453
a(Vand
VCC
tp1454
a(Vthey
VPRP
tp1455
a(Vdo
VVBP
tp1456
a(Vso
VRB
tp1457
a(Vunder
VIN
tp1458
a(Vthe
VDT
tp1459
a(Vmost
VRBS
tp1460
a(Vdifficult
VJJ
tp1461
a(Vof
VIN
tp1462
a(Vcircumstances
VNNS
tp1463
a(V.
V.
tp1464
aa(lp1465
(VEnd
VNN
tp1466
a(Vof
VIN
tp1467
a(Vquote
VNN
tp1468
a(V.
V.
tp1469
aa(lp1470
(VIt
VPRP
tp1471
a(Vwill
VMD
tp1472
a(Vbe
VVB
tp1473
a(Vthe
VDT
tp1474
a(Vfirst
VJJ
tp1475
a(Vtime
VNN
tp1476
a(Vthat
VIN
tp1477
a(Vthis
VDT
tp1478
a(Vhas
VVBZ
tp1479
a(Vhappened
VVBN
tp1480
a(Vin
VIN
tp1481
a(V50
VCD
tp1482
a(Vyears
VNNS
tp1483
a(V.
V.
tp1484
aa(lp1485
(VWith
VIN
tp1486
a(Vthis
VDT
tp1487
a(Vin
VIN
tp1488
a(Vmind
VNN
tp1489
a(V,
V,
tp1490
a(Vsome
VDT
tp1491
a(Vhave
VVBP
tp1492
a(Vmockingly
VRB
tp1493
a(Valluded
VVBN
tp1494
a(Vto
VTO
tp1495
a(Vthe
VDT
tp1496
a(VSoviet
VJJ
tp1497
a(Vleader
VNN
tp1498
a(VNikita
VNNP
tp1499
a(VKhrushchev
VNNP
tp1500
a(V\u2019
VCD
tp1501
a(Vs
VNNS
tp1502
a(Vpromise
VVBP
tp1503
a(Vto
VTO
tp1504
a(Vovertake
VVB
tp1505
a(VAmerica
VNNP
tp1506
a(Vin
VIN
tp1507
a(Vten
VCD
tp1508
a(Vyears
VNNS
tp1509
a(V,
V,
tp1510
a(Vwhich
VWDT
tp1511
a(Vended
VVBD
tp1512
a(Vin
VIN
tp1513
a(Vhis
VPRP$
tp1514
a(Vcountry
VNN
tp1515
a(Vfalling
VVBG
tp1516
a(Veven
VRB
tp1517
a(Vfurther
VRBR
tp1518
a(Vbehind
VRB
tp1519
a(V.
V.
tp1520
aa(lp1521
(VWe
VPRP
tp1522
a(Vhave
VVBP
tp1523
a(Va
VDT
tp1524
a(Vlong
VJJ
tp1525
a(Vway
VNN
tp1526
a(Vto
VTO
tp1527
a(Vgo
VVB
tp1528
a(V.
V.
tp1529
aa(lp1530
(VTo
VTO
tp1531
a(Vdate
VNN
tp1532
a(V,
V,
tp1533
a(Vcounterfeit
VNN
tp1534
a(Vproducts
VNNS
tp1535
a(Vhave
VVBP
tp1536
a(Vmainly
VRB
tp1537
a(Vcome
VVBN
tp1538
a(Vunder
VIN
tp1539
a(Vthe
VDT
tp1540
a(Vheading
VVBG
tp1541
a(Vof
VIN
tp1542
a(V&apos;
VJJ
tp1543
a(Vlife-style
VNN
tp1544
a(V&apos;
VNN
tp1545
a(Vdrugs
VNNS
tp1546
a(V,
V,
tp1547
a(Vwhereas
VIN
tp1548
a(Vthere
VEX
tp1549
a(Vis
VVBZ
tp1550
a(Vcurrently
VRB
tp1551
a(Va
VDT
tp1552
a(Vdramatic
VJJ
tp1553
a(Vincrease
VNN
tp1554
a(Vin
VIN
tp1555
a(Vthe
VDT
tp1556
a(Vnumber
VNN
tp1557
a(Vof
VIN
tp1558
a(Vcounterfeit
VNN
tp1559
a(Vlife-saving
VJJ
tp1560
a(Vmedicines
VNNS
tp1561
a(V.
V.
tp1562
aa(lp1563
(VI
VPRP
tp1564
a(Vthink
VVBP
tp1565
a(Vit
VPRP
tp1566
a(Vis
VVBZ
tp1567
a(Vsomething
VNN
tp1568
a(Vwhich
VWDT
tp1569
a(Vwill
VMD
tp1570
a(Vhelp
VVB
tp1571
a(Vcreate
VVB
tp1572
a(Vgreater
VJJR
tp1573
a(Vopenness
VNN
tp1574
a(Vabout
VIN
tp1575
a(Vthe
VDT
tp1576
a(VCommission
VNNP
tp1577
a(V&apos;
VNN
tp1578
a(Vs
VVBZ
tp1579
a(Vwork
VNN
tp1580
a(V.
V.
tp1581
aa(lp1582
(VTravelling
VVBG
tp1583
a(Vthrough
VIN
tp1584
a(Vparts
VNNS
tp1585
a(Vof
VIN
tp1586
a(VAmerica
VNNP
tp1587
a(V-
V:
tp1588
a(Vespecially
VRB
tp1589
a(Von
VIN
tp1590
a(Vthe
VDT
tp1591
a(Vwest
VNN
tp1592
a(Vcoast
VNN
tp1593
a(V-
V:
tp1594
a(Vthere
VEX
tp1595
a(Vseems
VVBZ
tp1596
a(Vto
VTO
tp1597
a(Vbe
VVB
tp1598
a(Vnothing
VNN
tp1599
a(Vbut
VCC
tp1600
a(Vfast-food
VNN
tp1601
a(Vchains
VNNS
tp1602
a(V,
V,
tp1603
a(Vand
VCC
tp1604
a(Vthat
VDT
tp1605
a(Vis
VVBZ
tp1606
a(Vthe
VDT
tp1607
a(Vlast
VJJ
tp1608
a(Vthing
VNN
tp1609
a(Vwe
VPRP
tp1610
a(Vwant
VVBP
tp1611
a(Vhere
VRB
tp1612
a(Vin
VIN
tp1613
a(Vthe
VDT
tp1614
a(VEuropean
VNNP
tp1615
a(VUnion
VNNP
tp1616
a(V.
V.
tp1617
aa(lp1618
(VAt
VIN
tp1619
a(Vthe
VDT
tp1620
a(Vmoment
VNN
tp1621
a(Vwe
VPRP
tp1622
a(Vare
VVBP
tp1623
a(Vtalking
VVBG
tp1624
a(Vabout
VIN
tp1625
a(Vtendencies
VNNS
tp1626
a(V.
V.
tp1627
aa(lp1628
(VIn
VIN
tp1629
a(Vshort
VJJ
tp1630
a(V,
V,
tp1631
a(Vthey
VPRP
tp1632
a(Vmust
VMD
tp1633
a(Vgain
VVB
tp1634
a(Vthat
VIN
tp1635
a(Vability
VNN
tp1636
a(Vto
VTO
tp1637
a(Vadapt
VVB
tp1638
a(Vand
VCC
tp1639
a(Vthat
VIN
tp1640
a(Vspeed
VNN
tp1641
a(Vin
VIN
tp1642
a(Vcultural
VJJ
tp1643
a(Vexchange
VNN
tp1644
a(V,
V,
tp1645
a(Vtraining
VNN
tp1646
a(Vand
VCC
tp1647
a(Vprofessional
VJJ
tp1648
a(Vexperience
VNN
tp1649
a(Vwhich
VWDT
tp1650
a(Vare
VVBP
tp1651
a(Vincreasingly
VRB
tp1652
a(Vnecessary
VJJ
tp1653
a(Velements
VNNS
tp1654
a(Vin
VIN
tp1655
a(Vthe
VDT
tp1656
a(Vsociety
VNN
tp1657
a(Vof
VIN
tp1658
a(Vthe
VDT
tp1659
a(Vnext
VJJ
tp1660
a(Vmillennium
VJJ
tp1661
a(V.
V.
tp1662
aa(lp1663
(VOne
VCD
tp1664
a(Vis
VVBZ
tp1665
a(Vclose
VJJ
tp1666
a(Vto
VTO
tp1667
a(Vhome
VNN
tp1668
a(V,
V,
tp1669
a(Vnamely
VRB
tp1670
a(VTurkey
VNNP
tp1671
a(V,
V,
tp1672
a(Vwhere
VWRB
tp1673
a(VSyrian
VJJ
tp1674
a(VChristians
VNNS
tp1675
a(Vare
VVBP
tp1676
a(Vstill
VRB
tp1677
a(Vbeing
VVBG
tp1678
a(Vput
VVBN
tp1679
a(Vbehind
VIN
tp1680
a(Vbars
VNNS
tp1681
a(Vif
VIN
tp1682
a(Vthey
VPRP
tp1683
a(Vactively
VRB
tp1684
a(Vprofess
VVBP
tp1685
a(Vtheir
VPRP$
tp1686
a(Vreligion
VNN
tp1687
a(V.
V.
tp1688
aa(lp1689
(VTen
VCD
tp1690
a(Vyears
VNNS
tp1691
a(Vis
VVBZ
tp1692
a(Va
VDT
tp1693
a(Vlong
VJJ
tp1694
a(Vtime
VNN
tp1695
a(Vin
VIN
tp1696
a(Vany
VDT
tp1697
a(Vbusiness
VNN
tp1698
a(Vcycle
VNN
tp1699
a(Vto
VTO
tp1700
a(Vbe
VVB
tp1701
a(Vable
VJJ
tp1702
a(Vto
VTO
tp1703
a(Vprepare
VVB
tp1704
a(Vand
VCC
tp1705
a(Vinvest
VVB
tp1706
a(V.
V.
tp1707
aa(lp1708
(VFrom
VIN
tp1709
a(Vnext
VJJ
tp1710
a(Vyear
VNN
tp1711
a(Vthe
VDT
tp1712
a(Vnames
VNNS
tp1713
a(Vof
VIN
tp1714
a(Vthe
VDT
tp1715
a(Vadvisers
VNNS
tp1716
a(Vcan
VMD
tp1717
a(Vbe
VVB
tp1718
a(Vfound
VVBN
tp1719
a(Von
VIN
tp1720
a(Vthe
VDT
tp1721
a(Vnet
VNN
tp1722
a(Vas
VRB
tp1723
a(Vwell
VRB
tp1724
a(V.
V.
tp1725
aa(lp1726
(VI
VPRP
tp1727
a(Vcall
VVBP
tp1728
a(Von
VIN
tp1729
a(Vmy
VPRP$
tp1730
a(Vfellow
VJJ
tp1731
a(VMembers
VNNS
tp1732
a(Vto
VTO
tp1733
a(Vcontinue
VVB
tp1734
a(Vto
VTO
tp1735
a(Vfocus
VVB
tp1736
a(Von
VIN
tp1737
a(Vthe
VDT
tp1738
a(Vrole
VNN
tp1739
a(Vof
VIN
tp1740
a(Vwomen
VNNS
tp1741
a(Vin
VIN
tp1742
a(VTurkey
VNNP
tp1743
a(V.
V.
tp1744
aa(lp1745
(VThe
VDT
tp1746
a(Veuro
VNN
tp1747
a(Varea
VNN
tp1748
a(Vhas
VVBZ
tp1749
a(Va
VDT
tp1750
a(Vsingle
VJJ
tp1751
a(Vmonetary
VJJ
tp1752
a(Vpolicy
VNN
tp1753
a(V,
V,
tp1754
a(Vbut
VCC
tp1755
a(Veach
VDT
tp1756
a(Vof
VIN
tp1757
a(Vits
VPRP$
tp1758
a(Vsixteen
VCD
tp1759
a(Vcountries
VNNS
tp1760
a(Vhas
VVBZ
tp1761
a(Vits
VPRP$
tp1762
a(Vown
VJJ
tp1763
a(Veconomic
VJJ
tp1764
a(Vpolicy
VNN
tp1765
a(V.
V.
tp1766
aa(lp1767
(VThus
VRB
tp1768
a(V,
V,
tp1769
a(Vthe
VDT
tp1770
a(Vbirth
VNN
tp1771
a(Vrate
VNN
tp1772
a(Vthroughout
VIN
tp1773
a(Vthe
VDT
tp1774
a(VEU
VNNP
tp1775
a(Vis
VVBZ
tp1776
a(Vcurrently
VRB
tp1777
a(V1.5
VCD
tp1778
a(Vchildren
VNNS
tp1779
a(Vper
VIN
tp1780
a(Vwoman
VNN
tp1781
a(V.
V.
tp1782
a(VThis
VDT
tp1783
a(Vis
VVBZ
tp1784
a(Vsomething
VNN
tp1785
a(Vthat
VIN
tp1786
a(Vwe
VPRP
tp1787
a(Vmust
VMD
tp1788
a(Vpay
VVB
tp1789
a(Vdue
VJJ
tp1790
a(Vattention
VNN
tp1791
a(Vto
VTO
tp1792
a(Vin
VIN
tp1793
a(Vour
VPRP$
tp1794
a(Vpolicies
VNNS
tp1795
a(V.
V.
tp1796
aa(lp1797
(VThe
VDT
tp1798
a(Vfinancial
VJJ
tp1799
a(Vcrisis
VNN
tp1800
a(Vdealt
VVBD
tp1801
a(VLithuania
VNNP
tp1802
a(Va
VDT
tp1803
a(Vparticularly
VRB
tp1804
a(Vsevere
VJJ
tp1805
a(Vblow
VNN
tp1806
a(V-
V:
tp1807
a(Vin
VIN
tp1808
a(V2009
VCD
tp1809
a(V,
V,
tp1810
a(Vour
VPRP$
tp1811
a(Veconomy
VNN
tp1812
a(Vshrank
VVBD
tp1813
a(Vby
VIN
tp1814
a(V15
VCD
tp1815
a(V%
VNN
tp1816
a(V.
V.
tp1817
aa(lp1818
(VBut
VCC
tp1819
a(Vthere
VEX
tp1820
a(Vwas
VVBD
tp1821
a(Va
VDT
tp1822
a(Vtime
VNN
tp1823
a(Vwhen
VWRB
tp1824
a(Vthe
VDT
tp1825
a(Vlion
VNN
tp1826
a(Vand
VCC
tp1827
a(Vthe
VDT
tp1828
a(Vlamb
VNN
tp1829
a(Vdid
VVBD
tp1830
a(Vlive
VVB
tp1831
a(Vtogether
VRB
tp1832
a(V.
V.
tp1833
aa(lp1834
(VWe
VPRP
tp1835
a(Vdo
VVBP
tp1836
a(Vnot
VRB
tp1837
a(Vknow
VVB
tp1838
a(Vhow
VWRB
tp1839
a(Vmany
VJJ
tp1840
a(Vleft
VVBD
tp1841
a(VAfrica
VNNP
tp1842
a(V.
V.
tp1843
aa(lp1844
(VAs
VIN
tp1845
a(Vthe
VDT
tp1846
a(Vmurder
VNN
tp1847
a(Vof
VIN
tp1848
a(VMagomed
VNNP
tp1849
a(VYevloyev
VNNP
tp1850
a(V-
V:
tp1851
a(Vwho
VWP
tp1852
a(Vwas
VVBD
tp1853
a(Vkilled
VVBN
tp1854
a(Vwhile
VIN
tp1855
a(Vin
VIN
tp1856
a(Vpolice
VNN
tp1857
a(Vcustody
VNN
tp1858
a(Vat
VIN
tp1859
a(Vthe
VDT
tp1860
a(Vend
VNN
tp1861
a(Vof
VIN
tp1862
a(VAugust
VNNP
tp1863
a(V-
V:
tp1864
a(Vreminds
VVBZ
tp1865
a(Vus
VPRP
tp1866
a(V,
V,
tp1867
a(Vin
VIN
tp1868
a(VRussia
VNNP
tp1869
a(V,
V,
tp1870
a(Vjournalism
VNN
tp1871
a(Vis
VVBZ
tp1872
a(Vbecoming
VVBG
tp1873
a(Van
VDT
tp1874
a(Vincreasingly
VRB
tp1875
a(Vdangerous
VJJ
tp1876
a(Vprofession
VNN
tp1877
a(V.
V.
tp1878
aa(lp1879
(VPoverty
VNN
tp1880
a(Vprevents
VVBZ
tp1881
a(Vboth
VDT
tp1882
a(Vchildren
VNNS
tp1883
a(Vand
VCC
tp1884
a(Vadults
VNNS
tp1885
a(Vfrom
VIN
tp1886
a(Vgoing
VVBG
tp1887
a(Vto
VTO
tp1888
a(Vschool
VNN
tp1889
a(V.
V.
tp1890
aa(lp1891
(VYou
VPRP
tp1892
a(Vhave
VVBP
tp1893
a(Vnot
VRB
tp1894
a(Vallowed
VVBN
tp1895
a(Vregulations
VNNS
tp1896
a(Vto
VTO
tp1897
a(Vbe
VVB
tp1898
a(Vimposed
VVBN
tp1899
a(Vwhen
VWRB
tp1900
a(Vthey
VPRP
tp1901
a(Vwere
VVBD
tp1902
a(Vneeded
VVBN
tp1903
a(V.
V.
tp1904
aa(lp1905
(VHe
VPRP
tp1906
a(Vknew
VVBD
tp1907
a(Vthe
VDT
tp1908
a(Vrisks
VNNS
tp1909
a(Vof
VIN
tp1910
a(Vpublicly
VRB
tp1911
a(Vdefending
VVBG
tp1912
a(Vgays
VNNS
tp1913
a(V.
V.
tp1914
aa(lp1915
(VInstead
VRB
tp1916
a(Vof
VIN
tp1917
a(Vrewarding
VVBG
tp1918
a(Vhim
VPRP
tp1919
a(Vand
VCC
tp1920
a(Vtreating
VVBG
tp1921
a(Vhim
VPRP
tp1922
a(Vwith
VIN
tp1923
a(Vrespect
VNN
tp1924
a(V,
V,
tp1925
a(VChina
VNNP
tp1926
a(Vhas
VVBZ
tp1927
a(Vlocked
VVBN
tp1928
a(Vhim
VPRP
tp1929
a(Vup
VRP
tp1930
a(Vin
VIN
tp1931
a(Vprison
VNN
tp1932
a(V.
V.
tp1933
aa(lp1934
(VOur
VPRP$
tp1935
a(VPPE-DE
VNN
tp1936
a(V-
V:
tp1937
a(Vboth
VCC
tp1938
a(Vgroup
VNN
tp1939
a(Vand
VCC
tp1940
a(Vparty
VNN
tp1941
a(V-
V:
tp1942
a(Vhave
VVBP
tp1943
a(Vstood
VVBN
tp1944
a(Vfor
VIN
tp1945
a(Vthose
VDT
tp1946
a(Videas
VNNS
tp1947
a(Vsince
VIN
tp1948
a(Vthe
VDT
tp1949
a(V70s
VCD
tp1950
a(Vand
VCC
tp1951
a(V80s
VCD
tp1952
a(V.
V.
tp1953
aa(lp1954
(VAs
VIN
tp1955
a(Vthe
VDT
tp1956
a(Vsecond
VJJ
tp1957
a(Vtrading
VNN
tp1958
a(Vpartner
VNN
tp1959
a(Vfor
VIN
tp1960
a(Vthe
VDT
tp1961
a(Vregion
VNN
tp1962
a(V,
V,
tp1963
a(VEurope
VNNP
tp1964
a(Vleads
VVBZ
tp1965
a(Vthe
VDT
tp1966
a(Vfield
VNN
tp1967
a(Vin
VIN
tp1968
a(Vinvestment
VNN
tp1969
a(V,
V,
tp1970
a(Vwhich
VWDT
tp1971
a(Vis
VVBZ
tp1972
a(Vconsiderably
VRB
tp1973
a(Vhigher
VJJR
tp1974
a(Vthan
VIN
tp1975
a(Vinvestment
VNN
tp1976
a(Vby
VIN
tp1977
a(VChina
VNNP
tp1978
a(V.
V.
tp1979
aa(lp1980
(VAnd
VCC
tp1981
a(Vwhen
VWRB
tp1982
a(Vwe
VPRP
tp1983
a(Vfight
VVBP
tp1984
a(Vback
VRB
tp1985
a(V,
V,
tp1986
a(Vwe
VPRP
tp1987
a(Vwin
VVBP
tp1988
a(V.
V.
tp1989
aa(lp1990
(VI
VPRP
tp1991
a(Vfeel
VVBP
tp1992
a(Vthat
VIN
tp1993
a(Vthis
VDT
tp1994
a(Vis
VVBZ
tp1995
a(Vappropriate
VJJ
tp1996
a(Vin
VIN
tp1997
a(Vthose
VDT
tp1998
a(Vcountries
VNNS
tp1999
a(Vwhere
VWRB
tp2000
a(Vthe
VDT
tp2001
a(Vpractice
VNN
tp2002
a(Vhas
VVBZ
tp2003
a(Vdeveloped
VVBN
tp2004
a(Vbecause
VIN
tp2005
a(Vof
VIN
tp2006
a(Vthe
VDT
tp2007
a(VCatholic
VNNP
tp2008
a(Vtradition
VNN
tp2009
a(Vof
VIN
tp2010
a(Vhaving
VVBG
tp2011
a(Va
VDT
tp2012
a(Vcross
VNN
tp2013
a(Vin
VIN
tp2014
a(Vschools
VNNS
tp2015
a(V,
V,
tp2016
a(Vespecially
VRB
tp2017
a(Vin
VIN
tp2018
a(Vfaith
VNN
tp2019
a(Vschools
VNNS
tp2020
a(V.
V.
tp2021
aa(lp2022
(VThe
VDT
tp2023
a(VBronze
VNN
tp2024
a(VSoldier
VNN
tp2025
a(Vwas
VVBD
tp2026
a(Vjust
VRB
tp2027
a(Va
VDT
tp2028
a(Vpretext
VNN
tp2029
a(V.
V.
tp2030
aa(lp2031
(VIn
VIN
tp2032
a(Vour
VPRP$
tp2033
a(Vconclusion
VNN
tp2034
a(Vwe
VPRP
tp2035
a(Vdiscovered
VVBD
tp2036
a(Vthat
VIN
tp2037
a(Vthere
VEX
tp2038
a(Vis
VVBZ
tp2039
a(Vscepticism
VNN
tp2040
a(Vabout
VIN
tp2041
a(Vthe
VDT
tp2042
a(Vresult
VNN
tp2043
a(Vof
VIN
tp2044
a(Vthe
VDT
tp2045
a(Vpresidential
VJJ
tp2046
a(Velection
VNN
tp2047
a(V.
V.
tp2048
aa.