(lp1
(lp2
(VIt
VPRP
tp3
a(Vis
VVBZ
tp4
a(Va
VDT
tp5
a(Vhighly
VRB
tp6
a(Vdeveloped
VVBN
tp7
a(Vcountry
VNN
tp8
a(Vwhich
VWDT
tp9
a(Vacts
VVBZ
tp10
a(Vas
VIN
tp11
a(Va
VDT
tp12
a(Vmodel
VNN
tp13
a(Vfor
VIN
tp14
a(Vthe
VDT
tp15
a(Ventire
VJJ
tp16
a(Vregion
VNN
tp17
a(Vof
VIN
tp18
a(VSouth-East
VNNP
tp19
a(VAsia
VNNP
tp20
a(V.
V.
tp21
aa(lp22
(VYet
VCC
tp23
a(Vthere
VEX
tp24
a(Vare
VVBP
tp25
a(Venormous
VJJ
tp26
a(Vopportunities
VNNS
tp27
a(Vavailable
VJJ
tp28
a(Vto
VTO
tp29
a(Vus
VPRP
tp30
a(V.
V.
tp31
aa(lp32
(VYou
VPRP
tp33
a(Vhave
VVBP
tp34
a(Va
VDT
tp35
a(Vchoice
VNN
tp36
a(V.
V.
tp37
aa(lp38
(VI
VPRP
tp39
a(Vwould
VMD
tp40
a(Valso
VRB
tp41
a(Vlike
VVB
tp42
a(Vto
VTO
tp43
a(Vmention
VVB
tp44
a(Vthat
VIN
tp45
a(V,
V,
tp46
a(Vgiven
VVBN
tp47
a(Vthe
VDT
tp48
a(Vevents
VNNS
tp49
a(V,
V,
tp50
a(Vthere
VEX
tp51
a(Vis
VVBZ
tp52
a(Va
VDT
tp53
a(Vvery
VRB
tp54
a(Vserious
VJJ
tp55
a(Vrisk
VNN
tp56
a(Vof
VIN
tp57
a(Vregional
VJJ
tp58
a(Vdestabilisation
VNN
tp59
a(V.
V.
tp60
aa(lp61
(V(
VNN
tp62
a(VDE
VNN
tp63
a(V)
VCD
tp64
a(VMr
VNNP
tp65
a(VPresident
VNNP
tp66
a(V,
V,
tp67
a(Vladies
VNNS
tp68
a(Vand
VCC
tp69
a(Vgentlemen
VNNS
tp70
a(V,
V,
tp71
a(Vthe
VDT
tp72
a(VEuropean
VNNP
tp73
a(VParliament
VNNP
tp74
a(Vhas
VVBZ
tp75
a(Vcome
VVBN
tp76
a(Vout
VRP
tp77
a(Vwell
VRB
tp78
a(Vin
VIN
tp79
a(Vthese
VDT
tp80
a(Vnegotiations
VNNS
tp81
a(V.
V.
tp82
aa(lp83
(VLet
VVB
tp84
a(Va
VDT
tp85
a(Vshow
VNN
tp86
a(Va
VDT
tp87
a(Vgood
VJJ
tp88
a(Vexample
VNN
tp89
a(Vin
VIN
tp90
a(VBuenos
VNNP
tp91
a(VAires
VNNP
tp92
a(V.
V.
tp93
aa(lp94
(VDeveloping
VJJ
tp95
a(Vcountries
VNNS
tp96
a(Vare
VVBP
tp97
a(Vobviously
VRB
tp98
a(Vexperiencing
VVBG
tp99
a(Vdifficulties
VNNS
tp100
a(Vin
VIN
tp101
a(Vprotecting
VVBG
tp102
a(Vtheir
VPRP$
tp103
a(Vinterests
VNNS
tp104
a(Vwithin
VIN
tp105
a(Vthe
VDT
tp106
a(Vinternational
VJJ
tp107
a(Vcommunity
VNN
tp108
a(V.
V.
tp109
aa(lp110
(VThe
VDT
tp111
a(Vinfection
VNN
tp112
a(Vrates
VNNS
tp113
a(V,
V,
tp114
a(Vto
VTO
tp115
a(Vwhich
VWDT
tp116
a(Vprevious
VJJ
tp117
a(Vspeakers
VNNS
tp118
a(Vhave
VVBP
tp119
a(Vreferred
VVBN
tp120
a(V,
V,
tp121
a(Vspeak
VVB
tp122
a(Vfor
VIN
tp123
a(Vthemselves
VPRP
tp124
a(V.
V.
tp125
aa(lp126
(VShould
VMD
tp127
a(Vthe
VDT
tp128
a(Vuse
VNN
tp129
a(Vof
VIN
tp130
a(Vinsulin
VNN
tp131
a(Vhave
VVBP
tp132
a(Vbeen
VVBN
tp133
a(Vforbidden
VVBN
tp134
a(V75
VCD
tp135
a(Vyears
VNNS
tp136
a(Vago
VRB
tp137
a(V?
V.
tp138
aa(lp139
(VThe
VDT
tp140
a(Vcontent
VNN
tp141
a(Vof
VIN
tp142
a(Vthe
VDT
tp143
a(Vreservoir
VNN
tp144
a(Vis
VVBZ
tp145
a(Vno
VDT
tp146
a(Vless
VJJR
tp147
a(Vthan
VIN
tp148
a(VEUR
V$
tp149
a(V92
VCD
tp150
a(Vbillion
VCD
tp151
a(Vand
VCC
tp152
a(Vtherefore
VRB
tp153
a(Vapproximately
VRB
tp154
a(Vequivalent
VJJ
tp155
a(Vto
VTO
tp156
a(Vthe
VDT
tp157
a(Vwhole
VNN
tp158
a(Vof
VIN
tp159
a(Vthe
VDT
tp160
a(VEU
VNNP
tp161
a(Vbudget
VNN
tp162
a(Vfor
VIN
tp163
a(Va
VDT
tp164
a(Vyear
VNN
tp165
a(V.
V.
tp166
aa(lp167
(VSo
VRB
tp168
a(Vmuch
VRB
tp169
a(Vfor
VIN
tp170
a(Vthe
VDT
tp171
a(Vmilitary
VJJ
tp172
a(Vaspect
VNN
tp173
a(V.
V.
tp174
aa(lp175
(VJoint
VNNP
tp176
a(Vdecisions
VNNS
tp177
a(Vare
VVBP
tp178
a(Vtaken
VVBN
tp179
a(Vat
VIN
tp180
a(Vone
VCD
tp181
a(Vlevel
VNN
tp182
a(Vand
VCC
tp183
a(Vare
VVBP
tp184
a(Vthen
VRB
tp185
a(Vput
VVBN
tp186
a(Vinto
VIN
tp187
a(Veffect
VNN
tp188
a(Vby
VIN
tp189
a(Van
VDT
tp190
a(Vadministrative
VJJ
tp191
a(Vapparatus
VNN
tp192
a(Vwith
VIN
tp193
a(Voffshoots
VNNS
tp194
a(Vall
VDT
tp195
a(Varound
VIN
tp196
a(VEurope
VNNP
tp197
a(V.
V.
tp198
aa(lp199
(VMr
VNNP
tp200
a(VPresident
VNNP
tp201
a(V,
V,
tp202
a(VI
VPRP
tp203
a(Vcan
VMD
tp204
a(Vspeak
VVB
tp205
a(Vin
VIN
tp206
a(VSpanish
VNNP
tp207
a(V.
V.
tp208
aa(lp209
(VNonetheless
VRB
tp210
a(V,
V,
tp211
a(Vvoices
VNNS
tp212
a(Vare
VVBP
tp213
a(Vbeing
VVBG
tp214
a(Vraised
VVBN
tp215
a(Vquestioning
VVBG
tp216
a(Vthe
VDT
tp217
a(Vvalidity
VNN
tp218
a(Vof
VIN
tp219
a(Vthe
VDT
tp220
a(Vdocument
VNN
tp221
a(V.
V.
tp222
aa(lp223
(VThe
VDT
tp224
a(Vorchestrator
VNN
tp225
a(Vof
VIN
tp226
a(Vthis
VDT
tp227
a(Vstate
VNN
tp228
a(Vterrorism
VNN
tp229
a(Vis
VVBZ
tp230
a(Vthe
VDT
tp231
a(V77-year-old
VJJ
tp232
a(Vdictator
VNN
tp233
a(VRobert
VNNP
tp234
a(VMugabe
VNNP
tp235
a(V.
V.
tp236
aa(lp237
(VI
VPRP
tp238
a(Vsaw
VVBD
tp239
a(Vno
VDT
tp240
a(Vdisadvantages
VNNS
tp241
a(V.
V.
tp242
aa(lp243
(VWhen
VWRB
tp244
a(Vit
VPRP
tp245
a(Vcomes
VVBZ
tp246
a(Vto
VTO
tp247
a(Videas
VNNS
tp248
a(V,
V,
tp249
a(VI
VPRP
tp250
a(Vdo
VVBP
tp251
a(Vnot
VRB
tp252
a(Vfeel
VVB
tp253
a(Vtheir
VPRP$
tp254
a(Vhue
VNN
tp255
a(Vis
VVBZ
tp256
a(Vof
VIN
tp257
a(Vmuch
VJJ
tp258
a(Vconsequence
VNN
tp259
a(V.
V.
tp260
aa(lp261
(VToo
VRB
tp262
a(Vhigh
VJJ
tp263
a(V.
V.
tp264
aa(lp265
(VThe
VDT
tp266
a(Vproblem
VNN
tp267
a(Vwe
VPRP
tp268
a(Vface
VVBP
tp269
a(Vis
VVBZ
tp270
a(Vthat
VIN
tp271
a(Vthe
VDT
tp272
a(Vnew
VJJ
tp273
a(Vtoll
VNN
tp274
a(Vtechnology
VNN
tp275
a(Vthat
VIN
tp276
a(Vthe
VDT
tp277
a(VCommission
VNNP
tp278
a(Vfavours
VVBZ
tp279
a(V,
V,
tp280
a(Vand
VCC
tp281
a(Vwhich
VWDT
tp282
a(Vis
VVBZ
tp283
a(Vcurrently
VRB
tp284
a(Vbeing
VVBG
tp285
a(Vdeveloped
VVBN
tp286
a(Vonly
VRB
tp287
a(Vin
VIN
tp288
a(VGermany
VNNP
tp289
a(V,
V,
tp290
a(Vdoes
VVBZ
tp291
a(Vnot
VRB
tp292
a(Vyet
VRB
tp293
a(Vwork
VVB
tp294
a(V.
V.
tp295
aa(lp296
(VIn
VIN
tp297
a(Vconclusion
VNN
tp298
a(V,
V,
tp299
a(VI
VPRP
tp300
a(Vwould
VMD
tp301
a(Vlike
VVB
tp302
a(Vto
VTO
tp303
a(Vsay
VVB
tp304
a(Vthat
VIN
tp305
a(Vtrafficking
VNN
tp306
a(Vin
VIN
tp307
a(Vhuman
VJJ
tp308
a(Vbeings
VNNS
tp309
a(Valso
VRB
tp310
a(Voften
VRB
tp311
a(Voccurs
VVBZ
tp312
a(Vfor
VIN
tp313
a(Vthe
VDT
tp314
a(Vpurpose
VNN
tp315
a(Vof
VIN
tp316
a(Vorgan
VNN
tp317
a(Vharvesting
VNN
tp318
a(V.
V.
tp319
aa(lp320
(VI
VPRP
tp321
a(Valso
VRB
tp322
a(Vwant
VVBP
tp323
a(Vto
VTO
tp324
a(Vmention
VVB
tp325
a(Vthe
VDT
tp326
a(Vissue
VNN
tp327
a(Vof
VIN
tp328
a(Vmoral
VJJ
tp329
a(Vrights
VNNS
tp330
a(V.
V.
tp331
aa(lp332
(VDid
VVBD
tp333
a(Vyou
VPRP
tp334
a(Vknow
VVBP
tp335
a(Vthat
VIN
tp336
a(Vmany
VJJ
tp337
a(Vyears
VNNS
tp338
a(Vago
VIN
tp339
a(VNokia
VNNP
tp340
a(Vwas
VVBD
tp341
a(Va
VDT
tp342
a(Vwell-known
VJJ
tp343
a(Vmanufacturer
VNN
tp344
a(Vof
VIN
tp345
a(Vshoes
VNNS
tp346
a(Vand
VCC
tp347
a(Vboots
VNNS
tp348
a(V?
V.
tp349
aa(lp350
(VIt
VPRP
tp351
a(Vis
VVBZ
tp352
a(Vnot
VRB
tp353
a(Venough
VJJ
tp354
a(Vmerely
VRB
tp355
a(Vto
VTO
tp356
a(Vagree
VVB
tp357
a(Vthat
VIN
tp358
a(Vthe
VDT
tp359
a(VUSA
VNNP
tp360
a(V&apos;
VNN
tp361
a(Vs
VVBZ
tp362
a(Vposition
VNN
tp363
a(Vis
VVBZ
tp364
a(Vunacceptable
VJJ
tp365
a(V.
V.
tp366
aa(lp367
(VHalf
VNN
tp368
a(Vof
VIN
tp369
a(Vall
VPDT
tp370
a(Vthe
VDT
tp371
a(Vpatients
VNNS
tp372
a(Vadmitted
VVBD
tp373
a(Vto
VTO
tp374
a(Vthe
VDT
tp375
a(Vlargest
VJJS
tp376
a(Vhospital
VNN
tp377
a(Vin
VIN
tp378
a(VIreland
VNNP
tp379
a(V,
V,
tp380
a(VSt
VNNP
tp381
a(VJames
VNNP
tp382
a(V&apos;s
VNNP
tp383
a(VHospital
VNNP
tp384
a(V,
V,
tp385
a(Vare
VVBP
tp386
a(Vadmitted
VVBN
tp387
a(Vwith
VIN
tp388
a(Vsmoke-related
VJJ
tp389
a(Villnesses
VNNS
tp390
a(V.
V.
tp391
aa(lp392
(VParliament
VNNP
tp393
a(V&apos;s
VVBZ
tp394
a(Vduty
VNN
tp395
a(Vis
VVBZ
tp396
a(Vto
VTO
tp397
a(Vexert
VVB
tp398
a(Vmaximum
VJJ
tp399
a(Vpressure
VNN
tp400
a(Vin
VIN
tp401
a(Vthis
VDT
tp402
a(Vdirection
VNN
tp403
a(V,
V,
tp404
a(Vtaking
VVBG
tp405
a(Vaccount
VNN
tp406
a(Vof
VIN
tp407
a(Vthe
VDT
tp408
a(Vdegree
VNN
tp409
a(Vof
VIN
tp410
a(Vjudgement
VNN
tp411
a(Vopen
VJJ
tp412
a(Vto
VTO
tp413
a(Vit
VPRP
tp414
a(V,
V,
tp415
a(Vwhich
VWDT
tp416
a(V,
V,
tp417
a(Vfor
VIN
tp418
a(Vobjective
VJJ
tp419
a(Vreasons
VNNS
tp420
a(V,
V,
tp421
a(Vis
VVBZ
tp422
a(Vnot
VRB
tp423
a(Vavailable
VJJ
tp424
a(Vto
VTO
tp425
a(Vgovernments
VNNS
tp426
a(V.
V.
tp427
aa(lp428
(VHowever
VRB
tp429
a(V,
V,
tp430
a(Vit
VPRP
tp431
a(Vis
VVBZ
tp432
a(Valso
VRB
tp433
a(Vconnected
VVBN
tp434
a(Vwith
VIN
tp435
a(Vthe
VDT
tp436
a(Vsocial
VJJ
tp437
a(Vaspect
VNN
tp438
a(V,
V,
tp439
a(Veven
VRB
tp440
a(Vthough
VIN
tp441
a(Von
VIN
tp442
a(Vsome
VDT
tp443
a(Voccasions
VNNS
tp444
a(Vthis
VDT
tp445
a(Vmight
VMD
tp446
a(Vnot
VRB
tp447
a(Vappear
VVB
tp448
a(Vto
VTO
tp449
a(Vbe
VVB
tp450
a(Vthe
VDT
tp451
a(Vcase
VNN
tp452
a(V.
V.
tp453
aa(lp454
(VFord
VNNP
tp455
a(Vreport
VNN
tp456
aa(lp457
(VThere
VEX
tp458
a(Vare
VVBP
tp459
a(Vpeople
VNNS
tp460
a(Vwho
VWP
tp461
a(Vsuddenly
VRB
tp462
a(Vdiscover
VVBP
tp463
a(Vthings
VNNS
tp464
a(Vwhich
VWDT
tp465
a(Vhave
VVBP
tp466
a(Vbeen
VVBN
tp467
a(Vthere
VRB
tp468
a(Vall
VPDT
tp469
a(Vthe
VDT
tp470
a(Vtime
VNN
tp471
a(V.
V.
tp472
aa(lp473
(VIt
VPRP
tp474
a(Vwill
VMD
tp475
a(Vgive
VVB
tp476
a(Vstudents
VNNS
tp477
a(V,
V,
tp478
a(Vacademics
VNNS
tp479
a(Vand
VCC
tp480
a(Vuniversities
VNNS
tp481
a(Vincreased
VVBD
tp482
a(Vaccess
VNN
tp483
a(Vto
VTO
tp484
a(Vinformation
VNN
tp485
a(Vand
VCC
tp486
a(Vresearch
VNN
tp487
a(V.
V.
tp488
aa(lp489
(VThis
VDT
tp490
a(Vwill
VMD
tp491
a(Vbe
VVB
tp492
a(Va
VDT
tp493
a(Vdifficult
VJJ
tp494
a(Vpolicy
VNN
tp495
a(V.
V.
tp496
aa(lp497
(VIt
VPRP
tp498
a(Vis
VVBZ
tp499
a(Vcrucially
VRB
tp500
a(Vimportant
VJJ
tp501
a(Vthat
VIN
tp502
a(Vthe
VDT
tp503
a(VUnion
VNNP
tp504
a(Vhave
VVBP
tp505
a(Vthe
VDT
tp506
a(Vnecessary
VJJ
tp507
a(Vtools
VNNS
tp508
a(Vto
VTO
tp509
a(Vmanage
VVB
tp510
a(Vunstable
VJJ
tp511
a(Vareas
VNNS
tp512
a(V.
V.
tp513
aa(lp514
(VOur
VPRP$
tp515
a(Vobjective
VNN
tp516
a(Vis
VVBZ
tp517
a(Vto
VTO
tp518
a(Vincrease
VVB
tp519
a(Vthe
VDT
tp520
a(Vnumber
VNN
tp521
a(Vof
VIN
tp522
a(Vcross-border
VJJ
tp523
a(Vtenders
VNNS
tp524
a(V.
V.
tp525
aa(lp526
(VThe
VDT
tp527
a(Vwise
VJJ
tp528
a(Vapproach
VNN
tp529
a(Vwould
VMD
tp530
a(Vbe
VVB
tp531
a(Vnot
VRB
tp532
a(Vto
VTO
tp533
a(Vallow
VVB
tp534
a(Vglass
VNN
tp535
a(Vbottles
VNNS
tp536
a(Vin
VIN
tp537
a(Vthe
VDT
tp538
a(Vpassenger
VNN
tp539
a(Vcabin
VNN
tp540
a(V.
V.
tp541
aa(lp542
(VAdmittedly
VRB
tp543
a(V,
V,
tp544
a(Vsome
VDT
tp545
a(Vresults
VNNS
tp546
a(Vwere
VVBD
tp547
a(Vachieved
VVBN
tp548
a(V,
V,
tp549
a(Vbut
VCC
tp550
a(Vthese
VDT
tp551
a(Vare
VVBP
tp552
a(Vby
VIN
tp553
a(Vno
VDT
tp554
a(Vmeans
VNNS
tp555
a(Vsufficient
VJJ
tp556
a(Vto
VTO
tp557
a(Vreverse
VVB
tp558
a(Vthe
VDT
tp559
a(Vsigns
VNNS
tp560
a(Vof
VIN
tp561
a(Vunsustainability
VJJ
tp562
a(Vafflicting
VVBG
tp563
a(Vthe
VDT
tp564
a(Vplanet
VNN
tp565
a(V.
V.
tp566
aa(lp567
(VSo
VRB
tp568
a(V,
V,
tp569
a(Vis
VVBZ
tp570
a(Vthe
VDT
tp571
a(Vglass
VNN
tp572
a(Vhalf
VNN
tp573
a(Vempty
VJJ
tp574
a(Vor
VCC
tp575
a(Vhalf
VJJ
tp576
a(Vfull
VJJ
tp577
a(V?
V.
tp578
aa(lp579
(VWhen
VWRB
tp580
a(VI
VPRP
tp581
a(Vwas
VVBD
tp582
a(Vin
VIN
tp583
a(Vthe
VDT
tp584
a(Vjungle
VNN
tp585
a(V,
V,
tp586
a(VI
VPRP
tp587
a(Vhad
VVBD
tp588
a(Va
VDT
tp589
a(Vface
VNN
tp590
a(Vand
VCC
tp591
a(VI
VPRP
tp592
a(Vhad
VVBD
tp593
a(Va
VDT
tp594
a(Vname
VNN
tp595
a(V.
V.
tp596
aa(lp597
(VBoth
VDT
tp598
a(Vreports
VNNS
tp599
a(Vrefer
VVBP
tp600
a(Vto
VTO
tp601
a(Vthe
VDT
tp602
a(V&apos;
VNN
tp603
a(VBlack
VNNP
tp604
a(VSea
VNNP
tp605
a(VSynergy
VNN
tp606
a(V&apos;
VNN
tp607
a(V.
V.
tp608
aa(lp609
(VIn
VIN
tp610
a(Vrecent
VJJ
tp611
a(Vmonths
VNNS
tp612
a(V,
V,
tp613
a(Vhowever
VRB
tp614
a(V,
V,
tp615
a(Vthe
VDT
tp616
a(VChinese
VJJ
tp617
a(Vauthorities
VNNS
tp618
a(Vhave
VVBP
tp619
a(Vbeen
VVBN
tp620
a(Vallowing
VVBG
tp621
a(Vthemselves
VPRP
tp622
a(Vto
VTO
tp623
a(Vviolate
VVB
tp624
a(Vfreedom
VNN
tp625
a(Vof
VIN
tp626
a(Vexpression
VNN
tp627
a(Vmore
VRBR
tp628
a(Vfrequently
VRB
tp629
a(Vthan
VIN
tp630
a(Vusual
VJJ
tp631
a(V.
V.
tp632
aa(lp633
(VSome
VDT
tp634
a(Vof
VIN
tp635
a(Vus
VPRP
tp636
a(Vmust
VMD
tp637
a(Vhave
VVB
tp638
a(Vthe
VDT
tp639
a(Vcourage
VNN
tp640
a(Vto
VTO
tp641
a(Vreveal
VVB
tp642
a(Vwhat
VWP
tp643
a(Vthis
VDT
tp644
a(VParliament
VNNP
tp645
a(Vbelieves
VVBZ
tp646
a(Vbut
VCC
tp647
a(Vcannot
VNN
tp648
a(Vsay
VVBP
tp649
a(V.
V.
tp650
aa(lp651
(VThe
VDT
tp652
a(VEU-Brazil
VJJ
tp653
a(Vstrategic
VJJ
tp654
a(Vpartnership
VNN
tp655
a(Vis
VVBZ
tp656
a(Va
VDT
tp657
a(Vnatural
VJJ
tp658
a(Vreaction
VNN
tp659
a(Vto
VTO
tp660
a(Vgeopolitical
VJJ
tp661
a(Vrealities
VNNS
tp662
a(V.
V.
tp663
aa(lp664
(VThe
VDT
tp665
a(Vchallenge
VNN
tp666
a(Vnow
VRB
tp667
a(Vis
VVBZ
tp668
a(Vratification
VNN
tp669
a(V.
V.
tp670
aa(lp671
(VMy
VPRP$
tp672
a(Vown
VJJ
tp673
a(Vquestion
VNN
tp674
a(Vto
VTO
tp675
a(Vyou
VPRP
tp676
a(Vis
VVBZ
tp677
a(Vthis
VDT
tp678
a(V:
V:
tp679
a(Vdo
VVB
tp680
a(Vyou
VPRP
tp681
a(Vyourself
VPRP
tp682
a(Vhave
VVBP
tp683
a(Va
VDT
tp684
a(Vplan
VNN
tp685
a(Vfor
VIN
tp686
a(Vachieving
VVBG
tp687
a(Vthis
VDT
tp688
a(V30
VCD
tp689
a(V%
VNN
tp690
a(Vreduction
VNN
tp691
a(Vpersonally
VRB
tp692
a(Vin
VIN
tp693
a(Vyour
VPRP$
tp694
a(Vown
VJJ
tp695
a(Vsphere
VNN
tp696
a(Vof
VIN
tp697
a(Vactivity
VNN
tp698
a(V?
V.
tp699
aa(lp700
(VHuman
VJJ
tp701
a(Vrights
VNNS
tp702
a(Vsupporters
VNNS
tp703
a(Vare
VVBP
tp704
a(Vbecoming
VVBG
tp705
a(Vdisillusioned
VVBN
tp706
a(V.
V.
tp707
aa(lp708
(VSo
VRB
tp709
a(V,
V,
tp710
a(Vwhat
VWP
tp711
a(Vis
VVBZ
tp712
a(Vthe
VDT
tp713
a(Vsecret
VNN
tp714
a(V?
V.
tp715
aa(lp716
(VDeviating
VJJ
tp717
a(Vnational
VJJ
tp718
a(Vand
VCC
tp719
a(Vregional
VJJ
tp720
a(Vcustoms
VNNS
tp721
a(Vare
VVBP
tp722
a(Vthen
VRB
tp723
a(Vtreated
VVBN
tp724
a(Vas
VIN
tp725
a(Va
VDT
tp726
a(Vform
VNN
tp727
a(Vof
VIN
tp728
a(Vhandicap
VNN
tp729
a(V.
V.
tp730
aa(lp731
(VWe
VPRP
tp732
a(Vvery
VRB
tp733
a(Vmuch
VJJ
tp734
a(Vhope
VNN
tp735
a(Vthat
VIN
tp736
a(Vthe
VDT
tp737
a(VSwiss
VJJ
tp738
a(Vpeople
VNNS
tp739
a(Vthemselves
VPRP
tp740
a(Vwill
VMD
tp741
a(Vgive
VVB
tp742
a(Vtheir
VPRP$
tp743
a(Vblessing
VNN
tp744
a(Vin
VIN
tp745
a(Vthe
VDT
tp746
a(Vreferendum
VNN
tp747
a(Vscheduled
VVBN
tp748
a(Vfor
VIN
tp749
a(VMay
VNNP
tp750
a(V21
VCD
tp751
a(V.
V.
tp752
aa(lp753
(VI
VPRP
tp754
a(Vhave
VVBP
tp755
a(Va
VDT
tp756
a(Vpolitical
VJJ
tp757
a(Vmandate
VNN
tp758
a(Vfrom
VIN
tp759
a(Vmy
VPRP$
tp760
a(Velectors
VNNS
tp761
a(Vto
VTO
tp762
a(Vresist
VVB
tp763
a(Vthis
VDT
tp764
a(Vconcentration
VNN
tp765
a(Vof
VIN
tp766
a(Vpower
VNN
tp767
a(Vin
VIN
tp768
a(Vthe
VDT
tp769
a(VEU
VNNP
tp770
a(V,
V,
tp771
a(Vbut
VCC
tp772
a(Vnot
VRB
tp773
a(Vin
VIN
tp774
a(Vareas
VNNS
tp775
a(V.
V.
tp776
aa(lp777
(VSeventy
VCD
tp778
a(Vper
VIN
tp779
a(Vcent
VNN
tp780
a(Vof
VIN
tp781
a(VEurope
VNNP
tp782
a(V\u2019
VCD
tp783
a(Vs
VNNS
tp784
a(VGDP
VNNP
tp785
a(Vis
VVBZ
tp786
a(Vnow
VRB
tp787
a(Vbased
VVBN
tp788
a(Von
VIN
tp789
a(Vservices
VNNS
tp790
a(V.
V.
tp791
aa(lp792
(VMore
VJJR
tp793
a(Vthan
VIN
tp794
a(V85
VCD
tp795
a(V%
VNN
tp796
a(Vof
VIN
tp797
a(Vyour
VPRP$
tp798
a(Vcollege
VNN
tp799
a(Vwas
VVBD
tp800
a(Vfavourably
VRB
tp801
a(Vreceived
VVBN
tp802
a(V.
V.
tp803
aa(lp804
(VIn
VIN
tp805
a(Vparticular
VJJ
tp806
a(Vthe
VDT
tp807
a(Vsmall
VJJ
tp808
a(Vtown
VNN
tp809
a(Vof
VIN
tp810
a(VSan
VNNP
tp811
a(VGiuliano
VNNP
tp812
a(Vdi
VNNP
tp813
a(VPuglia
VNNP
tp814
a(Vwas
VVBD
tp815
a(Vdestroyed
VVBN
tp816
a(Vand
VCC
tp817
a(Va
VDT
tp818
a(Vschool
VNN
tp819
a(Vcollapsed
VVBD
tp820
a(Vkilling
VVBG
tp821
a(V29
VCD
tp822
a(Vpeople
VNNS
tp823
a(V,
V,
tp824
a(V26
VCD
tp825
a(Vof
VIN
tp826
a(Vwhom
VWP
tp827
a(Vwere
VVBD
tp828
a(Vchildren
VNNS
tp829
a(V.
V.
tp830
aa(lp831
(VThe
VDT
tp832
a(Vrector
VNN
tp833
a(Vof
VIN
tp834
a(Vmy
VPRP$
tp835
a(Vuniversity
VNN
tp836
a(V,
V,
tp837
a(Vranked
VVBD
tp838
a(Vnumber
VNN
tp839
a(Vone
VCD
tp840
a(Vin
VIN
tp841
a(VPoland
VNNP
tp842
a(V,
V,
tp843
a(Vis
VVBZ
tp844
a(Valso
VRB
tp845
a(Va
VDT
tp846
a(Vwoman
VNN
tp847
a(V,
V,
tp848
a(Va
VDT
tp849
a(Vprofessor
VNN
tp850
a(Vof
VIN
tp851
a(Vphysics
VNNS
tp852
a(V.
V.
tp853
aa(lp854
(VThe
VDT
tp855
a(Vmagazine
VNN
tp856
a(Vrefers
VVBZ
tp857
a(Vto
VTO
tp858
a(Vthe
VDT
tp859
a(Vapartheid
VNN
tp860
a(Vbeing
VVBG
tp861
a(Vimposed
VVBN
tp862
a(Vby
VIN
tp863
a(Vthe
VDT
tp864
a(VIsraeli
VJJ
tp865
a(Vauthorities
VNNS
tp866
a(Von
VIN
tp867
a(Vthe
VDT
tp868
a(VPalestinians
VNNPS
tp869
a(Von
VIN
tp870
a(Vthe
VDT
tp871
a(Vsubject
VNN
tp872
a(Vof
VIN
tp873
a(Vwater
VNN
tp874
a(V.
V.
tp875
aa(lp876
(VWhen
VWRB
tp877
a(Vwe
VPRP
tp878
a(Vdiscussed
VVBD
tp879
a(Vthe
VDT
tp880
a(VCulture
VNN
tp881
a(V2000
VCD
tp882
a(Vprogramme
VNN
tp883
a(V,
V,
tp884
a(VParliament
VNNP
tp885
a(Vemphasised
VVBD
tp886
a(Vthe
VDT
tp887
a(Vmajor
VJJ
tp888
a(Vrole
VNN
tp889
a(Vthat
VWDT
tp890
a(Vshould
VMD
tp891
a(Vbe
VVB
tp892
a(Vassigned
VVBN
tp893
a(Vto
VTO
tp894
a(Vactivities
VNNS
tp895
a(Vfor
VIN
tp896
a(Vthe
VDT
tp897
a(Vpromotion
VNN
tp898
a(Vof
VIN
tp899
a(Vbooks
VNNS
tp900
a(Vand
VCC
tp901
a(Vliterature
VNN
tp902
a(V.
V.
tp903
aa(lp904
(VA
VDT
tp905
a(Vharder
VJJR
tp906
a(Vtype
VNN
tp907
a(Vof
VIN
tp908
a(Vsolidarity
VNN
tp909
a(Vis
VVBZ
tp910
a(Vunknown
VJJ
tp911
a(Vin
VIN
tp912
a(Vthe
VDT
tp913
a(VEuropean
VNNP
tp914
a(VUnion
VNNP
tp915
a(V.
V.
tp916
aa(lp917
(VOn
VIN
tp918
a(V3
VCD
tp919
a(VDecember
VNNP
tp920
a(V,
V,
tp921
a(VTatiana
VNNP
tp922
a(VSzapu\u0107ko
VNNP
tp923
a(V,
V,
tp924
a(Vspokesperson
VNN
tp925
a(Vfor
VIN
tp926
a(Vthe
VDT
tp927
a(Vopposition
VNN
tp928
a(Vorganisation
VNN
tp929
a(VYoung
VNN
tp930
a(VFront
VNN
tp931
a(V,
V,
tp932
a(Vhad
VVBD
tp933
a(Vher
VPRP$
tp934
a(Vname
VNN
tp935
a(Vstruck
VVBD
tp936
a(Voff
VRP
tp937
a(Vthe
VDT
tp938
a(Vlist
VNN
tp939
a(Vof
VIN
tp940
a(Vstudents
VNNS
tp941
a(Vat
VIN
tp942
a(Vthe
VDT
tp943
a(VFaculty
VNNP
tp944
a(Vof
VIN
tp945
a(VLaw
VNNP
tp946
a(Vof
VIN
tp947
a(Vthe
VDT
tp948
a(VBelarusian
VJJ
tp949
a(VState
VNNP
tp950
a(VUniversity
VNNP
tp951
a(V.
V.
tp952
aa(lp953
(VThe
VDT
tp954
a(Vfilm
VNN
tp955
a(Vof
VIN
tp956
a(Vthe
VDT
tp957
a(VBritish
VJJ
tp958
a(VPresidency
VNNP
tp959
a(V,
V,
tp960
a(Vhowever
VRB
tp961
a(V,
V,
tp962
a(Vis
VVBZ
tp963
a(Va
VDT
tp964
a(Vhorror
VNN
tp965
a(Vfilm
VNN
tp966
a(Vthat
VWDT
tp967
a(Vwill
VMD
tp968
a(Vend
VVB
tp969
a(Vin
VIN
tp970
a(Vdisaster
VNN
tp971
a(V.
V.
tp972
aa(lp973
(VA
VDT
tp974
a(Vdelegation
VNN
tp975
a(Vof
VIN
tp976
a(Vdiplomats
VNNS
tp977
a(Vwent
VVBD
tp978
a(Vto
VTO
tp979
a(VBurma
VNN
tp980
a(Vjust
VRB
tp981
a(Vbefore
VIN
tp982
a(Vthe
VDT
tp983
a(Vsummer
VNN
tp984
a(Vbut
VCC
tp985
a(Vcame
VVBD
tp986
a(Vback
VRP
tp987
a(Vwith
VIN
tp988
a(Vnothing
VNN
tp989
a(Vto
VTO
tp990
a(Vshow
VVB
tp991
a(Vfor
VIN
tp992
a(Vits
VPRP$
tp993
a(Vpains
VNNS
tp994
a(V.
V.
tp995
aa(lp996
(VI
VPRP
tp997
a(Vvoted
VVBD
tp998
a(Vin
VIN
tp999
a(Vfavour
VNN
tp1000
a(Vof
VIN
tp1001
a(Vthe
VDT
tp1002
a(Vmotion
VNN
tp1003
a(Vfor
VIN
tp1004
a(Va
VDT
tp1005
a(Vresolution
VNN
tp1006
a(Von
VIN
tp1007
a(Vthe
VDT
tp1008
a(Vresults
VNNS
tp1009
a(Vof
VIN
tp1010
a(Vthe
VDT
tp1011
a(VCopenhagen
VNNP
tp1012
a(VSummit
VNNP
tp1013
a(Von
VIN
tp1014
a(Vclimate
VNN
tp1015
a(Vchange
VNN
tp1016
a(V.
V.
tp1017
aa(lp1018
(VWe
VPRP
tp1019
a(Vunderstand
VVBP
tp1020
a(Vthe
VDT
tp1021
a(Vemotion
VNN
tp1022
a(Vfelt
VVBN
tp1023
a(Vby
VIN
tp1024
a(Vmany
VJJ
tp1025
a(VIsraelis
VNNPS
tp1026
a(V,
V,
tp1027
a(Vbut
VCC
tp1028
a(Vwe
VPRP
tp1029
a(Valso
VRB
tp1030
a(Vunderstand
VVBP
tp1031
a(Vthe
VDT
tp1032
a(Vemotions
VNNS
tp1033
a(Vof
VIN
tp1034
a(Vthe
VDT
tp1035
a(VArab
VNNP
tp1036
a(Vpopulation
VNN
tp1037
a(V.
V.
tp1038
aa(lp1039
(VThe
VDT
tp1040
a(VEU
VNNP
tp1041
a(Vhas
VVBZ
tp1042
a(Valready
VRB
tp1043
a(Vdrastically
VRB
tp1044
a(Vreduced
VVBD
tp1045
a(Vits
VPRP$
tp1046
a(Vtrade-distorting
VJJ
tp1047
a(Vaid
VNN
tp1048
a(V,
V,
tp1049
a(Vunlike
VIN
tp1050
a(Vkey
VJJ
tp1051
a(Vtrading
VNN
tp1052
a(Vpartners
VNNS
tp1053
a(V.
V.
tp1054
aa(lp1055
(VOther
VJJ
tp1056
a(Vimportant
VJJ
tp1057
a(Vquestions
VNNS
tp1058
a(Vremain
VVBP
tp1059
a(V,
V,
tp1060
a(Vsuch
VJJ
tp1061
a(Vas
VIN
tp1062
a(Vthe
VDT
tp1063
a(Vneed
VNN
tp1064
a(Vfor
VIN
tp1065
a(Vreal
VJJ
tp1066
a(Vstatistical
VJJ
tp1067
a(Vdata
VNNS
tp1068
a(Von
VIN
tp1069
a(Vthe
VDT
tp1070
a(Vphenomenon
VNN
tp1071
a(V.
V.
tp1072
aa(lp1073
(VPesticides
VNNS
tp1074
a(Vare
VVBP
tp1075
a(Vexpensive
VJJ
tp1076
a(Vand
VCC
tp1077
a(Vthe
VDT
tp1078
a(Vlowest
VJJS
tp1079
a(Vamount
VNN
tp1080
a(Vis
VVBZ
tp1081
a(Vused
VVBN
tp1082
a(Vto
VTO
tp1083
a(Vprotect
VVB
tp1084
a(Vour
VPRP$
tp1085
a(Vcrop
VNN
tp1086
a(V.
V.
tp1087
aa(lp1088
(VIn
VIN
tp1089
a(Vfact
VNN
tp1090
a(V,
V,
tp1091
a(Vwhen
VWRB
tp1092
a(Vthe
VDT
tp1093
a(VTreaty
VNNP
tp1094
a(Vof
VIN
tp1095
a(VLisbon
VNNP
tp1096
a(Vcame
VVBD
tp1097
a(Vinto
VIN
tp1098
a(Vforce
VNN
tp1099
a(Von
VIN
tp1100
a(V1
VCD
tp1101
a(VDecember
VNNP
tp1102
a(V2009
VCD
tp1103
a(V,
V,
tp1104
a(Vthere
VEX
tp1105
a(Vwere
VVBD
tp1106
a(Vno
VDT
tp1107
a(Vexpectations
VNNS
tp1108
a(Vthat
VIN
tp1109
a(Vit
VPRP
tp1110
a(Vwould
VMD
tp1111
a(Vhave
VVB
tp1112
a(Vto
VTO
tp1113
a(Vendure
VVB
tp1114
a(Vamendments
VNNS
tp1115
a(Vin
VIN
tp1116
a(Vthe
VDT
tp1117
a(Vnear
VJJ
tp1118
a(Vfuture
VNN
tp1119
a(V.
V.
tp1120
aa(lp1121
(VFootball
VNN
tp1122
a(Vhas
VVBZ
tp1123
a(Vbecome
VVBN
tp1124
a(Va
VDT
tp1125
a(Vsport
VNN
tp1126
a(Vof
VIN
tp1127
a(Vthe
VDT
tp1128
a(Vmasses
VNNS
tp1129
a(Vand
VCC
tp1130
a(Vwe
VPRP
tp1131
a(Vmust
VMD
tp1132
a(Vthink
VVB
tp1133
a(Vabout
VIN
tp1134
a(Vthe
VDT
tp1135
a(Vsafety
VNN
tp1136
a(Vof
VIN
tp1137
a(Vour
VPRP$
tp1138
a(Vchildren
VNNS
tp1139
a(V,
V,
tp1140
a(Vour
VPRP$
tp1141
a(Vlittle
VJJ
tp1142
a(Vbrothers
VNNS
tp1143
a(Vand
VCC
tp1144
a(Vthe
VDT
tp1145
a(Vyoungsters
VNNS
tp1146
a(Vwho
VWP
tp1147
a(Vfrequent
VJJ
tp1148
a(Vthe
VDT
tp1149
a(Vstadiums
VNNS
tp1150
a(V.
V.
tp1151
aa(lp1152
(VThe
VDT
tp1153
a(Vmilitary
VNN
tp1154
a(Vare
VVBP
tp1155
a(Vnow
VRB
tp1156
a(Vcommitted
VVBN
tp1157
a(Vto
VTO
tp1158
a(Vwithdrawing
VVBG
tp1159
a(Vfrom
VIN
tp1160
a(Vpolicy-making
VNN
tp1161
a(V.
V.
tp1162
aa(lp1163
(VAccording
VVBG
tp1164
a(Vto
VTO
tp1165
a(Vofficial
VJJ
tp1166
a(Vstatistics
VNNS
tp1167
a(V,
V,
tp1168
a(Vthis
VDT
tp1169
a(Vwill
VMD
tp1170
a(Vreach
VVB
tp1171
a(VUSD
VNNP
tp1172
a(V45
VCD
tp1173
a(Vbillion
VCD
tp1174
a(V.
V.
tp1175
aa(lp1176
(VThat
VDT
tp1177
a(Vsilver
VNN
tp1178
a(Vbullet
VNN
tp1179
a(Vwill
VMD
tp1180
a(Vtake
VVB
tp1181
a(Vthe
VDT
tp1182
a(Vform
VNN
tp1183
a(Vof
VIN
tp1184
a(Vthe
VDT
tp1185
a(Vdisintegration
VNN
tp1186
a(Vof
VIN
tp1187
a(Vthe
VDT
tp1188
a(VEuropean
VJJ
tp1189
a(Vsingle
VJJ
tp1190
a(Vcurrency
VNN
tp1191
a(V.
V.
tp1192
aa(lp1193
(VAs
VIN
tp1194
a(Vwe
VPRP
tp1195
a(Vall
VDT
tp1196
a(Vknow
VVBP
tp1197
a(V,
V,
tp1198
a(Vdirty
VJJ
tp1199
a(Vmoney
VNN
tp1200
a(Vcorrupts
VVBZ
tp1201
a(Veverything
VNN
tp1202
a(V,
V,
tp1203
a(Vincluding
VVBG
tp1204
a(Vthe
VDT
tp1205
a(Vfinancial
VJJ
tp1206
a(Vsystem
VNN
tp1207
a(V.
V.
tp1208
aa(lp1209
(VIt
VPRP
tp1210
a(Vis
VVBZ
tp1211
a(Van
VDT
tp1212
a(Vambush
VNN
tp1213
a(V.
V.
tp1214
aa(lp1215
(VTwo
VCD
tp1216
a(Vbattles
VNNS
tp1217
a(Vhave
VVBP
tp1218
a(Vbeen
VVBN
tp1219
a(Vjoined
VVBN
tp1220
a(Vhere
VRB
tp1221
a(V.
V.
tp1222
aa(lp1223
(VIn
VIN
tp1224
a(V1969
VCD
tp1225
a(Vthe
VDT
tp1226
a(VAmerican
VJJ
tp1227
a(VNeil
VNNP
tp1228
a(VArmstrong
VNNP
tp1229
a(Vwas
VVBD
tp1230
a(Vthe
VDT
tp1231
a(Vfirst
VJJ
tp1232
a(Vman
VNN
tp1233
a(Vto
VTO
tp1234
a(Vwalk
VVB
tp1235
a(Von
VIN
tp1236
a(Vthe
VDT
tp1237
a(Vmoon
VNN
tp1238
a(V;
V:
tp1239
a(Vthe
VDT
tp1240
a(VVoyager
VNNP
tp1241
a(Vmissions
VNNS
tp1242
a(V,
V,
tp1243
a(Vlaunched
VVBN
tp1244
a(Vin
VIN
tp1245
a(V1977
VCD
tp1246
a(V,
V,
tp1247
a(Vhave
VVBP
tp1248
a(Vleft
VVBN
tp1249
a(Vthe
VDT
tp1250
a(Vsolar
VJJ
tp1251
a(Vsystem
VNN
tp1252
a(V,
V,
tp1253
a(Vmeaning
VVBG
tp1254
a(Vthat
VIN
tp1255
a(Vastronomers
VNNS
tp1256
a(Vwill
VMD
tp1257
a(Vbe
VVB
tp1258
a(Vable
VJJ
tp1259
a(Vto
VTO
tp1260
a(Vdiscuss
VVB
tp1261
a(Vnot
VRB
tp1262
a(Vonly
VRB
tp1263
a(Vthe
VDT
tp1264
a(Vouter
VJJ
tp1265
a(Vreaches
VNNS
tp1266
a(Vof
VIN
tp1267
a(Vour
VPRP$
tp1268
a(Vgalaxy
VNN
tp1269
a(Vbut
VCC
tp1270
a(Vthe
VDT
tp1271
a(Voutskirts
VNNS
tp1272
a(Vof
VIN
tp1273
a(Vthe
VDT
tp1274
a(Vwhole
VNN
tp1275
a(Vof
VIN
tp1276
a(Vthe
VDT
tp1277
a(Vvisible
VJJ
tp1278
a(Vuniverse
VNN
tp1279
a(V.
V.
tp1280
aa(lp1281
(VWe
VPRP
tp1282
a(Vhave
VVBP
tp1283
a(Vemployees
VNNS
tp1284
a(Vwho
VWP
tp1285
a(Vhave
VVBP
tp1286
a(Vbeen
VVBN
tp1287
a(Vsent
VVBN
tp1288
a(Vhere
VRB
tp1289
a(V,
V,
tp1290
a(Vemployees
VNNS
tp1291
a(Vwith
VIN
tp1292
a(Vblue
VJJ
tp1293
a(Vcards
VNNS
tp1294
a(V,
V,
tp1295
a(Vresearchers
VNNS
tp1296
a(V,
V,
tp1297
a(Vseasonal
VJJ
tp1298
a(Vworkers
VNNS
tp1299
a(V,
V,
tp1300
a(Vcompany
VNN
tp1301
a(Vemployees
VNNS
tp1302
a(Vwho
VWP
tp1303
a(Vhave
VVBP
tp1304
a(Vbeen
VVBN
tp1305
a(Vtransferred
VVBN
tp1306
a(Vinternally
VRB
tp1307
a(V,
V,
tp1308
a(Vand
VCC
tp1309
a(Vso
VRB
tp1310
a(Von
VIN
tp1311
a(V.
V.
tp1312
aa(lp1313
(VBut
VCC
tp1314
a(Vnot
VRB
tp1315
a(Vto
VTO
tp1316
a(Vrebut
VVB
tp1317
a(Vremarks
VNNS
tp1318
a(Vmade
VVBN
tp1319
a(Vabout
VIN
tp1320
a(Vyou
VPRP
tp1321
a(Vpersonally
VRB
tp1322
a(V.
V.
tp1323
aa(lp1324
(VThe
VDT
tp1325
a(VChinese
VNNPS
tp1326
a(Vdo
VVBP
tp1327
a(Vbusiness
VNN
tp1328
a(Vwith
VIN
tp1329
a(Vanyone
VNN
tp1330
a(Vas
VRB
tp1331
a(Vlong
VRB
tp1332
a(Vas
VIN
tp1333
a(Vit
VPRP
tp1334
a(Vsatisfies
VVBZ
tp1335
a(Vthe
VDT
tp1336
a(Vthirst
VNN
tp1337
a(Vfor
VIN
tp1338
a(Voil
VNN
tp1339
a(V.
V.
tp1340
aa(lp1341
(VOnly
VRB
tp1342
a(Va
VDT
tp1343
a(Vsmall
VJJ
tp1344
a(Vpercentage
VNN
tp1345
a(Vare
VVBP
tp1346
a(Vchecked
VVBN
tp1347
a(Vat
VIN
tp1348
a(Vthe
VDT
tp1349
a(Vtime
VNN
tp1350
a(Vof
VIN
tp1351
a(Vcustoms
VNNS
tp1352
a(Vclearance
VNN
tp1353
a(V.
V.
tp1354
aa(lp1355
(VIf
VIN
tp1356
a(Vthis
VDT
tp1357
a(Vis
VVBZ
tp1358
a(Vnot
VRB
tp1359
a(Vthe
VDT
tp1360
a(Vcase
VNN
tp1361
a(V,
V,
tp1362
a(Vtrust
VNN
tp1363
a(Vwill
VMD
tp1364
a(Vnever
VRB
tp1365
a(Vbe
VVB
tp1366
a(Vestablished
VVBN
tp1367
a(V.
V.
tp1368
aa(lp1369
(VFor
VIN
tp1370
a(Vthem
VPRP
tp1371
a(Vthat
VIN
tp1372
a(Vanachronistic
VJJ
tp1373
a(Vcolonial
VJJ
tp1374
a(Vwar
VNN
tp1375
a(Vwas
VVBD
tp1376
a(Vlong
VRB
tp1377
a(Vover
VRB
tp1378
a(V.
V.
tp1379
aa(lp1380
(VWe
VPRP
tp1381
a(Vneed
VVBP
tp1382
a(Vto
VTO
tp1383
a(Vquickly
VRB
tp1384
a(Vwork
VVB
tp1385
a(Vout
VRP
tp1386
a(Vin
VIN
tp1387
a(Vwhich
VWDT
tp1388
a(Vdirection
VNN
tp1389
a(Vwe
VPRP
tp1390
a(Vare
VVBP
tp1391
a(Vheading
VVBG
tp1392
a(Vand
VCC
tp1393
a(Vwhy
VWRB
tp1394
a(Vwe
VPRP
tp1395
a(Vare
VVBP
tp1396
a(Vgoing
VVBG
tp1397
a(Vthere
VRB
tp1398
a(V.
V.
tp1399
aa(lp1400
(VHe
VPRP
tp1401
a(Vwho
VWP
tp1402
a(Vpays
VVBZ
tp1403
a(Vthe
VDT
tp1404
a(Vpiper
VNN
tp1405
a(Vcalls
VVBZ
tp1406
a(Vthe
VDT
tp1407
a(Vtune
VNN
tp1408
a(V.
V.
tp1409
aa(lp1410
(VEvery
VDT
tp1411
a(Vinhabitant
VNN
tp1412
a(Vof
VIN
tp1413
a(VBrandenburg
VNNP
tp1414
a(V,
V,
tp1415
a(Vmy
VPRP$
tp1416
a(Vhome
VNN
tp1417
a(V,
V,
tp1418
a(Vis
VVBZ
tp1419
a(Vin
VIN
tp1420
a(Vdebt
VNN
tp1421
a(Vto
VTO
tp1422
a(Vthe
VDT
tp1423
a(Vtune
VNN
tp1424
a(Vof
VIN
tp1425
a(VEUR
V$
tp1426
a(V16
VCD
tp1427
a(V000
VCD
tp1428
a(V,
V,
tp1429
a(Vbut
VCC
tp1430
a(Vour
VPRP$
tp1431
a(Vnational
VJJ
tp1432
a(Veconomy
VNN
tp1433
a(Vis
VVBZ
tp1434
a(Vstructured
VVBN
tp1435
a(Vin
VIN
tp1436
a(Vsuch
VJJ
tp1437
a(Va
VDT
tp1438
a(Vway
VNN
tp1439
a(Vthat
VIN
tp1440
a(Vwe
VPRP
tp1441
a(Vcan
VMD
tp1442
a(Vcope
VVB
tp1443
a(Vwith
VIN
tp1444
a(Vit
VPRP
tp1445
a(V.
V.
tp1446
aa(lp1447
(VYou
VPRP
tp1448
a(Vtell
VVBP
tp1449
a(Vus
VPRP
tp1450
a(Vthat
VIN
tp1451
a(Vyou
VPRP
tp1452
a(Vare
VVBP
tp1453
a(Vtrying
VVBG
tp1454
a(Vto
VTO
tp1455
a(Vbe
VVB
tp1456
a(Vopen
VJJ
tp1457
a(Vbut
VCC
tp1458
a(Vthat
VIN
tp1459
a(Vyou
VPRP
tp1460
a(Vhave
VVBP
tp1461
a(Vlimited
VVBN
tp1462
a(Vroom
VNN
tp1463
a(Vfor
VIN
tp1464
a(Vmanoeuvre
VNN
tp1465
a(V.
V.
tp1466
aa(lp1467
(VWho
VWP
tp1468
a(Vshould
VMD
tp1469
a(Vassess
VVB
tp1470
a(Vhow
VWRB
tp1471
a(Vgenuine
VJJ
tp1472
a(Vthe
VDT
tp1473
a(Vthreat
VNN
tp1474
a(Vhas
VVBZ
tp1475
a(Vactually
VRB
tp1476
a(Vbecome
VVBN
tp1477
a(V?
V.
tp1478
aa(lp1479
(VThe
VDT
tp1480
a(Vfirst
VJJ
tp1481
a(Varea
VNN
tp1482
a(Vis
VVBZ
tp1483
a(Vpoverty
VNN
tp1484
a(V.
V.
tp1485
aa(lp1486
(VShe
VPRP
tp1487
a(Vsaid
VVBD
tp1488
a(Vto
VTO
tp1489
a(Vme
VPRP
tp1490
a(V,
V,
tp1491
a(V&apos;
VNNP
tp1492
a(VBut
VCC
tp1493
a(Vwhy
VWRB
tp1494
a(Von
VIN
tp1495
a(Vearth
VNN
tp1496
a(Vshould
VMD
tp1497
a(Vthe
VDT
tp1498
a(Vfuture
VJJ
tp1499
a(Vsurvival
VNN
tp1500
a(Vof
VIN
tp1501
a(Vmankind
VNN
tp1502
a(Vinterest
VNN
tp1503
a(Vme
VPRP
tp1504
a(V?
V.
tp1505
aa(lp1506
(VArrests
VNNS
tp1507
a(Vand
VCC
tp1508
a(Vsearches
VNNS
tp1509
a(Vof
VIN
tp1510
a(Vthe
VDT
tp1511
a(Voffices
VNNS
tp1512
a(Vof
VIN
tp1513
a(Vopposition
VNN
tp1514
a(Vactivists
VNNS
tp1515
a(Vand
VCC
tp1516
a(Vhuman
VJJ
tp1517
a(Vrights
VNNS
tp1518
a(Vactivists
VNNS
tp1519
a(Vcontinue
VVBP
tp1520
a(V.
V.
tp1521
aa(lp1522
(VIt
VPRP
tp1523
a(Vis
VVBZ
tp1524
a(Vnow
VRB
tp1525
a(Vtime
VNN
tp1526
a(Vfor
VIN
tp1527
a(Vthe
VDT
tp1528
a(VCouncil
VNNP
tp1529
a(Vto
VTO
tp1530
a(Vstart
VVB
tp1531
a(Vto
VTO
tp1532
a(Vsay
VVB
tp1533
a(Vwhy
VWRB
tp1534
a(Vit
VPRP
tp1535
a(Vaccepts
VVBZ
tp1536
a(Vcertain
VJJ
tp1537
a(Vthings
VNNS
tp1538
a(Vand
VCC
tp1539
a(Vwhy
VWRB
tp1540
a(Vothers
VNNS
tp1541
a(Vare
VVBP
tp1542
a(Vnot
VRB
tp1543
a(Vaccepted
VVBN
tp1544
a(V.
V.
tp1545
aa(lp1546
(VMany
VJJ
tp1547
a(VZimbabweans
VNNPS
tp1548
a(Vqueued
VVBD
tp1549
a(Vfor
VIN
tp1550
a(Vhours
VNNS
tp1551
a(Vand
VCC
tp1552
a(Vwere
VVBD
tp1553
a(Vstill
VRB
tp1554
a(Vnot
VRB
tp1555
a(Vallowed
VVBN
tp1556
a(Vto
VTO
tp1557
a(Vvote
VVB
tp1558
a(V.
V.
tp1559
aa(lp1560
(VWe
VPRP
tp1561
a(Vknow
VVBP
tp1562
a(Vthat
VIN
tp1563
a(Vyou
VPRP
tp1564
a(Vare
VVBP
tp1565
a(Vfacing
VVBG
tp1566
a(Vdifficult
VJJ
tp1567
a(Vchallenges
VNNS
tp1568
a(V,
V,
tp1569
a(Vparticularly
VRB
tp1570
a(Vin
VIN
tp1571
a(Vrelation
VNN
tp1572
a(Vto
VTO
tp1573
a(Vcombating
VVBG
tp1574
a(VAids
VNNS
tp1575
a(Vand
VCC
tp1576
a(Vsecurity
VNN
tp1577
a(Vamongst
VIN
tp1578
a(Vyour
VPRP$
tp1579
a(Vcitizens
VNNS
tp1580
a(V.
V.
tp1581
aa(lp1582
(VWe
VPRP
tp1583
a(Vhave
VVBP
tp1584
a(Vseen
VVBN
tp1585
a(Vcases
VNNS
tp1586
a(Vof
VIN
tp1587
a(Vattempts
VNNS
tp1588
a(Vbeing
VVBG
tp1589
a(Vmade
VVBN
tp1590
a(Vto
VTO
tp1591
a(Vget
VVB
tp1592
a(Vparents
VNNS
tp1593
a(Vto
VTO
tp1594
a(Vpay
VVB
tp1595
a(Va
VDT
tp1596
a(Vkind
VNN
tp1597
a(Vof
VIN
tp1598
a(Vsecurity
VNN
tp1599
a(Vfor
VIN
tp1600
a(Vtheir
VPRP$
tp1601
a(Vchild
VNN
tp1602
a(Vby
VIN
tp1603
a(Vhaving
VVBG
tp1604
a(Va
VDT
tp1605
a(V&apos;
VJJ
tp1606
a(Vreserve
VNN
tp1607
a(Vstore
VNN
tp1608
a(V&apos;
VNN
tp1609
a(Vfor
VIN
tp1610
a(Vthe
VDT
tp1611
a(Vchild
VNN
tp1612
a(Vplaced
VVBN
tp1613
a(Vin
VIN
tp1614
a(Va
VDT
tp1615
a(Vbank
VNN
tp1616
a(V.
V.
tp1617
aa(lp1618
(VThe
VDT
tp1619
a(VCouncil
VNNP
tp1620
a(Vnominated
VVBD
tp1621
a(Vyou
VPRP
tp1622
a(V.
V.
tp1623
aa(lp1624
(VAs
VIN
tp1625
a(VI
VPRP
tp1626
a(Vsaid
VVBD
tp1627
a(Vat
VIN
tp1628
a(Vthe
VDT
tp1629
a(Vbeginning
VNN
tp1630
a(V,
V,
tp1631
a(Vour
VPRP$
tp1632
a(Vprincipal
VJJ
tp1633
a(Vgoal
VNN
tp1634
a(Vis
VVBZ
tp1635
a(Vto
VTO
tp1636
a(Vbring
VVB
tp1637
a(Vthe
VDT
tp1638
a(Vnumber
VNN
tp1639
a(Vof
VIN
tp1640
a(Vnew
VJJ
tp1641
a(VHIV
VNN
tp1642
a(Vinfections
VNNS
tp1643
a(Vdown
VRB
tp1644
a(Vand
VCC
tp1645
a(Vwork
VVB
tp1646
a(Vtowards
VIN
tp1647
a(Vthe
VDT
tp1648
a(Vbest
VJJS
tp1649
a(Vpossible
VJJ
tp1650
a(Vsolutions
VNNS
tp1651
a(Vin
VIN
tp1652
a(Vterms
VNNS
tp1653
a(Vof
VIN
tp1654
a(Vsupport
VNN
tp1655
a(V,
V,
tp1656
a(Vtreatment
VNN
tp1657
a(Vand
VCC
tp1658
a(Vcare
VNN
tp1659
a(Vfor
VIN
tp1660
a(Vthose
VDT
tp1661
a(Vwho
VWP
tp1662
a(Vare
VVBP
tp1663
a(Valready
VRB
tp1664
a(Vliving
VVBG
tp1665
a(Vwith
VIN
tp1666
a(VHIV
VNN
tp1667
a(V/
V:
tp1668
a(VAIDS
VNNP
tp1669
a(V.
V.
tp1670
aa(lp1671
(VThe
VDT
tp1672
a(Vvisitors
VNNS
tp1673
a(Vhad
VVBD
tp1674
a(Vto
VTO
tp1675
a(Vpool
VVB
tp1676
a(Vtheir
VPRP$
tp1677
a(VFrench
VJJ
tp1678
a(Vfrancs
VNNS
tp1679
a(Vtogether
VRB
tp1680
a(Vto
VTO
tp1681
a(Vpay
VVB
tp1682
a(Vthe
VDT
tp1683
a(Vhorrendous
VJJ
tp1684
a(VFRF
VNN
tp1685
a(V5
VCD
tp1686
a(V000
VCD
tp1687
a(Vfine
VNN
tp1688
a(V.
V.
tp1689
aa(lp1690
(VBut
VCC
tp1691
a(Vthen
VRB
tp1692
a(V,
V,
tp1693
a(Vmoney
VNN
tp1694
a(Vmakes
VVBZ
tp1695
a(Vthe
VDT
tp1696
a(Vworld
VNN
tp1697
a(Vgo
VVB
tp1698
a(Vround
VJJ
tp1699
a(V,
V,
tp1700
a(Vor
VCC
tp1701
a(Vat
VIN
tp1702
a(Vleast
VJJS
tp1703
a(Vso
VRB
tp1704
a(Vwe
VPRP
tp1705
a(Vthink
VVBP
tp1706
a(V.
V.
tp1707
aa(lp1708
(VNeither
VDT
tp1709
a(Vtheir
VPRP$
tp1710
a(Vyoung
VJJ
tp1711
a(Vage
VNN
tp1712
a(V,
V,
tp1713
a(Vnor
VCC
tp1714
a(Vdifferent
VJJ
tp1715
a(Vcultural
VJJ
tp1716
a(Vnotions
VNNS
tp1717
a(Vregarding
VVBG
tp1718
a(Vcelibacy
VNN
tp1719
a(Vcould
VMD
tp1720
a(Vjustify
VVB
tp1721
a(Vthese
VDT
tp1722
a(Vacts
VNNS
tp1723
a(Vof
VIN
tp1724
a(Vviolence
VNN
tp1725
a(V.
V.
tp1726
aa(lp1727
(VIn
VIN
tp1728
a(VSwaziland
VNNP
tp1729
a(Vthere
VEX
tp1730
a(Vare
VVBP
tp1731
a(Vabout
VIN
tp1732
a(V3000
VCD
tp1733
a(Vnurses
VNNS
tp1734
a(Vand
VCC
tp1735
a(VSwaziland
VNN
tp1736
a(Vis
VVBZ
tp1737
a(Vtraining
VVBG
tp1738
a(Vabout
VIN
tp1739
a(V100
VCD
tp1740
a(Vper
VIN
tp1741
a(Vyear
VNN
tp1742
a(V.
V.
tp1743
aa(lp1744
(VNevertheless
VRB
tp1745
a(Vthere
VEX
tp1746
a(Vwas
VVBD
tp1747
a(Vno
VDT
tp1748
a(Vadjustment
VNN
tp1749
a(V.
V.
tp1750
aa(lp1751
(VThe
VDT
tp1752
a(VEU
VNNP
tp1753
a(Vhas
VVBZ
tp1754
a(Van
VDT
tp1755
a(Vextremely
VRB
tp1756
a(Vimportant
VJJ
tp1757
a(Vrole
VNN
tp1758
a(Vto
VTO
tp1759
a(Vplay
VVB
tp1760
a(Vin
VIN
tp1761
a(Vthis
VDT
tp1762
a(Vregard
VNN
tp1763
a(Vin
VIN
tp1764
a(Vboth
VCC
tp1765
a(Vcountries
VNNS
tp1766
a(V.
V.
tp1767
aa(lp1768
(VThat
VDT
tp1769
a(Vconcludes
VVBZ
tp1770
a(Vvoting
VNN
tp1771
a(Vtime
VNN
tp1772
a(V.
V.
tp1773
aa(lp1774
(VSome
VDT
tp1775
a(Vof
VIN
tp1776
a(Vhis
VPRP$
tp1777
a(Vmission
VNN
tp1778
a(Vhave
VVBP
tp1779
a(Vbeen
VVBN
tp1780
a(Vmurdered
VVBN
tp1781
a(Vand
VCC
tp1782
a(Vhe
VPRP
tp1783
a(Vtells
VVBZ
tp1784
a(Vme
VPRP
tp1785
a(Vthat
VIN
tp1786
a(Vhe
VPRP
tp1787
a(Vexpects
VVBZ
tp1788
a(Vone
VCD
tp1789
a(Vday
VNN
tp1790
a(Vto
VTO
tp1791
a(Vbe
VVB
tp1792
a(Vkilled
VVBN
tp1793
a(Vhimself
VPRP
tp1794
a(V.
V.
tp1795
aa(lp1796
(VThese
VDT
tp1797
a(Vchallenges
VNNS
tp1798
a(Vare
VVBP
tp1799
a(Vnot
VRB
tp1800
a(Vonly
VRB
tp1801
a(Vto
VTO
tp1802
a(Vbe
VVB
tp1803
a(Vfound
VVBN
tp1804
a(Vin
VIN
tp1805
a(VBahrain
VNNP
tp1806
a(V,
V,
tp1807
a(VYemen
VNNP
tp1808
a(V,
V,
tp1809
a(VIran
VNNP
tp1810
a(Vand
VCC
tp1811
a(VArmenia
VNNP
tp1812
a(V.
V.
tp1813
aa.