(lp1
(lp2
(VThe
VDT
tp3
a(Vpeople
VNNS
tp4
a(Vdo
VVBP
tp5
a(Vnot
VRB
tp6
a(Vwant
VVB
tp7
a(Vthem
VPRP
tp8
a(V.
V.
tp9
aa(lp10
(VDoing
VVBG
tp11
a(Vso
VRB
tp12
a(Vat
VIN
tp13
a(Vmultilateral
VJJ
tp14
a(Vlevel
VNN
tp15
a(Vis
VVBZ
tp16
a(Vexemplary
VJJ
tp17
a(Vbehaviour
VNN
tp18
a(V.
V.
tp19
aa(lp20
(VJournalists
VNNS
tp21
a(Vand
VCC
tp22
a(VNGO
VNN
tp23
a(Vworkers
VNNS
tp24
a(Vin
VIN
tp25
a(VRussia
VNNP
tp26
a(Vrisk
VVB
tp27
a(Vtheir
VPRP$
tp28
a(Vlives
VNNS
tp29
a(Vevery
VDT
tp30
a(Vday
VNN
tp31
a(Vin
VIN
tp32
a(Vthe
VDT
tp33
a(Vcourse
VNN
tp34
a(Vof
VIN
tp35
a(Vtheir
VPRP$
tp36
a(Vwork
VNN
tp37
a(V.
V.
tp38
aa(lp39
(VTherefore
VRB
tp40
a(Vit
VPRP
tp41
a(Vis
VVBZ
tp42
a(Valso
VRB
tp43
a(Vnecessary
VJJ
tp44
a(Vto
VTO
tp45
a(Vincrease
VVB
tp46
a(Vour
VPRP$
tp47
a(Voil
VNN
tp48
a(Vand
VCC
tp49
a(Vgas
VNN
tp50
a(Vreserves
VNNS
tp51
a(V.
V.
tp52
aa(lp53
(VI
VPRP
tp54
a(Vjust
VRB
tp55
a(Vwonder
VVBP
tp56
a(Vwhen
VWRB
tp57
a(Vwe
VPRP
tp58
a(Vwill
VMD
tp59
a(Vbe
VVB
tp60
a(Vstarting
VVBG
tp61
a(Vto
VTO
tp62
a(Vcontrol
VVB
tp63
a(Vhim
VPRP
tp64
a(Vlike
VIN
tp65
a(Va
VDT
tp66
a(Vrobot
VNN
tp67
a(V.
V.
tp68
aa(lp69
(VThey
VPRP
tp70
a(Vhave
VVBP
tp71
a(Vbecome
VVBN
tp72
a(Va
VDT
tp73
a(Vspare
VJJ
tp74
a(Vparts
VNNS
tp75
a(Vinventory
VNN
tp76
a(Vfor
VIN
tp77
a(Vthe
VDT
tp78
a(Vsick
VJJ
tp79
a(V.
V.
tp80
aa(lp81
(VLike
VIN
tp82
a(Vany
VDT
tp83
a(Vadministration
VNN
tp84
a(V,
V,
tp85
a(Vit
VPRP
tp86
a(Vhas
VVBZ
tp87
a(Va
VDT
tp88
a(Vduty
VNN
tp89
a(Vto
VTO
tp90
a(Vinform
VVB
tp91
a(Vpolitical
VJJ
tp92
a(Vrepresentatives
VNNS
tp93
a(V.
V.
tp94
aa(lp95
(VYou
VPRP
tp96
a(Vbomb
VVBP
tp97
a(VAfghanistan
VNNP
tp98
a(Vand
VCC
tp99
a(Vcomplain
VVB
tp100
a(Vabout
VIN
tp101
a(Vrefugees
VNNS
tp102
a(V.
V.
tp103
aa(lp104
(VI
VPRP
tp105
a(Vthink
VVBP
tp106
a(Vthat
VIN
tp107
a(Vthis
VDT
tp108
a(Vis
VVBZ
tp109
a(Vthe
VDT
tp110
a(Vanswer
VNN
tp111
a(Vto
VTO
tp112
a(Va
VDT
tp113
a(Vvery
VRB
tp114
a(Vlarge
VJJ
tp115
a(Vnumber
VNN
tp116
a(Vof
VIN
tp117
a(Vproblems
VNNS
tp118
a(V.
V.
tp119
aa(lp120
(VAll
VDT
tp121
a(Vcredit
VNN
tp122
a(Vto
VTO
tp123
a(Vher
VPRP
tp124
a(V.
V.
tp125
aa(lp126
(VOur
VPRP$
tp127
a(Vbuildings
VNNS
tp128
a(Vare
VVBP
tp129
a(Vnot
VRB
tp130
a(Vprepared
VVBN
tp131
a(Vfor
VIN
tp132
a(Vthat
VDT
tp133
a(V.
V.
tp134
aa(lp135
(VThe
VDT
tp136
a(Vtime
VNN
tp137
a(Vhas
VVBZ
tp138
a(Vcome
VVBN
tp139
a(Vto
VTO
tp140
a(Vsimplify
VVB
tp141
a(Vand
VCC
tp142
a(Vspeed
VVB
tp143
a(Vup
VRP
tp144
a(Vthe
VDT
tp145
a(Vrecovery
VNN
tp146
a(Vprocedure
VNN
tp147
a(V.
V.
tp148
aa(lp149
(VIt
VPRP
tp150
a(Vis
VVBZ
tp151
a(Vnaturally
VRB
tp152
a(Ventirely
VRB
tp153
a(Vbound
VVBN
tp154
a(Vup
VRP
tp155
a(Vwith
VIN
tp156
a(Vthe
VDT
tp157
a(Vfact
VNN
tp158
a(Vthat
VIN
tp159
a(V90
VCD
tp160
a(V%
VNN
tp161
a(Vof
VIN
tp162
a(Vthose
VDT
tp163
a(Vwith
VIN
tp164
a(VHIV
VNN
tp165
a(Vinfections
VNNS
tp166
a(Vare
VVBP
tp167
a(Vin
VIN
tp168
a(Vdeveloping
VVBG
tp169
a(Vcountries
VNNS
tp170
a(V.
V.
tp171
aa(lp172
(VI
VPRP
tp173
a(Vrepeat
VVBP
tp174
a(V,
V,
tp175
a(Vwhat
VWP
tp176
a(Vis
VVBZ
tp177
a(Vit
VPRP
tp178
a(Vwe
VPRP
tp179
a(Vare
VVBP
tp180
a(Vencouraging
VVBG
tp181
a(Vit
VPRP
tp182
a(Vto
VTO
tp183
a(Vdo
VVB
tp184
a(V?
V.
tp185
aa(lp186
(VIt
VPRP
tp187
a(Vis
VVBZ
tp188
a(Vnecessary
VJJ
tp189
a(Veffectively
VRB
tp190
a(Vto
VTO
tp191
a(Vimplement
VVB
tp192
a(Vthe
VDT
tp193
a(Vreform
VNN
tp194
a(Vof
VIN
tp195
a(Vthe
VDT
tp196
a(Vjudiciary
VNN
tp197
a(Vand
VCC
tp198
a(Vto
VTO
tp199
a(Vreinforce
VVB
tp200
a(Vthe
VDT
tp201
a(Vfight
VNN
tp202
a(Vagainst
VIN
tp203
a(Vcorruption
VNN
tp204
a(V,
V,
tp205
a(Vparticularly
VRB
tp206
a(Vat
VIN
tp207
a(Vhigh
VJJ
tp208
a(Vlevel
VNN
tp209
a(V.
V.
tp210
aa(lp211
(VHowever
VRB
tp212
a(V,
V,
tp213
a(Vchildren
VNNS
tp214
a(Vdo
VVBP
tp215
a(Vnot
VRB
tp216
a(Vhave
VVB
tp217
a(Vthe
VDT
tp218
a(Vsame
VJJ
tp219
a(Vmetabolism
VNN
tp220
a(Vas
VIN
tp221
a(Vadults
VNNS
tp222
a(V.
V.
tp223
aa(lp224
(VThe
VDT
tp225
a(Vforces
VNNS
tp226
a(Vof
VIN
tp227
a(Vliberalism
VNN
tp228
a(Vare
VVBP
tp229
a(Vrefusing
VVBG
tp230
a(Vto
VTO
tp231
a(Vaccept
VVB
tp232
a(Vthe
VDT
tp233
a(Vwill
VNN
tp234
a(Vof
VIN
tp235
a(Vthe
VDT
tp236
a(Vnation
VNN
tp237
a(V.
V.
tp238
aa(lp239
(VWe
VPRP
tp240
a(Vhave
VVBP
tp241
a(V250
VCD
tp242
a(Vmillion
VCD
tp243
a(Vhens
VNNS
tp244
a(Vin
VIN
tp245
a(Vconventional
VJJ
tp246
a(Vcages
VNNS
tp247
a(V,
V,
tp248
a(Vand
VCC
tp249
a(Vonly
VRB
tp250
a(Veight
VCD
tp251
a(Vmillion
VCD
tp252
a(Vfree-range
VJJ
tp253
a(Vhens
VNNS
tp254
a(V.
V.
tp255
aa(lp256
(VThere
VEX
tp257
a(Vis
VVBZ
tp258
a(Va
VDT
tp259
a(Vsuspicion
VNN
tp260
a(Vthat
VIN
tp261
a(Vsome
VDT
tp262
a(Vare
VVBP
tp263
a(Vnot
VRB
tp264
a(Vplaying
VVBG
tp265
a(Vfair
VJJ
tp266
a(V.
V.
tp267
aa(lp268
(VThe
VDT
tp269
a(VCommission
VNNP
tp270
a(Vwill
VMD
tp271
a(Vpass
VVB
tp272
a(Vthis
VDT
tp273
a(Vsecondary
VJJ
tp274
a(Vlegislation
VNN
tp275
a(Von
VIN
tp276
a(Vthe
VDT
tp277
a(Vbasis
VNN
tp278
a(Vof
VIN
tp279
a(Vproposals
VNNS
tp280
a(Vby
VIN
tp281
a(Vthe
VDT
tp282
a(VCommittee
VNNP
tp283
a(Vof
VIN
tp284
a(VEuropean
VNNP
tp285
a(VSecurities
VNNP
tp286
a(VRegulators
VNNS
tp287
a(V,
V,
tp288
a(Vknown
VVBN
tp289
a(Vas
VIN
tp290
a(VCESR
VNN
tp291
a(Vin
VIN
tp292
a(VEnglish
VNNP
tp293
a(V.
V.
tp294
aa(lp295
(VEach
VDT
tp296
a(Vinstitution
VNN
tp297
a(Vhas
VVBZ
tp298
a(Vits
VPRP$
tp299
a(Vplace
VNN
tp300
a(V.
V.
tp301
aa(lp302
(VThe
VDT
tp303
a(Vregion
VNN
tp304
a(Vis
VVBZ
tp305
a(Vtherefore
VRB
tp306
a(Vregarded
VVBN
tp307
a(Vas
VIN
tp308
a(Va
VDT
tp309
a(Vpart
VNN
tp310
a(Vof
VIN
tp311
a(Vthe
VDT
tp312
a(VRussian
VJJ
tp313
a(VFederation
VNNP
tp314
a(V.
V.
tp315
aa(lp316
(VLet
VVB
tp317
a(Vme
VPRP
tp318
a(Vadd
VVB
tp319
a(Vthat
VDT
tp320
a(Vin
VIN
tp321
a(VEurope
VNNP
tp322
a(V,
V,
tp323
a(Vthe
VDT
tp324
a(VGoogle
VNNP
tp325
a(VBooks
VNNPS
tp326
a(VProject
VNNP
tp327
a(Vis
VVBZ
tp328
a(Vdeployed
VVBN
tp329
a(Vin
VIN
tp330
a(Vcollaboration
VNN
tp331
a(Vwith
VIN
tp332
a(Vlibraries
VNNS
tp333
a(Vand
VCC
tp334
a(Vconcerns
VNNS
tp335
a(Vonly
VRB
tp336
a(Vpublic
VJJ
tp337
a(Vdomain
VNN
tp338
a(Vbooks
VNNS
tp339
a(V.
V.
tp340
aa(lp341
(VWater
VNN
tp342
a(Vis
VVBZ
tp343
a(Va
VDT
tp344
a(Vfinite
VJJ
tp345
a(Vresource
VNN
tp346
a(V.
V.
tp347
aa(lp348
(VFirstly
VRB
tp349
a(V,
V,
tp350
a(Vbecause
VIN
tp351
a(Vit
VPRP
tp352
a(Vtakes
VVBZ
tp353
a(Vplace
VNN
tp354
a(Vin
VIN
tp355
a(Vthe
VDT
tp356
a(Vspring
VNN
tp357
a(V.
V.
tp358
aa(lp359
(VThe
VDT
tp360
a(Vpeople
VNNS
tp361
a(Vof
VIN
tp362
a(VVenezuela
VNNP
tp363
a(V,
V,
tp364
a(VColombia
VNNP
tp365
a(V,
V,
tp366
a(VEcuador
VNNP
tp367
a(V,
V,
tp368
a(VBolivia
VNNP
tp369
a(V,
V,
tp370
a(VBrazil
VNNP
tp371
a(V,
V,
tp372
a(VArgentina
VNNP
tp373
a(V,
V,
tp374
a(VUruguay
VNNP
tp375
a(V,
V,
tp376
a(Vof
VIN
tp377
a(VLatin
VNNP
tp378
a(VAmerica
VNNP
tp379
a(Vas
VIN
tp380
a(Va
VDT
tp381
a(Vwhole
VJJ
tp382
a(V,
V,
tp383
a(Vare
VVBP
tp384
a(Vstepping
VVBG
tp385
a(Vup
VRP
tp386
a(Vtheir
VPRP$
tp387
a(Vfight
VNN
tp388
a(Vfor
VIN
tp389
a(Vdemocracy
VNN
tp390
a(Vand
VCC
tp391
a(Vsocial
VJJ
tp392
a(Vchange
VNN
tp393
a(Vand
VCC
tp394
a(Vwe
VPRP
tp395
a(Voffer
VVBP
tp396
a(Vthem
VPRP
tp397
a(Vour
VPRP$
tp398
a(Vsolidarity
VNN
tp399
a(Vand
VCC
tp400
a(Vundivided
VJJ
tp401
a(Vsupport
VNN
tp402
a(V.
V.
tp403
aa(lp404
(VThis
VDT
tp405
a(Vwill
VMD
tp406
a(Vbe
VVB
tp407
a(Va
VDT
tp408
a(Vcartel
VNN
tp409
a(V,
V,
tp410
a(Vand
VCC
tp411
a(Vto
VTO
tp412
a(Vface
VVB
tp413
a(Vthis
VDT
tp414
a(Vcartel
VNN
tp415
a(Vwe
VPRP
tp416
a(Vneed
VVBP
tp417
a(Vstricter
VJJR
tp418
a(Vlaws
VNNS
tp419
a(V.
V.
tp420
aa(lp421
(VIt
VPRP
tp422
a(Vis
VVBZ
tp423
a(Van
VDT
tp424
a(Vexperiment
VNN
tp425
a(V,
V,
tp426
a(Vin
VIN
tp427
a(Vwhich
VWDT
tp428
a(Vthe
VDT
tp429
a(VEU
VNNP
tp430
a(Vcannot
VNN
tp431
a(Vafford
VVB
tp432
a(Vto
VTO
tp433
a(Vfail
VVB
tp434
a(V.
V.
tp435
aa(lp436
(VHuman
VJJ
tp437
a(Vrights
VNNS
tp438
a(Valbeit
VIN
tp439
a(Vfar
VRB
tp440
a(Vfrom
VIN
tp441
a(Vperfect
VJJ
tp442
a(V,
V,
tp443
a(Vhave
VVBP
tp444
a(Vbegun
VVBN
tp445
a(Vto
VTO
tp446
a(Vimprove
VVB
tp447
a(V.
V.
tp448
aa(lp449
(VWhether
VIN
tp450
a(Vwe
VPRP
tp451
a(Vlike
VVBP
tp452
a(Vit
VPRP
tp453
a(Vor
VCC
tp454
a(Vnot
VRB
tp455
a(V,
V,
tp456
a(Vthis
VDT
tp457
a(Vhas
VVBZ
tp458
a(Vbecome
VVBN
tp459
a(Va
VDT
tp460
a(Vreality
VNN
tp461
a(V.
V.
tp462
aa(lp463
(VThe
VDT
tp464
a(Vactions
VNNS
tp465
a(Vtaken
VVBN
tp466
a(Vmust
VMD
tp467
a(Vguarantee
VVB
tp468
a(Vcompliance
VNN
tp469
a(Vwith
VIN
tp470
a(Vdata
VNNS
tp471
a(Vprotection
VNN
tp472
a(Vlaws
VNNS
tp473
a(V.
V.
tp474
aa(lp475
(VOnly
VRB
tp476
a(VKuwait
VNNP
tp477
a(Vextended
VVBD
tp478
a(Vthe
VDT
tp479
a(Vvote
VNN
tp480
a(Vto
VTO
tp481
a(Vmen
VNNS
tp482
a(Vand
VCC
tp483
a(Vnot
VRB
tp484
a(Vto
VTO
tp485
a(Vwomen
VNNS
tp486
a(V.
V.
tp487
aa(lp488
(V43
VCD
tp489
a(V.
V.
tp490
aa(lp491
(VIncompatible
VJJ
tp492
a(Vresponses
VNNS
tp493
a(Vfrom
VIN
tp494
a(Vcentral
VJJ
tp495
a(Vbanks
VNNS
tp496
a(Vled
VVBD
tp497
a(Vto
VTO
tp498
a(Vcountries
VNNS
tp499
a(Vsometimes
VRB
tp500
a(Vbeing
VVBG
tp501
a(Vforced
VVBN
tp502
a(Vto
VTO
tp503
a(Vleave
VVB
tp504
a(Vthe
VDT
tp505
a(Vsystem
VNN
tp506
a(V.
V.
tp507
aa(lp508
(VDo
VVB
tp509
a(Vwe
VPRP
tp510
a(Vwait
VVB
tp511
a(Vfor
VIN
tp512
a(Vthe
VDT
tp513
a(Vruling
VNN
tp514
a(Vof
VIN
tp515
a(Vthe
VDT
tp516
a(VWTO
VNNP
tp517
a(Vpanel
VNN
tp518
a(V?
V.
tp519
aa(lp520
(VWhen
VWRB
tp521
a(Vyou
VPRP
tp522
a(Vlook
VVBP
tp523
a(Vat
VIN
tp524
a(Vthe
VDT
tp525
a(Vhealth
VNN
tp526
a(Veffects
VNNS
tp527
a(Vof
VIN
tp528
a(Vtobacco
VNN
tp529
a(Vand
VCC
tp530
a(Vsmoking
VNN
tp531
a(Vit
VPRP
tp532
a(Vis
VVBZ
tp533
a(Vquite
VRB
tp534
a(Vclear
VJJ
tp535
a(Vthat
VIN
tp536
a(Vthe
VDT
tp537
a(Vnumber
VNN
tp538
a(Vof
VIN
tp539
a(Vpeople
VNNS
tp540
a(Vwho
VWP
tp541
a(Vdie
VVBP
tp542
a(Vas
VIN
tp543
a(Va
VDT
tp544
a(Vresult
VNN
tp545
a(Vof
VIN
tp546
a(Vtobacco
VNN
tp547
a(Vis
VVBZ
tp548
a(Vvery
VRB
tp549
a(Vhigh
VJJ
tp550
a(V.
V.
tp551
aa(lp552
(VAccording
VVBG
tp553
a(Vto
VTO
tp554
a(Va
VDT
tp555
a(VCommission
VNNP
tp556
a(Vspokesman
VNN
tp557
a(V,
V,
tp558
a(Vno
VDT
tp559
a(Vsigns
VNNS
tp560
a(Vof
VIN
tp561
a(Vfraud
VNN
tp562
a(Vwere
VVBD
tp563
a(Vdiscovered
VVBN
tp564
a(Vduring
VIN
tp565
a(Vthe
VDT
tp566
a(Vrecount
VNN
tp567
a(V.
V.
tp568
aa(lp569
(VArmed
VVBN
tp570
a(Vconflict
VNN
tp571
a(Vstill
VRB
tp572
a(Vsmoulders
VVBZ
tp573
a(Vunder
VIN
tp574
a(Vthe
VDT
tp575
a(Vsurface
VNN
tp576
a(V.
V.
tp577
aa(lp578
(VWe
VPRP
tp579
a(Vmust
VMD
tp580
a(Vsupport
VVB
tp581
a(Vopenness
VNN
tp582
a(V,
V,
tp583
a(Vhonesty
VNN
tp584
a(Vand
VCC
tp585
a(Vlegality
VNN
tp586
a(Vin
VIN
tp587
a(Vgovernment
VNN
tp588
a(V.
V.
tp589
aa(lp590
(V36
VCD
tp591
a(V.
V.
tp592
aa(lp593
(VIt
VPRP
tp594
a(Vwas
VVBD
tp595
a(Van
VDT
tp596
a(Voutstanding
VJJ
tp597
a(Vachievement
VNN
tp598
a(V.
V.
tp599
aa(lp600
(V33
VCD
tp601
a(V.
V.
tp602
aa(lp603
(VThis
VDT
tp604
a(Vwas
VVBD
tp605
a(Vone
VCD
tp606
a(Vof
VIN
tp607
a(Vthem
VPRP
tp608
a(V.
V.
tp609
aa(lp610
(VI
VPRP
tp611
a(Vshould
VMD
tp612
a(Vhave
VVB
tp613
a(Vspoken
VVBN
tp614
a(Vearlier
VRBR
tp615
a(Von
VIN
tp616
a(V,
V,
tp617
a(Vbut
VCC
tp618
a(Vwe
VPRP
tp619
a(Vwill
VMD
tp620
a(Vdeal
VVB
tp621
a(Vwith
VIN
tp622
a(Vthat
VDT
tp623
a(Vlater
VRB
tp624
a(V.
V.
tp625
aa(lp626
(VDespite
VIN
tp627
a(Vthe
VDT
tp628
a(Vdecision
VNN
tp629
a(Vof
VIN
tp630
a(Vthe
VDT
tp631
a(VInternational
VNNP
tp632
a(VCourt
VNNP
tp633
a(Vof
VIN
tp634
a(VJustice
VNNP
tp635
a(Vin
VIN
tp636
a(VThe
VDT
tp637
a(VHague
VNNP
tp638
a(V,
V,
tp639
a(Vwhich
VWDT
tp640
a(Vruled
VVBD
tp641
a(Vthat
VIN
tp642
a(Vthe
VDT
tp643
a(Vtemple
VNN
tp644
a(Vbelongs
VVBZ
tp645
a(Vto
VTO
tp646
a(VCambodia
VNNP
tp647
a(V,
V,
tp648
a(Vthere
VEX
tp649
a(Vare
VVBP
tp650
a(Vother
VJJ
tp651
a(Vquestions
VNNS
tp652
a(Vwhich
VWDT
tp653
a(Vstill
VRB
tp654
a(Vhave
VVBP
tp655
a(Vto
VTO
tp656
a(Vbe
VVB
tp657
a(Vdecided
VVBN
tp658
a(V.
V.
tp659
aa(lp660
(VWe
VPRP
tp661
a(Vwant
VVBP
tp662
a(Vto
VTO
tp663
a(Vestablish
VVB
tp664
a(Vand
VCC
tp665
a(Vimprove
VVB
tp666
a(Vquality
VNN
tp667
a(Vof
VIN
tp668
a(Vlife
VNN
tp669
a(V,
V,
tp670
a(Vnot
VRB
tp671
a(Vonly
VRB
tp672
a(Vin
VIN
tp673
a(Vthe
VDT
tp674
a(Vworkplace
VNN
tp675
a(V,
V,
tp676
a(Vbut
VCC
tp677
a(Valso
VRB
tp678
a(Vin
VIN
tp679
a(Vour
VPRP$
tp680
a(Venvironment
VNN
tp681
a(V.
V.
tp682
aa(lp683
(VYes
VUH
tp684
a(V,
V,
tp685
a(VHamas
VNNP
tp686
a(Vwon
VVBD
tp687
a(V.
V.
tp688
aa(lp689
(VNext
VJJ
tp690
a(Vsummer
VNN
tp691
a(V,
V,
tp692
a(Vthese
VDT
tp693
a(Vnotes
VNNS
tp694
a(Vwill
VMD
tp695
a(Vbe
VVB
tp696
a(Veverywhere
VRB
tp697
a(V.
V.
tp698
aa(lp699
(VEnlargement
VNNP
tp700
a(Vhas
VVBZ
tp701
a(Vnot
VRB
tp702
a(Valways
VRB
tp703
a(Vbeen
VVBN
tp704
a(Vsuccessful
VJJ
tp705
a(V.
V.
tp706
aa(lp707
(VThe
VDT
tp708
a(Valternative
VNN
tp709
a(V,
V,
tp710
a(Vwhich
VWDT
tp711
a(VI
VPRP
tp712
a(Vdo
VVBP
tp713
a(Vnot
VRB
tp714
a(Vlike
VVB
tp715
a(V,
V,
tp716
a(Vwould
VMD
tp717
a(Vbe
VVB
tp718
a(Vto
VTO
tp719
a(Vscale
VVB
tp720
a(Vdown
VRP
tp721
a(Vour
VPRP$
tp722
a(Vambitions
VNNS
tp723
a(V.
V.
tp724
aa(lp725
(VHowever
VRB
tp726
a(V,
V,
tp727
a(Vwe
VPRP
tp728
a(Vbelieve
VVBP
tp729
a(Vthat
VIN
tp730
a(V,
V,
tp731
a(Vwith
VIN
tp732
a(Vthe
VDT
tp733
a(Vapproach
VNN
tp734
a(Vbeing
VVBG
tp735
a(Vpursued
VVBN
tp736
a(Vhere
VRB
tp737
a(V,
V,
tp738
a(Vnothing
VNN
tp739
a(Vmore
VJJR
tp740
a(Vcan
VMD
tp741
a(Vbe
VVB
tp742
a(Vdone
VVBN
tp743
a(V.
V.
tp744
aa(lp745
(VThis
VDT
tp746
a(Valso
VRB
tp747
a(Vapplies
VVBZ
tp748
a(Vto
VTO
tp749
a(Vwhat
VWP
tp750
a(Vare
VVBP
tp751
a(Vknown
VVBN
tp752
a(Vas
VIN
tp753
a(Vgifts
VNNS
tp754
a(V.
V.
tp755
aa(lp756
(VWe
VPRP
tp757
a(Vreceived
VVBD
tp758
a(Vthe
VDT
tp759
a(Vrequest
VNN
tp760
a(Vyesterday
VNN
tp761
a(Vmorning
VNN
tp762
a(V.
V.
tp763
aa(lp764
(VLet
VVB
tp765
a(Vme
VPRP
tp766
a(Vcome
VVB
tp767
a(Vback
VRB
tp768
a(Vto
VTO
tp769
a(Vthe
VDT
tp770
a(Vimage
VNN
tp771
a(Vof
VIN
tp772
a(Vthe
VDT
tp773
a(Vfootball
VNN
tp774
a(Vmatch
VNN
tp775
a(V.
V.
tp776
aa(lp777
(VIt
VPRP
tp778
a(Vis
VVBZ
tp779
a(Vcommon
VJJ
tp780
a(Vto
VTO
tp781
a(Vsteal
VVB
tp782
a(Vbillions
VNNS
tp783
a(V.
V.
tp784
aa(lp785
(VAs
VIN
tp786
a(Vof
VIN
tp787
a(Vnow
VRB
tp788
a(V,
V,
tp789
a(Vthis
VDT
tp790
a(Vwill
VMD
tp791
a(Vbe
VVB
tp792
a(Vabsolutely
VRB
tp793
a(Vimpossible
VJJ
tp794
a(V.
V.
tp795
aa(lp796
(VTheir
VPRP$
tp797
a(Vrecord
VNN
tp798
a(Vis
VVBZ
tp799
a(Va
VDT
tp800
a(Vdeplorable
VJJ
tp801
a(Vblot
VNN
tp802
a(Von
VIN
tp803
a(Vthe
VDT
tp804
a(Vhistory
VNN
tp805
a(Vof
VIN
tp806
a(Vsouthern
VJJ
tp807
a(VAfrica
VNNP
tp808
a(V.
V.
tp809
aa(lp810
(VA
VDT
tp811
a(V19-year-old
VJJ
tp812
a(Vman
VNN
tp813
a(Vin
VIN
tp814
a(VLondon
VNNP
tp815
a(V,
V,
tp816
a(VAndrew
VNNP
tp817
a(VSymeou
VNNP
tp818
a(V,
V,
tp819
a(Vfaces
VVBZ
tp820
a(Vextradition
VNN
tp821
a(Vto
VTO
tp822
a(VGreece
VNNP
tp823
a(Von
VIN
tp824
a(Va
VDT
tp825
a(Vmanslaughter
VNN
tp826
a(Vcharge
VNN
tp827
a(V.
V.
tp828
aa(lp829
(VI
VPRP
tp830
a(Vcome
VVBP
tp831
a(Vfrom
VIN
tp832
a(Vthe
VDT
tp833
a(VNetherlands
VNNP
tp834
a(V.
V.
tp835
a(VMost
VJJS
tp836
a(Vof
VIN
tp837
a(Vthe
VDT
tp838
a(VNetherlands
VNNP
tp839
a(Vis
VVBZ
tp840
a(Vsituated
VVBN
tp841
a(Vbelow
VIN
tp842
a(Vsea
VNN
tp843
a(Vlevel
VNN
tp844
a(V.
V.
tp845
aa(lp846
(VIt
VPRP
tp847
a(Vis
VVBZ
tp848
a(Vtoo
VRB
tp849
a(Vearly
VJJ
tp850
a(Vto
VTO
tp851
a(Vascertain
VVB
tp852
a(Vhow
VWRB
tp853
a(Vlong
VJJ
tp854
a(Vthe
VDT
tp855
a(Vcurrent
VJJ
tp856
a(Vpolicy
VNN
tp857
a(Vshould
VMD
tp858
a(Vbe
VVB
tp859
a(Vcontinued
VVBN
tp860
a(V.
V.
tp861
aa(lp862
(VIt
VPRP
tp863
a(Vapplies
VVBZ
tp864
a(Vto
VTO
tp865
a(Vall
VDT
tp866
a(Vcitizens
VNNS
tp867
a(Vof
VIN
tp868
a(Veuroland
VNN
tp869
a(Vwho
VWP
tp870
a(Vtravel
VVBP
tp871
a(Vabroad
VRB
tp872
a(Vand
VCC
tp873
a(Vwho
VWP
tp874
a(Vwish
VVBP
tp875
a(Vto
VTO
tp876
a(Vobtain
VVB
tp877
a(Vtheir
VPRP$
tp878
a(Vcash
VNN
tp879
a(Vfrom
VIN
tp880
a(Va
VDT
tp881
a(Vcash
VNN
tp882
a(Vdispenser
VNN
tp883
a(V.
V.
tp884
aa(lp885
(VIt
VPRP
tp886
a(Vis
VVBZ
tp887
a(Vtruly
VRB
tp888
a(Vimprisoned
VVBN
tp889
a(Vin
VIN
tp890
a(Vthe
VDT
tp891
a(Veurozone
VNN
tp892
a(V.
V.
tp893
aa(lp894
(VThat
VDT
tp895
a(Vis
VVBZ
tp896
a(Vprecisely
VRB
tp897
a(Vwhat
VWP
tp898
a(Vwe
VPRP
tp899
a(Vare
VVBP
tp900
a(Vdoing
VVBG
tp901
a(V.
V.
tp902
aa(lp903
(VDoes
VVBZ
tp904
a(Vthis
VDT
tp905
a(Vrequire
VVB
tp906
a(Va
VDT
tp907
a(Vdebate
VNN
tp908
a(V?
V.
tp909
aa(lp910
(VMr
VNNP
tp911
a(VKonrad
VNNP
tp912
a(Vhas
VVBZ
tp913
a(Valready
VRB
tp914
a(Vmentioned
VVBN
tp915
a(Vthose
VDT
tp916
a(Vinvolving
VVBG
tp917
a(Vfreedom
VNN
tp918
a(Vof
VIN
tp919
a(Vthe
VDT
tp920
a(Vpress
VNN
tp921
a(Vand
VCC
tp922
a(Vthe
VDT
tp923
a(Vformation
VNN
tp924
a(Vof
VIN
tp925
a(Vpolitical
VJJ
tp926
a(Vparties
VNNS
tp927
a(V.
V.
tp928
aa(lp929
(VForty-one
VCD
tp930
a(Vyears
VNNS
tp931
a(Von
VIN
tp932
a(V,
V,
tp933
a(Vthat
VIN
tp934
a(Vobjective
VNN
tp935
a(Vhas
VVBZ
tp936
a(Vstill
VRB
tp937
a(Vnot
VRB
tp938
a(Vbeen
VVBN
tp939
a(Vachieved
VVBN
tp940
a(V.
V.
tp941
aa(lp942
(VIt
VPRP
tp943
a(Vis
VVBZ
tp944
a(Vnot
VRB
tp945
a(Vonly
VRB
tp946
a(Vastronauts
VNNS
tp947
a(Vwho
VWP
tp948
a(Vsee
VVBP
tp949
a(Vthe
VDT
tp950
a(Vworld
VNN
tp951
a(Vas
VIN
tp952
a(Va
VDT
tp953
a(Vsingle
VJJ
tp954
a(Ventity
VNN
tp955
a(V.
V.
tp956
aa(lp957
(VThe
VDT
tp958
a(Vhistory
VNN
tp959
a(Vof
VIN
tp960
a(Vthe
VDT
tp961
a(Ventire
VJJ
tp962
a(VEuropean
VNNP
tp963
a(VUnion
VNNP
tp964
a(Vhas
VVBZ
tp965
a(Vbeen
VVBN
tp966
a(Vabout
VIN
tp967
a(Vthis
VDT
tp968
a(V.
V.
tp969
aa(lp970
(VIf
VIN
tp971
a(Vit
VPRP
tp972
a(Vis
VVBZ
tp973
a(Vdesired
VVBN
tp974
a(Vto
VTO
tp975
a(V&apos;
VVB
tp976
a(Vchange
VVB
tp977
a(Vup
VRP
tp978
a(V&apos;
VNN
tp979
a(Vand
VCC
tp980
a(Vconnect
VVB
tp981
a(Vto
VTO
tp982
a(Vthe
VDT
tp983
a(VInternet
VNN
tp984
a(V,
V,
tp985
a(Vit
VPRP
tp986
a(Vis
VVBZ
tp987
a(Vcertain
VJJ
tp988
a(Vthat
VIN
tp989
a(Vthe
VDT
tp990
a(Vlocal
VJJ
tp991
a(Vauthorities
VNNS
tp992
a(Valone
VRB
tp993
a(Vwill
VMD
tp994
a(Vnot
VRB
tp995
a(Vbe
VVB
tp996
a(Vable
VJJ
tp997
a(Vto
VTO
tp998
a(Vbear
VVB
tp999
a(Vthe
VDT
tp1000
a(Vfinancial
VJJ
tp1001
a(Vburden
VNN
tp1002
a(Vof
VIN
tp1003
a(Vsuch
VPDT
tp1004
a(Va
VDT
tp1005
a(Vproject
VNN
tp1006
a(V.
V.
tp1007
aa(lp1008
(VSubsequently
VRB
tp1009
a(V,
V,
tp1010
a(Vresearch
VNN
tp1011
a(Vinstitutes
VNN
tp1012
a(Vand
VCC
tp1013
a(Vcompanies
VNNS
tp1014
a(Vshould
VMD
tp1015
a(Vbe
VVB
tp1016
a(Vinvited
VVBN
tp1017
a(Vto
VTO
tp1018
a(Vput
VVB
tp1019
a(Vtheir
VPRP$
tp1020
a(Vnames
VNNS
tp1021
a(Vdown
VRB
tp1022
a(V.
V.
tp1023
aa(lp1024
(VMany
VJJ
tp1025
a(Vyoung
VJJ
tp1026
a(Vpeople
VNNS
tp1027
a(Vin
VIN
tp1028
a(Vthese
VDT
tp1029
a(Vcountries
VNNS
tp1030
a(Vfeel
VVBP
tp1031
a(Vhow
VWRB
tp1032
a(Vyoung
VJJ
tp1033
a(VEast
VNNS
tp1034
a(VGermans
VNNS
tp1035
a(V,
V,
tp1036
a(Von
VIN
tp1037
a(Vthe
VDT
tp1038
a(Vother
VJJ
tp1039
a(Vside
VNN
tp1040
a(Vof
VIN
tp1041
a(Vthe
VDT
tp1042
a(VWall
VNNP
tp1043
a(V,
V,
tp1044
a(Vused
VVBN
tp1045
a(Vto
VTO
tp1046
a(Vfeel
VVB
tp1047
a(V.
V.
tp1048
aa(lp1049
(VThere
VEX
tp1050
a(Vmay
VMD
tp1051
a(Vbe
VVB
tp1052
a(Vother
VJJ
tp1053
a(Vmeetings
VNNS
tp1054
a(Vnext
VJJ
tp1055
a(Vweek
VNN
tp1056
a(V.
V.
tp1057
aa(lp1058
(VAs
VIN
tp1059
a(Vtime
VNN
tp1060
a(Vpasses
VVBZ
tp1061
a(V,
V,
tp1062
a(Vthe
VDT
tp1063
a(Vtrue
VJJ
tp1064
a(Vscale
VNN
tp1065
a(Vof
VIN
tp1066
a(Vthis
VDT
tp1067
a(Vdisaster
VNN
tp1068
a(Vis
VVBZ
tp1069
a(Vbecoming
VVBG
tp1070
a(Vever
VRB
tp1071
a(Vclearer
VJJR
tp1072
a(V.
V.
tp1073
aa(lp1074
(VIt
VPRP
tp1075
a(Vis
VVBZ
tp1076
a(Vimportant
VJJ
tp1077
a(Vfor
VIN
tp1078
a(Vus
VPRP
tp1079
a(Vthat
VIN
tp1080
a(Vwe
VPRP
tp1081
a(Vsee
VVBP
tp1082
a(Vthat
VIN
tp1083
a(Vhe
VPRP
tp1084
a(Vgets
VVBZ
tp1085
a(Vthe
VDT
tp1086
a(Vresources
VNNS
tp1087
a(Vhe
VPRP
tp1088
a(Vneeds
VVBZ
tp1089
a(V.
V.
tp1090
aa(lp1091
(VLet
VVB
tp1092
a(Vus
VPRP
tp1093
a(Vfinally
VRB
tp1094
a(Vexamine
VVBP
tp1095
a(Vthe
VDT
tp1096
a(Vquestion
VNN
tp1097
a(Vof
VIN
tp1098
a(Vsocial
VJJ
tp1099
a(Vstandards
VNNS
tp1100
a(V.
V.
tp1101
aa(lp1102
(VWe
VPRP
tp1103
a(Vare
VVBP
tp1104
a(Vunfortunately
VRB
tp1105
a(Vliving
VVBG
tp1106
a(Vright
VRB
tp1107
a(Vnow
VRB
tp1108
a(Vin
VIN
tp1109
a(Va
VDT
tp1110
a(Vtime
VNN
tp1111
a(Vof
VIN
tp1112
a(Vprotectionism
VNN
tp1113
a(V.
V.
tp1114
aa(lp1115
(VCould
VMD
tp1116
a(Vthis
VDT
tp1117
a(Vbe
VVB
tp1118
a(Vmainly
VRB
tp1119
a(Vbecause
VIN
tp1120
a(Vit
VPRP
tp1121
a(Vis
VVBZ
tp1122
a(Vbelieved
VVBN
tp1123
a(Vthat
VIN
tp1124
a(VAlzheimer
VNN
tp1125
a(V&apos;s
VNNS
tp1126
a(Vdisease
VNN
tp1127
a(Vaffects
VVBZ
tp1128
a(Vmainly
VRB
tp1129
a(Vthe
VDT
tp1130
a(Vaged
VVBN
tp1131
a(V?
V.
tp1132
aa(lp1133
(VCuba
VNNP
tp1134
a(Vis
VVBZ
tp1135
a(Vcrazy
VJJ
tp1136
a(Vabout
VIN
tp1137
a(Vdollars
VNNS
tp1138
a(V.
V.
tp1139
aa(lp1140
(VWe
VPRP
tp1141
a(Vare
VVBP
tp1142
a(Vtalking
VVBG
tp1143
a(Vabout
VIN
tp1144
a(Vthe
VDT
tp1145
a(Vpowers
VNNS
tp1146
a(Vof
VIN
tp1147
a(Vthe
VDT
tp1148
a(VEuropean
VNNP
tp1149
a(VUnion
VNNP
tp1150
a(Vand
VCC
tp1151
a(Vof
VIN
tp1152
a(Vthe
VDT
tp1153
a(VCommission
VNNP
tp1154
a(V,
V,
tp1155
a(Vnot
VRB
tp1156
a(Vabout
VIN
tp1157
a(Vsocial
VJJ
tp1158
a(Vsecurity
VNN
tp1159
a(V.
V.
tp1160
aa(lp1161
(VMr
VNNP
tp1162
a(VOnesta
VNNP
tp1163
a(Vgave
VVBD
tp1164
a(Vus
VPRP
tp1165
a(Va
VDT
tp1166
a(Vvery
VRB
tp1167
a(Vuseful
VJJ
tp1168
a(Vpiece
VNN
tp1169
a(Vof
VIN
tp1170
a(Vpaper
VNN
tp1171
a(Vyesterday
VNN
tp1172
a(V.
V.
tp1173
aa(lp1174
(VWhat
VWP
tp1175
a(Vis
VVBZ
tp1176
a(VParliament
VNNP
tp1177
a(V&apos;
VNNP
tp1178
a(Vs
VVBZ
tp1179
a(Vresponse
VNN
tp1180
a(V?
V.
tp1181
aa(lp1182
(VThe
VDT
tp1183
a(Veconomic
VJJ
tp1184
a(Vslowdown
VNN
tp1185
a(Vis
VVBZ
tp1186
a(Vparticularly
VRB
tp1187
a(Vsevere
VJJ
tp1188
a(V.
V.
tp1189
aa(lp1190
(V37
VCD
tp1191
a(V.
V.
tp1192
aa(lp1193
(VThis
VDT
tp1194
a(Vis
VVBZ
tp1195
a(Vwhat
VWP
tp1196
a(Vwe
VPRP
tp1197
a(Vcan
VMD
tp1198
a(Vglean
VVB
tp1199
a(Vfrom
VIN
tp1200
a(Vthe
VDT
tp1201
a(Vconclusions
VNNS
tp1202
a(Vof
VIN
tp1203
a(Vthe
VDT
tp1204
a(VBrussels
VNNP
tp1205
a(VEuropean
VNNP
tp1206
a(VCouncil
VNNP
tp1207
a(V,
V,
tp1208
a(Vfrom
VIN
tp1209
a(Vwhich
VWDT
tp1210
a(Vwe
VPRP
tp1211
a(Vlearn
VVBP
tp1212
a(Vin
VIN
tp1213
a(Vparticular
VJJ
tp1214
a(Vthat
VIN
tp1215
a(V:
V:
tp1216
aa(lp1217
(VRecent
VJJ
tp1218
a(Vattacks
VNNS
tp1219
a(Von
VIN
tp1220
a(Vreligious
VJJ
tp1221
a(Vminorities
VNNS
tp1222
a(Vin
VIN
tp1223
a(VEgypt
VNNP
tp1224
a(Vand
VCC
tp1225
a(Vin
VIN
tp1226
a(VMalaysia
VNNP
tp1227
aa(lp1228
(VThe
VDT
tp1229
a(Vfirst
VJJ
tp1230
a(Vconcerns
VNNS
tp1231
a(Vthe
VDT
tp1232
a(Vusers
VNNS
tp1233
a(Vof
VIN
tp1234
a(Vresearch
VNN
tp1235
a(V.
V.
tp1236
aa(lp1237
(VWe
VPRP
tp1238
a(Vmade
VVBD
tp1239
a(Vprogress
VNN
tp1240
a(Vin
VIN
tp1241
a(VParis
VNNP
tp1242
a(V.
V.
tp1243
aa(lp1244
(VThere
VEX
tp1245
a(Vare
VVBP
tp1246
a(Vissues
VNNS
tp1247
a(Vrelating
VVBG
tp1248
a(Vto
VTO
tp1249
a(Ventrepreneurship
VNN
tp1250
a(V.
V.
tp1251
aa(lp1252
(VThis
VDT
tp1253
a(Vmeeting
VNN
tp1254
a(Vis
VVBZ
tp1255
a(Vto
VTO
tp1256
a(Vinclude
VVB
tp1257
a(Va
VDT
tp1258
a(Vstate
VNN
tp1259
a(Vvisit
VNN
tp1260
a(Vby
VIN
tp1261
a(Vthe
VDT
tp1262
a(VPope
VNNP
tp1263
a(V.
V.
tp1264
aa(lp1265
(VAre
VVBP
tp1266
a(Vyou
VPRP
tp1267
a(Vpossibly
VRB
tp1268
a(Vgoing
VVBG
tp1269
a(Vto
VTO
tp1270
a(Vadjust
VVB
tp1271
a(Vthe
VDT
tp1272
a(Vstress
VNN
tp1273
a(Vtest
VNN
tp1274
a(V?
V.
tp1275
aa(lp1276
(VThen
VRB
tp1277
a(Vthere
VEX
tp1278
a(Vwas
VVBD
tp1279
a(Vthe
VDT
tp1280
a(VWar
VNN
tp1281
a(Vof
VIN
tp1282
a(VSecession
VNNP
tp1283
a(Vin
VIN
tp1284
a(V1863
VCD
tp1285
a(V.
V.
tp1286
aa(lp1287
(VThe
VDT
tp1288
a(VBerlin
VNNP
tp1289
a(Vresolutions
VNNS
tp1290
a(Vset
VVBD
tp1291
a(Vout
VRP
tp1292
a(Vagricultural
VJJ
tp1293
a(Vpolicy
VNN
tp1294
a(Vup
VIN
tp1295
a(Vto
VTO
tp1296
a(Vthe
VDT
tp1297
a(Vyear
VNN
tp1298
a(V2006
VCD
tp1299
a(V.
V.
tp1300
aa(lp1301
(VNicaragua
VNNP
tp1302
aa(lp1303
(VIt
VPRP
tp1304
a(Vis
VVBZ
tp1305
a(Va
VDT
tp1306
a(Vfact
VNN
tp1307
a(Vthat
VIN
tp1308
a(Vtoday
VNN
tp1309
a(V&apos;s
VNNS
tp1310
a(VRussia
VNNP
tp1311
a(Vis
VVBZ
tp1312
a(Vstronger
VJJR
tp1313
a(Veconomically
VRB
tp1314
a(Vand
VCC
tp1315
a(Vis
VVBZ
tp1316
a(Vas
VIN
tp1317
a(Va
VDT
tp1318
a(Vconsequence
VNN
tp1319
a(Vmore
VRBR
tp1320
a(Vself-confident
VJJ
tp1321
a(V.
V.
tp1322
aa(lp1323
(VYou
VPRP
tp1324
a(Vall
VDT
tp1325
a(Vreceived
VVBD
tp1326
a(Va
VDT
tp1327
a(Vquestionnaire
VNN
tp1328
a(V.
V.
tp1329
aa(lp1330
(VSo
VIN
tp1331
a(Vwe
VPRP
tp1332
a(Vhad
VVBD
tp1333
a(Vto
VTO
tp1334
a(Vchange
VVB
tp1335
a(Vit
VPRP
tp1336
a(V.
V.
tp1337
aa(lp1338
(VBut
VCC
tp1339
a(Vthis
VDT
tp1340
a(Vdoes
VVBZ
tp1341
a(Vnot
VRB
tp1342
a(Vmean
VVB
tp1343
a(Vthat
VIN
tp1344
a(Vwe
VPRP
tp1345
a(Vshall
VMD
tp1346
a(Vbe
VVB
tp1347
a(Vtransferring
VVBG
tp1348
a(Vany
VDT
tp1349
a(Vwater
VNN
tp1350
a(Vfrom
VIN
tp1351
a(VAustria
VNNP
tp1352
a(V.
V.
tp1353
aa(lp1354
(VI
VPRP
tp1355
a(Vhad
VVBD
tp1356
a(Vbeen
VVBN
tp1357
a(Vthe
VDT
tp1358
a(Vcoordinator
VNN
tp1359
a(Vof
VIN
tp1360
a(Vthe
VDT
tp1361
a(V&apos;
VNN
tp1362
a(Vyes
VRB
tp1363
a(V&apos;
VJJ
tp1364
a(Vcampaign
VNN
tp1365
a(Vat
VIN
tp1366
a(VOxford
VNNP
tp1367
a(VUniversity
VNNP
tp1368
a(V.
V.
tp1369
aa(lp1370
(VThe
VDT
tp1371
a(Vsystem
VNN
tp1372
a(Vis
VVBZ
tp1373
a(Vhighly
VRB
tp1374
a(Veffective
VJJ
tp1375
a(V.
V.
tp1376
aa(lp1377
(VInstead
VRB
tp1378
a(V,
V,
tp1379
a(Vwe
VPRP
tp1380
a(Vshould
VMD
tp1381
a(Vuse
VVB
tp1382
a(Vthe
VDT
tp1383
a(Vtime
VNN
tp1384
a(Vto
VTO
tp1385
a(Vdo
VVB
tp1386
a(Vsome
VDT
tp1387
a(Vforward
VRB
tp1388
a(Vthinking
VVBG
tp1389
a(V.
V.
tp1390
aa.