(lp1
(lp2
(VThe
VDT
tp3
a(VEU
VNNP
tp4
a(V,
V,
tp5
a(Vhowever
VRB
tp6
a(V,
V,
tp7
a(Vmust
VMD
tp8
a(Vnot
VRB
tp9
a(Vsit
VVB
tp10
a(Von
VIN
tp11
a(Vits
VPRP$
tp12
a(Vhands
VNNS
tp13
a(V.
V.
tp14
aa(lp15
(VThis
VDT
tp16
a(Vwill
VMD
tp17
a(Vbe
VVB
tp18
a(Va
VDT
tp19
a(Vlittle
VJJ
tp20
a(Vshorter
VJJR
tp21
a(Vthis
VDT
tp22
a(Vevening
VNN
tp23
a(Vthan
VIN
tp24
a(Vit
VPRP
tp25
a(Vshould
VMD
tp26
a(Vbe
VVB
tp27
a(Vbecause
VIN
tp28
a(Vthe
VDT
tp29
a(Vpreceding
VVBG
tp30
a(Vdebate
VNN
tp31
a(Voverran
VNN
tp32
a(Vby
VIN
tp33
a(V25
VCD
tp34
a(Vminutes
VNNS
tp35
a(Vbecause
VIN
tp36
a(Vof
VIN
tp37
a(Vearlier
VJJR
tp38
a(Vdelays
VNNS
tp39
a(V.
V.
tp40
aa(lp41
(VClearly
VRB
tp42
a(V,
V,
tp43
a(Vthere
VEX
tp44
a(Vcannot
VFW
tp45
a(Vbe
VVB
tp46
a(Vany
VDT
tp47
a(Vdemocratic
VJJ
tp48
a(Vdebate
VNN
tp49
a(Vin
VIN
tp50
a(Va
VDT
tp51
a(Vclimate
VNN
tp52
a(Vof
VIN
tp53
a(Vfear
VNN
tp54
a(Vand
VCC
tp55
a(Vintimidation
VNN
tp56
a(V.
V.
tp57
aa(lp58
(VA
VDT
tp59
a(Vprogramme
VNN
tp60
a(Vreviewing
VVBG
tp61
a(Vthe
VDT
tp62
a(Vgeneral
VJJ
tp63
a(Vconditions
VNNS
tp64
a(Vfor
VIN
tp65
a(Vcofinancing
VNN
tp66
a(Vis
VVBZ
tp67
a(Vcurrently
VRB
tp68
a(Vunder
VIN
tp69
a(Vway
VNN
tp70
a(Vwithin
VIN
tp71
a(Vthe
VDT
tp72
a(VCommission
VNNP
tp73
a(V.
V.
tp74
aa(lp75
(VFarmers
VNNP
tp76
a(Vlike
VIN
tp77
a(Vto
VTO
tp78
a(Vbuy
VVB
tp79
a(Vingredients
VNNS
tp80
a(Vand
VCC
tp81
a(Vto
VTO
tp82
a(Vmix
VVB
tp83
a(Vtheir
VPRP$
tp84
a(Vown
VJJ
tp85
a(Vrations
VNNS
tp86
a(V,
V,
tp87
a(Vand
VCC
tp88
a(Vgenerally
VRB
tp89
a(Vlarger
VJJR
tp90
a(Vfarmers
VNNS
tp91
a(Vdo
VVBP
tp92
a(Vthis
VDT
tp93
a(V.
V.
tp94
aa(lp95
(VBut
VCC
tp96
a(Vfirst
VJJ
tp97
a(Vand
VCC
tp98
a(Vforemost
VJJ
tp99
a(V,
V,
tp100
a(VMr
VNNP
tp101
a(VPresident
VNNP
tp102
a(V,
V,
tp103
a(Vwe
VPRP
tp104
a(Vare
VVBP
tp105
a(Vin
VIN
tp106
a(Vfavour
VNN
tp107
a(Vof
VIN
tp108
a(Vthe
VDT
tp109
a(Vrules
VNNS
tp110
a(Von
VIN
tp111
a(Vcoexistence
VNN
tp112
a(Vestablished
VVBN
tp113
a(Vby
VIN
tp114
a(Vthe
VDT
tp115
a(VTreaty
VNNP
tp116
a(V,
V,
tp117
a(Vand
VCC
tp118
a(Vof
VIN
tp119
a(Vrespecting
VVBG
tp120
a(Vthem
VPRP
tp121
a(V.
V.
tp122
aa(lp123
(VAn
VDT
tp124
a(V18-year
VJJ
tp125
a(Vold
VJJ
tp126
a(Vis
VVBZ
tp127
a(Vallowed
VVBN
tp128
a(Vto
VTO
tp129
a(Vdrive
VVB
tp130
a(Va
VDT
tp131
a(Vbig
VJJ
tp132
a(VLandrover
VNN
tp133
a(Vbut
VCC
tp134
a(Vyou
VPRP
tp135
a(Vmust
VMD
tp136
a(Vbe
VVB
tp137
a(V24
VCD
tp138
a(Vyears
VNNS
tp139
a(Vof
VIN
tp140
a(Vage
VNN
tp141
a(Vto
VTO
tp142
a(Vbe
VVB
tp143
a(Vable
VJJ
tp144
a(Vto
VTO
tp145
a(Vdrive
VVB
tp146
a(Va
VDT
tp147
a(Vheavy
VJJ
tp148
a(Vgoods
VNNS
tp149
a(Vvehicle
VNN
tp150
a(Vstraight
VRB
tp151
a(Vaway
VRB
tp152
a(V.
V.
tp153
aa(lp154
(VThe
VDT
tp155
a(Vgoal
VNN
tp156
a(Vis
VVBZ
tp157
a(Vclear
VJJ
tp158
a(V:
V:
tp159
a(Vto
VTO
tp160
a(Vsee
VVB
tp161
a(Vseveral
VJJ
tp162
a(Vlarge-scale
VJJ
tp163
a(Vdemonstration
VNN
tp164
a(Vplants
VNNS
tp165
a(Voperational
VJJ
tp166
a(Vin
VIN
tp167
a(Vthe
VDT
tp168
a(VEU
VNNP
tp169
a(Vby
VIN
tp170
a(V2015
VCD
tp171
a(V,
V,
tp172
a(Vand
VCC
tp173
a(Vto
VTO
tp174
a(Vbring
VVB
tp175
a(Vthe
VDT
tp176
a(Vtechnology
VNN
tp177
a(Vto
VTO
tp178
a(Vthe
VDT
tp179
a(Vmarket
VNN
tp180
a(Vby
VIN
tp181
a(V2020
VCD
tp182
a(V.
V.
tp183
aa(lp184
(VMight
VVB
tp185
a(Vthe
VDT
tp186
a(VAmerican
VJJ
tp187
a(Vpeople
VNNS
tp188
a(Vbe
VVB
tp189
a(Vless
VRBR
tp190
a(Vopen
VJJ
tp191
a(Vto
VTO
tp192
a(Vthe
VDT
tp193
a(Vfacts
VNNS
tp194
a(Vthan
VIN
tp195
a(Vus
VPRP
tp196
a(VEuropeans
VNNPS
tp197
a(V?
V.
tp198
aa(lp199
(VNone
VNN
tp200
a(Vof
VIN
tp201
a(Vthese
VDT
tp202
a(Vpoints
VNNS
tp203
a(Vmust
VMD
tp204
a(Vbe
VVB
tp205
a(Vforgotten
VVBN
tp206
a(Vin
VIN
tp207
a(Vthe
VDT
tp208
a(Vanalysis
VNN
tp209
a(Vof
VIN
tp210
a(Vwhat
VWP
tp211
a(Vthe
VDT
tp212
a(VStructural
VJJ
tp213
a(VFunds
VNNS
tp214
a(Vhave
VVBP
tp215
a(Vrepresented
VVBN
tp216
a(V.
V.
tp217
aa(lp218
(VThe
VDT
tp219
a(Vsectors
VNNS
tp220
a(VI
VPRP
tp221
a(Vhave
VVBP
tp222
a(Vtalked
VVBN
tp223
a(Vto
VTO
tp224
a(Vhave
VVB
tp225
a(V,
V,
tp226
a(Vin
VIN
tp227
a(Vfact
VNN
tp228
a(V,
V,
tp229
a(Vinterpreted
VVBD
tp230
a(Vthe
VDT
tp231
a(Vprogramme
VNN
tp232
a(Vin
VIN
tp233
a(Vthis
VDT
tp234
a(Vway
VNN
tp235
a(Vand
VCC
tp236
a(Vhave
VVBP
tp237
a(Vappreciated
VVBN
tp238
a(Vthe
VDT
tp239
a(Vgesture
VNN
tp240
a(V.
V.
tp241
aa(lp242
(VGoogle
VNNP
tp243
a(Vis
VVBZ
tp244
a(Vprepared
VVBN
tp245
a(Vto
VTO
tp246
a(Vinvest
VVB
tp247
a(VEUR
V$
tp248
a(V15
VCD
tp249
a(Vmillion
VCD
tp250
a(Va
VDT
tp251
a(Vyear
VNN
tp252
a(Vin
VIN
tp253
a(Vrapidly
VRB
tp254
a(Vdigitising
VVBG
tp255
a(Vand
VCC
tp256
a(Vmaking
VVBG
tp257
a(Vavailable
VJJ
tp258
a(Vup
VIN
tp259
a(Vto
VTO
tp260
a(V20
VCD
tp261
a(Vmillion
VCD
tp262
a(Vworks
VNNS
tp263
a(Vin
VIN
tp264
a(V10
VCD
tp265
a(Vyears
VNNS
tp266
a(V.
V.
tp267
aa(lp268
(VMadam
VNNP
tp269
a(VPresident
VNNP
tp270
a(V,
V,
tp271
a(VCommissioner
VNNP
tp272
a(V,
V,
tp273
a(Vwith
VIN
tp274
a(Vthis
VDT
tp275
a(Vdirective
VNN
tp276
a(V,
V,
tp277
a(Vwe
VPRP
tp278
a(Vhave
VVBP
tp279
a(Vbefore
VIN
tp280
a(Vus
VPRP
tp281
a(Vlegislation
VNN
tp282
a(Vthat
VWDT
tp283
a(Vhas
VVBZ
tp284
a(Vcome
VVBN
tp285
a(Vabout
VIN
tp286
a(Vsurprisingly
VRB
tp287
a(Vquickly
VRB
tp288
a(V.
V.
tp289
aa(lp290
(VIn
VIN
tp291
a(Vthis
VDT
tp292
a(Vconnection
VNN
tp293
a(VI
VPRP
tp294
a(Vsupport
VVBP
tp295
a(Vthe
VDT
tp296
a(Vissue
VNN
tp297
a(Vof
VIN
tp298
a(Vlimiting
VVBG
tp299
a(Vcompetition
VNN
tp300
a(V-
V:
tp301
a(Vof
VIN
tp302
a(Vlimiting
VVBG
tp303
a(Vgeneral
VJJ
tp304
a(VEuropean
VJJ
tp305
a(Vcompetition
VNN
tp306
a(Vlaw
VNN
tp307
a(Vto
VTO
tp308
a(Vlocal
VJJ
tp309
a(Vand
VCC
tp310
a(Vregional
VJJ
tp311
a(Vpublic
VJJ
tp312
a(Vservices
VNNS
tp313
a(V.
V.
tp314
aa(lp315
(VAlthough
VIN
tp316
a(Vthe
VDT
tp317
a(Vgovernment
VNN
tp318
a(Vis
VVBZ
tp319
a(Vworking
VVBG
tp320
a(Von
VIN
tp321
a(Vchanges
VNNS
tp322
a(V,
V,
tp323
a(Vit
VPRP
tp324
a(Vcannot
VNN
tp325
a(Vdo
VVBP
tp326
a(Vmuch
VRB
tp327
a(Vmore
VJJR
tp328
a(Vthan
VIN
tp329
a(Vwhat
VWP
tp330
a(Vcircumstances
VNNS
tp331
a(Vpermit
VVBP
tp332
a(V.
V.
tp333
aa(lp334
(VIt
VPRP
tp335
a(Vis
VVBZ
tp336
a(Vtrue
VJJ
tp337
a(Vthat
VIN
tp338
a(Vthere
VEX
tp339
a(Vis
VVBZ
tp340
a(Va
VDT
tp341
a(Vlimit
VNN
tp342
a(V.
V.
tp343
aa(lp344
(VMany
VJJ
tp345
a(Vthousands
VNNS
tp346
a(Vare
VVBP
tp347
a(Vpolitical
VJJ
tp348
a(Vprisoners
VNNS
tp349
a(Vand
VCC
tp350
a(Vthe
VDT
tp351
a(VSakharov
VNNP
tp352
a(Vprize
VNN
tp353
a(Vwinner
VNN
tp354
a(V,
V,
tp355
a(VMrs
VNNP
tp356
a(VAung
VNNP
tp357
a(VSan
VNNP
tp358
a(VSuu
VNNP
tp359
a(VKyi
VNNP
tp360
a(V,
V,
tp361
a(Vhas
VVBZ
tp362
a(Vbeen
VVBN
tp363
a(Vunder
VIN
tp364
a(Vhouse
VNN
tp365
a(Varrest
VNN
tp366
a(Vfor
VIN
tp367
a(Vthe
VDT
tp368
a(Vlast
VJJ
tp369
a(V16
VCD
tp370
a(Vyears
VNNS
tp371
a(V.
V.
tp372
aa(lp373
(VAnd
VCC
tp374
a(Vthe
VDT
tp375
a(Vsecond
VJJ
tp376
a(Vis
VVBZ
tp377
a(Vthis
VDT
tp378
a(V:
V:
tp379
a(V\u2018
VCD
tp380
a(VHe
VPRP
tp381
a(Vwho
VWP
tp382
a(Vdoes
VVBZ
tp383
a(Vnot
VRB
tp384
a(Vtake
VVB
tp385
a(Vhimself
VPRP
tp386
a(Vseriously
VRB
tp387
a(Vwill
VMD
tp388
a(Vnot
VRB
tp389
a(Vbe
VVB
tp390
a(Vtaken
VVBN
tp391
a(Vseriously
VRB
tp392
a(Vby
VIN
tp393
a(Vothers
VNNS
tp394
a(V\u2019
VCD
tp395
a(V.
V.
tp396
aa(lp397
(VThey
VPRP
tp398
a(Vcall
VVBP
tp399
a(Vfor
VIN
tp400
a(Vthe
VDT
tp401
a(Vindependence
VNN
tp402
a(Vof
VIN
tp403
a(VTibet
VNNP
tp404
a(Vand
VCC
tp405
a(Vcriticise
VVB
tp406
a(Vmy
VPRP$
tp407
a(V&apos;
VNN
tp408
a(VMiddle
VNN
tp409
a(VWay
VNN
tp410
a(VApproach
VNN
tp411
a(V&apos;
VNN
tp412
a(V.
V.
tp413
aa(lp414
(VI
VPRP
tp415
a(Vreally
VRB
tp416
a(Vwonder
VVBP
tp417
a(Vwhether
VIN
tp418
a(Vthe
VDT
tp419
a(Vtime
VNN
tp420
a(Vhas
VVBZ
tp421
a(Vnot
VRB
tp422
a(Vcome
VVB
tp423
a(Vto
VTO
tp424
a(Vmake
VVB
tp425
a(Va
VDT
tp426
a(Vqualitative
VJJ
tp427
a(Vleap
VNN
tp428
a(V.
V.
tp429
aa(lp430
(VTaking
VVBG
tp431
a(Vfingerprints
VNNS
tp432
a(Vfrom
VIN
tp433
a(Vpeople
VNNS
tp434
a(V,
V,
tp435
a(Vjust
VRB
tp436
a(Vbecause
VIN
tp437
a(Vthey
VPRP
tp438
a(Vare
VVBP
tp439
a(Vnot
VRB
tp440
a(Vcitizens
VNNS
tp441
a(Vof
VIN
tp442
a(Va
VDT
tp443
a(VMember
VNNP
tp444
a(VState
VNNP
tp445
a(V,
V,
tp446
a(Vis
VVBZ
tp447
a(Vtantamount
VJJ
tp448
a(Vto
VTO
tp449
a(Vwholesale
VJJ
tp450
a(Vcriminalisation
VNN
tp451
a(Vof
VIN
tp452
a(Vforeign
VJJ
tp453
a(Vnationals
VNNS
tp454
a(V.
V.
tp455
aa(lp456
(VFurthermore
VRB
tp457
a(V,
V,
tp458
a(Vthis
VDT
tp459
a(Vwill
VMD
tp460
a(Vbe
VVB
tp461
a(Vcarried
VVBN
tp462
a(Vout
VRP
tp463
a(Vby
VIN
tp464
a(Vfinding
VVBG
tp465
a(Vfault
VNN
tp466
a(Vwith
VIN
tp467
a(Vthe
VDT
tp468
a(VConvention
VNNP
tp469
a(V,
V,
tp470
a(Vwhich
VWDT
tp471
a(Vwas
VVBD
tp472
a(Vthe
VDT
tp473
a(Vnearest
VJJS
tp474
a(Vthing
VNN
tp475
a(Vto
VTO
tp476
a(Va
VDT
tp477
a(Vconstitutive
VJJ
tp478
a(Vassembly
VNN
tp479
a(Vand
VCC
tp480
a(Vwhich
VWDT
tp481
a(Vin
VIN
tp482
a(Vevery
VDT
tp483
a(Vway
VNN
tp484
a(Vbetter
VRBR
tp485
a(Vrepresented
VVBN
tp486
a(Vthe
VDT
tp487
a(Vcitizens
VNNS
tp488
a(V.
V.
tp489
aa(lp490
(VThe
VDT
tp491
a(VScottish
VJJ
tp492
a(VConservative
VNNP
tp493
a(VParty
VNNP
tp494
a(Vcandidate
VNN
tp495
a(Vin
VIN
tp496
a(VAyr
VNNP
tp497
a(V,
V,
tp498
a(VJohn
VNNP
tp499
a(VScott
VNNP
tp500
a(V,
V,
tp501
a(Vhas
VVBZ
tp502
a(Vhumiliated
VVBN
tp503
a(VLabour
VNN
tp504
a(Vinto
VIN
tp505
a(Vthird
VJJ
tp506
a(Vplace
VNN
tp507
a(V-
V:
tp508
a(V5
VCD
tp509
a(V000
VCD
tp510
a(Vor
VCC
tp511
a(Vmore
VJJR
tp512
a(Vvotes
VNNS
tp513
a(Vbehind
VIN
tp514
a(V.
V.
tp515
aa(lp516
(V7
VCD
tp517
a(V.
V.
tp518
a(VPolicy
VNNP
tp519
a(Vpriorities
VNNS
tp520
a(Vin
VIN
tp521
a(Vthe
VDT
tp522
a(Vfight
VNN
tp523
a(Vagainst
VIN
tp524
a(Villegal
VJJ
tp525
a(Vimmigration
VNN
tp526
a(Vof
VIN
tp527
a(Vthird-country
VJJ
tp528
a(Vnationals
VNNS
tp529
a(V(
VVBP
tp530
a(Vvote
VNN
tp531
a(V)
VNN
tp532
aa(lp533
(VBiodiversity
VNNP
tp534
a(Vis
VVBZ
tp535
a(Valso
VRB
tp536
a(Vimportant
VJJ
tp537
a(Venvironmental
VJJ
tp538
a(Vcapital
VNN
tp539
a(Vwhich
VWDT
tp540
a(Vlocal
VJJ
tp541
a(Vsocieties
VNNS
tp542
a(Vin
VIN
tp543
a(Vmany
VJJ
tp544
a(Vcountries
VNNS
tp545
a(Vdepend
VVBP
tp546
a(Von
VIN
tp547
a(Vfor
VIN
tp548
a(Vtheir
VPRP$
tp549
a(Vlivelihood
VNN
tp550
a(V.
V.
tp551
aa(lp552
(VI
VPRP
tp553
a(Vthought
VVBD
tp554
a(Vyou
VPRP
tp555
a(Vhad
VVBD
tp556
a(Vleft
VVBN
tp557
a(V,
V,
tp558
a(Vbecause
VIN
tp559
a(Vyou
VPRP
tp560
a(Vwere
VVBD
tp561
a(Vin
VIN
tp562
a(Vshirt-sleeves
VNNS
tp563
a(Vwhen
VWRB
tp564
a(Vyou
VPRP
tp565
a(Vspoke
VVBD
tp566
a(V!
V.
tp567
aa(lp568
(VSo
VRB
tp569
a(V,
V,
tp570
a(Vhow
VWRB
tp571
a(Vdo
VVBP
tp572
a(Vthe
VDT
tp573
a(Vpros
VNNS
tp574
a(Vand
VCC
tp575
a(Vcons
VNNS
tp576
a(Vbalance
VVBP
tp577
a(Vout
VRP
tp578
a(V?
V.
tp579
a(VWell
VUH
tp580
a(V,
V,
tp581
a(Von
VIN
tp582
a(Vbalance
VNN
tp583
a(V,
V,
tp584
a(Vdespite
VIN
tp585
a(Veverything
VNN
tp586
a(V,
V,
tp587
a(Vwe
VPRP
tp588
a(Vhave
VVBP
tp589
a(Vto
VTO
tp590
a(Vsupport
VVB
tp591
a(Vthis
VDT
tp592
a(Vconvention
VNN
tp593
a(Vand
VCC
tp594
a(Vask
VVB
tp595
a(Vfor
VIN
tp596
a(Vit
VPRP
tp597
a(Vto
VTO
tp598
a(Vbe
VVB
tp599
a(Vratified
VVBN
tp600
a(Vas
VRB
tp601
a(Vsoon
VRB
tp602
a(Vas
VIN
tp603
a(Vpossible
VJJ
tp604
a(V.
V.
tp605
aa(lp606
(VFirstly
VRB
tp607
a(V,
V,
tp608
a(Vit
VPRP
tp609
a(Vwill
VMD
tp610
a(Vkill
VVB
tp611
a(Vmany
VJJ
tp612
a(VIraqi
VJJ
tp613
a(Vcitizens
VNNS
tp614
a(Vwho
VWP
tp615
a(Vare
VVBP
tp616
a(Vwholly
VRB
tp617
a(Vinnocent
VJJ
tp618
a(Vof
VIN
tp619
a(Vany
VDT
tp620
a(Voffence
VNN
tp621
a(Vagainst
VIN
tp622
a(Vthe
VDT
tp623
a(VUnited
VNNP
tp624
a(VStates
VNNPS
tp625
a(Vor
VCC
tp626
a(Vits
VPRP$
tp627
a(Vreal
VJJ
tp628
a(Vor
VCC
tp629
a(Vimagined
VVBN
tp630
a(Vinterests
VNNS
tp631
a(V.
V.
tp632
aa(lp633
(Vby
VIN
tp634
a(VJune
VNNP
tp635
a(V2003
VCD
tp636
a(V,
V,
tp637
a(Vwe
VPRP
tp638
a(Vwill
VMD
tp639
a(Vadopt
VVB
tp640
a(Vrules
VNNS
tp641
a(Von
VIN
tp642
a(Vrefugee
VNN
tp643
a(Vstatus
VNN
tp644
a(V,
V,
tp645
a(Vreuniting
VVBG
tp646
a(Vfamilies
VNNS
tp647
a(Vand
VCC
tp648
a(Vthe
VDT
tp649
a(Vstatus
VNN
tp650
a(Vof
VIN
tp651
a(Vlong-term
VJJ
tp652
a(Vpermanent
VJJ
tp653
a(Vresidents
VNNS
tp654
a(V;
V:
tp655
a(Vand
VCC
tp656
aa(lp657
(VIn
VIN
tp658
a(Vaddition
VNN
tp659
a(V,
V,
tp660
a(Vin
VIN
tp661
a(Vrecent
VJJ
tp662
a(Vyears
VNNS
tp663
a(V,
V,
tp664
a(Vthe
VDT
tp665
a(Vnumber
VNN
tp666
a(Vof
VIN
tp667
a(Vcases
VNNS
tp668
a(Vin
VIN
tp669
a(Vwhich
VWDT
tp670
a(Vemployees
VNNS
tp671
a(Vhave
VVBP
tp672
a(Vbeen
VVBN
tp673
a(Vdismissed
VVBN
tp674
a(Vwhile
VIN
tp675
a(Von
VIN
tp676
a(Vsick
VJJ
tp677
a(Vleave
VNN
tp678
a(Vor
VCC
tp679
a(Vfollowing
VVBG
tp680
a(Van
VDT
tp681
a(Vaccident
VNN
tp682
a(Vat
VIN
tp683
a(Vwork
VNN
tp684
a(Vhas
VVBZ
tp685
a(Vrisen
VVBN
tp686
a(V.
V.
tp687
aa(lp688
(VWho
VWP
tp689
a(Vknows
VVBZ
tp690
a(V?
V.
tp691
aa(lp692
(VAnimals
VNNS
tp693
a(Vsuffer
VVBP
tp694
a(Vif
VIN
tp695
a(Vthey
VPRP
tp696
a(Vcannot
VVBP
tp697
a(Vbe
VVB
tp698
a(Vgiven
VVBN
tp699
a(Vthis
VDT
tp700
a(Vmedicine
VNN
tp701
a(Vin
VIN
tp702
a(Vthe
VDT
tp703
a(Vpresent
VJJ
tp704
a(Vsituation
VNN
tp705
a(V.
V.
tp706
aa(lp707
(VToday
VNN
tp708
a(V,
V,
tp709
a(VI
VPRP
tp710
a(Vsuspect
VVBP
tp711
a(Vthat
VIN
tp712
a(Vthere
VEX
tp713
a(Vare
VVBP
tp714
a(Vpossibly
VRB
tp715
a(Vone
VCD
tp716
a(Vor
VCC
tp717
a(Vtwo
VCD
tp718
a(VMember
VNNP
tp719
a(VStates
VNNPS
tp720
a(V-
V:
tp721
a(Vperhaps
VRB
tp722
a(Vone
VCD
tp723
a(Vof
VIN
tp724
a(Vthem
VPRP
tp725
a(Vis
VVBZ
tp726
a(Vyour
VPRP$
tp727
a(Vown
VJJ
tp728
a(V,
V,
tp729
a(VMr
VNNP
tp730
a(VWurtz
VNNP
tp731
a(V-
V:
tp732
a(Vwho
VWP
tp733
a(Vmight
VMD
tp734
a(Vhave
VVB
tp735
a(Vsimilar
VJJ
tp736
a(Vinterests
VNNS
tp737
a(V,
V,
tp738
a(Vthe
VDT
tp739
a(Vsame
VJJ
tp740
a(Vsort
VNN
tp741
a(Vof
VIN
tp742
a(Vinterests
VNNS
tp743
a(Vthat
VIN
tp744
a(Vyou
VPRP
tp745
a(Vmost
VRBS
tp746
a(Vstrongly
VRB
tp747
a(Vcondemn
VVBP
tp748
a(Vwhere
VWRB
tp749
a(Vthe
VDT
tp750
a(VUS
VNNP
tp751
a(Vis
VVBZ
tp752
a(Vconcerned
VVBN
tp753
a(V.
V.
tp754
aa(lp755
(VHe
VPRP
tp756
a(Vtested
VVBD
tp757
a(Vher
VPRP
tp758
a(Vin
VIN
tp759
a(Vcourt
VNN
tp760
a(Vwith
VIN
tp761
a(Vthe
VDT
tp762
a(Vassistance
VNN
tp763
a(Vof
VIN
tp764
a(Vthe
VDT
tp765
a(Vprosecution
VNN
tp766
a(Vlawyers
VNNS
tp767
a(V.
V.
tp768
aa(lp769
(VThere
VEX
tp770
a(Vis
VVBZ
tp771
a(Vno
VDT
tp772
a(Vreason
VNN
tp773
a(Vfor
VIN
tp774
a(Vsubsidiarity
VNN
tp775
a(V.
V.
tp776
aa(lp777
(VThe
VDT
tp778
a(Veuphoria
VNN
tp779
a(Vover
VIN
tp780
a(Vthe
VDT
tp781
a(Vnew
VJJ
tp782
a(Veconomy
VNN
tp783
a(Vhas
VVBZ
tp784
a(Vfallen
VVBN
tp785
a(Vinto
VIN
tp786
a(Vthe
VDT
tp787
a(Vabyss
VNN
tp788
a(Valong
VIN
tp789
a(Vwith
VIN
tp790
a(Vthe
VDT
tp791
a(Vfall
VNN
tp792
a(Vin
VIN
tp793
a(Vshare
VNN
tp794
a(Vprices
VNNS
tp795
a(V.
V.
tp796
aa(lp797
(VIt
VPRP
tp798
a(Vis
VVBZ
tp799
a(Valso
VRB
tp800
a(Vone
VCD
tp801
a(Vof
VIN
tp802
a(Vthe
VDT
tp803
a(Vcheapest
VJJS
tp804
a(V.
V.
tp805
aa(lp806
(VOf
VIN
tp807
a(Vcourse
VNN
tp808
a(V,
V,
tp809
a(Vanalysts
VNNS
tp810
a(Vin
VIN
tp811
a(Vthe
VDT
tp812
a(Vmarket
VNN
tp813
a(Vare
VVBP
tp814
a(Vwell
VRB
tp815
a(Vable
VJJ
tp816
a(Vto
VTO
tp817
a(Vread
VVB
tp818
a(Vacross
VIN
tp819
a(Vfrom
VIN
tp820
a(Vstress
VNN
tp821
a(Vtests
VNNS
tp822
a(Vand
VCC
tp823
a(Vother
VJJ
tp824
a(Vinformation
VNN
tp825
a(Vand
VCC
tp826
a(Vmake
VVB
tp827
a(Van
VDT
tp828
a(Vestimate
VNN
tp829
a(Vas
VIN
tp830
a(Vto
VTO
tp831
a(Vwhat
VWP
tp832
a(Vis
VVBZ
tp833
a(Vgoing
VVBG
tp834
a(Von
VIN
tp835
a(Vin
VIN
tp836
a(Vthe
VDT
tp837
a(Vbanking
VNN
tp838
a(Vbooks
VNNS
tp839
a(V.
V.
tp840
aa(lp841
(VEverything
VNN
tp842
a(Vis
VVBZ
tp843
a(Vnow
VRB
tp844
a(Vin
VIN
tp845
a(Vplace
VNN
tp846
a(Vfor
VIN
tp847
a(Vdeveloping
VVBG
tp848
a(Vcommon
VJJ
tp849
a(VEuropean
VJJ
tp850
a(Vpositions
VNNS
tp851
a(Vso
VIN
tp852
a(Vthat
VIN
tp853
a(Vthis
VDT
tp854
a(V&apos;
VNN
tp855
a(VWashington
VNNP
tp856
a(Vdeclaration
VNN
tp857
a(V&apos;
VNN
tp858
a(Vcan
VMD
tp859
a(Vbe
VVB
tp860
a(Vimplemented
VVBN
tp861
a(Vwithin
VIN
tp862
a(Vthe
VDT
tp863
a(Vtimescale
VNN
tp864
a(Vset
VVBN
tp865
a(Vout
VRP
tp866
a(Vfor
VIN
tp867
a(Vthe
VDT
tp868
a(Vnext
VJJ
tp869
a(Vinternational
VJJ
tp870
a(Vdeadlines
VNNS
tp871
a(V.
V.
tp872
aa(lp873
(VIn
VIN
tp874
a(V1997
VCD
tp875
a(Vby
VIN
tp876
a(Vthe
VDT
tp877
a(Vbeginning
VNN
tp878
a(Vof
VIN
tp879
a(VMarch
VNNP
tp880
a(V14
VCD
tp881
a(V%
VNN
tp882
a(Vof
VIN
tp883
a(VObjective
VNN
tp884
a(V1
VCD
tp885
a(Vappropriations
VNNS
tp886
a(Vand
VCC
tp887
a(V27
VCD
tp888
a(V%
VNN
tp889
a(Vof
VIN
tp890
a(VObjective
VNN
tp891
a(V2
VCD
tp892
a(Vappropriations
VNNS
tp893
a(Vhad
VVBD
tp894
a(Vbeen
VVBN
tp895
a(Vspent
VVBN
tp896
a(V.
V.
tp897
aa(lp898
(VIn
VIN
tp899
a(Vother
VJJ
tp900
a(Vwords
VNNS
tp901
a(V,
V,
tp902
a(Vwe
VPRP
tp903
a(Vshould
VMD
tp904
a(Vstop
VVB
tp905
a(Vpaying
VVBG
tp906
a(Vsubsidies
VNNS
tp907
a(Vand
VCC
tp908
a(Vstart
VVB
tp909
a(Vpaying
VVBG
tp910
a(Vfor
VIN
tp911
a(Vthe
VDT
tp912
a(Vservices
VNNS
tp913
a(Vprovided
VVBN
tp914
a(V.
V.
tp915
aa(lp916
(VThe
VDT
tp917
a(Vfisheries
VNNS
tp918
a(Vagreement
VNN
tp919
a(Vwith
VIN
tp920
a(VGreenland
VNNP
tp921
a(Valso
VRB
tp922
a(Vmakes
VVBZ
tp923
a(Vit
VPRP
tp924
a(Vpossible
VJJ
tp925
a(Vfor
VIN
tp926
a(Vfishing
VNN
tp927
a(Vrights
VNNS
tp928
a(Vto
VTO
tp929
a(Vbe
VVB
tp930
a(Vexchanged
VVBN
tp931
a(Vwith
VIN
tp932
a(VIceland
VNNP
tp933
a(V,
V,
tp934
a(VNorway
VNNP
tp935
a(Vand
VCC
tp936
a(Vthe
VDT
tp937
a(VFaeroe
VNNP
tp938
a(VIslands
VNNPS
tp939
a(V,
V,
tp940
a(Vsomething
VNN
tp941
a(Vthat
VWDT
tp942
a(Vmaintains
VVBZ
tp943
a(Van
VDT
tp944
a(Voverall
VJJ
tp945
a(Vbalance
VNN
tp946
a(Vin
VIN
tp947
a(Vthe
VDT
tp948
a(Vnorth-east
VNN
tp949
a(VAtlantic
VNNP
tp950
a(V.
V.
tp951
aa(lp952
(VObviously
VRB
tp953
a(V,
V,
tp954
a(Vthe
VDT
tp955
a(Vfirst
VJJ
tp956
a(Vtype
VNN
tp957
a(Vis
VVBZ
tp958
a(Vthe
VDT
tp959
a(Vmost
VRBS
tp960
a(Vcommon
VJJ
tp961
a(V.
V.
tp962
a(VThis
VDT
tp963
a(Vmeans
VVBZ
tp964
a(Vthat
VIN
tp965
a(V,
V,
tp966
a(Vgenerally
VRB
tp967
a(Vspeaking
VVBG
tp968
a(V,
V,
tp969
a(Vpart-time
VJJ
tp970
a(Vwork
VNN
tp971
a(Vdoes
VVBZ
tp972
a(Vnot
VRB
tp973
a(Vsatisfy
VVB
tp974
a(Vthe
VDT
tp975
a(Vrequirements
VNNS
tp976
a(Vof
VIN
tp977
a(Vthe
VDT
tp978
a(Vpeople
VNNS
tp979
a(Vwho
VWP
tp980
a(Vare
VVBP
tp981
a(Vobliged
VVBN
tp982
a(Vto
VTO
tp983
a(Vdo
VVB
tp984
a(Vit
VPRP
tp985
a(V,
V,
tp986
a(Vmost
VJJS
tp987
a(Vof
VIN
tp988
a(Vwhom
VWP
tp989
a(V-
V:
tp990
a(Vover
VIN
tp991
a(V80
VCD
tp992
a(V%
VNN
tp993
a(V-
V:
tp994
a(Vare
VVBP
tp995
a(Vwomen
VNNS
tp996
a(V.
V.
tp997
aa(lp998
(VFinally
VRB
tp999
a(V,
V,
tp1000
a(Vfarmers
VNNS
tp1001
a(Vthemselves
VPRP
tp1002
a(Valso
VRB
tp1003
a(Vuse
VVBP
tp1004
a(Vspecific
VJJ
tp1005
a(Vvehicles
VNNS
tp1006
a(Vfor
VIN
tp1007
a(Vtransporting
VVBG
tp1008
a(Vtheir
VPRP$
tp1009
a(Vanimals
VNNS
tp1010
a(V,
V,
tp1011
a(Veither
VCC
tp1012
a(Vto
VTO
tp1013
a(Vtake
VVB
tp1014
a(Vthem
VPRP
tp1015
a(Vto
VTO
tp1016
a(Vmarket
VNN
tp1017
a(Vwithin
VIN
tp1018
a(Va
VDT
tp1019
a(Vvery
VRB
tp1020
a(Vlimited
VJJ
tp1021
a(Vradius
VNN
tp1022
a(Vor
VCC
tp1023
a(Vsimply
VRB
tp1024
a(Vto
VTO
tp1025
a(Vtake
VVB
tp1026
a(Vthem
VPRP
tp1027
a(Vto
VTO
tp1028
a(Vgrass
VNN
tp1029
a(Velsewhere
VRB
tp1030
a(V.
V.
tp1031
aa(lp1032
(VYou
VPRP
tp1033
a(Vtalked
VVBD
tp1034
a(Vfor
VIN
tp1035
a(Va
VDT
tp1036
a(Vlong
VJJ
tp1037
a(Vtime
VNN
tp1038
a(Vat
VIN
tp1039
a(Vthis
VDT
tp1040
a(Vlate
VJJ
tp1041
a(Vhour
VNN
tp1042
a(V.
V.
tp1043
aa(lp1044
(VIn
VIN
tp1045
a(Vthis
VDT
tp1046
a(Vrespect
VNN
tp1047
a(V,
V,
tp1048
a(Vthe
VDT
tp1049
a(Vreform
VNN
tp1050
a(Vmeasures
VVBZ
tp1051
a(Vinitiated
VVBN
tp1052
a(Vin
VIN
tp1053
a(Vthe
VDT
tp1054
a(Vcontext
VNN
tp1055
a(Vof
VIN
tp1056
a(Vthe
VDT
tp1057
a(Vrenewed
VVBN
tp1058
a(VLisbon
VNNP
tp1059
a(VStrategy
VNNP
tp1060
a(Vwere
VVBD
tp1061
a(Va
VDT
tp1062
a(Vwelcome
VJJ
tp1063
a(Vadditional
VJJ
tp1064
a(Vstep
VNN
tp1065
a(Vin
VIN
tp1066
a(Vthe
VDT
tp1067
a(Vright
VJJ
tp1068
a(Vdirection
VNN
tp1069
a(V.
V.
tp1070
aa(lp1071
(VGM
VNNP
tp1072
a(Vis
VVBZ
tp1073
a(Vbased
VVBN
tp1074
a(Von
VIN
tp1075
a(Vdisrupting
VVBG
tp1076
a(VDNA
VNN
tp1077
a(V.
V.
tp1078
aa(lp1079
(VOn
VIN
tp1080
a(Vboth
VDT
tp1081
a(Voccasions
VNNS
tp1082
a(V,
V,
tp1083
a(VI
VPRP
tp1084
a(Vwas
VVBD
tp1085
a(Vabsolutely
VRB
tp1086
a(Vdumbfounded
VJJ
tp1087
a(Vas
VIN
tp1088
a(Vto
VTO
tp1089
a(Vwhat
VWP
tp1090
a(Vthey
VPRP
tp1091
a(Vtold
VVBD
tp1092
a(Vus
VPRP
tp1093
a(V.
V.
tp1094
aa(lp1095
(VThey
VPRP
tp1096
a(Vwill
VMD
tp1097
a(Vnot
VRB
tp1098
a(Vbe
VVB
tp1099
a(Vconcentrated
VVBN
tp1100
a(Vin
VIN
tp1101
a(Vthe
VDT
tp1102
a(Vcapital
VNN
tp1103
a(Vcity
VNN
tp1104
a(Vwhich
VWDT
tp1105
a(Vis
VVBZ
tp1106
a(Vchosen
VVBN
tp1107
a(Vas
VIN
tp1108
a(Vthe
VDT
tp1109
a(VInstitute
VNNP
tp1110
a(V&apos;s
VNNS
tp1111
a(Vheadquarters
VNNS
tp1112
a(V.
V.
tp1113
aa(lp1114
(VThe
VDT
tp1115
a(VCommission
VNNP
tp1116
a(Vservices
VNNS
tp1117
a(Vmade
VVBD
tp1118
a(Vthe
VDT
tp1119
a(Vfull
VJJ
tp1120
a(Vtext
VNN
tp1121
a(Vof
VIN
tp1122
a(Vthis
VDT
tp1123
a(Vexternal
VJJ
tp1124
a(Vassessment
VNN
tp1125
a(Vavailable
VJJ
tp1126
a(Vto
VTO
tp1127
a(Vyour
VPRP$
tp1128
a(Vrapporteur
VNN
tp1129
a(V.
V.
tp1130
aa(lp1131
(VMr
VNNP
tp1132
a(VPresident
VNNP
tp1133
a(V,
V,
tp1134
a(Vserious
VJJ
tp1135
a(Vproblems
VNNS
tp1136
a(Vconcerning
VVBG
tp1137
a(Vthe
VDT
tp1138
a(V&apos;
VJJ
tp1139
a(Vright
VNN
tp1140
a(Vof
VIN
tp1141
a(Vownership
VNN
tp1142
a(V&apos;
VNN
tp1143
a(Vcontinue
VVBP
tp1144
a(Vto
VTO
tp1145
a(Vcause
VVB
tp1146
a(Vmany
VJJ
tp1147
a(VEuropean
VNNP
tp1148
a(VUnion
VNNP
tp1149
a(Vcitizens
VNNS
tp1150
a(Vwho
VWP
tp1151
a(Vhave
VVBP
tp1152
a(Vinvested
VVBN
tp1153
a(Vin
VIN
tp1154
a(Vproperty
VNN
tp1155
a(Vin
VIN
tp1156
a(Vcountries
VNNS
tp1157
a(Vsuch
VJJ
tp1158
a(Vas
VIN
tp1159
a(VSpain
VNNP
tp1160
a(V,
V,
tp1161
a(VBulgaria
VNNP
tp1162
a(Vand
VCC
tp1163
a(VTurkey
VNNP
tp1164
a(Vstress
VNN
tp1165
a(V,
V,
tp1166
a(Vfinancial
VJJ
tp1167
a(Vruin
VVB
tp1168
a(Vand
VCC
tp1169
a(Vgeneral
VJJ
tp1170
a(Vheartache
VNN
tp1171
a(V.
V.
tp1172
aa(lp1173
(VIf
VIN
tp1174
a(Vthe
VDT
tp1175
a(VMember
VNNP
tp1176
a(VStates
VNNPS
tp1177
a(Vare
VVBP
tp1178
a(Vinvolved
VVBN
tp1179
a(Vin
VIN
tp1180
a(Vthe
VDT
tp1181
a(Vcoordination
VNN
tp1182
a(V,
V,
tp1183
a(Vit
VPRP
tp1184
a(Vseems
VVBZ
tp1185
a(Vlogical
VJJ
tp1186
a(Vthat
VIN
tp1187
a(Vthey
VPRP
tp1188
a(Vshould
VMD
tp1189
a(Vcoordinate
VVB
tp1190
a(Vtheir
VPRP$
tp1191
a(Vown
VJJ
tp1192
a(Vaid
VNN
tp1193
a(Vwithin
VIN
tp1194
a(Vthe
VDT
tp1195
a(Vsame
VJJ
tp1196
a(Vframework
VNN
tp1197
a(V.
V.
tp1198
aa(lp1199
(VThe
VDT
tp1200
a(Vcontribution
VNN
tp1201
a(Vwhich
VWDT
tp1202
a(Vwould
VMD
tp1203
a(Vbe
VVB
tp1204
a(Vmade
VVBN
tp1205
a(Vto
VTO
tp1206
a(Vcontrolling
VVBG
tp1207
a(Vthe
VDT
tp1208
a(Vgreenhouse
VNN
tp1209
a(Veffect
VNN
tp1210
a(Vis
VVBZ
tp1211
a(Vvirtually
VRB
tp1212
a(Vzero
VCD
tp1213
a(V.
V.
tp1214
aa(lp1215
(VTo
VTO
tp1216
a(Vthat
VIN
tp1217
a(Vour
VPRP$
tp1218
a(VEuropean
VJJ
tp1219
a(Vanti-discrimination
VJJ
tp1220
a(Vpolicy
VNN
tp1221
a(Vhas
VVBZ
tp1222
a(Vgiven
VVBN
tp1223
a(Va
VDT
tp1224
a(Vgreat
VJJ
tp1225
a(Vdeal
VNN
tp1226
a(Vof
VIN
tp1227
a(Vimpetus
VNN
tp1228
a(V,
V,
tp1229
a(Veven
VRB
tp1230
a(Vthough
VIN
tp1231
a(Vits
VPRP$
tp1232
a(Vimplementation
VNN
tp1233
a(Vin
VIN
tp1234
a(Vthe
VDT
tp1235
a(VMember
VNNP
tp1236
a(VStates
VNNPS
tp1237
a(Vstill
VRB
tp1238
a(Vleaves
VVBZ
tp1239
a(Vmuch
VJJ
tp1240
a(Vto
VTO
tp1241
a(Vbe
VVB
tp1242
a(Vdesired
VVBN
tp1243
a(V.
V.
tp1244
aa(lp1245
(VIt
VPRP
tp1246
a(Vis
VVBZ
tp1247
a(Vabout
VIN
tp1248
a(Vthe
VDT
tp1249
a(Vway
VNN
tp1250
a(Vwe
VPRP
tp1251
a(Vwill
VMD
tp1252
a(Vput
VVB
tp1253
a(Vtogether
VRB
tp1254
a(Vbetter
VJJR
tp1255
a(Vconditions
VNNS
tp1256
a(Vand
VCC
tp1257
a(Vone
VCD
tp1258
a(Vconcrete
VJJ
tp1259
a(Vproject
VNN
tp1260
a(Vtowards
VIN
tp1261
a(Va
VDT
tp1262
a(Vmore
VRBR
tp1263
a(Vinnovative
VJJ
tp1264
a(VEurope
VNNP
tp1265
a(V.
V.
tp1266
aa(lp1267
(VAnother
VDT
tp1268
a(Vcontributing
VVBG
tp1269
a(Vfactor
VNN
tp1270
a(Vhas
VVBZ
tp1271
a(Vbeen
VVBN
tp1272
a(Vthe
VDT
tp1273
a(Vfact
VNN
tp1274
a(Vthat
VIN
tp1275
a(Vsome
VDT
tp1276
a(Vtypes
VNNS
tp1277
a(Vof
VIN
tp1278
a(Vviolence
VNN
tp1279
a(Vconcerned
VJJ
tp1280
a(Vvery
VRB
tp1281
a(Vdelicate
VJJ
tp1282
a(Vmatters
VNNS
tp1283
a(V.
V.
tp1284
aa(lp1285
(VIraq
VNNP
tp1286
a(Vmust
VMD
tp1287
a(Vand
VCC
tp1288
a(Vshall
VMD
tp1289
a(Vcomply
VVB
tp1290
a(Vwith
VIN
tp1291
a(Vthe
VDT
tp1292
a(Vdemands
VNNS
tp1293
a(Vmade
VVBN
tp1294
a(Vby
VIN
tp1295
a(Vthe
VDT
tp1296
a(VSecurity
VNNP
tp1297
a(VCouncil
VNNP
tp1298
a(V.
V.
tp1299
aa(lp1300
(VThese
VDT
tp1301
a(Vevents
VNNS
tp1302
a(Vgive
VVBP
tp1303
a(Vus
VPRP
tp1304
a(Van
VDT
tp1305
a(Videa
VNN
tp1306
a(Vof
VIN
tp1307
a(Vhow
VWRB
tp1308
a(Vclimate
VNN
tp1309
a(Vchange
VNN
tp1310
a(Vis
VVBZ
tp1311
a(Vlikely
VJJ
tp1312
a(Vto
VTO
tp1313
a(Vaffect
VVB
tp1314
a(Vthe
VDT
tp1315
a(VEU
VNNP
tp1316
a(V&apos;s
VNNS
tp1317
a(Vfuture
VJJ
tp1318
a(Vbecause
VIN
tp1319
a(V,
V,
tp1320
a(Vas
VIN
tp1321
a(Vthe
VDT
tp1322
a(Vclimate
VNN
tp1323
a(Vchanges
VNNS
tp1324
a(V,
V,
tp1325
a(Vwe
VPRP
tp1326
a(Vcan
VMD
tp1327
a(Vexpect
VVB
tp1328
a(Vmore
VRBR
tp1329
a(Vextreme
VJJ
tp1330
a(Vweather
VNN
tp1331
a(Vevents
VNNS
tp1332
a(V.
V.
tp1333
aa(lp1334
(VAt
VIN
tp1335
a(Vabout
VIN
tp1336
a(V6
VCD
tp1337
a(Vp.m.
VRB
tp1338
a(Vyesterday
VNN
tp1339
a(Vevening
VNN
tp1340
a(V,
V,
tp1341
a(Vmy
VPRP$
tp1342
a(Vassistant
VNN
tp1343
a(Vand
VCC
tp1344
a(VI
VPRP
tp1345
a(Vwere
VVBD
tp1346
a(Vmugged
VVBN
tp1347
a(Vby
VIN
tp1348
a(Va
VDT
tp1349
a(Vgroup
VNN
tp1350
a(Vof
VIN
tp1351
a(Vfour
VCD
tp1352
a(Vor
VCC
tp1353
a(Vfive
VCD
tp1354
a(Vyoung
VJJ
tp1355
a(Vmen
VNNS
tp1356
a(Vat
VIN
tp1357
a(Vthe
VDT
tp1358
a(Vvisitors
VNNS
tp1359
a(V&apos;
VVBP
tp1360
a(Ventrance
VNN
tp1361
a(Vto
VTO
tp1362
a(Vthe
VDT
tp1363
a(VHouse
VNNP
tp1364
a(V.
V.
tp1365
aa(lp1366
(VThe
VDT
tp1367
a(Vsecond
VJJ
tp1368
a(Vis
VVBZ
tp1369
a(Vto
VTO
tp1370
a(Vbring
VVB
tp1371
a(Vthe
VDT
tp1372
a(Vpartnership
VNN
tp1373
a(Vcloser
VRBR
tp1374
a(Vto
VTO
tp1375
a(Vour
VPRP$
tp1376
a(Vcitizens
VNNS
tp1377
a(V&apos;
VVBP
tp1378
a(Vconcerns
VNNS
tp1379
a(V.
V.
tp1380
aa(lp1381
(VWe
VPRP
tp1382
a(Vknow
VVBP
tp1383
a(V-
V:
tp1384
a(Vsome
VDT
tp1385
a(Vof
VIN
tp1386
a(Vthe
VDT
tp1387
a(Vfigures
VNNS
tp1388
a(Vwere
VVBD
tp1389
a(Vgiven
VVBN
tp1390
a(Vby
VIN
tp1391
a(Vthe
VDT
tp1392
a(Vpresidency
VNN
tp1393
a(V-
V:
tp1394
a(Vthat
VIN
tp1395
a(VLatin
VNNP
tp1396
a(VAmerica
VNNP
tp1397
a(Vfaces
VVBZ
tp1398
a(Va
VDT
tp1399
a(Vpotential
VJJ
tp1400
a(Vproblem
VNN
tp1401
a(Vof
VIN
tp1402
a(Vpolitical
VJJ
tp1403
a(Vinstability
VNN
tp1404
a(Vbecause
VIN
tp1405
a(Vof
VIN
tp1406
a(Vsocial
VJJ
tp1407
a(Vinequity
VNN
tp1408
a(V.
V.
tp1409
aa(lp1410
(VIt
VPRP
tp1411
a(Vdeals
VVBZ
tp1412
a(Vwith
VIN
tp1413
a(Vculture
VNN
tp1414
a(Vand
VCC
tp1415
a(Vsecurity
VNN
tp1416
a(V.
V.
tp1417
aa(lp1418
(VMugabe
VNNP
tp1419
a(Vis
VVBZ
tp1420
a(Van
VDT
tp1421
a(Vevil
VJJ
tp1422
a(Vman
VNN
tp1423
a(V,
V,
tp1424
a(Va
VDT
tp1425
a(Vbully
VNN
tp1426
a(Vand
VCC
tp1427
a(Va
VDT
tp1428
a(Vmurderer
VNN
tp1429
a(V.
V.
tp1430
aa(lp1431
(VElected
VVBN
tp1432
a(Vpolitical
VJJ
tp1433
a(Vrepresentatives
VNNS
tp1434
a(Vshould
VMD
tp1435
a(Vfollow
VVB
tp1436
a(Vthe
VDT
tp1437
a(Vsame
VJJ
tp1438
a(Vrules
VNNS
tp1439
a(Vas
VIN
tp1440
a(Veveryone
VNN
tp1441
a(Velse
VRB
tp1442
a(V.
V.
tp1443
aa(lp1444
(VWe
VPRP
tp1445
a(Vmust
VMD
tp1446
a(Vremember
VVB
tp1447
a(Vthat
VIN
tp1448
a(V,
V,
tp1449
a(Vbefore
VIN
tp1450
a(Va
VDT
tp1451
a(Vstate
VNN
tp1452
a(Vcan
VMD
tp1453
a(Vjoin
VVB
tp1454
a(Vthe
VDT
tp1455
a(VUnion
VNNP
tp1456
a(V,
V,
tp1457
a(Vthe
VDT
tp1458
a(Vhuman
VJJ
tp1459
a(Vrights
VNNS
tp1460
a(Vsituation
VNN
tp1461
a(Vin
VIN
tp1462
a(Vrespect
VNN
tp1463
a(Vof
VIN
tp1464
a(Vthose
VDT
tp1465
a(Vliving
VVBG
tp1466
a(Vthere
VRB
tp1467
a(Vobviously
VRB
tp1468
a(Vhas
VVBZ
tp1469
a(Vto
VTO
tp1470
a(Vbe
VVB
tp1471
a(Vimpeccable
VJJ
tp1472
a(V.
V.
tp1473
aa(lp1474
(VMadam
VNNP
tp1475
a(VPresident
VNNP
tp1476
a(V,
V,
tp1477
a(Vtogether
VRB
tp1478
a(Vwith
VIN
tp1479
a(Vthe
VDT
tp1480
a(Vcombination
VNN
tp1481
a(Vof
VIN
tp1482
a(Vthe
VDT
tp1483
a(Vthird
VJJ
tp1484
a(Vand
VCC
tp1485
a(Vsixth
VJJ
tp1486
a(Vparagraphs
VNNS
tp1487
a(V,
V,
tp1488
a(Vplus
VCC
tp1489
a(Vpoints
VNNS
tp1490
a(V1
VCD
tp1491
a(V,
V,
tp1492
a(V3
VCD
tp1493
a(Vand
VCC
tp1494
a(V4
VCD
tp1495
a(Vof
VIN
tp1496
a(Vmy
VPRP$
tp1497
a(Vamendment
VNN
tp1498
a(V.
V.
tp1499
aa(lp1500
(VI
VPRP
tp1501
a(Vdo
VVBP
tp1502
a(Vnot
VRB
tp1503
a(Vwant
VVB
tp1504
a(Vto
VTO
tp1505
a(Vgo
VVB
tp1506
a(Vinto
VIN
tp1507
a(Vdetails
VNNS
tp1508
a(Von
VIN
tp1509
a(Vthis
VDT
tp1510
a(Vsubject
VNN
tp1511
a(V,
V,
tp1512
a(Vparticularly
VRB
tp1513
a(Vas
VIN
tp1514
a(VI
VPRP
tp1515
a(Vhave
VVBP
tp1516
a(Vvery
VRB
tp1517
a(Vlittle
VJJ
tp1518
a(Vtime
VNN
tp1519
a(V.
V.
tp1520
aa(lp1521
(VThe
VDT
tp1522
a(VCommission
VNNP
tp1523
a(V,
V,
tp1524
a(Vtherefore
VRB
tp1525
a(V,
V,
tp1526
a(Vlooks
VVBZ
tp1527
a(Vfavourably
VRB
tp1528
a(Von
VIN
tp1529
a(Vthe
VDT
tp1530
a(Vinitiative
VNN
tp1531
a(Vadopted
VVBN
tp1532
a(Vby
VIN
tp1533
a(Vthe
VDT
tp1534
a(VGreek
VJJ
tp1535
a(VGovernment
VNN
tp1536
a(Vto
VTO
tp1537
a(Vtable
VNN
tp1538
a(Vthis
VDT
tp1539
a(Vproposal
VNN
tp1540
a(V.
V.
tp1541
aa(lp1542
(VMadam
VNNP
tp1543
a(VPresident
VNNP
tp1544
a(V,
V,
tp1545
a(Vthe
VDT
tp1546
a(Vfive
VCD
tp1547
a(Vunderground
VJJ
tp1548
a(Vnuclear
VJJ
tp1549
a(Vtests
VNNS
tp1550
a(Vwhich
VWDT
tp1551
a(VIndia
VNNP
tp1552
a(Vhas
VVBZ
tp1553
a(Vcarried
VVBN
tp1554
a(Vout
VRP
tp1555
a(Vobviously
VRB
tp1556
a(Vcaused
VVBD
tp1557
a(Va
VDT
tp1558
a(Vshock
VNN
tp1559
a(Vwave
VNN
tp1560
a(Vthroughout
VIN
tp1561
a(Vthe
VDT
tp1562
a(Vworld
VNN
tp1563
a(V.
V.
tp1564
aa(lp1565
(VIf
VIN
tp1566
a(Vthey
VPRP
tp1567
a(Vcome
VVBP
tp1568
a(Vto
VTO
tp1569
a(Vclear
VJJ
tp1570
a(Vconclusions
VNNS
tp1571
a(V,
V,
tp1572
a(Vthen
VRB
tp1573
a(Vit
VPRP
tp1574
a(Vis
VVBZ
tp1575
a(Vonly
VRB
tp1576
a(Vour
VPRP$
tp1577
a(Vduty
VNN
tp1578
a(Vto
VTO
tp1579
a(Vreact
VVB
tp1580
a(Vimmediately
VRB
tp1581
a(V.
V.
tp1582
aa(lp1583
(VCompanies
VNNS
tp1584
a(Vthroughout
VIN
tp1585
a(VEurope
VNNP
tp1586
a(Vshould
VMD
tp1587
a(Vbe
VVB
tp1588
a(Vable
VJJ
tp1589
a(Vto
VTO
tp1590
a(Voperate
VVB
tp1591
a(Vin
VIN
tp1592
a(Van
VDT
tp1593
a(Venvironment
VNN
tp1594
a(Vfree
VJJ
tp1595
a(Vfrom
VIN
tp1596
a(Vexcessive
VJJ
tp1597
a(Vburdens
VNNS
tp1598
a(V.
V.
tp1599
aa(lp1600
(VThe
VDT
tp1601
a(VCouncil
VNNP
tp1602
a(Vviewed
VVBD
tp1603
a(Vits
VPRP$
tp1604
a(Vdraft
VNN
tp1605
a(Vdirective
VNN
tp1606
a(Vas
VIN
tp1607
a(Va
VDT
tp1608
a(Vwell-balanced
VJJ
tp1609
a(Vdocument
VNN
tp1610
a(Vpromoting
VVBG
tp1611
a(Vemployee
VNN
tp1612
a(Vprotection
VNN
tp1613
a(V,
V,
tp1614
a(Vand
VCC
tp1615
a(Vhoped
VVBD
tp1616
a(Vit
VPRP
tp1617
a(Vwould
VMD
tp1618
a(Valso
VRB
tp1619
a(Vprove
VVB
tp1620
a(Vacceptable
VJJ
tp1621
a(Vto
VTO
tp1622
a(VParliament
VNNP
tp1623
a(V,
V,
tp1624
a(Vwhich
VWDT
tp1625
a(Vwas
VVBD
tp1626
a(Vexpected
VVBN
tp1627
a(Vto
VTO
tp1628
a(Vapprove
VVB
tp1629
a(Vit
VPRP
tp1630
a(Vat
VIN
tp1631
a(Vthe
VDT
tp1632
a(Vsecond
VJJ
tp1633
a(Vreading
VNN
tp1634
a(V.
V.
tp1635
aa(lp1636
(VJuliet
VNNP
tp1637
a(Vwas
VVBD
tp1638
a(Va
VDT
tp1639
a(Vnurse
VNN
tp1640
a(Vwho
VWP
tp1641
a(Vdied
VVBD
tp1642
a(Vin
VIN
tp1643
a(V2008
VCD
tp1644
a(V,
V,
tp1645
a(Vseven
VCD
tp1646
a(Vyears
VNNS
tp1647
a(Vafter
VIN
tp1648
a(Vcontracting
VVBG
tp1649
a(VHIV
VNN
tp1650
a(Vwhile
VIN
tp1651
a(Vtaking
VVBG
tp1652
a(Vblood
VNN
tp1653
a(Vfrom
VIN
tp1654
a(Van
VDT
tp1655
a(Vinfected
VJJ
tp1656
a(Vpatient
VNN
tp1657
a(Vin
VIN
tp1658
a(Va
VDT
tp1659
a(VLondon
VNNP
tp1660
a(Vhospital
VNN
tp1661
a(V.
V.
tp1662
aa(lp1663
(VIn
VIN
tp1664
a(Vaddition
VNN
tp1665
a(V,
V,
tp1666
a(Vgambling
VNN
tp1667
a(Vis
VVBZ
tp1668
a(Vaddictive
VJJ
tp1669
a(V.
V.
tp1670
aa(lp1671
(VIn
VIN
tp1672
a(Vother
VJJ
tp1673
a(Vwords
VNNS
tp1674
a(V,
V,
tp1675
a(Vthis
VDT
tp1676
a(Vis
VVBZ
tp1677
a(Vthe
VDT
tp1678
a(VEU
VNNP
tp1679
a(Vand
VCC
tp1680
a(Vits
VPRP$
tp1681
a(Venlargement
VNN
tp1682
a(Vunmasked
VVBD
tp1683
a(V.
V.
tp1684
aa(lp1685
(VHowever
VRB
tp1686
a(V,
V,
tp1687
a(Vthe
VDT
tp1688
a(Vgrowing
VVBG
tp1689
a(Vcrisis
VNN
tp1690
a(Vwas
VVBD
tp1691
a(Vconcealed
VVBN
tp1692
a(Vfrom
VIN
tp1693
a(Vpolicyholders
VNNS
tp1694
a(V.
V.
tp1695
aa(lp1696
(VI
VPRP
tp1697
a(Vam
VVBP
tp1698
a(Vof
VIN
tp1699
a(Vcourse
VNN
tp1700
a(Vreferring
VVBG
tp1701
a(Vto
VTO
tp1702
a(Vthat
VDT
tp1703
a(Vhistoric
VJJ
tp1704
a(Vevent
VNN
tp1705
a(V-
V:
tp1706
a(Vthe
VDT
tp1707
a(Vsigning
VNN
tp1708
a(Vof
VIN
tp1709
a(Vthe
VDT
tp1710
a(VTreaty
VNNP
tp1711
a(Vof
VIN
tp1712
a(VLisbon
VNNP
tp1713
a(V-
V:
tp1714
a(Vdue
VJJ
tp1715
a(Vto
VTO
tp1716
a(Vtake
VVB
tp1717
a(Vplace
VNN
tp1718
a(Vin
VIN
tp1719
a(Vjust
VRB
tp1720
a(Vover
VIN
tp1721
a(Van
VDT
tp1722
a(Vhour
VNN
tp1723
a(Vin
VIN
tp1724
a(Vmy
VPRP$
tp1725
a(Vcountry
VNN
tp1726
a(V&apos;s
VNNS
tp1727
a(Vcapital
VNN
tp1728
a(V.
V.
tp1729
aa(lp1730
(VIn
VIN
tp1731
a(Vfact
VNN
tp1732
a(V,
V,
tp1733
a(Vby
VIN
tp1734
a(Vthe
VDT
tp1735
a(Vtime
VNN
tp1736
a(Vit
VPRP
tp1737
a(Vis
VVBZ
tp1738
a(Vfinished
VVBN
tp1739
a(V,
V,
tp1740
a(Vit
VPRP
tp1741
a(Vwill
VMD
tp1742
a(Vcost
VVB
tp1743
a(Vmore
VJJR
tp1744
a(V.
V.
tp1745
aa(lp1746
(VThe
VDT
tp1747
a(VCommission
VNNP
tp1748
a(Vreport
VNN
tp1749
a(Vis
VVBZ
tp1750
a(Vessentially
VRB
tp1751
a(Va
VDT
tp1752
a(Vdescriptive
VJJ
tp1753
a(Vreport
VNN
tp1754
a(Vdetailing
VVBG
tp1755
a(Vthe
VDT
tp1756
a(Vdevelopment
VNN
tp1757
a(Vof
VIN
tp1758
a(Vstate
VNN
tp1759
a(Vaid
VNN
tp1760
a(Vin
VIN
tp1761
a(Vthe
VDT
tp1762
a(Vmanufacturing
VNN
tp1763
a(Vsector
VNN
tp1764
a(Vand
VCC
tp1765
a(Vcertain
VJJ
tp1766
a(Vother
VJJ
tp1767
a(Vsectors
VNNS
tp1768
a(V,
V,
tp1769
a(Vaccording
VVBG
tp1770
a(Vto
VTO
tp1771
a(Vvarious
VJJ
tp1772
a(Vtypologies
VNNS
tp1773
a(V,
V,
tp1774
a(Vsuch
VJJ
tp1775
a(Vas
VIN
tp1776
a(Vthe
VDT
tp1777
a(Vmethod
VNN
tp1778
a(Vof
VIN
tp1779
a(Vfinancing
VNN
tp1780
a(Vand
VCC
tp1781
a(Vthe
VDT
tp1782
a(Vobjectives
VNNS
tp1783
a(Vpursued
VVBN
tp1784
a(V.
V.
tp1785
aa(lp1786
(V(
VNN
tp1787
a(VPL
VNN
tp1788
a(V)
VCD
tp1789
a(VMadam
VNNP
tp1790
a(VPresident
VNNP
tp1791
a(V,
V,
tp1792
a(VKazakhstan
VNNP
tp1793
a(Vis
VVBZ
tp1794
a(Vthe
VDT
tp1795
a(VCentral
VJJ
tp1796
a(VAsian
VJJ
tp1797
a(Vcountry
VNN
tp1798
a(VI
VPRP
tp1799
a(Vknow
VVBP
tp1800
a(Vbest
VJJS
tp1801
a(V.
V.
tp1802
aa(lp1803
(VFirstly
VRB
tp1804
a(V,
V,
tp1805
a(Vwe
VPRP
tp1806
a(V\u2013
VVBP
tp1807
a(Vlike
VIN
tp1808
a(Vyou
VPRP
tp1809
a(V\u2013
VVBP
tp1810
a(Vexpect
VVBP
tp1811
a(Vsubstantial
VJJ
tp1812
a(Vimprovements
VNNS
tp1813
a(Vas
VIN
tp1814
a(Vregards
VVBZ
tp1815
a(Vhuman
VJJ
tp1816
a(Vrights
VNNS
tp1817
a(Vin
VIN
tp1818
a(VChina
VNNP
tp1819
a(V.
V.
tp1820
aa(lp1821
(VThis
VDT
tp1822
a(Vis
VVBZ
tp1823
a(Vessential
VJJ
tp1824
a(V,
V,
tp1825
a(Vbecause
VIN
tp1826
a(Vwe
VPRP
tp1827
a(Valso
VRB
tp1828
a(Vknow
VVBP
tp1829
a(V,
V,
tp1830
a(Vregarding
VVBG
tp1831
a(Vall
VPDT
tp1832
a(Vthese
VDT
tp1833
a(Vsubjects
VNNS
tp1834
a(V,
V,
tp1835
a(Vthat
VIN
tp1836
a(Vtemporary
VJJ
tp1837
a(Vworkers
VNNS
tp1838
a(Vare
VVBP
tp1839
a(Vat
VIN
tp1840
a(Vpresent
VJJ
tp1841
a(Vexposed
VVBN
tp1842
a(Vto
VTO
tp1843
a(Vphysical
VJJ
tp1844
a(Vrisks
VNNS
tp1845
a(Vat
VIN
tp1846
a(Vleast
VJJS
tp1847
a(Vas
VIN
tp1848
a(Vsignificant
VJJ
tp1849
a(Vas
VIN
tp1850
a(Vthose
VDT
tp1851
a(Vto
VTO
tp1852
a(Vwhich
VWDT
tp1853
a(Vpermanent
VJJ
tp1854
a(Vworkers
VNNS
tp1855
a(Vare
VVBP
tp1856
a(Vexposed
VVBN
tp1857
a(V,
V,
tp1858
a(Vand
VCC
tp1859
a(Vto
VTO
tp1860
a(Va
VDT
tp1861
a(Vpace
VNN
tp1862
a(Vof
VIN
tp1863
a(Vwork
VNN
tp1864
a(Vthat
VWDT
tp1865
a(Vis
VVBZ
tp1866
a(Vat
VIN
tp1867
a(Vtimes
VNNS
tp1868
a(Vfaster
VRBR
tp1869
a(V.
V.
tp1870
aa(lp1871
(VFor
VIN
tp1872
a(Vthe
VDT
tp1873
a(Vpurposes
VNNS
tp1874
a(Vof
VIN
tp1875
a(Villustration
VNN
tp1876
a(V,
V,
tp1877
a(Vthis
VDT
tp1878
a(Vis
VVBZ
tp1879
a(Vequivalent
VJJ
tp1880
a(Vto
VTO
tp1881
a(Vremoving
VVBG
tp1882
a(V1
VCD
tp1883
a(Vmillion
VCD
tp1884
a(Vcars
VNNS
tp1885
a(Vfrom
VIN
tp1886
a(VEU
VNNP
tp1887
a(Vroads
VNNS
tp1888
a(V.
V.
tp1889
aa(lp1890
(VThat
VDT
tp1891
a(Vis
VVBZ
tp1892
a(Vsomething
VNN
tp1893
a(VI
VPRP
tp1894
a(Vbelieve
VVBP
tp1895
a(Vis
VVBZ
tp1896
a(Vdemanded
VVBN
tp1897
a(Vby
VIN
tp1898
a(Vthe
VDT
tp1899
a(Vrest
VNN
tp1900
a(Vof
VIN
tp1901
a(Vthe
VDT
tp1902
a(Vworld
VNN
tp1903
a(Vand
VCC
tp1904
a(Vby
VIN
tp1905
a(Vthe
VDT
tp1906
a(Vpeople
VNNS
tp1907
a(Vof
VIN
tp1908
a(VEurope
VNNP
tp1909
aa(lp1910
(VMr
VNNP
tp1911
a(VPresident
VNNP
tp1912
a(V,
V,
tp1913
a(VI
VPRP
tp1914
a(Vsent
VVBD
tp1915
a(Van
VDT
tp1916
a(Vinvite
VVB
tp1917
a(Vfor
VIN
tp1918
a(Va
VDT
tp1919
a(Vbeer-tasting
VJJ
tp1920
a(Vsession
VNN
tp1921
a(Vabout
VIN
tp1922
a(Vthree
VCD
tp1923
a(Vweeks
VNNS
tp1924
a(Vago
VRB
tp1925
a(Vand
VCC
tp1926
a(Vit
VPRP
tp1927
a(Vwas
VVBD
tp1928
a(Vvery
VRB
tp1929
a(Vmuch
VJJ
tp1930
a(Vto
VTO
tp1931
a(Vthe
VDT
tp1932
a(Vtaste
VNN
tp1933
a(Vof
VIN
tp1934
a(Vall
VPDT
tp1935
a(Vthose
VDT
tp1936
a(Vthat
VWDT
tp1937
a(Vreceived
VVBD
tp1938
a(Vand
VCC
tp1939
a(Vtook
VVBD
tp1940
a(Vup
VRP
tp1941
a(Vthe
VDT
tp1942
a(Vinvitation
VNN
tp1943
a(V.
V.
tp1944
aa(lp1945
(VTo
VTO
tp1946
a(Vput
VVB
tp1947
a(Vit
VPRP
tp1948
a(Vin
VIN
tp1949
a(Vsimple
VJJ
tp1950
a(Vterms
VNNS
tp1951
a(V,
V,
tp1952
a(Vuntil
VIN
tp1953
a(Vnow
VRB
tp1954
a(Vit
VPRP
tp1955
a(Vtook
VVBD
tp1956
a(Va
VDT
tp1957
a(Vsmall
VJJ
tp1958
a(V,
V,
tp1959
a(Vmedium-sized
VJJ
tp1960
a(Vor
VCC
tp1961
a(Vlarge
VJJ
tp1962
a(Vcompany
VNN
tp1963
a(Vtwo
VCD
tp1964
a(Vto
VTO
tp1965
a(Vthree
VCD
tp1966
a(Vyears
VNNS
tp1967
a(Vto
VTO
tp1968
a(Vfight
VVB
tp1969
a(Va
VDT
tp1970
a(Vcase
VNN
tp1971
a(Von
VIN
tp1972
a(Vmutual
VJJ
tp1973
a(Vrecognition
VNN
tp1974
a(Vin
VIN
tp1975
a(Vcourt
VNN
tp1976
a(V.
V.
tp1977
aa(lp1978
(VI
VPRP
tp1979
a(Vthink
VVBP
tp1980
a(Vit
VPRP
tp1981
a(Vis
VVBZ
tp1982
a(Vvery
VRB
tp1983
a(Vimportant
VJJ
tp1984
a(Vbecause
VIN
tp1985
a(V,
V,
tp1986
a(Vin
VIN
tp1987
a(Vthe
VDT
tp1988
a(Vend
VNN
tp1989
a(V,
V,
tp1990
a(Vsensitivity
VNN
tp1991
a(Vis
VVBZ
tp1992
a(Valso
VRB
tp1993
a(Va
VDT
tp1994
a(Vpart
VNN
tp1995
a(Vof
VIN
tp1996
a(Vour
VPRP$
tp1997
a(VEuropean
VJJ
tp1998
a(Vcultural
VJJ
tp1999
a(Vtradition
VNN
tp2000
a(V.
V.
tp2001
aa(lp2002
(VDespite
VIN
tp2003
a(Vthe
VDT
tp2004
a(Vexaggerated
VJJ
tp2005
a(Vresistance
VNN
tp2006
a(Vto
VTO
tp2007
a(Vthis
VDT
tp2008
a(Vdirective
VNN
tp2009
a(Vfrom
VIN
tp2010
a(Vsome
VDT
tp2011
a(Vsectors
VNNS
tp2012
a(V,
V,
tp2013
a(Vit
VPRP
tp2014
a(Vis
VVBZ
tp2015
a(Vevident
VJJ
tp2016
a(Vthat
VIN
tp2017
a(Vsoil
VNN
tp2018
a(Vis
VVBZ
tp2019
a(Va
VDT
tp2020
a(Vvital
VJJ
tp2021
a(Vresource
VNN
tp2022
a(Vthat
VWDT
tp2023
a(Vis
VVBZ
tp2024
a(Vessentially
VRB
tp2025
a(Vnon-renewable
VJJ
tp2026
a(V,
V,
tp2027
a(Vwhich
VWDT
tp2028
a(Vis
VVBZ
tp2029
a(Vsuffering
VVBG
tp2030
a(Vunder
VIN
tp2031
a(Vgrowing
VVBG
tp2032
a(Venvironmental
VJJ
tp2033
a(Vpressure
VNN
tp2034
a(Vfor
VIN
tp2035
a(Vwhich
VWDT
tp2036
a(Vhuman
VJJ
tp2037
a(Vactivity
VNN
tp2038
a(Vhas
VVBZ
tp2039
a(Vsignificant
VJJ
tp2040
a(Vresponsibility
VNN
tp2041
a(V.
V.
tp2042
aa(lp2043
(VAre
VVBP
tp2044
a(Vyou
VPRP
tp2045
a(Vnot
VRB
tp2046
a(Va
VDT
tp2047
a(Vlittle
VJJ
tp2048
a(Vconcerned
VJJ
tp2049
a(Vthat
VIN
tp2050
a(Vthere
VEX
tp2051
a(Vis
VVBZ
tp2052
a(Vno
VDT
tp2053
a(Vchairman
VNN
tp2054
a(Vat
VIN
tp2055
a(Vthe
VDT
tp2056
a(Vmoment
VNN
tp2057
a(V?
V.
tp2058
aa(lp2059
(VWhat
VWP
tp2060
a(Vwe
VPRP
tp2061
a(Vhave
VVBP
tp2062
a(Vbefore
VIN
tp2063
a(Vus
VPRP
tp2064
a(Vis
VVBZ
tp2065
a(Va
VDT
tp2066
a(Vsensible
VJJ
tp2067
a(Vcompromise
VNN
tp2068
a(V.
V.
tp2069
aa(lp2070
(VTo
VTO
tp2071
a(Vthose
VDT
tp2072
a(Vwho
VWP
tp2073
a(Vhave
VVBP
tp2074
a(Vgiven
VVBN
tp2075
a(Vtheir
VPRP$
tp2076
a(Vlives
VNNS
tp2077
a(Vto
VTO
tp2078
a(Vprovide
VVB
tp2079
a(Vus
VPRP
tp2080
a(Vwith
VIN
tp2081
a(Vsecurity
VNN
tp2082
a(V,
V,
tp2083
a(Vwe
VPRP
tp2084
a(Voffer
VVBP
tp2085
a(Vonce
VRB
tp2086
a(Vagain
VRB
tp2087
a(Vour
VPRP$
tp2088
a(Vgratitude
VNN
tp2089
a(V,
V,
tp2090
a(Vour
VPRP$
tp2091
a(Vprayers
VNNS
tp2092
a(Vand
VCC
tp2093
a(Vour
VPRP$
tp2094
a(Vpledge
VNN
tp2095
a(Vthat
VIN
tp2096
a(Vwe
VPRP
tp2097
a(Vwill
VMD
tp2098
a(Vnever
VRB
tp2099
a(Vforget
VVB
tp2100
a(V.
V.
tp2101
aa(lp2102
(VThis
VDT
tp2103
a(Vis
VVBZ
tp2104
a(Vthe
VDT
tp2105
a(Vfirst
VJJ
tp2106
a(Vtime
VNN
tp2107
a(Vthat
VIN
tp2108
a(Vwe
VPRP
tp2109
a(Vare
VVBP
tp2110
a(Vopening
VVBG
tp2111
a(Va
VDT
tp2112
a(Vwindow
VNN
tp2113
a(V,
V,
tp2114
a(Vso
VRB
tp2115
a(Vto
VTO
tp2116
a(Vspeak
VVB
tp2117
a(V,
V,
tp2118
a(Von
VIN
tp2119
a(Vlegal
VJJ
tp2120
a(Vmigration
VNN
tp2121
a(Vpolicy
VNN
tp2122
a(V.
V.
tp2123
aa(lp2124
(VIt
VPRP
tp2125
a(Vis
VVBZ
tp2126
a(Valarming
VJJ
tp2127
a(Vthat
VIN
tp2128
a(Vthe
VDT
tp2129
a(Vyouth
VNN
tp2130
a(Vunemployment
VNN
tp2131
a(Vrate
VNN
tp2132
a(Vis
VVBZ
tp2133
a(Vdouble
VJJ
tp2134
a(Vthe
VDT
tp2135
a(Vaverage
VJJ
tp2136
a(VEuropean
VJJ
tp2137
a(Vrate
VNN
tp2138
a(V.
V.
tp2139
aa(lp2140
(VWe
VPRP
tp2141
a(Vdo
VVBP
tp2142
a(Vhave
VVB
tp2143
a(Va
VDT
tp2144
a(VPNR
VNN
tp2145
a(Vagreement
VNN
tp2146
a(Vbeing
VVBG
tp2147
a(Vre-negotiated
VVBN
tp2148
a(Vand
VCC
tp2149
a(Vcoming
VVBG
tp2150
a(Vthrough
VRB
tp2151
a(V.
V.
tp2152
aa(lp2153
(VMy
VPRP$
tp2154
a(Vown
VJJ
tp2155
a(Vview
VNN
tp2156
a(Von
VIN
tp2157
a(Vthis
VDT
tp2158
a(V,
V,
tp2159
a(Vand
VCC
tp2160
a(Von
VIN
tp2161
a(Vsuch
VJJ
tp2162
a(Vsituations
VNNS
tp2163
a(Vas
VIN
tp2164
a(Vthis
VDT
tp2165
a(V,
V,
tp2166
a(Vis
VVBZ
tp2167
a(Vthat
VIN
tp2168
a(Vit
VPRP
tp2169
a(Vis
VVBZ
tp2170
a(Vwhat
VWP
tp2171
a(Vwe
VPRP
tp2172
a(Vcall
VVBP
tp2173
a(Va
VDT
tp2174
a(Vzero-sum
VJJ
tp2175
a(Vgame
VNN
tp2176
a(V.
V.
tp2177
aa(lp2178
(VThis
VDT
tp2179
a(Vseems
VVBZ
tp2180
a(Vto
VTO
tp2181
a(Vbe
VVB
tp2182
a(Vthe
VDT
tp2183
a(Vpattern
VNN
tp2184
a(Vfor
VIN
tp2185
a(Vthe
VDT
tp2186
a(VSummit
VNNP
tp2187
a(Vin
VIN
tp2188
a(VCairo
VNNP
tp2189
a(Vtoo
VRB
tp2190
a(V.
V.
tp2191
aa(lp2192
(VThey
VPRP
tp2193
a(Vhave
VVBP
tp2194
a(Vlearned
VVBN
tp2195
a(Vabsolutely
VRB
tp2196
a(Vnothing
VNN
tp2197
a(Vfrom
VIN
tp2198
a(Vthe
VDT
tp2199
a(V1989
VCD
tp2200
a(Vlesson
VNN
tp2201
a(Vin
VIN
tp2202
a(Vnon-violence
VNN
tp2203
a(V.
V.
tp2204
aa(lp2205
(VI
VPRP
tp2206
a(Vam
VVBP
tp2207
a(Vof
VIN
tp2208
a(Vthe
VDT
tp2209
a(Vopinion
VNN
tp2210
a(Vthat
VIN
tp2211
a(Vwe
VPRP
tp2212
a(Vwork
VVBP
tp2213
a(Vto
VTO
tp2214
a(Vlive
VVB
tp2215
a(Vand
VCC
tp2216
a(Vnot
VRB
tp2217
a(Vthe
VDT
tp2218
a(Vother
VJJ
tp2219
a(Vway
VNN
tp2220
a(Vround
VNN
tp2221
a(V.
V.
tp2222
aa(lp2223
(VThis
VDT
tp2224
a(Vhas
VVBZ
tp2225
a(Vnothing
VNN
tp2226
a(Vto
VTO
tp2227
a(Vdo
VVB
tp2228
a(Vwith
VIN
tp2229
a(Vdebate
VNN
tp2230
a(Vand
VCC
tp2231
a(Veverything
VNN
tp2232
a(Vto
VTO
tp2233
a(Vdo
VVB
tp2234
a(Vwith
VIN
tp2235
a(Vdemocracy
VNN
tp2236
a(V.
V.
tp2237
aa(lp2238
(VIf
VIN
tp2239
a(Vthere
VEX
tp2240
a(Vare
VVBP
tp2241
a(Vno
VDT
tp2242
a(Vcomments
VNNS
tp2243
a(V,
V,
tp2244
a(Vthe
VDT
tp2245
a(Vsitting
VVBG
tp2246
a(Vis
VVBZ
tp2247
a(Vsuspended
VVBN
tp2248
a(V.
V.
tp2249
aa.