(lp1
(lp2
(VAt
VIN
tp3
a(Vthe
VDT
tp4
a(Vcentre
VNN
tp5
a(Vof
VIN
tp6
a(VEU
VNNP
tp7
a(Vand
VCC
tp8
a(Vgovernment
VNN
tp9
a(Vpolicy
VNN
tp10
a(Vis
VVBZ
tp11
a(Vthe
VDT
tp12
a(Vnotorious
VJJ
tp13
a(V&apos;
VNN
tp14
a(Vflexicurity
VNN
tp15
a(V&apos;
VNN
tp16
a(V,
V,
tp17
a(Vwhich
VWDT
tp18
a(Vspells
VNNS
tp19
a(Vout
VIN
tp20
a(Vthe
VDT
tp21
a(Vcomplete
VJJ
tp22
a(Vdismantling
VVBG
tp23
a(Vof
VIN
tp24
a(Vlabour
VNN
tp25
a(Vrelations
VNNS
tp26
a(V.
V.
tp27
aa(lp28
(VWe
VPRP
tp29
a(Vhave
VVBP
tp30
a(Vgot
VVBN
tp31
a(Va
VDT
tp32
a(Vgreat
VJJ
tp33
a(Vdiversity
VNN
tp34
a(Vof
VIN
tp35
a(Vwines
VNNS
tp36
a(V,
V,
tp37
a(Vcheeses
VNNS
tp38
a(V,
V,
tp39
a(Vmeats
VNNS
tp40
a(V,
V,
tp41
a(Volive
VJJ
tp42
a(Voil
VNN
tp43
a(V,
V,
tp44
a(Vfruits
VNNS
tp45
a(V,
V,
tp46
a(Vvegetables
VNNS
tp47
a(V-
V:
tp48
a(Vyou
VPRP
tp49
a(Vname
VVBP
tp50
a(Vit
VPRP
tp51
a(V.
V.
tp52
aa(lp53
(VI
VPRP
tp54
a(Vvoted
VVBD
tp55
a(Vagainst
VIN
tp56
a(Vthe
VDT
tp57
a(Vreport
VNN
tp58
a(Von
VIN
tp59
a(Vthe
VDT
tp60
a(Vcreation
VNN
tp61
a(Vof
VIN
tp62
a(Van
VDT
tp63
a(Vimmigration
VNN
tp64
a(Vliaison
VNN
tp65
a(Vofficers
VNNS
tp66
a(Vnetwork
VNN
tp67
a(Vbecause
VIN
tp68
a(Vit
VPRP
tp69
a(Vis
VVBZ
tp70
a(Vdesigned
VVBN
tp71
a(Vto
VTO
tp72
a(Vfurther
VRB
tp73
a(Vreinforce
VVB
tp74
a(VFrontex
VNNP
tp75
a(V,
V,
tp76
a(Vwhich
VWDT
tp77
a(Vdoes
VVBZ
tp78
a(Vall
VDT
tp79
a(Vit
VPRP
tp80
a(Vcan
VMD
tp81
a(Vto
VTO
tp82
a(Vpromote
VVB
tp83
a(Vthe
VDT
tp84
a(Videa
VNN
tp85
a(Vof
VIN
tp86
a(VFortress
VNNP
tp87
a(VEurope
VNNP
tp88
a(V.
V.
tp89
aa(lp90
(VNot
VRB
tp91
a(Veven
VRB
tp92
a(Vthe
VDT
tp93
a(VRed
VNNP
tp94
a(VCross
VNNP
tp95
a(Vis
VVBZ
tp96
a(Vallowed
VVBN
tp97
a(Vto
VTO
tp98
a(Vvisit
VVB
tp99
a(Vthem
VPRP
tp100
a(V.
V.
tp101
aa(lp102
(VWhich
VWDT
tp103
a(Vdocuments
VNNS
tp104
a(Vare
VVBP
tp105
a(Vpublicly
VRB
tp106
a(Vaccessible
VJJ
tp107
a(V?
V.
tp108
aa(lp109
(VEU
VNNP
tp110
a(Vdemocracy
VNN
tp111
a(Vis
VVBZ
tp112
a(Va
VDT
tp113
a(Vone-way
VJJ
tp114
a(Vstreet
VNN
tp115
a(V.
V.
tp116
aa(lp117
(VMadam
VNNP
tp118
a(VPresident
VNNP
tp119
a(V,
V,
tp120
a(VCommissioner
VNNP
tp121
a(VPoto\u010dnik
VNNP
tp122
a(V,
V,
tp123
a(Vladies
VNNS
tp124
a(Vand
VCC
tp125
a(Vgentlemen
VNNS
tp126
a(V,
V,
tp127
a(Vit
VPRP
tp128
a(Vis
VVBZ
tp129
a(Vtwenty
VCD
tp130
a(Vfive
VCD
tp131
a(Vyears
VNNS
tp132
a(Vsince
VIN
tp133
a(VHIV
VNN
tp134
a(Vwas
VVBD
tp135
a(Vdiscovered
VVBN
tp136
a(V.
V.
tp137
aa(lp138
(VThis
VDT
tp139
a(Vis
VVBZ
tp140
a(Vnot
VRB
tp141
a(V,
V,
tp142
a(Vin
VIN
tp143
a(Vfact
VNN
tp144
a(V,
V,
tp145
a(Vabout
VIN
tp146
a(Vbeing
VVBG
tp147
a(Vleft-
VJJ
tp148
a(Vor
VCC
tp149
a(Vright-leaning
VJJ
tp150
a(V;
V:
tp151
a(Vit
VPRP
tp152
a(Vis
VVBZ
tp153
a(Vabout
VIN
tp154
a(Vfreedom
VNN
tp155
a(Vof
VIN
tp156
a(Vthe
VDT
tp157
a(Vpress
VNN
tp158
a(V.
V.
tp159
aa(lp160
(VWe
VPRP
tp161
a(Vare
VVBP
tp162
a(Valso
VRB
tp163
a(Vworking
VVBG
tp164
a(Von
VIN
tp165
a(Van
VDT
tp166
a(Vinternational
VJJ
tp167
a(Vplatform
VNN
tp168
a(Vfor
VIN
tp169
a(Venergy
VNN
tp170
a(Vefficiency
VNN
tp171
a(Vthat
VWDT
tp172
a(Vcould
VMD
tp173
a(Vcreate
VVB
tp174
a(Vsynergies
VNNS
tp175
a(Vat
VIN
tp176
a(Vinternational
VJJ
tp177
a(Vlevel
VNN
tp178
a(V.
V.
tp179
aa(lp180
(VA
VDT
tp181
a(Vnumber
VNN
tp182
a(Vof
VIN
tp183
a(Vquestions
VNNS
tp184
a(Vremain
VVBP
tp185
a(Vunanswered
VJJ
tp186
a(V.
V.
tp187
aa(lp188
(VLet
VVB
tp189
a(Vus
VPRP
tp190
a(Vlook
VVB
tp191
a(Vat
VIN
tp192
a(Vdemography
VNN
tp193
a(V.
V.
tp194
aa(lp195
(VThe
VDT
tp196
a(Vtimeframes
VNNS
tp197
a(Vare
VVBP
tp198
a(Vextremely
VRB
tp199
a(Vlong
VRB
tp200
a(V.
V.
tp201
aa(lp202
(VBoth
VDT
tp203
a(Vsides
VNNS
tp204
a(Vneed
VVBP
tp205
a(Vpolitical
VJJ
tp206
a(Vleaders
VNNS
tp207
a(Vwhich
VWDT
tp208
a(Vrespects
VVBZ
tp209
a(Vwhat
VWP
tp210
a(Vis
VVBZ
tp211
a(Vasked
VVBN
tp212
a(V.
V.
tp213
aa(lp214
(VIt
VPRP
tp215
a(Vis
VVBZ
tp216
a(Va
VDT
tp217
a(Vsplendid
VJJ
tp218
a(Vright
VNN
tp219
a(V,
V,
tp220
a(Vbut
VCC
tp221
a(Vsometimes
VRB
tp222
a(Valso
VRB
tp223
a(Van
VDT
tp224
a(Vunpleasant
VJJ
tp225
a(Vduty
VNN
tp226
a(V,
V,
tp227
a(Vbecause
VIN
tp228
a(Vthe
VDT
tp229
a(Vanswers
VNNS
tp230
a(Vare
VVBP
tp231
a(Vnot
VRB
tp232
a(Valways
VRB
tp233
a(Vimmediately
VRB
tp234
a(Vto
VTO
tp235
a(Vhand
VNN
tp236
a(V.
V.
tp237
aa(lp238
(VToday
VNN
tp239
a(V,
V,
tp240
a(Vthough
VRB
tp241
a(V,
V,
tp242
a(Vhe
VPRP
tp243
a(Vhas
VVBZ
tp244
a(Vno
VDT
tp245
a(Vrelation
VNN
tp246
a(V,
V,
tp247
a(Vno
VDT
tp248
a(Vlink
VNN
tp249
a(Vwith
VIN
tp250
a(Vthe
VDT
tp251
a(VCommission
VNNP
tp252
a(V.
V.
tp253
aa(lp254
(VThe
VDT
tp255
a(Vfacts
VNNS
tp256
a(Vhave
VVBP
tp257
a(Vnow
VRB
tp258
a(Vconfirmed
VVBN
tp259
a(Vbeyond
VIN
tp260
a(Vany
VDT
tp261
a(Vdoubt
VNN
tp262
a(Vthat
VIN
tp263
a(Vthis
VDT
tp264
a(Vwas
VVBD
tp265
a(Vjustified
VJJ
tp266
a(V.
V.
tp267
aa(lp268
(VWe
VPRP
tp269
a(Vwould
VMD
tp270
a(Vnot
VRB
tp271
a(Vhave
VVB
tp272
a(Vtolerated
VVBN
tp273
a(Vone
VCD
tp274
a(Vtenth
VNN
tp275
a(Vof
VIN
tp276
a(Vone
VCD
tp277
a(Vquarter
VNN
tp278
a(Vof
VIN
tp279
a(Vwhat
VWP
tp280
a(Vwas
VVBD
tp281
a(Vdone
VVBN
tp282
a(Vto
VTO
tp283
a(Vhim
VPRP
tp284
a(V.
V.
tp285
aa(lp286
(VWhy
VWRB
tp287
a(Vare
VVBP
tp288
a(Vwe
VPRP
tp289
a(Vnot
VRB
tp290
a(Vdoing
VVBG
tp291
a(Vso
VRB
tp292
a(V?
V.
tp293
aa(lp294
(VThis
VDT
tp295
a(Vissue
VNN
tp296
a(Vis
VVBZ
tp297
a(Vparticularly
VRB
tp298
a(Vrelevant
VJJ
tp299
a(Vin
VIN
tp300
a(Vmy
VPRP$
tp301
a(Vcountry
VNN
tp302
a(V,
V,
tp303
a(VLithuania
VNNP
tp304
a(V,
V,
tp305
a(Vwhich
VWDT
tp306
a(Vis
VVBZ
tp307
a(Vsurrounded
VVBN
tp308
a(Vby
VIN
tp309
a(Vchemical
VNN
tp310
a(Vand
VCC
tp311
a(Vnuclear
VJJ
tp312
a(Vhazards
VNNS
tp313
a(V.
V.
tp314
aa(lp315
(VIt
VPRP
tp316
a(Vis
VVBZ
tp317
a(Valso
VRB
tp318
a(Vcost-effective
VJJ
tp319
a(Vwhen
VWRB
tp320
a(Vone
VCD
tp321
a(Vconsiders
VVBZ
tp322
a(Vthe
VDT
tp323
a(Vconsequences
VNNS
tp324
a(Vfor
VIN
tp325
a(Vthe
VDT
tp326
a(Vwhole
VJJ
tp327
a(Vfamily
VNN
tp328
a(V.
V.
tp329
aa(lp330
(VI
VPRP
tp331
a(Vam
VVBP
tp332
a(Valso
VRB
tp333
a(Vparticularly
VRB
tp334
a(Vdelighted
VJJ
tp335
a(Vthat
VIN
tp336
a(Vthe
VDT
tp337
a(Vright
VNN
tp338
a(Vto
VTO
tp339
a(Vparental
VJJ
tp340
a(Vleave
VNN
tp341
a(Vis
VVBZ
tp342
a(Vbeing
VVBG
tp343
a(Vstrengthened
VVBN
tp344
a(V,
V,
tp345
a(Vand
VCC
tp346
a(Vfor
VIN
tp347
a(Vwomen
VNNS
tp348
a(Vas
VRB
tp349
a(Vwell
VRB
tp350
a(Vas
VIN
tp351
a(Vmen
VNNS
tp352
a(V.
V.
tp353
aa(lp354
(VWhat
VWP
tp355
a(Vdo
VVBP
tp356
a(Vyou
VPRP
tp357
a(Vthink
VVB
tp358
a(Vabout
VIN
tp359
a(Vthe
VDT
tp360
a(Vstatements
VNNS
tp361
a(Vof
VIN
tp362
a(VTony
VNNP
tp363
a(VBlair
VNNP
tp364
a(V?
V.
tp365
aa(lp366
(VI
VPRP
tp367
a(Vwill
VMD
tp368
a(Vconclude
VVB
tp369
a(Vby
VIN
tp370
a(Vsaying
VVBG
tp371
a(Vthat
VIN
tp372
a(Vthe
VDT
tp373
a(Vproblem
VNN
tp374
a(Vmainly
VRB
tp375
a(Vconcerns
VVBZ
tp376
a(Vthe
VDT
tp377
a(VUnited
VNNP
tp378
a(VStates
VNNPS
tp379
a(Vof
VIN
tp380
a(VAmerica
VNNP
tp381
a(V.
V.
tp382
aa(lp383
(VWe
VPRP
tp384
a(Vare
VVBP
tp385
a(Vnot
VRB
tp386
a(Vtalking
VVBG
tp387
a(Vsolely
VRB
tp388
a(Vof
VIN
tp389
a(Vrising
VVBG
tp390
a(Vsea
VNN
tp391
a(Vlevels
VNNS
tp392
a(Vand
VCC
tp393
a(Vthe
VDT
tp394
a(Vdisappearance
VNN
tp395
a(Vof
VIN
tp396
a(Vsmall
VJJ
tp397
a(Visland
VNN
tp398
a(VStates
VNNS
tp399
a(Vand
VCC
tp400
a(Vthe
VDT
tp401
a(Vflooding
VNN
tp402
a(Vof
VIN
tp403
a(Vlow-lying
VJJ
tp404
a(Vareas
VNNS
tp405
a(Vin
VIN
tp406
a(VBangladesh
VNNP
tp407
a(Vor
VCC
tp408
a(Vthe
VDT
tp409
a(VNetherlands
VNNP
tp410
a(V,
V,
tp411
a(Vwhich
VWDT
tp412
a(Vwe
VPRP
tp413
a(Vare
VVBP
tp414
a(Vall
VDT
tp415
a(Vaware
VJJ
tp416
a(Vof
VIN
tp417
a(V.
V.
tp418
aa(lp419
(VI
VPRP
tp420
a(Vthink
VVBP
tp421
a(Vwe
VPRP
tp422
a(Vshould
VMD
tp423
a(Vall
VDT
tp424
a(Vget
VVB
tp425
a(Va
VDT
tp426
a(Vclap
VNN
tp427
a(Von
VIN
tp428
a(Vthe
VDT
tp429
a(Vback
VNN
tp430
a(V.
V.
tp431
aa(lp432
(VWe
VPRP
tp433
a(Vmust
VMD
tp434
a(Vseek
VVB
tp435
a(Vbroad
VJJ
tp436
a(Vcooperation
VNN
tp437
a(Vwith
VIN
tp438
a(Vother
VJJ
tp439
a(Vpartners
VNNS
tp440
a(Vin
VIN
tp441
a(Vorder
VNN
tp442
a(Vto
VTO
tp443
a(Vexert
VVB
tp444
a(Vas
VRB
tp445
a(Vmuch
VJJ
tp446
a(Vpressure
VNN
tp447
a(Vas
VIN
tp448
a(Vpossible
VJJ
tp449
a(V.
V.
tp450
aa(lp451
(VAge
VNNP
tp452
a(Vand
VCC
tp453
a(Vgender
VNN
tp454
a(Vshould
VMD
tp455
a(Valso
VRB
tp456
a(Vbe
VVB
tp457
a(Vtaken
VVBN
tp458
a(Vinto
VIN
tp459
a(Vaccount
VNN
tp460
a(V.
V.
tp461
aa(lp462
(VIn
VIN
tp463
a(Vthe
VDT
tp464
a(Vfinal
VJJ
tp465
a(Vanalysis
VNN
tp466
a(V,
V,
tp467
a(Vthis
VDT
tp468
a(Vwill
VMD
tp469
a(Vall
VDT
tp470
a(Vneed
VVB
tp471
a(Vtranslating
VVBG
tp472
a(Vand
VCC
tp473
a(Vthen
VRB
tp474
a(Vdistributing
VVBG
tp475
a(Vin
VIN
tp476
a(Vwriting
VVBG
tp477
a(V.
V.
tp478
aa(lp479
(VIt
VPRP
tp480
a(Vis
VVBZ
tp481
a(Va
VDT
tp482
a(Vhell
VNN
tp483
a(V.
V.
tp484
a(V\u2019
VSYM
tp485
aa(lp486
(VNow
VRB
tp487
a(Vshe
VPRP
tp488
a(Vdeserves
VVBZ
tp489
a(Vto
VTO
tp490
a(Vbe
VVB
tp491
a(Vrewarded
VVBN
tp492
a(V.
V.
tp493
aa(lp494
(VIt
VPRP
tp495
a(Vis
VVBZ
tp496
a(Vin
VIN
tp497
a(Vtheir
VPRP$
tp498
a(Vinterest
VNN
tp499
a(Vto
VTO
tp500
a(Vdo
VVB
tp501
a(Vso
VRB
tp502
a(V.
V.
tp503
aa(lp504
(VLuckily
VRB
tp505
a(V,
V,
tp506
a(Vthe
VDT
tp507
a(VCommission
VNNP
tp508
a(Vretraced
VVBD
tp509
a(Vits
VPRP$
tp510
a(Vfootsteps
VNNS
tp511
a(V.
V.
tp512
aa(lp513
(VThe
VDT
tp514
a(VECB
VNN
tp515
a(Vis
VVBZ
tp516
a(Vtherefore
VRB
tp517
a(Va
VDT
tp518
a(Vsuitable
VJJ
tp519
a(Vsupervisory
VJJ
tp520
a(Vbody
VNN
tp521
a(Vuntil
VIN
tp522
a(Vsuch
VJJ
tp523
a(Vtime
VNN
tp524
a(Vas
VIN
tp525
a(Va
VDT
tp526
a(Vpossible
VJJ
tp527
a(VEuropean
VJJ
tp528
a(Vfinance
VNN
tp529
a(Vinspectorate
VNN
tp530
a(Vis
VVBZ
tp531
a(Vestablished
VVBN
tp532
a(V.
V.
tp533
aa(lp534
(VIt
VPRP
tp535
a(Vwould
VMD
tp536
a(Vbe
VVB
tp537
a(Vnigh
VJJ
tp538
a(Von
VIN
tp539
a(Vimpossible
VJJ
tp540
a(Vto
VTO
tp541
a(Vregulate
VVB
tp542
a(Vhis
VPRP$
tp543
a(Vviewing
VVBG
tp544
a(Vhabits
VNNS
tp545
a(V.
V.
tp546
aa(lp547
(VI
VPRP
tp548
a(Vtabled
VVBD
tp549
a(Vmany
VJJ
tp550
a(Vamendments
VNNS
tp551
a(Vamounting
VVBG
tp552
a(Vto
VTO
tp553
a(Vhundreds
VNNS
tp554
a(Vof
VIN
tp555
a(Vmillions
VNNS
tp556
a(Vof
VIN
tp557
a(Veuros
VNNS
tp558
a(V.
V.
tp559
aa(lp560
(VBrussels
VNNP
tp561
a(Vcould
VMD
tp562
a(Vnot
VRB
tp563
a(Vcare
VVB
tp564
a(Vless
VRBR
tp565
a(Vabout
VIN
tp566
a(VTurkey
VNNP
tp567
a(V&apos;s
VVBZ
tp568
a(VArmenian
VJJ
tp569
a(Vgenocide
VNN
tp570
a(V.
V.
tp571
aa(lp572
(VIt
VPRP
tp573
a(Vis
VVBZ
tp574
a(Vnot
VRB
tp575
a(Vgreed
VNN
tp576
a(V,
V,
tp577
a(Vindividual
VJJ
tp578
a(Vgreed
VNN
tp579
a(V,
V,
tp580
a(Vwhich
VWDT
tp581
a(Vwas
VVBD
tp582
a(Vthe
VDT
tp583
a(Vdecisive
VJJ
tp584
a(Vfactor
VNN
tp585
a(V.
V.
tp586
aa(lp587
(VThe
VDT
tp588
a(VUnion
VNNP
tp589
a(Vis
VVBZ
tp590
a(Vdismally
VRB
tp591
a(Vuninspiring
VJJ
tp592
a(V.
V.
tp593
aa(lp594
(VHe
VPRP
tp595
a(Vsaid
VVBD
tp596
a(V,
V,
tp597
a(V&apos;
VIN
tp598
a(Vwe
VPRP
tp599
a(Vmust
VMD
tp600
a(Vbuild
VVB
tp601
a(Va
VDT
tp602
a(VGreat
VNNP
tp603
a(VWall
VNNP
tp604
a(Vagainst
VIN
tp605
a(Vseparatism
VNN
tp606
a(V&apos;
VNN
tp607
a(V.
V.
tp608
aa(lp609
(VBut
VCC
tp610
a(VI
VPRP
tp611
a(Vdo
VVBP
tp612
a(Vnot
VRB
tp613
a(Vwant
VVB
tp614
a(Vit
VPRP
tp615
a(Vto
VTO
tp616
a(Vsit
VVB
tp617
a(Vin
VIN
tp618
a(Va
VDT
tp619
a(Vcorner
VNN
tp620
a(V.
V.
tp621
aa(lp622
(VConsequently
VRB
tp623
a(V,
V,
tp624
a(Vpreparations
VNNS
tp625
a(Vand
VCC
tp626
a(Vthe
VDT
tp627
a(Voperation
VNN
tp628
a(Vitself
VPRP
tp629
a(Vneed
VVBP
tp630
a(Vto
VTO
tp631
a(Vbe
VVB
tp632
a(Vcompleted
VVBN
tp633
a(Vwith
VIN
tp634
a(Vthe
VDT
tp635
a(Vutmost
VJJ
tp636
a(Vcare
VNN
tp637
a(V.
V.
tp638
aa(lp639
(VThat
VDT
tp640
a(Vis
VVBZ
tp641
a(Vunacceptable
VJJ
tp642
a(V,
V,
tp643
a(Vand
VCC
tp644
a(Vmeans
VVBZ
tp645
a(Vthat
VIN
tp646
a(Vwe
VPRP
tp647
a(Vare
VVBP
tp648
a(Vbringing
VVBG
tp649
a(Vup
VRP
tp650
a(Vthe
VDT
tp651
a(Vrear
VNN
tp652
a(Vof
VIN
tp653
a(Vthe
VDT
tp654
a(VEU
VNNP
tp655
a(V.
V.
tp656
aa(lp657
(VOn
VIN
tp658
a(Va
VDT
tp659
a(Vmore
VRBR
tp660
a(Vpersonal
VJJ
tp661
a(Vnote
VNN
tp662
a(V,
V,
tp663
a(VI
VPRP
tp664
a(Vwould
VMD
tp665
a(Valso
VRB
tp666
a(Vlike
VVB
tp667
a(Vto
VTO
tp668
a(Vcongratulate
VVB
tp669
a(Vyou
VPRP
tp670
a(Von
VIN
tp671
a(Vbeing
VVBG
tp672
a(Vthe
VDT
tp673
a(Vfirst
VJJ
tp674
a(Vwoman
VNN
tp675
a(Vto
VTO
tp676
a(Vlead
VVB
tp677
a(Vthis
VDT
tp678
a(VHouse
VNNP
tp679
a(Vin
VIN
tp680
a(Va
VDT
tp681
a(Vlong
VJJ
tp682
a(Vtime
VNN
tp683
a(V.
V.
tp684
aa(lp685
(VChina
VNNP
tp686
a(Vis
VVBZ
tp687
a(Vthe
VDT
tp688
a(Vsecond
VJJ
tp689
a(Vcountry
VNN
tp690
a(Vunder
VIN
tp691
a(Vdiscussion
VNN
tp692
a(V.
V.
tp693
aa(lp694
(V(
VNN
tp695
a(VPL
VNN
tp696
a(V)
VCD
tp697
a(VMr
VNNP
tp698
a(VPresident
VNNP
tp699
a(V,
V,
tp700
a(VI
VPRP
tp701
a(Vwould
VMD
tp702
a(Vlike
VVB
tp703
a(Vto
VTO
tp704
a(Vquote
VVB
tp705
a(Vfrom
VIN
tp706
a(VArticle
VNNP
tp707
a(V47
VCD
tp708
a(Vof
VIN
tp709
a(Vthe
VDT
tp710
a(VConstitution
VNNP
tp711
a(Vof
VIN
tp712
a(VAzerbaijan
VNNP
tp713
a(V:
V:
tp714
a(V&apos;
VVB
tp715
a(VEveryone
VNN
tp716
a(Vmay
VMD
tp717
a(Venjoy
VVB
tp718
a(Vfreedom
VNN
tp719
a(Vof
VIN
tp720
a(Vthought
VNN
tp721
a(Vand
VCC
tp722
a(Vspeech.&apos;
VNN
tp723
aa(lp724
(VThey
VPRP
tp725
a(Vlost
VVBD
tp726
a(Vtheir
VPRP$
tp727
a(Vinnocence
VNN
tp728
a(Vages
VNNS
tp729
a(Vago
VRB
tp730
a(V.
V.
tp731
aa(lp732
(VFaced
VVBN
tp733
a(Vwith
VIN
tp734
a(Vthe
VDT
tp735
a(Vdiktat
VNN
tp736
a(Vimposed
VVBN
tp737
a(Von
VIN
tp738
a(Vit
VPRP
tp739
a(V,
V,
tp740
a(Vnearly
VRB
tp741
a(Vall
VDT
tp742
a(Vits
VPRP$
tp743
a(Vmembers
VNNS
tp744
a(Vhave
VVBP
tp745
a(Vbowed
VVBN
tp746
a(V.
V.
tp747
aa(lp748
(VYou
VPRP
tp749
a(Vare
VVBP
tp750
a(Vnot
VRB
tp751
a(Visolated
VVBN
tp752
a(V.
V.
tp753
aa(lp754
(VIreland
VNNP
tp755
a(Vand
VCC
tp756
a(VEurope
VNNP
tp757
a(Vcan
VMD
tp758
a(Vbenefit
VVB
tp759
a(Vby
VIN
tp760
a(Vfurther
VJJ
tp761
a(Vpromoting
VVBG
tp762
a(Vand
VCC
tp763
a(Vusing
VVBG
tp764
a(Vthe
VDT
tp765
a(Vscheme
VNN
tp766
a(V.
V.
tp767
aa(lp768
(VThere
VEX
tp769
a(Vwill
VMD
tp770
a(Vno
VDT
tp771
a(Vdoubt
VNN
tp772
a(Vbe
VVB
tp773
a(Vbooks
VNNS
tp774
a(Vand
VCC
tp775
a(Vmore
VJJR
tp776
a(Vbooks
VNNS
tp777
a(Vof
VIN
tp778
a(VTreasury
VNNP
tp779
a(Vand
VCC
tp780
a(Vcommercial
VJJ
tp781
a(Vlaw
VNN
tp782
a(Von
VIN
tp783
a(Vthose
VDT
tp784
a(Vdefinitions
VNNS
tp785
a(V.
V.
tp786
aa(lp787
(VNo
VDT
tp788
a(Vtransboundary
VJJ
tp789
a(Veffects
VNNS
tp790
a(Vhave
VVBP
tp791
a(Vbeen
VVBN
tp792
a(Vdetected
VVBN
tp793
a(Vand
VCC
tp794
a(Vmost
VJJS
tp795
a(Vof
VIN
tp796
a(Vthe
VDT
tp797
a(Vweapons
VNNS
tp798
a(Vwill
VMD
tp799
a(Vhave
VVB
tp800
a(Vbeen
VVBN
tp801
a(Vused
VVBN
tp802
a(Von
VIN
tp803
a(Vthe
VDT
tp804
a(Vterritory
VNN
tp805
a(Vof
VIN
tp806
a(Vthe
VDT
tp807
a(VFederal
VNNP
tp808
a(VRepublic
VNNP
tp809
a(Vof
VIN
tp810
a(VYugoslavia
VNNP
tp811
a(V.
V.
tp812
aa(lp813
(VThis
VDT
tp814
a(Vframework
VNN
tp815
a(Vis
VVBZ
tp816
a(Vbecoming
VVBG
tp817
a(Vrestrictive
VJJ
tp818
a(V.
V.
tp819
aa(lp820
(VSince
VIN
tp821
a(Vthe
VDT
tp822
a(Vfounding
VNN
tp823
a(Vof
VIN
tp824
a(Vthe
VDT
tp825
a(VIrish
VJJ
tp826
a(VState
VNN
tp827
a(V,
V,
tp828
a(Vit
VPRP
tp829
a(Vhas
VVBZ
tp830
a(Vbeen
VVBN
tp831
a(Vdemonstrated
VVBN
tp832
a(Vthat
VIN
tp833
a(Vthe
VDT
tp834
a(Vproportional
VJJ
tp835
a(Vrepresentation
VNN
tp836
a(Vsystem
VNN
tp837
a(Vis
VVBZ
tp838
a(Va
VDT
tp839
a(Vfair
VJJ
tp840
a(Vand
VCC
tp841
a(Vequal
VJJ
tp842
a(Vsystem
VNN
tp843
a(V.
V.
tp844
aa(lp845
(VVery
VRB
tp846
a(Vloyal
VJJ
tp847
a(Vrelations
VNNS
tp848
a(Vhave
VVBP
tp849
a(Vbeen
VVBN
tp850
a(Vcreated
VVBN
tp851
a(Vbetween
VIN
tp852
a(Vthe
VDT
tp853
a(Vgroup
VNN
tp854
a(Vchairmen
VNNS
tp855
a(V.
V.
tp856
aa(lp857
(VWhat
VWP
tp858
a(Vyou
VPRP
tp859
a(Vare
VVBP
tp860
a(Vpresenting
VVBG
tp861
a(Vto
VTO
tp862
a(Vus
VPRP
tp863
a(Vhere
VRB
tp864
a(Vis
VVBZ
tp865
a(Va
VDT
tp866
a(Vconjuring
VVBG
tp867
a(Vtrick
VNN
tp868
a(V.
V.
tp869
aa(lp870
(VThey
VPRP
tp871
a(Vare
VVBP
tp872
a(Valso
VRB
tp873
a(Vcalling
VVBG
tp874
a(Vfor
VIN
tp875
a(Vdemonstrations
VNNS
tp876
a(Vthroughout
VIN
tp877
a(Vthe
VDT
tp878
a(Vcountry
VNN
tp879
a(Von
VIN
tp880
a(V1
VCD
tp881
a(VFebruary
VNNP
tp882
a(V.
V.
tp883
aa(lp884
(VI
VPRP
tp885
a(Vvoted
VVBD
tp886
a(Vbroadly
VRB
tp887
a(Vin
VIN
tp888
a(Vfavour
VNN
tp889
a(Vof
VIN
tp890
a(Vwhat
VWP
tp891
a(Vthis
VDT
tp892
a(Vmotion
VNN
tp893
a(Vfor
VIN
tp894
a(Va
VDT
tp895
a(Vresolution
VNN
tp896
a(Vproposes
VVBZ
tp897
a(V.
V.
tp898
aa(lp899
(VConsumers
VNNS
tp900
a(Vwill
VMD
tp901
a(Vhave
VVB
tp902
a(Vthe
VDT
tp903
a(Vright
VNN
tp904
a(Vto
VTO
tp905
a(Vchange
VVB
tp906
a(Vtelecommunications
VNNS
tp907
a(Vservice
VNN
tp908
a(Vprovider
VNN
tp909
a(Vwhilst
VIN
tp910
a(Vretaining
VVBG
tp911
a(Vtheir
VPRP$
tp912
a(Vexisting
VJJ
tp913
a(Vtelephone
VNN
tp914
a(Vnumber
VNN
tp915
a(V.
V.
tp916
aa(lp917
(VWhile
VIN
tp918
a(V,
V,
tp919
a(Vfrom
VIN
tp920
a(Van
VDT
tp921
a(Vintellectual
VJJ
tp922
a(Vpoint
VNN
tp923
a(Vof
VIN
tp924
a(Vview
VNN
tp925
a(V,
V,
tp926
a(VI
VPRP
tp927
a(Vcan
VMD
tp928
a(Vunderstand
VVB
tp929
a(Vthat
VIN
tp930
a(Vconsistency
VNN
tp931
a(Vwithin
VIN
tp932
a(Vand
VCC
tp933
a(Voutside
VIN
tp934
a(Vthe
VDT
tp935
a(VCommunity
VNN
tp936
a(Vis
VVBZ
tp937
a(Vrequired
VVBN
tp938
a(Vin
VIN
tp939
a(Vorder
VNN
tp940
a(Vto
VTO
tp941
a(Vestablish
VVB
tp942
a(Vthis
VDT
tp943
a(Vcooperation
VNN
tp944
a(V,
V,
tp945
a(VI
VPRP
tp946
a(Vdo
VVBP
tp947
a(Vhave
VVB
tp948
a(Vmore
VRBR
tp949
a(Vdifficulty
VNN
tp950
a(Vin
VIN
tp951
a(Vaccepting
VVBG
tp952
a(Vthat
VIN
tp953
a(Vthe
VDT
tp954
a(VCommission
VNNP
tp955
a(Vis
VVBZ
tp956
a(Vsolely
VRB
tp957
a(Vresponsible
VJJ
tp958
a(Vfor
VIN
tp959
a(Vthese
VDT
tp960
a(Vkinds
VNNS
tp961
a(Vof
VIN
tp962
a(Vinternational
VJJ
tp963
a(Vtreaties
VNNS
tp964
a(V,
V,
tp965
a(Vthat
VIN
tp966
a(Vit
VPRP
tp967
a(Vcontrols
VVBZ
tp968
a(V,
V,
tp969
a(Veven
VRB
tp970
a(Vin
VIN
tp971
a(Vpart
VNN
tp972
a(V,
V,
tp973
a(Va
VDT
tp974
a(VMember
VNNP
tp975
a(VState
VNNP
tp976
a(V&apos;s
VNNS
tp977
a(Vability
VNN
tp978
a(Vto
VTO
tp979
a(Vconclude
VVB
tp980
a(Vtreaties
VNNS
tp981
a(V,
V,
tp982
a(Vand
VCC
tp983
a(Veven
VRB
tp984
a(Vmore
VRBR
tp985
a(Vso
VRB
tp986
a(Vthat
VIN
tp987
a(VEuropean
VJJ
tp988
a(Vlaw
VNN
tp989
a(Vtakes
VVBZ
tp990
a(Vprecedence
VNN
tp991
a(Vover
VIN
tp992
a(Vall
VDT
tp993
a(Vothers
VNNS
tp994
a(V.
V.
tp995
aa(lp996
a(lp997
(VI
VPRP
tp998
a(Vhad
VVBD
tp999
a(Vthe
VDT
tp1000
a(Vopportunity
VNN
tp1001
a(Vof
VIN
tp1002
a(Vtravelling
VVBG
tp1003
a(Vto
VTO
tp1004
a(VAngola
VNNP
tp1005
a(Vwith
VIN
tp1006
a(Vhim
VPRP
tp1007
a(Vquite
VRB
tp1008
a(Vrecently
VRB
tp1009
a(V.
V.
tp1010
aa(lp1011
(VSecondly
VRB
tp1012
a(Vwe
VPRP
tp1013
a(Vall
VDT
tp1014
a(Vknow
VVBP
tp1015
a(Vas
VIN
tp1016
a(VMEPs
VNNS
tp1017
a(Vthat
VIN
tp1018
a(Vthere
VEX
tp1019
a(Vis
VVBZ
tp1020
a(Va
VDT
tp1021
a(Vvery
VRB
tp1022
a(Vstrong
VJJ
tp1023
a(Vpublic
VJJ
tp1024
a(Vappetite
VNN
tp1025
a(Vfor
VIN
tp1026
a(Vthere
VRB
tp1027
a(Vto
VTO
tp1028
a(Vbe
VVB
tp1029
a(Van
VDT
tp1030
a(VEU
VNNP
tp1031
a(Vstrategy
VNN
tp1032
a(V.
V.
tp1033
aa(lp1034
(VIn
VIN
tp1035
a(Vit
VPRP
tp1036
a(V,
V,
tp1037
a(Vshe
VPRP
tp1038
a(Vargues
VVBZ
tp1039
a(Vthat
VIN
tp1040
a(Vviolence
VNN
tp1041
a(Vagainst
VIN
tp1042
a(Vwomen
VNNS
tp1043
a(Vis
VVBZ
tp1044
a(Va
VDT
tp1045
a(Vstructural
VJJ
tp1046
a(Vand
VCC
tp1047
a(Vwidespread
VJJ
tp1048
a(Vproblem
VNN
tp1049
a(Vacross
VIN
tp1050
a(Vthe
VDT
tp1051
a(Vwhole
VNN
tp1052
a(Vof
VIN
tp1053
a(VEurope
VNNP
tp1054
a(Vand
VCC
tp1055
a(Vthat
VIN
tp1056
a(Vit
VPRP
tp1057
a(Varises
VVBZ
tp1058
a(Vout
VIN
tp1059
a(Vof
VIN
tp1060
a(Vinequality
VNN
tp1061
a(Vbetween
VIN
tp1062
a(Vmen
VNNS
tp1063
a(Vand
VCC
tp1064
a(Vwomen
VNNS
tp1065
a(V.
V.
tp1066
aa(lp1067
(VLet
VVB
tp1068
a(Vme
VPRP
tp1069
a(Vtake
VVB
tp1070
a(Vtwo
VCD
tp1071
a(Vsets
VNNS
tp1072
a(Vof
VIN
tp1073
a(Vexamples
VNNS
tp1074
a(V.
V.
tp1075
aa(lp1076
(VWe
VPRP
tp1077
a(Vare
VVBP
tp1078
a(Vcurrently
VRB
tp1079
a(Vat
VIN
tp1080
a(Vthe
VDT
tp1081
a(Vstage
VNN
tp1082
a(Vof
VIN
tp1083
a(Vthe
VDT
tp1084
a(Vfirst
VJJ
tp1085
a(Vreading
VNN
tp1086
a(V,
V,
tp1087
a(Vand
VCC
tp1088
a(Vthe
VDT
tp1089
a(VCouncil
VNNP
tp1090
a(Vis
VVBZ
tp1091
a(Vto
VTO
tp1092
a(Vannounce
VVB
tp1093
a(Vits
VPRP$
tp1094
a(Vposition
VNN
tp1095
a(Von
VIN
tp1096
a(Vthis
VDT
tp1097
a(Vproposal
VNN
tp1098
a(Von
VIN
tp1099
a(V3
VCD
tp1100
a(VNovember
VNNP
tp1101
a(V.
V.
tp1102
aa(lp1103
(VIt
VPRP
tp1104
a(Vwas
VVBD
tp1105
a(Va
VDT
tp1106
a(VBritish
VJJ
tp1107
a(VConservative
VNNP
tp1108
a(VMinister
VNNP
tp1109
a(Vfor
VIN
tp1110
a(VForeign
VNNP
tp1111
a(VAffairs
VNNP
tp1112
a(V,
V,
tp1113
a(VMalcolm
VNNP
tp1114
a(VRifkind
VNNP
tp1115
a(V,
V,
tp1116
a(Vwho
VWP
tp1117
a(Vwent
VVBD
tp1118
a(Vto
VTO
tp1119
a(VWarsaw
VNNP
tp1120
a(Vand
VCC
tp1121
a(Vbecame
VVBD
tp1122
a(Vthe
VDT
tp1123
a(Vfirst
VJJ
tp1124
a(Vwestern
VJJ
tp1125
a(Vpolitician
VNN
tp1126
a(Vto
VTO
tp1127
a(Vmeet
VVB
tp1128
a(Vwith
VIN
tp1129
a(Vrepresentatives
VNNS
tp1130
a(Vof
VIN
tp1131
a(VSolidarity
VNNP
tp1132
a(V,
V,
tp1133
a(Van
VDT
tp1134
a(Vact
VNN
tp1135
a(Vthat
VIN
tp1136
a(Vinfuriated
VVBD
tp1137
a(Vthe
VDT
tp1138
a(VCommunist
VJJ
tp1139
a(Vregime
VNN
tp1140
a(V.
V.
tp1141
aa(lp1142
(VThis
VDT
tp1143
a(Vis
VVBZ
tp1144
a(Vtermed
VVBN
tp1145
a(V&apos;
VJJ
tp1146
a(Vsolidarity
VNN
tp1147
a(V&apos;
VNN
tp1148
a(V,
V,
tp1149
a(Vbut
VCC
tp1150
a(Vit
VPRP
tp1151
a(Vis
VVBZ
tp1152
a(Vtheft
VNN
tp1153
a(V,
V,
tp1154
a(Vpure
VJJ
tp1155
a(Vand
VCC
tp1156
a(Vsimple
VJJ
tp1157
a(V.
V.
tp1158
aa(lp1159
(VWhen
VWRB
tp1160
a(VI
VPRP
tp1161
a(Ventered
VVBD
tp1162
a(Vthis
VDT
tp1163
a(Vplace
VNN
tp1164
a(V,
V,
tp1165
a(Vit
VPRP
tp1166
a(Vwas
VVBD
tp1167
a(Vmeant
VVBN
tp1168
a(Vto
VTO
tp1169
a(Vbe
VVB
tp1170
a(Va
VDT
tp1171
a(Vpaperless
VJJ
tp1172
a(Vparliament
VNN
tp1173
a(Vyet
VRB
tp1174
a(V,
V,
tp1175
a(Vif
VIN
tp1176
a(Vyou
VPRP
tp1177
a(Vlook
VVBP
tp1178
a(Varound
VRB
tp1179
a(V,
V,
tp1180
a(Vall
VDT
tp1181
a(Vour
VPRP$
tp1182
a(Vdesks
VNNS
tp1183
a(Vare
VVBP
tp1184
a(Vcovered
VVBN
tp1185
a(Vin
VIN
tp1186
a(Vpaper
VNN
tp1187
a(V.
V.
tp1188
aa(lp1189
(VThis
VDT
tp1190
a(Vis
VVBZ
tp1191
a(Vthe
VDT
tp1192
a(Vmessage
VNN
tp1193
a(Vthat
VIN
tp1194
a(Vthe
VDT
tp1195
a(VFrench
VJJ
tp1196
a(VPresidency
VNNP
tp1197
a(Vwould
VMD
tp1198
a(Vlike
VVB
tp1199
a(Vus
VPRP
tp1200
a(Vall
VDT
tp1201
a(Vto
VTO
tp1202
a(Vsend
VVB
tp1203
a(Vto
VTO
tp1204
a(VEuropeans
VNNPS
tp1205
a(V.
V.
tp1206
aa(lp1207
(VOne
VCD
tp1208
a(Vof
VIN
tp1209
a(Vour
VPRP$
tp1210
a(Vaims
VNNS
tp1211
a(Vis
VVBZ
tp1212
a(Vconvergence
VNN
tp1213
a(V.
V.
tp1214
aa(lp1215
(VWe
VPRP
tp1216
a(Vmust
VMD
tp1217
a(Vdiscuss
VVB
tp1218
a(Vpractical
VJJ
tp1219
a(Vmeasures
VNNS
tp1220
a(Vand
VCC
tp1221
a(Vsee
VVB
tp1222
a(Vhow
VWRB
tp1223
a(Vwe
VPRP
tp1224
a(Vcan
VMD
tp1225
a(Vimplement
VVB
tp1226
a(Vthem
VPRP
tp1227
a(Vso
VIN
tp1228
a(Vthat
VIN
tp1229
a(Vwe
VPRP
tp1230
a(Valleviate
VVBP
tp1231
a(Vthe
VDT
tp1232
a(Vsuffering
VNN
tp1233
a(Vof
VIN
tp1234
a(Vthe
VDT
tp1235
a(Vsurvivors
VNNS
tp1236
a(V.
V.
tp1237
aa(lp1238
(Vin
VIN
tp1239
a(Vwriting
VVBG
tp1240
a(V.
V.
tp1241
a(V-
V:
tp1242
a(VI
VPRP
tp1243
a(Vam
VVBP
tp1244
a(Vsupportive
VJJ
tp1245
a(Vof
VIN
tp1246
a(Vextending
VVBG
tp1247
a(Vthe
VDT
tp1248
a(Vcoastal
VJJ
tp1249
a(Vlimits
VNNS
tp1250
a(Vfrom
VIN
tp1251
a(V12
VCD
tp1252
a(Vto
VTO
tp1253
a(V20
VCD
tp1254
a(Vmiles
VNNS
tp1255
a(Vas
VIN
tp1256
a(Vone
VCD
tp1257
a(Vof
VIN
tp1258
a(Vthe
VDT
tp1259
a(Vkey
VJJ
tp1260
a(Vreforms
VNNS
tp1261
a(Vof
VIN
tp1262
a(Vthe
VDT
tp1263
a(VCFP
VNN
tp1264
a(V.
V.
tp1265
aa(lp1266
(V(
VNN
tp1267
a(VThe
VDT
tp1268
a(Vspeaker
VNN
tp1269
a(Vbroke
VVBD
tp1270
a(Voff
VRP
tp1271
a(V,
V,
tp1272
a(Vhoping
VVBG
tp1273
a(Vto
VTO
tp1274
a(Vcontinue
VVB
tp1275
a(Vhis
VPRP$
tp1276
a(Vspeech
VNN
tp1277
a(Vlater
VRB
tp1278
a(V)
VVBD
tp1279
aa(lp1280
(VThese
VDT
tp1281
a(Vinterests
VNNS
tp1282
a(Vare
VVBP
tp1283
a(Vincreasingly
VRB
tp1284
a(Vbeing
VVBG
tp1285
a(Vdefended
VVBN
tp1286
a(Vby
VIN
tp1287
a(Vmilitary
VJJ
tp1288
a(Vmeans
VNNS
tp1289
a(V,
V,
tp1290
a(Vand
VCC
tp1291
a(Vwith
VIN
tp1292
a(Vever
VRB
tp1293
a(Vgreater
VJJR
tp1294
a(Vaggressiveness
VNN
tp1295
a(V.
V.
tp1296
aa(lp1297
(VFinally
VRB
tp1298
a(V,
V,
tp1299
a(Vthe
VDT
tp1300
a(Vsolution
VNN
tp1301
a(Vto
VTO
tp1302
a(Vthis
VDT
tp1303
a(Vdilemma
VNN
tp1304
a(Vhas
VVBZ
tp1305
a(Vbeen
VVBN
tp1306
a(Vdiscovered
VVBN
tp1307
a(Vby
VIN
tp1308
a(Vthe
VDT
tp1309
a(Vnew
VJJ
tp1310
a(VKnight
VNNP
tp1311
a(Vof
VIN
tp1312
a(Vthe
VDT
tp1313
a(VOrder
VNN
tp1314
a(Vof
VIN
tp1315
a(Vthe
VDT
tp1316
a(VLegion
VNNP
tp1317
a(Vof
VIN
tp1318
a(VHonour
VNNP
tp1319
a(V,
V,
tp1320
a(VKarl
VNNP
tp1321
a(Vvon
VNNP
tp1322
a(VWogau
VNNP
tp1323
a(V,
V,
tp1324
a(Vand
VCC
tp1325
a(Vsupported
VVBN
tp1326
a(Vby
VIN
tp1327
a(Vthis
VDT
tp1328
a(VParliament
VNNP
tp1329
a(V.
V.
tp1330
aa(lp1331
(VYou
VPRP
tp1332
a(Vwill
VMD
tp1333
a(Valso
VRB
tp1334
a(Vbe
VVB
tp1335
a(Vattending
VVBG
tp1336
a(Vand
VCC
tp1337
a(V,
V,
tp1338
a(Vfor
VIN
tp1339
a(Vthe
VDT
tp1340
a(Vfirst
VJJ
tp1341
a(Vtime
VNN
tp1342
a(V,
V,
tp1343
a(Vwe
VPRP
tp1344
a(Vdo
VVBP
tp1345
a(Vnot
VRB
tp1346
a(Vhave
VVB
tp1347
a(Vto
VTO
tp1348
a(Vrent
VVB
tp1349
a(Van
VDT
tp1350
a(Voffice
VNN
tp1351
a(Vin
VIN
tp1352
a(Vthe
VDT
tp1353
a(Vcity
VNN
tp1354
a(V.
V.
tp1355
a(VInstead
VRB
tp1356
a(V,
V,
tp1357
a(Vwe
VPRP
tp1358
a(Vwill
VMD
tp1359
a(Vhave
VVB
tp1360
a(Van
VDT
tp1361
a(Vofficial
VJJ
tp1362
a(Vpresence
VNN
tp1363
a(Vin
VIN
tp1364
a(Vthe
VDT
tp1365
a(VEU
VNNP
tp1366
a(Vpavilion
VNN
tp1367
a(V.
V.
tp1368
aa(lp1369
(VIf
VIN
tp1370
a(Vwe
VPRP
tp1371
a(Vdo
VVBP
tp1372
a(V,
V,
tp1373
a(Vand
VCC
tp1374
a(Vif
VIN
tp1375
a(Vwe
VPRP
tp1376
a(Vhave
VVBP
tp1377
a(Vagreed
VVBN
tp1378
a(Vthis
VDT
tp1379
a(Vdraft
VNN
tp1380
a(V,
V,
tp1381
a(Vthere
VEX
tp1382
a(Vare
VVBP
tp1383
a(Vno
VDT
tp1384
a(Vfurther
VJJ
tp1385
a(Vlegal
VJJ
tp1386
a(Vobstacles
VNNS
tp1387
a(V.
V.
tp1388
aa(lp1389
(VThe
VDT
tp1390
a(Vfirst
VJJ
tp1391
a(Vtype
VNN
tp1392
a(Vclarifies
VVBZ
tp1393
a(Vthe
VDT
tp1394
a(Vproposal
VNN
tp1395
a(Vand
VCC
tp1396
a(Vadds
VVBZ
tp1397
a(Va
VDT
tp1398
a(Vnumber
VNN
tp1399
a(Vof
VIN
tp1400
a(Vdefinitions
VNNS
tp1401
a(V.
V.
tp1402
aa(lp1403
(VIt
VPRP
tp1404
a(Vis
VVBZ
tp1405
a(Vridiculously
VRB
tp1406
a(Vdifficult
VJJ
tp1407
a(Vto
VTO
tp1408
a(Vget
VVB
tp1409
a(Vout
VIN
tp1410
a(Vof
VIN
tp1411
a(Vthis
VDT
tp1412
a(Vcountry
VNN
tp1413
a(V,
V,
tp1414
a(Vto
VTO
tp1415
a(Vescape
VVB
tp1416
a(V.
V.
tp1417
aa(lp1418
(VThat
VDT
tp1419
a(Vis
VVBZ
tp1420
a(Vnot
VRB
tp1421
a(V,
V,
tp1422
a(Vhowever
VRB
tp1423
a(V,
V,
tp1424
a(Vwhat
VWP
tp1425
a(Vwe
VPRP
tp1426
a(Vare
VVBP
tp1427
a(Vhere
VRB
tp1428
a(Vto
VTO
tp1429
a(Vdiscuss
VVB
tp1430
a(V.
V.
tp1431
aa(lp1432
(VThis
VDT
tp1433
a(Vis
VVBZ
tp1434
a(Vwhat
VWP
tp1435
a(Vcauses
VVBZ
tp1436
a(Vmass
VNN
tp1437
a(Vimmigration
VNN
tp1438
a(V.
V.
tp1439
aa(lp1440
(VTime
VNNP
tp1441
a(Vfor
VIN
tp1442
a(Vfurther
VJJ
tp1443
a(Vdiscussion
VNN
tp1444
a(Vis
VVBZ
tp1445
a(Vrunning
VVBG
tp1446
a(Vout
VRP
tp1447
a(V,
V,
tp1448
a(Vhowever
VRB
tp1449
a(V.
V.
tp1450
aa(lp1451
(VGiven
VVBN
tp1452
a(Vthe
VDT
tp1453
a(Vlinks
VNNS
tp1454
a(Vand
VCC
tp1455
a(Vrelations
VNNS
tp1456
a(Vbetween
VIN
tp1457
a(Vthem
VPRP
tp1458
a(V,
V,
tp1459
a(Vwe
VPRP
tp1460
a(Vdefine
VVBP
tp1461
a(Vthese
VDT
tp1462
a(Vregions
VNNS
tp1463
a(Vas
VIN
tp1464
a(Vthe
VDT
tp1465
a(Vfirst
VJJ
tp1466
a(V50
VCD
tp1467
a(Vkilometres
VNNS
tp1468
a(Vin
VIN
tp1469
a(Va
VDT
tp1470
a(Vstraight
VJJ
tp1471
a(Vline
VNN
tp1472
a(Vinland
VRB
tp1473
a(Vfrom
VIN
tp1474
a(Vthe
VDT
tp1475
a(Vcoastline
VNN
tp1476
a(V.
V.
tp1477
aa(lp1478
(VI
VPRP
tp1479
a(Vam
VVBP
tp1480
a(Vpleased
VJJ
tp1481
a(Vto
VTO
tp1482
a(Vsee
VVB
tp1483
a(Vthat
VIN
tp1484
a(Vyou
VPRP
tp1485
a(Vare
VVBP
tp1486
a(Vjust
VRB
tp1487
a(Vas
VRB
tp1488
a(Vfull
VJJ
tp1489
a(Vof
VIN
tp1490
a(Vlife
VNN
tp1491
a(Vas
VIN
tp1492
a(Vthe
VDT
tp1493
a(Vyoung
VJJ
tp1494
a(VKarl-Heinz
VNNP
tp1495
a(V.
V.
tp1496
aa(lp1497
(VI
VPRP
tp1498
a(Vthink
VVBP
tp1499
a(Vthis
VDT
tp1500
a(Vis
VVBZ
tp1501
a(Vparticularly
VRB
tp1502
a(Vserious
VJJ
tp1503
a(V.
V.
tp1504
aa(lp1505
(VBut
VCC
tp1506
a(Vwe
VPRP
tp1507
a(Vhave
VVBP
tp1508
a(Vnot
VRB
tp1509
a(Vyet
VRB
tp1510
a(Vreached
VVBN
tp1511
a(Vthat
VIN
tp1512
a(Vpoint
VNN
tp1513
a(V.
V.
tp1514
aa(lp1515
(VThe
VDT
tp1516
a(Vfocus
VNN
tp1517
a(Vthen
VRB
tp1518
a(Vwas
VVBD
tp1519
a(Vplaced
VVBN
tp1520
a(Von
VIN
tp1521
a(Vprevention
VNN
tp1522
a(V,
V,
tp1523
a(Vresearch
VNN
tp1524
a(V,
V,
tp1525
a(Vlaw
VNN
tp1526
a(Venforcement
VNN
tp1527
a(V,
V,
tp1528
a(Veffective
VJJ
tp1529
a(Vsentencing
VNN
tp1530
a(Vof
VIN
tp1531
a(Vtraffickers
VNNS
tp1532
a(Vand
VCC
tp1533
a(Vsupport
VNN
tp1534
a(Vto
VTO
tp1535
a(Vvictims
VNNS
tp1536
a(V.
V.
tp1537
aa(lp1538
(VFirstly
VRB
tp1539
a(V,
V,
tp1540
a(Vthe
VDT
tp1541
a(Vgreat
VJJ
tp1542
a(Vdifferences
VNNS
tp1543
a(Vin
VIN
tp1544
a(Vthe
VDT
tp1545
a(Vlevel
VNN
tp1546
a(Vof
VIN
tp1547
a(Veconomic
VJJ
tp1548
a(Vdevelopment
VNN
tp1549
a(Vin
VIN
tp1550
a(Vdifferent
VJJ
tp1551
a(Veuro
VNN
tp1552
a(Varea
VNN
tp1553
a(Vcountries
VNNS
tp1554
a(Vwas
VVBD
tp1555
a(Vignored
VVBN
tp1556
a(V.
V.
tp1557
aa(lp1558
(VThe
VDT
tp1559
a(Vonly
VJJ
tp1560
a(Vthing
VNN
tp1561
a(Vnot
VRB
tp1562
a(Vcovered
VVBN
tp1563
a(Vadequately
VRB
tp1564
a(Vin
VIN
tp1565
a(Vthe
VDT
tp1566
a(Vearlier
VJJR
tp1567
a(Vregulation
VNN
tp1568
a(Vwas
VVBD
tp1569
a(Vcompensation
VNN
tp1570
a(Vto
VTO
tp1571
a(Vemployees
VNNS
tp1572
a(V,
V,
tp1573
a(VI
VPRP
tp1574
a(Vmean
VVBP
tp1575
a(Vcompensation
VNN
tp1576
a(Vto
VTO
tp1577
a(Vthe
VDT
tp1578
a(Vemployees
VNNS
tp1579
a(Vof
VIN
tp1580
a(Vthe
VDT
tp1581
a(Vsugar
VNN
tp1582
a(Vmanufacturer
VNN
tp1583
a(V.
V.
tp1584
aa(lp1585
(VBravo
VNNP
tp1586
a(V.
V.
tp1587
aa(lp1588
(VWe
VPRP
tp1589
a(Vwill
VMD
tp1590
a(Vfight
VVB
tp1591
a(Vthis
VDT
tp1592
a(VCommission
VNNP
tp1593
a(Vtooth
VNN
tp1594
a(Vand
VCC
tp1595
a(Vnail
VNN
tp1596
a(Vin
VIN
tp1597
a(Vthe
VDT
tp1598
a(Vcoming
VVBG
tp1599
a(Vyears
VNNS
tp1600
a(V.
V.
tp1601
aa(lp1602
(VThis
VDT
tp1603
a(Vis
VVBZ
tp1604
a(Va
VDT
tp1605
a(Vgreat
VJJ
tp1606
a(Vdisappointment
VNN
tp1607
a(V,
V,
tp1608
a(Vespecially
VRB
tp1609
a(Vfor
VIN
tp1610
a(Vconsumers
VNNS
tp1611
a(V.
V.
tp1612
aa(lp1613
(VThe
VDT
tp1614
a(Vonly
VJJ
tp1615
a(Vdifference
VNN
tp1616
a(Vis
VVBZ
tp1617
a(Vthat
VIN
tp1618
a(Vthey
VPRP
tp1619
a(Vfind
VVBP
tp1620
a(Vthe
VDT
tp1621
a(Vdoors
VNNS
tp1622
a(Vof
VIN
tp1623
a(VParliament
VNNP
tp1624
a(Vwide
VJJ
tp1625
a(Vopen
VJJ
tp1626
a(Vto
VTO
tp1627
a(Vthem
VPRP
tp1628
a(V,
V,
tp1629
a(Vwhile
VIN
tp1630
a(Vthe
VDT
tp1631
a(Vworkers
VNNS
tp1632
a(Vare
VVBP
tp1633
a(Vnot
VRB
tp1634
a(Vallowed
VVBN
tp1635
a(Vnear
VIN
tp1636
a(Vthem
VPRP
tp1637
a(V.
V.
tp1638
aa(lp1639
(VMr
VNNP
tp1640
a(VPresident
VNNP
tp1641
a(V,
V,
tp1642
a(Vsome
VDT
tp1643
a(Vyears
VNNS
tp1644
a(Vago
VIN
tp1645
a(Va
VDT
tp1646
a(Vleading
VVBG
tp1647
a(VEU
VNNP
tp1648
a(Vofficial
VJJ
tp1649
a(Vvisited
VVBD
tp1650
a(Va
VDT
tp1651
a(Vsmall
VJJ
tp1652
a(Vvillage
VNN
tp1653
a(Vin
VIN
tp1654
a(Veastern
VJJ
tp1655
a(VHungary
VNNP
tp1656
a(V.
V.
tp1657
a(VThe
VDT
tp1658
a(Vvillage
VNN
tp1659
a(Vwas
VVBD
tp1660
a(Vclose
VJJ
tp1661
a(Vto
VTO
tp1662
a(Va
VDT
tp1663
a(Vwetland
VNN
tp1664
a(V\u2013
VVBD
tp1665
a(Va
VDT
tp1666
a(Vreal
VJJ
tp1667
a(Vbird
VNN
tp1668
a(Vparadise
VNN
tp1669
a(V.
V.
tp1670
aa(lp1671
(VThis
VDT
tp1672
a(Vpoint
VNN
tp1673
a(Vrequires
VVBZ
tp1674
a(Vparticular
VJJ
tp1675
a(Vemphasis
VNN
tp1676
a(V,
V,
tp1677
a(Vas
VIN
tp1678
a(Vit
VPRP
tp1679
a(Vrepresents
VVBZ
tp1680
a(Va
VDT
tp1681
a(Vsignificant
VJJ
tp1682
a(Vaddition
VNN
tp1683
a(Vto
VTO
tp1684
a(Vthe
VDT
tp1685
a(Vprotection
VNN
tp1686
a(Vof
VIN
tp1687
a(Vthe
VDT
tp1688
a(Vchildren
VNNS
tp1689
a(Vin
VIN
tp1690
a(Vquestion
VNN
tp1691
a(V,
V,
tp1692
a(Vwhose
VWP$
tp1693
a(Vinterests
VNNS
tp1694
a(Vmust
VMD
tp1695
a(Vbe
VVB
tp1696
a(Vguaranteed
VVBN
tp1697
a(V.
V.
tp1698
aa(lp1699
(VThat
VDT
tp1700
a(Vis
VVBZ
tp1701
a(Vwhy
VWRB
tp1702
a(V,
V,
tp1703
a(Vin
VIN
tp1704
a(Vspite
VNN
tp1705
a(Vof
VIN
tp1706
a(Vall
VPDT
tp1707
a(Vthe
VDT
tp1708
a(Vdifficulties
VNNS
tp1709
a(V,
V,
tp1710
a(Vwe
VPRP
tp1711
a(Vmust
VMD
tp1712
a(Vnow
VRB
tp1713
a(Vseek
VVB
tp1714
a(Va
VDT
tp1715
a(Vclear
VJJ
tp1716
a(VUN
VNNP
tp1717
a(Vmandate
VNN
tp1718
a(V.
V.
tp1719
aa(lp1720
(VOf
VIN
tp1721
a(Vcourse
VNN
tp1722
a(Vthis
VDT
tp1723
a(Vwould
VMD
tp1724
a(Vclearly
VRB
tp1725
a(Vbe
VVB
tp1726
a(Va
VDT
tp1727
a(Vlong-term
VJJ
tp1728
a(Vaffair
VNN
tp1729
a(V.
V.
tp1730
aa(lp1731
(VSome
VDT
tp1732
a(Vof
VIN
tp1733
a(Vmy
VPRP$
tp1734
a(Vmore
VRBR
tp1735
a(Vcritical
VJJ
tp1736
a(Vcolleagues
VNNS
tp1737
a(Vsaid
VVBD
tp1738
a(Vthat
VIN
tp1739
a(Vsurely
VRB
tp1740
a(Vthe
VDT
tp1741
a(Vbicycle
VNN
tp1742
a(Vcan
VMD
tp1743
a(Vbe
VVB
tp1744
a(Vstopped
VVBN
tp1745
a(Vsafely
VRB
tp1746
a(V,
V,
tp1747
a(Vand
VCC
tp1748
a(Vyou
VPRP
tp1749
a(Vcan
VMD
tp1750
a(Veven
VRB
tp1751
a(Vput
VVB
tp1752
a(Vyour
VPRP$
tp1753
a(Vfeet
VNNS
tp1754
a(Von
VIN
tp1755
a(Vthe
VDT
tp1756
a(Vground
VNN
tp1757
a(Vto
VTO
tp1758
a(Vsupport
VVB
tp1759
a(Vyourself
VPRP
tp1760
a(V.
V.
tp1761
aa(lp1762
(VWe
VPRP
tp1763
a(Vhave
VVBP
tp1764
a(Vbeen
VVBN
tp1765
a(Vworking
VVBG
tp1766
a(Von
VIN
tp1767
a(Vthe
VDT
tp1768
a(Vprocedural
VJJ
tp1769
a(Vrights
VNNS
tp1770
a(Vfor
VIN
tp1771
a(Vpersons
VNNS
tp1772
a(Vwho
VWP
tp1773
a(Vare
VVBP
tp1774
a(Vaccused
VVBN
tp1775
a(V.
V.
tp1776
aa(lp1777
(VThese
VDT
tp1778
a(Vservices
VNNS
tp1779
a(Vare
VVBP
tp1780
a(Vappropriate
VJJ
tp1781
a(Vand
VCC
tp1782
a(Vcrucial
VJJ
tp1783
a(Vfor
VIN
tp1784
a(Vthis
VDT
tp1785
a(Vsection
VNN
tp1786
a(Vof
VIN
tp1787
a(Vthe
VDT
tp1788
a(Vpopulation
VNN
tp1789
a(V:
V:
tp1790
a(Vpeople
VNNS
tp1791
a(Vwith
VIN
tp1792
a(Vexceptionally
VRB
tp1793
a(Vlow
VJJ
tp1794
a(Vincome
VNN
tp1795
a(V,
V,
tp1796
a(Vareas
VNNS
tp1797
a(Vwith
VIN
tp1798
a(Vvery
VRB
tp1799
a(Vhigh
VJJ
tp1800
a(Vunemployment
VNN
tp1801
a(Vlevels
VNNS
tp1802
a(Vand
VCC
tp1803
a(Vpeople
VNNS
tp1804
a(Vin
VIN
tp1805
a(Vdifficult
VJJ
tp1806
a(Vsocial
VJJ
tp1807
a(Vsituations
VNNS
tp1808
a(V,
V,
tp1809
a(Vnot
VRB
tp1810
a(Vto
VTO
tp1811
a(Vmention
VVB
tp1812
a(Vthose
VDT
tp1813
a(Vaffected
VVBN
tp1814
a(Vby
VIN
tp1815
a(Vsocial
VJJ
tp1816
a(Vexclusion
VNN
tp1817
a(V.
V.
tp1818
aa.