(lp1
(lp2
(VOn
VIN
tp3
a(Vour
VPRP$
tp4
a(Vwish
VNN
tp5
a(Vto
VTO
tp6
a(Vextend
VVB
tp7
a(Vthe
VDT
tp8
a(Vscope
VNN
tp9
a(Vto
VTO
tp10
a(Vcover
VVB
tp11
a(Vmass
VNN
tp12
a(Vcaterers
VNNS
tp13
a(V,
V,
tp14
a(Vcosmetics
VNNS
tp15
a(V,
V,
tp16
a(Vtextiles
VNNS
tp17
a(Vand
VCC
tp18
a(Vpreserved
VJJ
tp19
a(Vfish
VNN
tp20
a(V,
V,
tp21
a(VI
VPRP
tp22
a(Vwould
VMD
tp23
a(Vlike
VVB
tp24
a(Vto
VTO
tp25
a(Vpoint
VVB
tp26
a(Vout
VRP
tp27
a(Vthat
VIN
tp28
a(Vwe
VPRP
tp29
a(Vcannot
VVBP
tp30
a(Vtake
VVB
tp31
a(Vall
VDT
tp32
a(Vsteps
VNNS
tp33
a(Vin
VIN
tp34
a(Vone
VCD
tp35
a(Vgo
VNN
tp36
a(V.
V.
tp37
aa(lp38
(VThis
VDT
tp39
a(Vis
VVBZ
tp40
a(Vbecause
VIN
tp41
a(Vits
VPRP$
tp42
a(Veconomic
VJJ
tp43
a(Vpartners
VNNS
tp44
a(Vwill
VMD
tp45
a(Vnot
VRB
tp46
a(Vallow
VVB
tp47
a(VEuropean
VJJ
tp48
a(Vobjectives
VNNS
tp49
a(Vor
VCC
tp50
a(Vmethods
VNNS
tp51
a(Vto
VTO
tp52
a(Vbe
VVB
tp53
a(Vdictated
VVBN
tp54
a(Vto
VTO
tp55
a(Vthem
VPRP
tp56
a(V.
V.
tp57
aa(lp58
(VSo
VIN
tp59
a(Vyou
VPRP
tp60
a(Vhave
VVBP
tp61
a(Vnow
VRB
tp62
a(Vceased
VVBN
tp63
a(Vnegotiating
VVBG
tp64
a(Vwith
VIN
tp65
a(VColonel
VNNP
tp66
a(VGaddafi
VNNP
tp67
a(V?
V.
tp68
aa(lp69
(VThis
VDT
tp70
a(Vis
VVBZ
tp71
a(Vparticularly
VRB
tp72
a(Vregrettable
VJJ
tp73
a(Vas
VIN
tp74
a(Vwe
VPRP
tp75
a(Vspent
VVBD
tp76
a(Va
VDT
tp77
a(Vgreat
VJJ
tp78
a(Vdeal
VNN
tp79
a(Vof
VIN
tp80
a(Vtime
VNN
tp81
a(Vdebating
VVBG
tp82
a(VTunisia
VNNP
tp83
a(Von
VIN
tp84
a(VWednesday
VNNP
tp85
a(V,
V,
tp86
a(Vwhen
VWRB
tp87
a(Vall
VPDT
tp88
a(Vthe
VDT
tp89
a(VMembers
VNNS
tp90
a(Vof
VIN
tp91
a(Vthe
VDT
tp92
a(VHouse
VNNP
tp93
a(Vand
VCC
tp94
a(Vthe
VDT
tp95
a(Vmedia
VNNS
tp96
a(Vwere
VVBD
tp97
a(Vpresent
VJJ
tp98
a(V.
V.
tp99
aa(lp100
(VAgreement
VNN
tp101
a(Vcould
VMD
tp102
a(Vhave
VVB
tp103
a(Vbeen
VVBN
tp104
a(Vreached
VVBN
tp105
a(V.
V.
tp106
aa(lp107
(VIn
VIN
tp108
a(Vother
VJJ
tp109
a(Vwords
VNNS
tp110
a(V,
V,
tp111
a(Vefficiency
VNN
tp112
a(Vmust
VMD
tp113
a(V,
V,
tp114
a(Vfirst
VRB
tp115
a(Vof
VIN
tp116
a(Vall
VDT
tp117
a(V,
V,
tp118
a(Vbe
VVB
tp119
a(Vsought
VVBN
tp120
a(Vwherever
VWRB
tp121
a(Vthe
VDT
tp122
a(Vstate
VNN
tp123
a(Vowns
VVBZ
tp124
a(Vproperty
VNN
tp125
a(V.
V.
tp126
aa(lp127
(VUK
VNNP
tp128
a(Vbarometer-making
VNN
tp129
a(V,
V,
tp130
a(Vlike
VIN
tp131
a(Vthat
VDT
tp132
a(Vin
VIN
tp133
a(Vother
VJJ
tp134
a(VMember
VNNP
tp135
a(VStates
VNNPS
tp136
a(V,
V,
tp137
a(Vis
VVBZ
tp138
a(Va
VDT
tp139
a(Vtraditional
VJJ
tp140
a(Vindustry
VNN
tp141
a(Vdating
VVBG
tp142
a(Vback
VRB
tp143
a(Vseveral
VJJ
tp144
a(Vcenturies
VNNS
tp145
a(V.
V.
tp146
aa(lp147
(VSo
VRB
tp148
a(Vwhy
VWRB
tp149
a(Vshould
VMD
tp150
a(Vwe
VPRP
tp151
a(Vnot
VRB
tp152
a(Vdo
VVBP
tp153
a(Vhere
VRB
tp154
a(Vwhat
VWP
tp155
a(Vthey
VPRP
tp156
a(Vhave
VVBP
tp157
a(Vdone
VVBN
tp158
a(Vin
VIN
tp159
a(VChile
VNNP
tp160
a(V?
V.
tp161
aa(lp162
(V(
VNN
tp163
a(VFR
VNN
tp164
a(V)
VCD
tp165
a(VMadam
VNNP
tp166
a(VPresident
VNNP
tp167
a(V,
V,
tp168
a(Vat
VIN
tp169
a(Vthe
VDT
tp170
a(Vbeginning
VNN
tp171
a(Vof
VIN
tp172
a(VDecember
VNNP
tp173
a(V,
V,
tp174
a(VNASA
VNNP
tp175
a(Vannounced
VVBD
tp176
a(Vthat
VIN
tp177
a(Va
VDT
tp178
a(Vbudget
VNN
tp179
a(Vhad
VVBD
tp180
a(Vbeen
VVBN
tp181
a(Vadopted
VVBN
tp182
a(Vwith
VIN
tp183
a(Va
VDT
tp184
a(Vview
VNN
tp185
a(Vto
VTO
tp186
a(Vthe
VDT
tp187
a(Vinstallation
VNN
tp188
a(Vof
VIN
tp189
a(Va
VDT
tp190
a(Vspace
VNN
tp191
a(Vstation
VNN
tp192
a(Von
VIN
tp193
a(Vthe
VDT
tp194
a(VMoon
VNNP
tp195
a(Vin
VIN
tp196
a(V2020
VCD
tp197
a(V.
V.
tp198
aa(lp199
(VInternees
VNNS
tp200
a(Vat
VIN
tp201
a(VBelmarsh
VNNP
tp202
a(Vin
VIN
tp203
a(VEngland
VNNP
tp204
a(Vare
VVBP
tp205
a(Vliterally
VRB
tp206
a(Vbeing
VVBG
tp207
a(Vdriven
VVBN
tp208
a(Vmad
VJJ
tp209
a(Vby
VIN
tp210
a(Vindefinite
VJJ
tp211
a(Vincarceration
VNN
tp212
a(V.
V.
tp213
aa(lp214
(VFor
VIN
tp215
a(Vexample
VNN
tp216
a(V,
V,
tp217
a(Vcameras
VNNS
tp218
a(Vin
VIN
tp219
a(Vpublic
VJJ
tp220
a(Vplaces
VNNS
tp221
a(Vare
VVBP
tp222
a(Vaccepted
VVBN
tp223
a(Vmore
VRBR
tp224
a(Vand
VCC
tp225
a(Vmore
VRBR
tp226
a(V.
V.
tp227
aa(lp228
(VRecently
VRB
tp229
a(Va
VDT
tp230
a(VCommission
VNNP
tp231
a(Vofficial
VNN
tp232
a(Vsaid
VVBD
tp233
a(Vto
VTO
tp234
a(Vme
VPRP
tp235
a(Vthat
VIN
tp236
a(Vwe
VPRP
tp237
a(Vcould
VMD
tp238
a(Vnot
VRB
tp239
a(Vdo
VVB
tp240
a(Vthis
VDT
tp241
a(V.
V.
tp242
aa(lp243
(VThe
VDT
tp244
a(Vsystemic
VJJ
tp245
a(Vrisk
VNN
tp246
a(Vbecomes
VVBZ
tp247
a(Vapparent
VJJ
tp248
a(Vafterwards
VRB
tp249
a(V,
V,
tp250
a(Vwhen
VWRB
tp251
a(Vthe
VDT
tp252
a(Vcrisis
VNN
tp253
a(Vhas
VVBZ
tp254
a(Verupted
VVBN
tp255
a(V.
V.
tp256
aa(lp257
(VAs
VIN
tp258
a(Vwith
VIN
tp259
a(Vall
VDT
tp260
a(Vtechnologies
VNNS
tp261
a(V,
V,
tp262
a(Vof
VIN
tp263
a(Vcourse
VNN
tp264
a(V,
V,
tp265
a(Vthe
VDT
tp266
a(Vquestion
VNN
tp267
a(Vis
VVBZ
tp268
a(Vhow
VWRB
tp269
a(Vit
VPRP
tp270
a(Vis
VVBZ
tp271
a(Vemployed
VVBN
tp272
a(V.
V.
tp273
aa(lp274
(VThe
VDT
tp275
a(Vpublic
VJJ
tp276
a(Vvery
VRB
tp277
a(Vmuch
VJJ
tp278
a(Vneeds
VNNS
tp279
a(Vinformation
VNN
tp280
a(Vin
VIN
tp281
a(Vthis
VDT
tp282
a(Vfield
VNN
tp283
a(V.
V.
tp284
aa(lp285
(VWe
VPRP
tp286
a(Vmust
VMD
tp287
a(Vaccept
VVB
tp288
a(Vthe
VDT
tp289
a(Vfact
VNN
tp290
a(Vthat
VIN
tp291
a(Vnuclear
VJJ
tp292
a(Vpower
VNN
tp293
a(Vis
VVBZ
tp294
a(Vbeing
VVBG
tp295
a(Vgenerated
VVBN
tp296
a(Vand
VCC
tp297
a(Vwill
VMD
tp298
a(Vbe
VVB
tp299
a(Vgenerated
VVBN
tp300
a(Vin
VIN
tp301
a(VEurope
VNNP
tp302
a(V.
V.
tp303
aa(lp304
(VYou
VPRP
tp305
a(Vshould
VMD
tp306
a(Valso
VRB
tp307
a(Vrefer
VVB
tp308
a(Vto
VTO
tp309
a(Vyour
VPRP$
tp310
a(Vgroup
VNN
tp311
a(Vchairmen
VNNS
tp312
a(V,
V,
tp313
a(Vladies
VNNS
tp314
a(Vand
VCC
tp315
a(Vgentlemen
VNNS
tp316
a(V.
V.
tp317
aa(lp318
(VThe
VDT
tp319
a(Vroles
VNNS
tp320
a(Vof
VIN
tp321
a(Vvictim
VNN
tp322
a(Vand
VCC
tp323
a(Vperpetrator
VNN
tp324
a(Vare
VVBP
tp325
a(Vreversed
VVBN
tp326
a(Vfor
VIN
tp327
a(Vthe
VDT
tp328
a(Vbenefit
VNN
tp329
a(Vof
VIN
tp330
a(Va
VDT
tp331
a(Vpatriarchal
VJJ
tp332
a(Vsociety
VNN
tp333
a(V.
V.
tp334
aa(lp335
(VYet
VRB
tp336
a(Vanother
VDT
tp337
a(Vone
VCD
tp338
a(V:
V:
tp339
a(Vis
VVBZ
tp340
a(Vthere
VEX
tp341
a(Vany
VDT
tp342
a(Vexplanation
VNN
tp343
a(Vas
VIN
tp344
a(Vto
VTO
tp345
a(Vwhy
VWRB
tp346
a(Vit
VPRP
tp347
a(Vhas
VVBZ
tp348
a(Vbeen
VVBN
tp349
a(Vnecessary
VJJ
tp350
a(Vto
VTO
tp351
a(Vtransfer
VVB
tp352
a(Vsubstantial
VJJ
tp353
a(Vamounts
VNNS
tp354
a(Vfrom
VIN
tp355
a(Vthe
VDT
tp356
a(Vtranslation
VNN
tp357
a(Vbudget
VNN
tp358
a(Vline
VNN
tp359
a(Vto
VTO
tp360
a(Vthe
VDT
tp361
a(Vtravel
VNN
tp362
a(Vbudget
VNN
tp363
a(Vline
VNN
tp364
a(V,
V,
tp365
a(Vyear
VNN
tp366
a(Vafter
VIN
tp367
a(Vyear
VNN
tp368
a(V?
V.
tp369
aa(lp370
(VIs
VVBZ
tp371
a(Vhe
VPRP
tp372
a(Vstill
VRB
tp373
a(Vbeing
VVBG
tp374
a(Vdisciplined
VVBN
tp375
a(Vby
VIN
tp376
a(Vthe
VDT
tp377
a(VCommission
VNNP
tp378
a(Vand
VCC
tp379
a(Vhas
VVBZ
tp380
a(Vany
VDT
tp381
a(Vof
VIN
tp382
a(Vhis
VPRP$
tp383
a(Vpay
VNN
tp384
a(Vwhich
VWDT
tp385
a(Vwas
VVBD
tp386
a(Vdocked
VVBN
tp387
a(Vin
VIN
tp388
a(Vthe
VDT
tp389
a(Vpast
VJJ
tp390
a(Vbeen
VVBN
tp391
a(Vrefunded
VVBN
tp392
a(Vto
VTO
tp393
a(Vhim
VPRP
tp394
a(V?
V.
tp395
aa(lp396
(VIt
VPRP
tp397
a(Vis
VVBZ
tp398
a(Vyour
VPRP$
tp399
a(Vpreference
VNN
tp400
a(V.
V.
tp401
aa(lp402
(VUnfortunately
VRB
tp403
a(V,
V,
tp404
a(Vthe
VDT
tp405
a(VCommission
VNNP
tp406
a(Vis
VVBZ
tp407
a(Vsticking
VVBG
tp408
a(Vto
VTO
tp409
a(Vits
VPRP$
tp410
a(Vplan
VNN
tp411
a(Vto
VTO
tp412
a(Vraise
VVB
tp413
a(Vthe
VDT
tp414
a(Vminimum
VNN
tp415
a(Vrates
VNNS
tp416
a(Vof
VIN
tp417
a(Vexcise
VNN
tp418
a(Vduties
VNNS
tp419
a(V.
V.
tp420
aa(lp421
(VThat
VDT
tp422
a(Vobviously
VRB
tp423
a(Vwould
VMD
tp424
a(Vbe
VVB
tp425
a(Va
VDT
tp426
a(Vfar-fetched
VJJ
tp427
a(Vclaim
VNN
tp428
a(V.
V.
tp429
aa(lp430
(VDespite
VIN
tp431
a(Vthis
VDT
tp432
a(V,
V,
tp433
a(Vthe
VDT
tp434
a(Vsize
VNN
tp435
a(Vof
VIN
tp436
a(Vthe
VDT
tp437
a(Vfunding
VNN
tp438
a(Vis
VVBZ
tp439
a(Vrelatively
VRB
tp440
a(Vsmall
VJJ
tp441
a(V.
V.
tp442
aa(lp443
(VAnother
VDT
tp444
a(Vgood
VJJ
tp445
a(Vthing
VNN
tp446
a(Vis
VVBZ
tp447
a(Vthat
VIN
tp448
a(Vthe
VDT
tp449
a(Vparties
VNNS
tp450
a(Vto
VTO
tp451
a(Vthe
VDT
tp452
a(Vnegotiations
VNNS
tp453
a(Vtook
VVBD
tp454
a(Vtheir
VPRP$
tp455
a(Vleave
VNN
tp456
a(Vof
VIN
tp457
a(Veach
VDT
tp458
a(Vother
VJJ
tp459
a(Vat
VIN
tp460
a(Vthe
VDT
tp461
a(Vweekend
VNN
tp462
a(Vin
VIN
tp463
a(Van
VDT
tp464
a(Vatmosphere
VNN
tp465
a(Vof
VIN
tp466
a(Vcalm
VNN
tp467
a(V,
V,
tp468
a(Vrather
VRB
tp469
a(Vthan
VIN
tp470
a(V,
V,
tp471
a(Vas
VIN
tp472
a(Vthey
VPRP
tp473
a(Vdid
VVBD
tp474
a(Vafter
VIN
tp475
a(VHong
VNNP
tp476
a(VKong
VNNP
tp477
a(V,
V,
tp478
a(Vlaying
VVBG
tp479
a(Vinto
VIN
tp480
a(Veach
VDT
tp481
a(Vother
VJJ
tp482
a(Vat
VIN
tp483
a(Vthe
VDT
tp484
a(Vtops
VNNS
tp485
a(Vof
VIN
tp486
a(Vtheir
VPRP$
tp487
a(Vvoices
VNNS
tp488
a(V,
V,
tp489
a(Vand
VCC
tp490
a(Vthat
VIN
tp491
a(Vgives
VVBZ
tp492
a(Vcause
VNN
tp493
a(Vfor
VIN
tp494
a(Vhope
VNN
tp495
a(Vin
VIN
tp496
a(Vthe
VDT
tp497
a(Vcoming
VVBG
tp498
a(Vweeks
VNNS
tp499
a(V.
V.
tp500
aa(lp501
(VIndeed
VRB
tp502
a(V,
V,
tp503
a(VMr
VNNP
tp504
a(VOrlov
VNNP
tp505
a(Vis
VVBZ
tp506
a(Vone
VCD
tp507
a(Vof
VIN
tp508
a(Vthe
VDT
tp509
a(Vthree
VCD
tp510
a(Vpeople
VNNS
tp511
a(Vin
VIN
tp512
a(Vcharge
VNN
tp513
a(Vof
VIN
tp514
a(VMemorial
VNN
tp515
a(V,
V,
tp516
a(Vthe
VDT
tp517
a(Vassociation
VNN
tp518
a(Vto
VTO
tp519
a(Vwhich
VWDT
tp520
a(Vwe
VPRP
tp521
a(Vawarded
VVBD
tp522
a(Vthe
VDT
tp523
a(VSakharov
VNNP
tp524
a(VPrize
VNNP
tp525
a(Vlast
VJJ
tp526
a(Vyear
VNN
tp527
a(V.
V.
tp528
aa(lp529
(VWhat
VWP
tp530
a(Vis
VVBZ
tp531
a(Vmore
VJJR
tp532
a(V,
V,
tp533
a(Vthe
VDT
tp534
a(VBerlin
VNNP
tp535
a(VWall
VNNP
tp536
a(Vhas
VVBZ
tp537
a(Vcome
VVBN
tp538
a(Vdown
VRB
tp539
a(Vand
VCC
tp540
a(Vwe
VPRP
tp541
a(Vhave
VVBP
tp542
a(Vwelcomed
VVBN
tp543
a(Vin
VIN
tp544
a(Vthose
VDT
tp545
a(VMember
VNNP
tp546
a(VStates
VNNPS
tp547
a(Vrecently
VRB
tp548
a(Vdominated
VVBN
tp549
a(Vby
VIN
tp550
a(VCommunism
VNNP
tp551
a(V.
V.
tp552
aa(lp553
(VI
VPRP
tp554
a(Vshould
VMD
tp555
a(Vlike
VVB
tp556
a(Vto
VTO
tp557
a(Vpoint
VVB
tp558
a(Vout
VRP
tp559
a(Vat
VIN
tp560
a(Vthe
VDT
tp561
a(Voutset
VNN
tp562
a(Vthat
VIN
tp563
a(Vthis
VDT
tp564
a(Vcontrol
VNN
tp565
a(Vis
VVBZ
tp566
a(Vnot
VRB
tp567
a(Vso
VRB
tp568
a(Vinterventionist
VJJ
tp569
a(Vas
VIN
tp570
a(Vit
VPRP
tp571
a(Vmight
VMD
tp572
a(Vappear
VVB
tp573
a(Vto
VTO
tp574
a(Vbe
VVB
tp575
a(Vat
VIN
tp576
a(Vfirst
VJJ
tp577
a(Vsight
VNN
tp578
a(V.
V.
tp579
aa(lp580
(VWhat
VWDT
tp581
a(Vvalues
VNNS
tp582
a(Vcould
VMD
tp583
a(Vwe
VPRP
tp584
a(Vpossibly
VRB
tp585
a(Vhave
VVBP
tp586
a(Vin
VIN
tp587
a(Vcommon
VJJ
tp588
a(Vwith
VIN
tp589
a(Va
VDT
tp590
a(Vgovernment
VNN
tp591
a(Vwhich
VWDT
tp592
a(Vhas
VVBZ
tp593
a(Vorganised
VVBN
tp594
a(Vthat
VIN
tp595
a(Vcamp
VNN
tp596
a(Vof
VIN
tp597
a(Vthe
VDT
tp598
a(Vliving
VNN
tp599
a(Vdead
VJJ
tp600
a(Vin
VIN
tp601
a(VGuantanamo
VNNP
tp602
a(VBay
VNNP
tp603
a(V?
V.
tp604
aa(lp605
(VAs
VIN
tp606
a(Vfar
VRB
tp607
a(Vas
VIN
tp608
a(Vprotecting
VVBG
tp609
a(Vconfidential
VJJ
tp610
a(Vinformation
VNN
tp611
a(Vin
VIN
tp612
a(Vthe
VDT
tp613
a(VCommission
VNNP
tp614
a(Vis
VVBZ
tp615
a(Vconcerned
VVBN
tp616
a(V,
V,
tp617
a(Vwhich
VWDT
tp618
a(Vis
VVBZ
tp619
a(Vsomething
VNN
tp620
a(Vthat
VIN
tp621
a(Vwe
VPRP
tp622
a(Vhave
VVBP
tp623
a(Vof
VIN
tp624
a(Vcourse
VNN
tp625
a(Valso
VRB
tp626
a(Vlooked
VVBD
tp627
a(Vat
VIN
tp628
a(V,
V,
tp629
a(VMr
VNNP
tp630
a(VLiikanen
VNNP
tp631
a(Vsaid
VVBD
tp632
a(Vthat
VIN
tp633
a(Vconsiderable
VJJ
tp634
a(Vchanges
VNNS
tp635
a(Vhad
VVBD
tp636
a(Vbeen
VVBN
tp637
a(Vmade
VVBN
tp638
a(Vhere
VRB
tp639
a(V.
V.
tp640
aa(lp641
(VTuberculosis
VNN
tp642
a(Vis
VVBZ
tp643
a(Vthe
VDT
tp644
a(Vseventh
VJJ
tp645
a(Vmost
VRBS
tp646
a(Vcommon
VJJ
tp647
a(Vcause
VNN
tp648
a(Vof
VIN
tp649
a(Vdeath
VNN
tp650
a(Vin
VIN
tp651
a(Vthe
VDT
tp652
a(Vworld
VNN
tp653
a(V.
V.
tp654
aa(lp655
(VIn
VIN
tp656
a(Vprinciple
VNN
tp657
a(V,
V,
tp658
a(Vit
VPRP
tp659
a(Vis
VVBZ
tp660
a(Valso
VRB
tp661
a(Vpossible
VJJ
tp662
a(V-
V:
tp663
a(Vand
VCC
tp664
a(Vthis
VDT
tp665
a(Vis
VVBZ
tp666
a(Van
VDT
tp667
a(Vinternal
VJJ
tp668
a(Vmatter
VNN
tp669
a(Vfor
VIN
tp670
a(VSpain
VNNP
tp671
a(V-
V:
tp672
a(Vfor
VIN
tp673
a(Vother
VJJ
tp674
a(Vpublic
VJJ
tp675
a(Vbodies
VNNS
tp676
a(Vto
VTO
tp677
a(Vprovide
VVB
tp678
a(Vthis
VDT
tp679
a(Vcofinancing
VNN
tp680
a(V.
V.
tp681
aa(lp682
(VWe
VPRP
tp683
a(Vnow
VRB
tp684
a(Vfind
VVBP
tp685
a(Vourselves
VPRP
tp686
a(Vin
VIN
tp687
a(VLenin
VNNP
tp688
a(V&apos;s
VNNS
tp689
a(V&apos;
VVBP
tp690
a(VWhat
VWP
tp691
a(Vis
VVBZ
tp692
a(Vto
VTO
tp693
a(Vbe
VVB
tp694
a(Vdone
VVBN
tp695
a(V?
V.
tp696
a(V&apos;
VJJ
tp697
a(Vsituation
VNN
tp698
a(V.
V.
tp699
aa(lp700
(VIntergovernmental
VJJ
tp701
a(Vsolutions
VNNS
tp702
a(Vwill
VMD
tp703
a(Vnot
VRB
tp704
a(V,
V,
tp705
a(Vin
VIN
tp706
a(Vthe
VDT
tp707
a(Vlong
VJJ
tp708
a(Vrun
VNN
tp709
a(V,
V,
tp710
a(Vlead
VVBP
tp711
a(Vus
VPRP
tp712
a(Vanywhere
VRB
tp713
a(V.
V.
tp714
aa(lp715
(VIt
VPRP
tp716
a(Vis
VVBZ
tp717
a(Valso
VRB
tp718
a(Vdifficult
VJJ
tp719
a(Vto
VTO
tp720
a(Vconceive
VVB
tp721
a(Vof
VIN
tp722
a(Van
VDT
tp723
a(Vhonest
VJJ
tp724
a(Vdialogue
VNN
tp725
a(Vwith
VIN
tp726
a(VCuba
VNNP
tp727
a(Vas
VRB
tp728
a(Vlong
VRB
tp729
a(Vas
VIN
tp730
a(Vthe
VDT
tp731
a(VSakharov
VNNP
tp732
a(Vprize
VNN
tp733
a(Vwinners
VNNS
tp734
a(Vare
VVBP
tp735
a(Vnot
VRB
tp736
a(Vallowed
VVBN
tp737
a(Vto
VTO
tp738
a(Vtravel
VVB
tp739
a(Vto
VTO
tp740
a(VEurope
VNNP
tp741
a(V.
V.
tp742
aa(lp743
(VThe
VDT
tp744
a(Vcountry
VNN
tp745
a(Vis
VVBZ
tp746
a(Vproud
VJJ
tp747
a(Vof
VIN
tp748
a(Vyou
VPRP
tp749
a(V.
V.
tp750
aa(lp751
(VI
VPRP
tp752
a(Vam
VVBP
tp753
a(Vhappy
VJJ
tp754
a(Vto
VTO
tp755
a(Vlook
VVB
tp756
a(Vinto
VIN
tp757
a(Vthis
VDT
tp758
a(Vagain
VRB
tp759
a(Vin
VIN
tp760
a(Vmore
VJJR
tp761
a(Vdepth
VNN
tp762
a(V.
V.
tp763
aa(lp764
(VThat
VDT
tp765
a(Vmeans
VVBZ
tp766
a(Vthat
VIN
tp767
a(V,
V,
tp768
a(Veven
VRB
tp769
a(Vtoday
VNN
tp770
a(V,
V,
tp771
a(Vwe
VPRP
tp772
a(Vneed
VVBP
tp773
a(Vto
VTO
tp774
a(Vconsider
VVB
tp775
a(Vhow
VWRB
tp776
a(Vwe
VPRP
tp777
a(Vcan
VMD
tp778
a(Vmaintain
VVB
tp779
a(Vthe
VDT
tp780
a(Vlevel
VNN
tp781
a(Vof
VIN
tp782
a(Vsocial
VJJ
tp783
a(Vsecurity
VNN
tp784
a(Vfor
VIN
tp785
a(Vthe
VDT
tp786
a(Velderly
VJJ
tp787
a(V.
V.
tp788
aa(lp789
(VOpinions
VNNS
tp790
a(Vuttered
VVBD
tp791
a(Vin
VIN
tp792
a(Vfront
VNN
tp793
a(Vof
VIN
tp794
a(Vthe
VDT
tp795
a(Vtelevision
VNN
tp796
a(Vby
VIN
tp797
a(Va
VDT
tp798
a(Vwarm
VJJ
tp799
a(Vfire
VNN
tp800
a(Vare
VVBP
tp801
a(Vnot
VRB
tp802
a(Vadequate
VJJ
tp803
a(Vto
VTO
tp804
a(Vthe
VDT
tp805
a(Vtruth
VNN
tp806
a(Vabout
VIN
tp807
a(Vthis
VDT
tp808
a(Vconflict
VNN
tp809
a(V.
V.
tp810
aa(lp811
(VSince
VIN
tp812
a(VMarch
VNNP
tp813
a(Vof
VIN
tp814
a(Vthis
VDT
tp815
a(Vyear
VNN
tp816
a(V,
V,
tp817
a(Vthe
VDT
tp818
a(Vpace
VNN
tp819
a(Vhas
VVBZ
tp820
a(Vbeen
VVBN
tp821
a(Vrelaxed
VVBN
tp822
a(V.
V.
tp823
aa(lp824
(VA
VDT
tp825
a(Vvery
VRB
tp826
a(Vgreat
VJJ
tp827
a(Vdeal
VNN
tp828
a(Vof
VIN
tp829
a(Vharm
VNN
tp830
a(Vhas
VVBZ
tp831
a(Vbeen
VVBN
tp832
a(Vcaused
VVBN
tp833
a(V.
V.
tp834
aa(lp835
(VWe
VPRP
tp836
a(Vunderstand
VVBP
tp837
a(Vwhy
VWRB
tp838
a(Vthe
VDT
tp839
a(Vrapporteur
VNN
tp840
a(Vdoes
VVBZ
tp841
a(Vnot
VRB
tp842
a(Vwish
VVB
tp843
a(Vto
VTO
tp844
a(Vdwell
VVB
tp845
a(Von
VIN
tp846
a(Vthe
VDT
tp847
a(Vsubject
VNN
tp848
a(V.
V.
tp849
aa(lp850
(VThis
VDT
tp851
a(Vaccident
VNN
tp852
a(Vhighlighted
VVBD
tp853
a(Vthe
VDT
tp854
a(Vneed
VNN
tp855
a(Vto
VTO
tp856
a(Vpay
VVB
tp857
a(Vgreater
VJJR
tp858
a(Vattention
VNN
tp859
a(Vto
VTO
tp860
a(Vthe
VDT
tp861
a(Vhuman
VJJ
tp862
a(Vfactor
VNN
tp863
a(V,
V,
tp864
a(Vthe
VDT
tp865
a(Vinterface
VNN
tp866
a(Vbetween
VIN
tp867
a(Vman
VNN
tp868
a(Vand
VCC
tp869
a(Vmachine
VNN
tp870
a(V,
V,
tp871
a(Vthe
VDT
tp872
a(Vreliability
VNN
tp873
a(Vof
VIN
tp874
a(Vthe
VDT
tp875
a(Vcontrol
VNN
tp876
a(Vinstruments
VNNS
tp877
a(Vand
VCC
tp878
a(Vto
VTO
tp879
a(Voperating
VVBG
tp880
a(Vinstructions
VNNS
tp881
a(V.
V.
tp882
aa(lp883
(VA
VDT
tp884
a(Vwoman
VNN
tp885
a(Vdoes
VVBZ
tp886
a(Vnot
VRB
tp887
a(Vget
VVB
tp888
a(Vmarried
VVBN
tp889
a(Vto
VTO
tp890
a(Vher
VPRP$
tp891
a(Vrapist
VNN
tp892
a(Vin
VIN
tp893
a(Vorder
VNN
tp894
a(Vto
VTO
tp895
a(Vreform
VVB
tp896
a(Vhim
VPRP
tp897
a(V.
V.
tp898
aa(lp899
(VThis
VDT
tp900
a(Vhas
VVBZ
tp901
a(Vnothing
VNN
tp902
a(Vto
VTO
tp903
a(Vdo
VVB
tp904
a(Vwith
VIN
tp905
a(Vshipbuilding
VNN
tp906
a(V,
V,
tp907
a(Vin
VIN
tp908
a(Vfact
VNN
tp909
a(Vit
VPRP
tp910
a(Vmay
VMD
tp911
a(Vwell
VRB
tp912
a(Vbe
VVB
tp913
a(Van
VDT
tp914
a(Venvironmental
VJJ
tp915
a(Vprotection
VNN
tp916
a(Vmeasure
VNN
tp917
a(V.
V.
tp918
aa(lp919
a(lp920
(VWe
VPRP
tp921
a(Vare
VVBP
tp922
a(Vsimply
VRB
tp923
a(Vthe
VDT
tp924
a(Vbest
VJJS
tp925
a(V.
V.
tp926
a(VJust
VRB
tp927
a(Vlook
VVB
tp928
a(Vat
VIN
tp929
a(Vwho
VWP
tp930
a(Vwon
VVBD
tp931
a(Vthe
VDT
tp932
a(VEurovision
VNNP
tp933
a(VSong
VNN
tp934
a(VContest
VNN
tp935
a(V.
V.
tp936
aa(lp937
(VThis
VDT
tp938
a(Vis
VVBZ
tp939
a(Vespecially
VRB
tp940
a(Vin
VIN
tp941
a(Vthe
VDT
tp942
a(Vinterests
VNNS
tp943
a(Vof
VIN
tp944
a(VIsrael
VNNP
tp945
a(Vand
VCC
tp946
a(Vits
VPRP$
tp947
a(Vneighbours
VNNS
tp948
a(V.
V.
tp949
aa(lp950
(VBy
VIN
tp951
a(Vthe
VDT
tp952
a(Vway
VNN
tp953
a(V,
V,
tp954
a(Vthis
VDT
tp955
a(Vfacility
VNN
tp956
a(Vwas
VVBD
tp957
a(Van
VDT
tp958
a(Vinnovation
VNN
tp959
a(Vby
VIN
tp960
a(Vmy
VPRP$
tp961
a(Vpredecessor
VNN
tp962
a(V.
V.
tp963
aa(lp964
(VBut
VCC
tp965
a(Vwe
VPRP
tp966
a(Vmust
VMD
tp967
a(Valways
VRB
tp968
a(Vtake
VVB
tp969
a(Vaccount
VNN
tp970
a(Vof
VIN
tp971
a(Vthe
VDT
tp972
a(Vfact
VNN
tp973
a(Vthat
VIN
tp974
a(Vhuman
VJJ
tp975
a(Vrights
VNNS
tp976
a(Vin
VIN
tp977
a(VIran
VNNP
tp978
a(Vare
VVBP
tp979
a(V,
V,
tp980
a(Vif
VIN
tp981
a(Vanything
VNN
tp982
a(V,
V,
tp983
a(Vgetting
VVBG
tp984
a(Vworse
VJJR
tp985
a(Vand
VCC
tp986
a(Vnot
VRB
tp987
a(Vbetter
VJJR
tp988
a(V.
V.
tp989
aa(lp990
(VOver
VIN
tp991
a(Vand
VCC
tp992
a(Vabove
VIN
tp993
a(Vthis
VDT
tp994
a(V,
V,
tp995
a(Vworkers
VNNS
tp996
a(Vshould
VMD
tp997
a(Vbe
VVB
tp998
a(Vgiven
VVBN
tp999
a(Vfull
VJJ
tp1000
a(Vinformation
VNN
tp1001
a(Vabout
VIN
tp1002
a(Vconditions
VNNS
tp1003
a(Vbeing
VVBG
tp1004
a(Voffered
VVBN
tp1005
a(Vto
VTO
tp1006
a(Vlocal
VJJ
tp1007
a(Vand
VCC
tp1008
a(Vforeign
VJJ
tp1009
a(Vworkers
VNNS
tp1010
a(Vand
VCC
tp1011
a(Vshould
VMD
tp1012
a(Vnot
VRB
tp1013
a(Vbe
VVB
tp1014
a(Vleft
VVBN
tp1015
a(Vbereft
VJJ
tp1016
a(Vof
VIN
tp1017
a(Vinformation
VNN
tp1018
a(V.
V.
tp1019
aa(lp1020
(Vcrime
VNN
tp1021
a(Vis
VVBZ
tp1022
a(Vrife
VJJ
tp1023
a(Vin
VIN
tp1024
a(Vall
VPDT
tp1025
a(Vthe
VDT
tp1026
a(Vcapitals
VNNS
tp1027
a(Vof
VIN
tp1028
a(VEurope
VNNP
tp1029
a(V;
V:
tp1030
aa(lp1031
(VThe
VDT
tp1032
a(Vsecond
VJJ
tp1033
a(Vagreed
VNN
tp1034
a(Vpoint
VNN
tp1035
a(Vis
VVBZ
tp1036
a(Vthat
VIN
tp1037
a(VEurope
VNNP
tp1038
a(V2020
VCD
tp1039
a(Vis
VVBZ
tp1040
a(Va
VDT
tp1041
a(Vcompendium
VNN
tp1042
a(Vof
VIN
tp1043
a(Vgood
VJJ
tp1044
a(Vintentions
VNNS
tp1045
a(V,
V,
tp1046
a(Vit
VPRP
tp1047
a(Vsounds
VVBZ
tp1048
a(Vgood
VJJ
tp1049
a(V,
V,
tp1050
a(Vbut
VCC
tp1051
a(Vwe
VPRP
tp1052
a(Vhave
VVBP
tp1053
a(Vto
VTO
tp1054
a(Vmove
VVB
tp1055
a(Vfrom
VIN
tp1056
a(Vcontemplation
VNN
tp1057
a(Vto
VTO
tp1058
a(Vaction
VNN
tp1059
a(V.
V.
tp1060
aa(lp1061
(VUnfortunately
VRB
tp1062
a(V,
V,
tp1063
a(Vthe
VDT
tp1064
a(Vreality
VNN
tp1065
a(Vlooks
VVBZ
tp1066
a(Vrather
VRB
tp1067
a(Vdifferent
VJJ
tp1068
a(Vto
VTO
tp1069
a(Vall
VDT
tp1070
a(Vthose
VDT
tp1071
a(Vwho
VWP
tp1072
a(Vare
VVBP
tp1073
a(Vdeprived
VVBN
tp1074
a(Vof
VIN
tp1075
a(Vtheir
VPRP$
tp1076
a(Vmost
VRBS
tp1077
a(Velementary
VJJ
tp1078
a(Vcivil
VJJ
tp1079
a(Vrights
VNNS
tp1080
a(V.
V.
tp1081
aa(lp1082
(VThese
VDT
tp1083
a(Vtwo
VCD
tp1084
a(Vdifferent
VJJ
tp1085
a(Vtypes
VNNS
tp1086
a(Vof
VIN
tp1087
a(Vservice
VNN
tp1088
a(V,
V,
tp1089
a(Vthe
VDT
tp1090
a(Vcommercial
VJJ
tp1091
a(Vand
VCC
tp1092
a(Vthe
VDT
tp1093
a(Vpublic
VJJ
tp1094
a(Vservice
VNN
tp1095
a(Vchannels
VNNS
tp1096
a(V,
V,
tp1097
a(Vcan
VMD
tp1098
a(Vcomplement
VVB
tp1099
a(Vone
VCD
tp1100
a(Vanother
VDT
tp1101
a(V.
V.
tp1102
aa(lp1103
(VWe
VPRP
tp1104
a(Vare
VVBP
tp1105
a(Vgetting
VVBG
tp1106
a(Va
VDT
tp1107
a(Vsystem
VNN
tp1108
a(Vwhich
VWDT
tp1109
a(Vnobody
VNN
tp1110
a(Vwill
VMD
tp1111
a(Vcontrol
VVB
tp1112
a(Vand
VCC
tp1113
a(Vwhich
VWDT
tp1114
a(Vwill
VMD
tp1115
a(Vnever
VRB
tp1116
a(Vcontrol
VVB
tp1117
a(Vitself
VPRP
tp1118
a(V.
V.
tp1119
aa(lp1120
(VThanks
VNNS
tp1121
a(Vto
VTO
tp1122
a(Vcriticism
VNN
tp1123
a(Von
VIN
tp1124
a(Vthis
VDT
tp1125
a(V,
V,
tp1126
a(Vthe
VDT
tp1127
a(VRight
VNNP
tp1128
a(Vhas
VVBZ
tp1129
a(Vblocked
VVBN
tp1130
a(Vthis
VDT
tp1131
a(Vdecision
VNN
tp1132
a(V.
V.
tp1133
aa(lp1134
(VWe
VPRP
tp1135
a(Vsimply
VRB
tp1136
a(Vdo
VVBP
tp1137
a(Vnot
VRB
tp1138
a(Vhave
VVB
tp1139
a(Vthe
VDT
tp1140
a(Vknow-how
VNN
tp1141
a(Vor
VCC
tp1142
a(Vthe
VDT
tp1143
a(Vpeople
VNNS
tp1144
a(Vto
VTO
tp1145
a(Vprepare
VVB
tp1146
a(Van
VDT
tp1147
a(Vinventory
VNN
tp1148
a(Vof
VIN
tp1149
a(Vthis
VDT
tp1150
a(Vkind
VNN
tp1151
a(V.
V.
tp1152
aa(lp1153
(VI
VPRP
tp1154
a(Vwelcome
VVBP
tp1155
a(Vthem
VPRP
tp1156
a(Vto
VTO
tp1157
a(Vthe
VDT
tp1158
a(VHouse
VNNP
tp1159
a(V.
V.
tp1160
aa(lp1161
(VWe
VPRP
tp1162
a(Vmust
VMD
tp1163
a(Vhave
VVB
tp1164
a(Vregulations
VNNS
tp1165
a(V.
V.
tp1166
aa(lp1167
(VSo
VIN
tp1168
a(Vmy
VPRP$
tp1169
a(Vfirst
VJJ
tp1170
a(Vpoint
VNN
tp1171
a(Vis
VVBZ
tp1172
a(Vthat
VIN
tp1173
a(Vthere
VEX
tp1174
a(Vis
VVBZ
tp1175
a(Va
VDT
tp1176
a(Vreason
VNN
tp1177
a(Vwhy
VWRB
tp1178
a(Vwe
VPRP
tp1179
a(Vare
VVBP
tp1180
a(Vdoing
VVBG
tp1181
a(Vthis
VDT
tp1182
a(V.
V.
tp1183
aa(lp1184
(VThroughout
VIN
tp1185
a(Vthe
VDT
tp1186
a(Vworld
VNN
tp1187
a(V,
V,
tp1188
a(Vmany
VJJ
tp1189
a(Vmore
VJJR
tp1190
a(Vpeople
VNNS
tp1191
a(Vdie
VVBP
tp1192
a(Vfrom
VIN
tp1193
a(Vtobacco
VNN
tp1194
a(Vthan
VIN
tp1195
a(Vfrom
VIN
tp1196
a(VAids
VNNP
tp1197
a(V.
V.
tp1198
aa(lp1199
(VThere
VEX
tp1200
a(Vhave
VVBP
tp1201
a(Vbeen
VVBN
tp1202
a(Valmost
VRB
tp1203
a(Vsixty
VCD
tp1204
a(Vaccidents
VNNS
tp1205
a(Vthis
VDT
tp1206
a(Vyear
VNN
tp1207
a(V,
V,
tp1208
a(Vsomething
VNN
tp1209
a(Vthat
VWDT
tp1210
a(Vis
VVBZ
tp1211
a(Valmost
VRB
tp1212
a(Vinexplicable
VJJ
tp1213
a(V.
V.
tp1214
aa(lp1215
(VSecondly
VRB
tp1216
a(V,
V,
tp1217
a(Vthe
VDT
tp1218
a(Vterm
VNN
tp1219
a(V&quot;
VNN
tp1220
a(Vdocument
VNN
tp1221
a(V&quot;
VNN
tp1222
a(Vshould
VMD
tp1223
a(Vbe
VVB
tp1224
a(Vtaken
VVBN
tp1225
a(Vin
VIN
tp1226
a(Va
VDT
tp1227
a(Vbroad
VJJ
tp1228
a(Vsense
VNN
tp1229
a(V.
V.
tp1230
aa(lp1231
(VPerhaps
VRB
tp1232
a(Vthere
VEX
tp1233
a(Vwill
VMD
tp1234
a(Vbe
VVB
tp1235
a(Vtime
VNN
tp1236
a(Vfor
VIN
tp1237
a(Va
VDT
tp1238
a(Vquick
VJJ
tp1239
a(Vbeer
VNN
tp1240
a(Vafter
VIN
tp1241
a(Vthis
VDT
tp1242
a(Vdebate
VNN
tp1243
a(V.
V.
tp1244
aa(lp1245
(VNow
VRB
tp1246
a(Vothers
VNNS
tp1247
a(Vstand
VVBP
tp1248
a(Von
VIN
tp1249
a(Vthe
VDT
tp1250
a(Vedge
VNN
tp1251
a(Vof
VIN
tp1252
a(Vthat
VDT
tp1253
a(Vvery
VRB
tp1254
a(Vsame
VJJ
tp1255
a(Vprecipice
VNN
tp1256
a(V.
V.
tp1257
aa(lp1258
(VAt
VIN
tp1259
a(Vthe
VDT
tp1260
a(Vsame
VJJ
tp1261
a(Vtime
VNN
tp1262
a(V,
V,
tp1263
a(Vhowever
VRB
tp1264
a(V,
V,
tp1265
a(Va
VDT
tp1266
a(Vsystem
VNN
tp1267
a(Vlike
VIN
tp1268
a(Vthis
VDT
tp1269
a(Vcosts
VVBZ
tp1270
a(Va
VDT
tp1271
a(Vgreat
VJJ
tp1272
a(Vdeal
VNN
tp1273
a(Vof
VIN
tp1274
a(Vmoney
VNN
tp1275
a(V-
V:
tp1276
a(Vabove
VIN
tp1277
a(Vall
VDT
tp1278
a(Vwhen
VWRB
tp1279
a(Vthere
VEX
tp1280
a(Vare
VVBP
tp1281
a(Vonly
VRB
tp1282
a(Va
VDT
tp1283
a(Vfew
VJJ
tp1284
a(Vcountries
VNNS
tp1285
a(Vthat
VWDT
tp1286
a(Vapply
VVBP
tp1287
a(Vthe
VDT
tp1288
a(Vsystem
VNN
tp1289
a(V.
V.
tp1290
aa(lp1291
(VNot
VRB
tp1292
a(Veverything
VNN
tp1293
a(Vhas
VVBZ
tp1294
a(Vbeen
VVBN
tp1295
a(Vacquired
VVBN
tp1296
a(Vyet
VRB
tp1297
a(V,
V,
tp1298
a(Vbut
VCC
tp1299
a(Vwe
VPRP
tp1300
a(Vare
VVBP
tp1301
a(Von
VIN
tp1302
a(Vthe
VDT
tp1303
a(Vroad
VNN
tp1304
a(Vto
VTO
tp1305
a(Vconsultation
VNN
tp1306
a(V.
V.
tp1307
aa(lp1308
(VFor
VIN
tp1309
a(Vall
VDT
tp1310
a(VEuropean
VJJ
tp1311
a(Vagencies
VNNS
tp1312
a(V,
V,
tp1313
a(Vthe
VDT
tp1314
a(Vurgent
VJJ
tp1315
a(Vquestion
VNN
tp1316
a(Varises
VVBZ
tp1317
a(Vof
VIN
tp1318
a(Vthe
VDT
tp1319
a(Vneed
VNN
tp1320
a(Vfor
VIN
tp1321
a(Van
VDT
tp1322
a(Vinterim
VJJ
tp1323
a(Vreview
VNN
tp1324
a(Vof
VIN
tp1325
a(Vtheir
VPRP$
tp1326
a(Vwork
VNN
tp1327
a(Vand
VCC
tp1328
a(Vperformance
VNN
tp1329
a(V.
V.
tp1330
aa(lp1331
(V(
VNN
tp1332
a(VCS
VNN
tp1333
a(V)
VCD
tp1334
a(VThere
VEX
tp1335
a(Vis
VVBZ
tp1336
a(Vhuge
VJJ
tp1337
a(Vproliferation
VNN
tp1338
a(Vof
VIN
tp1339
a(Vmedium
VNN
tp1340
a(Vand
VCC
tp1341
a(Vmedium-long
VJJ
tp1342
a(Vrange
VNN
tp1343
a(Vcarriers
VNNS
tp1344
a(Vat
VIN
tp1345
a(Vthe
VDT
tp1346
a(Vstart
VNN
tp1347
a(Vof
VIN
tp1348
a(Vthe
VDT
tp1349
a(V21st
VJJ
tp1350
a(Vcentury
VNN
tp1351
a(V.
V.
tp1352
aa(lp1353
(VIt
VPRP
tp1354
a(Vmerits
VNNS
tp1355
a(Vstudy
VNN
tp1356
a(V,
V,
tp1357
a(Vbut
VCC
tp1358
a(Vlet
VVB
tp1359
a(Vus
VPRP
tp1360
a(Vnot
VRB
tp1361
a(Vmake
VVB
tp1362
a(Vthe
VDT
tp1363
a(Vbest
VJJS
tp1364
a(Vthe
VDT
tp1365
a(Venemy
VNN
tp1366
a(Vof
VIN
tp1367
a(Vthe
VDT
tp1368
a(Vgood
VJJ
tp1369
a(V.
V.
tp1370
aa(lp1371
a(lp1372
(VWe
VPRP
tp1373
a(Vneed
VVBP
tp1374
a(Vto
VTO
tp1375
a(Vconnect
VVB
tp1376
a(VEurope
VNNP
tp1377
a(Vand
VCC
tp1378
a(Vits
VPRP$
tp1379
a(Vmarkets
VNNS
tp1380
a(V.
V.
tp1381
aa(lp1382
(VIt
VPRP
tp1383
a(Vis
VVBZ
tp1384
a(Vthat
VIN
tp1385
a(V,
V,
tp1386
a(Vof
VIN
tp1387
a(Vcourse
VNN
tp1388
a(V.
V.
tp1389
aa(lp1390
(VAmid
VIN
tp1391
a(Vthis
VDT
tp1392
a(Vcontext
VNN
tp1393
a(Vof
VIN
tp1394
a(Vglobal
VJJ
tp1395
a(Vcrisis
VNN
tp1396
a(V,
V,
tp1397
a(Vtax
VNN
tp1398
a(Vrevenue
VNN
tp1399
a(V,
V,
tp1400
a(Vwhich
VWDT
tp1401
a(Vis
VVBZ
tp1402
a(Vthe
VDT
tp1403
a(Voldest
VJJS
tp1404
a(Vsource
VNN
tp1405
a(Vof
VIN
tp1406
a(Vdevelopment
VNN
tp1407
a(Vfunding
VNN
tp1408
a(V,
V,
tp1409
a(Vis
VVBZ
tp1410
a(Va
VDT
tp1411
a(Vmajor
VJJ
tp1412
a(Vissue
VNN
tp1413
a(Vand
VCC
tp1414
a(Va
VDT
tp1415
a(Vgenuine
VJJ
tp1416
a(Vchallenge
VNN
tp1417
a(V.
V.
tp1418
aa(lp1419
(VMothers
VNNS
tp1420
a(Vof
VIN
tp1421
a(Vfamilies
VNNS
tp1422
a(Vwith
VIN
tp1423
a(Vno
VDT
tp1424
a(Vaccess
VNN
tp1425
a(Vto
VTO
tp1426
a(VAZT
VNNP
tp1427
a(Vare
VVBP
tp1428
a(Vbringing
VVBG
tp1429
a(Vbabies
VNNS
tp1430
a(Vinto
VIN
tp1431
a(Vthe
VDT
tp1432
a(Vworld
VNN
tp1433
a(Vwho
VWP
tp1434
a(Valready
VRB
tp1435
a(Vhave
VVBP
tp1436
a(VAIDS
VNN
tp1437
a(Vand
VCC
tp1438
a(Vare
VVBP
tp1439
a(Vcondemned
VVBN
tp1440
a(Vfrom
VIN
tp1441
a(Vthe
VDT
tp1442
a(Vday
VNN
tp1443
a(Vthey
VPRP
tp1444
a(Vare
VVBP
tp1445
a(Vborn
VVBN
tp1446
a(V.
V.
tp1447
aa(lp1448
(VIt
VPRP
tp1449
a(Vis
VVBZ
tp1450
a(Va
VDT
tp1451
a(Vmost
VRBS
tp1452
a(Vinteresting
VJJ
tp1453
a(Vcoalition
VNN
tp1454
a(Vwhich
VWDT
tp1455
a(Vwe
VPRP
tp1456
a(Vhave
VVBP
tp1457
a(Vhere
VRB
tp1458
a(V.
V.
tp1459
aa(lp1460
(VI
VPRP
tp1461
a(Vbelieve
VVBP
tp1462
a(Vthat
VIN
tp1463
a(Vthe
VDT
tp1464
a(Vdirective
VNN
tp1465
a(Vcan
VMD
tp1466
a(Valso
VRB
tp1467
a(Vact
VVB
tp1468
a(Vas
VIN
tp1469
a(Va
VDT
tp1470
a(Vlegitimate
VJJ
tp1471
a(Vtool
VNN
tp1472
a(Vin
VIN
tp1473
a(Vthe
VDT
tp1474
a(Vfight
VNN
tp1475
a(Vagainst
VIN
tp1476
a(Villegal
VJJ
tp1477
a(Vimmigration
VNN
tp1478
a(V,
V,
tp1479
a(Vby
VIN
tp1480
a(Vrestricting
VVBG
tp1481
a(Vthe
VDT
tp1482
a(Ventry
VNN
tp1483
a(Vof
VIN
tp1484
a(Vpeople
VNNS
tp1485
a(Vwho
VWP
tp1486
a(V,
V,
tp1487
a(Varriving
VVBG
tp1488
a(Vwithout
VIN
tp1489
a(Vjobs
VNNS
tp1490
a(Vor
VCC
tp1491
a(Vany
VDT
tp1492
a(Vpapers
VNNS
tp1493
a(V,
V,
tp1494
a(Vand
VCC
tp1495
a(Vcounting
VVBG
tp1496
a(Von
VIN
tp1497
a(Vstraightforward
VJJ
tp1498
a(Vsocial
VJJ
tp1499
a(Vintegration
VNN
tp1500
a(V,
V,
tp1501
a(Vvery
VRB
tp1502
a(Voften
VRB
tp1503
a(Vare
VVBP
tp1504
a(Vcompelled
VVBN
tp1505
a(Vto
VTO
tp1506
a(Vcommit
VVB
tp1507
a(Vcrimes
VNNS
tp1508
a(Vin
VIN
tp1509
a(Vorder
VNN
tp1510
a(Vto
VTO
tp1511
a(Vsurvive
VVB
tp1512
a(V,
V,
tp1513
a(Vsometimes
VRB
tp1514
a(Veven
VRB
tp1515
a(Vdespite
VIN
tp1516
a(Vthemselves
VPRP
tp1517
a(V.
V.
tp1518
aa(lp1519
(VBecause
VIN
tp1520
a(Vthe
VDT
tp1521
a(Vobjective
VNN
tp1522
a(Vof
VIN
tp1523
a(Vclosing
VVBG
tp1524
a(VChernobyl
VNNP
tp1525
a(Vin
VIN
tp1526
a(Vthe
VDT
tp1527
a(Vyear
VNN
tp1528
a(V2000
VCD
tp1529
a(Vcan
VMD
tp1530
a(Vin
VIN
tp1531
a(Vno
VDT
tp1532
a(Vway
VNN
tp1533
a(Vbe
VVB
tp1534
a(Vjeopardized
VVBN
tp1535
a(V.
V.
tp1536
aa(lp1537
(VThat
VDT
tp1538
a(Vis
VVBZ
tp1539
a(V,
V,
tp1540
a(Vin
VIN
tp1541
a(Vfact
VNN
tp1542
a(V,
V,
tp1543
a(Vone
VCD
tp1544
a(Vof
VIN
tp1545
a(Vthe
VDT
tp1546
a(Vreasons
VNNS
tp1547
a(Vwhy
VWRB
tp1548
a(Vin
VIN
tp1549
a(Vthe
VDT
tp1550
a(Vpast
VJJ
tp1551
a(Vten
VCD
tp1552
a(Vyears
VNNS
tp1553
a(V,
V,
tp1554
a(Vno
VDT
tp1555
a(Vprogress
VNN
tp1556
a(Vhas
VVBZ
tp1557
a(Vbeen
VVBN
tp1558
a(Vmade
VVBN
tp1559
a(Vwhatsoever
VRB
tp1560
a(V.
V.
tp1561
aa(lp1562
(VThe
VDT
tp1563
a(Vlatest
VJJS
tp1564
a(Vcase
VNN
tp1565
a(Vis
VVBZ
tp1566
a(Vthat
VIN
tp1567
a(Vof
VIN
tp1568
a(VIvan
VNNP
tp1569
a(VSafronov
VNNP
tp1570
a(V,
V,
tp1571
a(Vwho
VWP
tp1572
a(Vhappened
VVBD
tp1573
a(Vto
VTO
tp1574
a(Vfall
VVB
tp1575
a(Vfrom
VIN
tp1576
a(Vthe
VDT
tp1577
a(Vwindow
VNN
tp1578
a(Vjust
VRB
tp1579
a(Vbefore
VIN
tp1580
a(Vhe
VPRP
tp1581
a(Vwas
VVBD
tp1582
a(Vto
VTO
tp1583
a(Vpublish
VVB
tp1584
a(Van
VDT
tp1585
a(Varticle
VNN
tp1586
a(Vabout
VIN
tp1587
a(Villegal
VJJ
tp1588
a(VRussian
VJJ
tp1589
a(Varms
VNNS
tp1590
a(Vsales
VNNS
tp1591
a(Vto
VTO
tp1592
a(VSyria
VNNP
tp1593
a(Vand
VCC
tp1594
a(VIran
VNNP
tp1595
a(V.
V.
tp1596
aa(lp1597
(VAs
VRB
tp1598
a(Vwell
VRB
tp1599
a(Vas
VIN
tp1600
a(VTunisia
VNNP
tp1601
a(V,
V,
tp1602
a(Vwe
VPRP
tp1603
a(Vmust
VMD
tp1604
a(Vkeep
VVB
tp1605
a(Vin
VIN
tp1606
a(Vmind
VNN
tp1607
a(Vthe
VDT
tp1608
a(Vdevelopment
VNN
tp1609
a(Vof
VIN
tp1610
a(Vthe
VDT
tp1611
a(Vsituation
VNN
tp1612
a(Vin
VIN
tp1613
a(VEgypt
VNNP
tp1614
a(Vand
VCC
tp1615
a(Vother
VJJ
tp1616
a(Vcountries
VNNS
tp1617
a(Vin
VIN
tp1618
a(Vthe
VDT
tp1619
a(Vregion
VNN
tp1620
a(V.
V.
tp1621
aa(lp1622
(VWe
VPRP
tp1623
a(Vhave
VVBP
tp1624
a(Vless
VJJR
tp1625
a(Vtime
VNN
tp1626
a(V;
V:
tp1627
a(Vthere
VEX
tp1628
a(Vis
VVBZ
tp1629
a(Vonly
VRB
tp1630
a(Va
VDT
tp1631
a(Vsingle
VJJ
tp1632
a(Vreading
VNN
tp1633
a(V.
V.
tp1634
aa(lp1635
(VThe
VDT
tp1636
a(Vworkshop
VNN
tp1637
a(Von
VIN
tp1638
a(Vskills
VNNS
tp1639
a(Vupgrading
VVBG
tp1640
a(V,
V,
tp1641
a(Vwhich
VWDT
tp1642
a(Vtook
VVBD
tp1643
a(Vplace
VNN
tp1644
a(Vin
VIN
tp1645
a(VMadrid
VNNP
tp1646
a(V,
V,
tp1647
a(Vhighlighted
VVBD
tp1648
a(Vthat
VIN
tp1649
a(Vskills
VNNS
tp1650
a(Vare
VVBP
tp1651
a(Vthe
VDT
tp1652
a(Vkey
VNN
tp1653
a(Vto
VTO
tp1654
a(Vpreparing
VVBG
tp1655
a(Vfor
VIN
tp1656
a(Vthe
VDT
tp1657
a(Vfuture
VNN
tp1658
a(V.
V.
tp1659
aa(lp1660
(VHow
VWRB
tp1661
a(Vdo
VVBP
tp1662
a(Vyou
VPRP
tp1663
a(Vintend
VVB
tp1664
a(Vto
VTO
tp1665
a(Vresolve
VVB
tp1666
a(Vit
VPRP
tp1667
a(V?
V.
tp1668
aa(lp1669
(VThat
VDT
tp1670
a(Vis
VVBZ
tp1671
a(Vperhaps
VRB
tp1672
a(Va
VDT
tp1673
a(Vlittle
VJJ
tp1674
a(Vtoo
VRB
tp1675
a(Vdiplomatic
VJJ
tp1676
a(Vgiven
VVBN
tp1677
a(Vthe
VDT
tp1678
a(Vseriousness
VNN
tp1679
a(Vof
VIN
tp1680
a(Vthe
VDT
tp1681
a(Vsituation
VNN
tp1682
a(V.
V.
tp1683
aa(lp1684
(VIt
VPRP
tp1685
a(Vis
VVBZ
tp1686
a(Vlong
VRB
tp1687
a(Voverdue
VJJ
tp1688
a(V.
V.
tp1689
aa(lp1690
(VPreviously
VRB
tp1691
a(Vwe
VPRP
tp1692
a(Vdebated
VVBD
tp1693
a(Vthe
VDT
tp1694
a(Vadmission
VNN
tp1695
a(Vof
VIN
tp1696
a(Vthe
VDT
tp1697
a(VRussian
VJJ
tp1698
a(VFederation
VNNP
tp1699
a(Vto
VTO
tp1700
a(Vthe
VDT
tp1701
a(VCouncil
VNNP
tp1702
a(Vof
VIN
tp1703
a(VEurope
VNNP
tp1704
a(V.
V.
tp1705
aa(lp1706
(VIt
VPRP
tp1707
a(Vis
VVBZ
tp1708
a(Va
VDT
tp1709
a(Vshame
VNN
tp1710
a(Vthat
VWDT
tp1711
a(Vat
VIN
tp1712
a(Vthe
VDT
tp1713
a(Vbeginning
VNN
tp1714
a(Vof
VIN
tp1715
a(Vthe
VDT
tp1716
a(V21st
VJJ
tp1717
a(Vcentury
VNN
tp1718
a(V,
V,
tp1719
a(Vat
VIN
tp1720
a(Va
VDT
tp1721
a(Vtime
VNN
tp1722
a(Vwhen
VWRB
tp1723
a(Vfilms
VNNS
tp1724
a(Vare
VVBP
tp1725
a(Vbeing
VVBG
tp1726
a(Vreleased
VVBN
tp1727
a(Vin
VIN
tp1728
a(V3D
VNN
tp1729
a(V,
V,
tp1730
a(VParliament
VNNP
tp1731
a(Vhas
VVBZ
tp1732
a(Vregressed
VVBN
tp1733
a(V50
VCD
tp1734
a(Vyears
VNNS
tp1735
a(Vto
VTO
tp1736
a(Vthe
VDT
tp1737
a(Vera
VNN
tp1738
a(Vof
VIN
tp1739
a(Vblack-and-white
VJJ
tp1740
a(Vfilms
VNNS
tp1741
a(V.
V.
tp1742
aa(lp1743
(VReducing
VVBG
tp1744
a(Vtax
VNN
tp1745
a(Vand
VCC
tp1746
a(Vred
VJJ
tp1747
a(Vtape
VNN
tp1748
a(Vwould
VMD
tp1749
a(Vbe
VVB
tp1750
a(Va
VDT
tp1751
a(Vsplendid
VJJ
tp1752
a(Vstart
VNN
tp1753
a(V.
V.
tp1754
aa(lp1755
(VFor
VIN
tp1756
a(Vexample
VNN
tp1757
a(V,
V,
tp1758
a(Vwe
VPRP
tp1759
a(Vhave
VVBP
tp1760
a(Vto
VTO
tp1761
a(Vdisagree
VVB
tp1762
a(Vwith
VIN
tp1763
a(Vrecital
VNN
tp1764
a(VB
VNN
tp1765
a(V,
V,
tp1766
a(Vwhich
VWDT
tp1767
a(Vsays
VVBZ
tp1768
a(Vthat
VIN
tp1769
a(Vthere
VEX
tp1770
a(Vis
VVBZ
tp1771
a(Va
VDT
tp1772
a(Vgeneral
VJJ
tp1773
a(Vtrend
VNN
tp1774
a(Vin
VIN
tp1775
a(Vthe
VDT
tp1776
a(VMember
VNNP
tp1777
a(VStates
VNNPS
tp1778
a(Vtowards
VIN
tp1779
a(Vthe
VDT
tp1780
a(Vabandonment
VNN
tp1781
a(Vof
VIN
tp1782
a(Vtheir
VPRP$
tp1783
a(Vresponsibilities
VNNS
tp1784
a(Vin
VIN
tp1785
a(Vterms
VNNS
tp1786
a(Vof
VIN
tp1787
a(Vhousing
VNN
tp1788
a(Vpolicy
VNN
tp1789
a(V.
V.
tp1790
aa(lp1791
(VThe
VDT
tp1792
a(Vpercentage
VNN
tp1793
a(Vof
VIN
tp1794
a(Vwomen
VNNS
tp1795
a(Vover
VIN
tp1796
a(V60
VCD
tp1797
a(Vstill
VRB
tp1798
a(Vin
VIN
tp1799
a(Vwork
VNN
tp1800
a(Vis
VVBZ
tp1801
a(Veven
VRB
tp1802
a(Vlower
VJJR
tp1803
a(V.
V.
tp1804
aa(lp1805
(VACTA
VNNP
tp1806
a(Vis
VVBZ
tp1807
a(Vconcerned
VVBN
tp1808
a(Vwith
VIN
tp1809
a(Vthe
VDT
tp1810
a(Venforcement
VNN
tp1811
a(Vof
VIN
tp1812
a(VIP
VNNP
tp1813
a(Vlaw
VNN
tp1814
a(Vat
VIN
tp1815
a(Vinternational
VJJ
tp1816
a(Vlevel
VNN
tp1817
a(Vand
VCC
tp1818
a(Vconcerns
VNNS
tp1819
a(Vcommercial
VJJ
tp1820
a(Vcopyright
VNN
tp1821
a(Vviolations
VNNS
tp1822
a(V.
V.
tp1823
aa(lp1824
(VHe
VPRP
tp1825
a(Vwas
VVBD
tp1826
a(Velected
VVBN
tp1827
a(Vas
VIN
tp1828
a(Van
VDT
tp1829
a(Vindependent
VJJ
tp1830
a(V,
V,
tp1831
a(Vindividual
VJJ
tp1832
a(Vcandidate
VNN
tp1833
a(V,
V,
tp1834
a(Vwithout
VIN
tp1835
a(Vany
VDT
tp1836
a(Vkind
VNN
tp1837
a(Vof
VIN
tp1838
a(Vparty
VNN
tp1839
a(Vlist
VNN
tp1840
a(V,
V,
tp1841
a(Vfor
VIN
tp1842
a(Vwhich
VWDT
tp1843
a(Vthere
VEX
tp1844
a(Vare
VVBP
tp1845
a(Vfew
VJJ
tp1846
a(Vprecedents
VNNS
tp1847
a(V.
V.
tp1848
aa(lp1849
(VWe
VPRP
tp1850
a(Valso
VRB
tp1851
a(Vneed
VVBP
tp1852
a(Vto
VTO
tp1853
a(Vmake
VVB
tp1854
a(Vsure
VJJ
tp1855
a(Vthat
VIN
tp1856
a(Vthose
VDT
tp1857
a(Vdiagnosed
VVBN
tp1858
a(Vwith
VIN
tp1859
a(Vcancer
VNN
tp1860
a(Vare
VVBP
tp1861
a(Vnot
VRB
tp1862
a(Vdiscriminated
VVBN
tp1863
a(Vagainst
VIN
tp1864
a(Vin
VIN
tp1865
a(Vthe
VDT
tp1866
a(Vworkplace
VNN
tp1867
a(V.
V.
tp1868
aa(lp1869
(VEven
VRB
tp1870
a(Vmore
VRBR
tp1871
a(Vshocking
VJJ
tp1872
a(Vis
VVBZ
tp1873
a(Vthe
VDT
tp1874
a(Vignorance
VNN
tp1875
a(Vdisplayed
VVBD
tp1876
a(Vin
VIN
tp1877
a(Vparagraph
VNN
tp1878
a(V23
VCD
tp1879
a(V.
V.
tp1880
aa(lp1881
(VWhat
VWP
tp1882
a(VI
VPRP
tp1883
a(Vam
VVBP
tp1884
a(Vpresenting
VVBG
tp1885
a(Vto
VTO
tp1886
a(Vthe
VDT
tp1887
a(VHouse
VNNP
tp1888
a(Vdoes
VVBZ
tp1889
a(Vnot
VRB
tp1890
a(Vtherefore
VRB
tp1891
a(Vcorrespond
VVBP
tp1892
a(Ventirely
VRB
tp1893
a(Vto
VTO
tp1894
a(Vmy
VPRP$
tp1895
a(Vown
VJJ
tp1896
a(Videas
VNNS
tp1897
a(V,
V,
tp1898
a(Vbut
VCC
tp1899
a(Vunfortunately
VRB
tp1900
a(Vthat
VDT
tp1901
a(Vis
VVBZ
tp1902
a(Vthe
VDT
tp1903
a(Vnature
VNN
tp1904
a(Vof
VIN
tp1905
a(Vcompromise
VNN
tp1906
a(V.
V.
tp1907
aa(lp1908
(VYesterday
VNN
tp1909
a(V,
V,
tp1910
a(Vthe
VDT
tp1911
a(VState
VNNP
tp1912
a(VSecretary
VNNP
tp1913
a(Vresponsible
VJJ
tp1914
a(V,
V,
tp1915
a(VMr
VNNP
tp1916
a(VMalmberg
VNNP
tp1917
a(V,
V,
tp1918
a(Vinformed
VVBD
tp1919
a(Vme
VPRP
tp1920
a(Vthat
VIN
tp1921
a(Vto
VTO
tp1922
a(Vhis
VPRP$
tp1923
a(Vgreat
VJJ
tp1924
a(Vregret
VNN
tp1925
a(Vhe
VPRP
tp1926
a(Vcannot
VVBD
tp1927
a(Vbe
VVB
tp1928
a(Vwith
VIN
tp1929
a(Vus
VPRP
tp1930
a(Vtoday
VNN
tp1931
a(V.
V.
tp1932
aa(lp1933
(V(
VNN
tp1934
a(VFR
VNN
tp1935
a(V)
VCD
tp1936
a(VMadam
VNNP
tp1937
a(VPresident
VNNP
tp1938
a(V,
V,
tp1939
a(VCommissioner
VNNP
tp1940
a(V,
V,
tp1941
a(Vladies
VNNS
tp1942
a(Vand
VCC
tp1943
a(Vgentlemen
VNNS
tp1944
a(V,
V,
tp1945
a(Vwhat
VWP
tp1946
a(Va
VDT
tp1947
a(Vfunny
VJJ
tp1948
a(Vold
VJJ
tp1949
a(Vworld
VNN
tp1950
a(Vthe
VDT
tp1951
a(Vagricultural
VJJ
tp1952
a(Vworld
VNN
tp1953
a(Vis
VVBZ
tp1954
a(V!
V.
tp1955
aa(lp1956
(VFor
VIN
tp1957
a(Vthe
VDT
tp1958
a(VEuropean
VNNP
tp1959
a(VParliament
VNNP
tp1960
a(V,
V,
tp1961
a(Vthe
VDT
tp1962
a(Vanswer
VNN
tp1963
a(Vis
VVBZ
tp1964
a(Vclearly
VRB
tp1965
a(Vin
VIN
tp1966
a(Vthe
VDT
tp1967
a(Vaffirmative
VJJ
tp1968
a(V,
V,
tp1969
a(Vand
VCC
tp1970
a(Vfor
VIN
tp1971
a(Vthree
VCD
tp1972
a(Vreasons
VNNS
tp1973
a(V.
V.
tp1974
aa.