(lp1
(lp2
(VNot
VRB
tp3
a(Vparticipating
VVBG
tp4
a(Vyourself
VPRP
tp5
a(Vbut
VCC
tp6
a(Vdenying
VVBG
tp7
a(Vothers
VNNS
tp8
a(Vthe
VDT
tp9
a(Vuse
VNN
tp10
a(Vof
VIN
tp11
a(Vjoint
VJJ
tp12
a(Vstructures
VNNS
tp13
a(V:
V:
tp14
a(Vthat
VDT
tp15
a(Vis
VVBZ
tp16
a(Vsomething
VNN
tp17
a(Vthat
VIN
tp18
a(Vwe
VPRP
tp19
a(Vshould
VMD
tp20
a(Vnot
VRB
tp21
a(Vaccept
VVB
tp22
a(Vfrom
VIN
tp23
a(Vthose
VDT
tp24
a(Vwho
VWP
tp25
a(Vdrop
VVBP
tp26
a(Vout
VRP
tp27
a(Vin
VIN
tp28
a(Vfuture
VJJ
tp29
a(V!
V.
tp30
aa(lp31
(VIndeed
VRB
tp32
a(V,
V,
tp33
a(Vwhat
VWP
tp34
a(Vis
VVBZ
tp35
a(Vat
VIN
tp36
a(Vstake
VNN
tp37
a(Vin
VIN
tp38
a(VMadrid
VNNP
tp39
a(Vis
VVBZ
tp40
a(Vthe
VDT
tp41
a(Vfundamental
VJJ
tp42
a(Vcredibility
VNN
tp43
a(Vof
VIN
tp44
a(Vthis
VDT
tp45
a(Vwhole
VJJ
tp46
a(Vprocess
VNN
tp47
a(V.
V.
tp48
aa(lp49
(VWe
VPRP
tp50
a(Vcan
VMD
tp51
a(Vprovide
VVB
tp52
a(Veducational
VJJ
tp53
a(Vopportunities
VNNS
tp54
a(Vand
VCC
tp55
a(Vemployment
VNN
tp56
a(V,
V,
tp57
a(Vbut
VCC
tp58
a(Vthe
VDT
tp59
a(Vpay
VNN
tp60
a(Vgap
VNN
tp61
a(Vstill
VRB
tp62
a(Vremains
VVBZ
tp63
a(V.
V.
tp64
aa(lp65
(V(
VNN
tp66
a(VSL
VNN
tp67
a(V)
VCD
tp68
a(VThe
VDT
tp69
a(VIsraeli
VJJ
tp70
a(Vstate
VNN
tp71
a(Vhas
VVBZ
tp72
a(Vordered
VVBN
tp73
a(Vthe
VDT
tp74
a(VIsraeli
VJJ
tp75
a(Varmy
VNN
tp76
a(Vto
VTO
tp77
a(Vdestroy
VVB
tp78
a(VHamas
VNNP
tp79
a(Vin
VIN
tp80
a(VGaza
VNNP
tp81
a(V.
V.
tp82
aa(lp83
(VAt
VIN
tp84
a(Vthe
VDT
tp85
a(Veconomic
VJJ
tp86
a(Vlevel
VNN
tp87
a(V,
V,
tp88
a(Vensuring
VVBG
tp89
a(Vappropriate
VJJ
tp90
a(Vand
VCC
tp91
a(Vtransparent
VJJ
tp92
a(Vfunding
VNN
tp93
a(Vof
VIN
tp94
a(Vthe
VDT
tp95
a(Vstrategy
VNN
tp96
a(Vand
VCC
tp97
a(Vfighting
VVBG
tp98
a(Vcorruption
VNN
tp99
a(Vat
VIN
tp100
a(Vall
VDT
tp101
a(Vlevels
VNNS
tp102
a(Vare
VVBP
tp103
a(Vthe
VDT
tp104
a(Vadditional
VJJ
tp105
a(Vguarantees
VNNS
tp106
a(Vfor
VIN
tp107
a(Vthe
VDT
tp108
a(Vsuccess
VNN
tp109
a(Vof
VIN
tp110
a(Vour
VPRP$
tp111
a(Vjoint
VJJ
tp112
a(Vactivities
VNNS
tp113
a(V.
V.
tp114
aa(lp115
(VThe
VDT
tp116
a(Vyoungest
VJJS
tp117
a(Vis
VVBZ
tp118
a(Vonly
VRB
tp119
a(Vsixteen
VCD
tp120
a(Vyears
VNNS
tp121
a(Vold
VJJ
tp122
a(V.
V.
tp123
aa(lp124
(VThe
VDT
tp125
a(Vinvestigative
VJJ
tp126
a(Vand
VCC
tp127
a(Vpreventative
VJJ
tp128
a(Vfunction
VNN
tp129
a(Vof
VIN
tp130
a(Vthe
VDT
tp131
a(VEIB
VNNP
tp132
a(Vmust
VMD
tp133
a(Vplay
VVB
tp134
a(Va
VDT
tp135
a(Vmore
VRBR
tp136
a(Vprominent
VJJ
tp137
a(Vrole
VNN
tp138
a(Vthan
VIN
tp139
a(Vit
VPRP
tp140
a(Vhas
VVBZ
tp141
a(Vdone
VVBN
tp142
a(Vin
VIN
tp143
a(Vthe
VDT
tp144
a(Vpast
VNN
tp145
a(V.
V.
tp146
aa(lp147
(VI
VPRP
tp148
a(Vabstained
VVBD
tp149
a(Vfrom
VIN
tp150
a(Vthe
VDT
tp151
a(Vvote
VNN
tp152
a(Von
VIN
tp153
a(Vthe
VDT
tp154
a(Vresolution
VNN
tp155
a(V.
V.
tp156
aa(lp157
(VThat
VDT
tp158
a(Vdecision
VNN
tp159
a(Vwas
VVBD
tp160
a(Vtaken
VVBN
tp161
a(Vby
VIN
tp162
a(Vthe
VDT
tp163
a(VSecretary-General
VNNP
tp164
a(V,
V,
tp165
a(Vwho
VWP
tp166
a(Vhad
VVBD
tp167
a(Vbeen
VVBN
tp168
a(Vin
VIN
tp169
a(Vconstant
VJJ
tp170
a(Vcontact
VNN
tp171
a(Vwith
VIN
tp172
a(Vme
VPRP
tp173
a(V.
V.
tp174
a(VIt
VPRP
tp175
a(Vwas
VVBD
tp176
a(Vtaken
VVBN
tp177
a(Von
VIN
tp178
a(Vmy
VPRP$
tp179
a(Vexpress
VVBP
tp180
a(Vauthority
VNN
tp181
a(V,
V,
tp182
a(Vfollowing
VVBG
tp183
a(Vconsultations
VNNS
tp184
a(Vwith
VIN
tp185
a(Vthe
VDT
tp186
a(VQuaestor
VNNP
tp187
a(Vresponsible
VJJ
tp188
a(Vfor
VIN
tp189
a(Vsecurity
VNN
tp190
a(V.
V.
tp191
aa(lp192
(VIn
VIN
tp193
a(Vany
VDT
tp194
a(Vevent
VNN
tp195
a(V,
V,
tp196
a(Vthe
VDT
tp197
a(Varms
VNNS
tp198
a(Vembargo
VNN
tp199
a(Vmust
VMD
tp200
a(Vbe
VVB
tp201
a(Vsupervised
VVBN
tp202
a(Vmore
VRBR
tp203
a(Veffectively
VRB
tp204
a(Vand
VCC
tp205
a(Vperpetrators
VNNS
tp206
a(Vmust
VMD
tp207
a(Vbe
VVB
tp208
a(Vbrought
VVBN
tp209
a(Vto
VTO
tp210
a(Vjustice
VNN
tp211
a(V.
V.
tp212
aa(lp213
(VComputers
VNNS
tp214
a(Vare
VVBP
tp215
a(Vgetting
VVBG
tp216
a(Vfaster
VRBR
tp217
a(Vevery
VDT
tp218
a(Vday
VNN
tp219
a(V.
V.
tp220
aa(lp221
(VAccording
VVBG
tp222
a(Vto
VTO
tp223
a(Vthe
VDT
tp224
a(Vlast
VJJ
tp225
a(Vfigures
VNNS
tp226
a(V,
V,
tp227
a(Vthe
VDT
tp228
a(VChinese
VJJ
tp229
a(Vmainland
VNN
tp230
a(Vhas
VVBZ
tp231
a(Vso
VRB
tp232
a(Vfar
VRB
tp233
a(Vdonated
VVBN
tp234
a(Vto
VTO
tp235
a(Vthe
VDT
tp236
a(Vtyphoon
VNN
tp237
a(Vvictims
VNNS
tp238
a(Vabout
VIN
tp239
a(Va
VDT
tp240
a(VCNY
VNN
tp241
a(V1
VCD
tp242
a(Vbillion
VCD
tp243
a(V,
V,
tp244
a(Vwhich
VWDT
tp245
a(Vis
VVBZ
tp246
a(Vthe
VDT
tp247
a(Vequivalent
VNN
tp248
a(Vof
VIN
tp249
a(Vnearly
VRB
tp250
a(VUSD
VNN
tp251
a(V150
VCD
tp252
a(Vmillion
VCD
tp253
a(V.
V.
tp254
aa(lp255
(VIn
VIN
tp256
a(Vorder
VNN
tp257
a(Vto
VTO
tp258
a(Vbe
VVB
tp259
a(Vstrong
VJJ
tp260
a(V,
V,
tp261
a(Vit
VPRP
tp262
a(Vis
VVBZ
tp263
a(Valso
VRB
tp264
a(Vimportant
VJJ
tp265
a(V,
V,
tp266
a(Vof
VIN
tp267
a(Vcourse
VNN
tp268
a(V,
V,
tp269
a(Vthat
VIN
tp270
a(Vwe
VPRP
tp271
a(Vbe
VVB
tp272
a(Vcapable
VJJ
tp273
a(Vof
VIN
tp274
a(Vclearly
VRB
tp275
a(Vrecognising
VVBG
tp276
a(Vour
VPRP$
tp277
a(Vpast
VNN
tp278
a(Vand
VCC
tp279
a(Vour
VPRP$
tp280
a(Videntity
VNN
tp281
a(V.
V.
tp282
aa(lp283
(VColleagues
VNNS
tp284
a(V,
V,
tp285
a(Vwe
VPRP
tp286
a(Vhave
VVBP
tp287
a(Vhad
VVBD
tp288
a(Va
VDT
tp289
a(Vlong
VJJ
tp290
a(Vweek
VNN
tp291
a(Vand
VCC
tp292
a(Vwe
VPRP
tp293
a(Vare
VVBP
tp294
a(Vall
VRB
tp295
a(Vtired
VVBN
tp296
a(V.
V.
tp297
aa(lp298
(VFor
VIN
tp299
a(Vyears
VNNS
tp300
a(Vthe
VDT
tp301
a(VColombian
VJJ
tp302
a(VGovernment
VNN
tp303
a(V&apos;s
VNNS
tp304
a(Vstock
VNN
tp305
a(Vresponse
VNN
tp306
a(Vhas
VVBZ
tp307
a(Vbeen
VVBN
tp308
a(Van
VDT
tp309
a(Vapologetic
VJJ
tp310
a(Vshrug
VVB
tp311
a(Vof
VIN
tp312
a(Vthe
VDT
tp313
a(Vshoulders
VNNS
tp314
a(V.
V.
tp315
aa(lp316
(VThere
VEX
tp317
a(Vwere
VVBD
tp318
a(V,
V,
tp319
a(Vfor
VIN
tp320
a(Vexample
VNN
tp321
a(V,
V,
tp322
a(Vlong
VJJ
tp323
a(Vdelays
VNNS
tp324
a(Vin
VIN
tp325
a(Vobtaining
VVBG
tp326
a(Vvital
VJJ
tp327
a(Vinformation
VNN
tp328
a(Vfrom
VIN
tp329
a(Vsome
VDT
tp330
a(Vcountries
VNNS
tp331
a(V.
V.
tp332
aa(lp333
(VWe
VPRP
tp334
a(Valso
VRB
tp335
a(Vhave
VVBP
tp336
a(Vto
VTO
tp337
a(Vput
VVB
tp338
a(Vourselves
VPRP
tp339
a(Vin
VIN
tp340
a(Vthe
VDT
tp341
a(Vshoes
VNNS
tp342
a(Vof
VIN
tp343
a(Vemployers
VNNS
tp344
a(V,
V,
tp345
a(Vparticularly
VRB
tp346
a(Vsmall
VJJ
tp347
a(Vand
VCC
tp348
a(Vmedium-sized
VJJ
tp349
a(Venterprises
VNNS
tp350
a(V,
V,
tp351
a(Vwho
VWP
tp352
a(Vundoubtedly
VRB
tp353
a(Vfind
VVBP
tp354
a(Vit
VPRP
tp355
a(Vvery
VRB
tp356
a(Vhard
VRB
tp357
a(Vto
VTO
tp358
a(Vsurvive
VVB
tp359
a(Vin
VIN
tp360
a(Vthe
VDT
tp361
a(Vmarket
VNN
tp362
a(Vif
VIN
tp363
a(Vthey
VPRP
tp364
a(Vface
VVBP
tp365
a(Vtoo
VRB
tp366
a(Vmany
VJJ
tp367
a(Vformal
VJJ
tp368
a(Vobstacles
VNNS
tp369
a(V.
V.
tp370
aa(lp371
(VHowever
VRB
tp372
a(V,
V,
tp373
a(Vit
VPRP
tp374
a(Vwas
VVBD
tp375
a(Va
VDT
tp376
a(Vnecessary
VJJ
tp377
a(Vshort-term
VJJ
tp378
a(Vmeasure
VNN
tp379
a(V.
V.
tp380
aa(lp381
(VThis
VDT
tp382
a(Videa
VNN
tp383
a(Vis
VVBZ
tp384
a(Vat
VIN
tp385
a(Vthe
VDT
tp386
a(Vcore
VNN
tp387
a(Vof
VIN
tp388
a(Vthe
VDT
tp389
a(VBali
VNNP
tp390
a(VAction
VNNP
tp391
a(VPlan
VNNP
tp392
a(Vnegotiations
VNNS
tp393
a(V.
V.
tp394
aa(lp395
(VThat
VDT
tp396
a(Vway
VNN
tp397
a(Vwe
VPRP
tp398
a(Vare
VVBP
tp399
a(Vshifting
VVBG
tp400
a(Vthe
VDT
tp401
a(Vproblem
VNN
tp402
a(Vonto
VIN
tp403
a(Vabnormal
VJJ
tp404
a(Vand
VCC
tp405
a(Vsick
VJJ
tp406
a(Vminorities
VNNS
tp407
a(V.
V.
tp408
aa(lp409
(VThis
VDT
tp410
a(Vmay
VMD
tp411
a(Vseem
VVB
tp412
a(Vlike
VIN
tp413
a(Va
VDT
tp414
a(Vlarge
VJJ
tp415
a(Vamount
VNN
tp416
a(Vof
VIN
tp417
a(Vfunding
VNN
tp418
a(V,
V,
tp419
a(Vbut
VCC
tp420
a(Vin
VIN
tp421
a(Vfact
VNN
tp422
a(V,
V,
tp423
a(Vit
VPRP
tp424
a(Vis
VVBZ
tp425
a(Vvery
VRB
tp426
a(Vlittle
VJJ
tp427
a(V.
V.
tp428
aa(lp429
(VIn
VIN
tp430
a(VDublin
VNNP
tp431
a(Vcity
VNN
tp432
a(Vand
VCC
tp433
a(Vcounty
VNN
tp434
a(Vfor
VIN
tp435
a(Vwhich
VWDT
tp436
a(VI
VPRP
tp437
a(Vam
VVBP
tp438
a(Va
VDT
tp439
a(VMember
VNNP
tp440
a(V,
V,
tp441
a(Vthere
VEX
tp442
a(Vare
VVBP
tp443
a(Vpresently
VRB
tp444
a(Vstill
VRB
tp445
a(V70
VCD
tp446
a(V000
VCD
tp447
a(Vpeople
VNNS
tp448
a(Von
VIN
tp449
a(Vthe
VDT
tp450
a(Vlive
VJJ
tp451
a(Vregister
VNN
tp452
a(V.
V.
tp453
aa(lp454
(VNinety
VCD
tp455
a(Vper
VIN
tp456
a(Vcent
VNN
tp457
a(Vof
VIN
tp458
a(Vthe
VDT
tp459
a(Vcosts
VNNS
tp460
a(Vincurred
VVBN
tp461
a(Vin
VIN
tp462
a(Vthe
VDT
tp463
a(VEuropean
VJJ
tp464
a(Vsugar
VNN
tp465
a(Vbudget
VNN
tp466
a(Vof
VIN
tp467
a(VEUR
V$
tp468
a(V800
VCD
tp469
a(Vmillion
VCD
tp470
a(Vbenefit
VNN
tp471
a(Vthese
VDT
tp472
a(Vcountries
VNNS
tp473
a(V.
V.
tp474
aa(lp475
(VThese
VDT
tp476
a(Vare
VVBP
tp477
a(Vitems
VNNS
tp478
a(Vin
VIN
tp479
a(Vshort
VJJ
tp480
a(Vsupply
VNN
tp481
a(Vin
VIN
tp482
a(VIraq
VNNP
tp483
a(Vbecause
VIN
tp484
a(VSaddam
VNNP
tp485
a(VHussein
VNNP
tp486
a(Vhas
VVBZ
tp487
a(Vconsistently
VRB
tp488
a(Vrefused
VVBN
tp489
a(Vto
VTO
tp490
a(Vspend
VVB
tp491
a(Vmoney
VNN
tp492
a(Von
VIN
tp493
a(Vhis
VPRP$
tp494
a(Vown
VJJ
tp495
a(Vpeople
VNNS
tp496
a(V,
V,
tp497
a(Vpreferring
VVBG
tp498
a(Vinstead
VRB
tp499
a(Vto
VTO
tp500
a(Vspend
VVB
tp501
a(Vit
VPRP
tp502
a(Von
VIN
tp503
a(Vhis
VPRP$
tp504
a(Vown
VJJ
tp505
a(Vcomforts
VNNS
tp506
a(Vand
VCC
tp507
a(Von
VIN
tp508
a(Vhis
VPRP$
tp509
a(Vweapons
VNNS
tp510
a(Vprogrammes
VNNS
tp511
a(V.
V.
tp512
aa(lp513
(VMr
VNNP
tp514
a(VPresident
VNNP
tp515
a(V,
V,
tp516
a(Vit
VPRP
tp517
a(Vis
VVBZ
tp518
a(Vnot
VRB
tp519
a(Va
VDT
tp520
a(Vday
VNN
tp521
a(Vfor
VIN
tp522
a(Vcelebration
VNN
tp523
a(V.
V.
tp524
aa(lp525
(VThe
VDT
tp526
a(Vfigure
VNN
tp527
a(Vfor
VIN
tp528
a(Voutstanding
VJJ
tp529
a(Vcommitments
VNNS
tp530
a(Vhas
VVBZ
tp531
a(Vrisen
VVBN
tp532
a(Vto
VTO
tp533
a(VEUR
V$
tp534
a(V110
VCD
tp535
a(Vbillion
VCD
tp536
a(V,
V,
tp537
a(Vwhich
VWDT
tp538
a(Vis
VVBZ
tp539
a(Vmore
VRBR
tp540
a(Vthan
VIN
tp541
a(Vthe
VDT
tp542
a(VEU
VNNP
tp543
a(V&apos;s
VNNS
tp544
a(Vannual
VJJ
tp545
a(Vbudget
VNN
tp546
a(V.
V.
tp547
aa(lp548
(VMatters
VNNS
tp549
a(Vwould
VMD
tp550
a(Vno
VDT
tp551
a(Vdoubt
VNN
tp552
a(Vbe
VVB
tp553
a(Vdealt
VVBN
tp554
a(Vwith
VIN
tp555
a(Vmuch
VRB
tp556
a(Vmore
VRBR
tp557
a(Vquickly
VRB
tp558
a(V,
V,
tp559
a(VMr
VNNP
tp560
a(VFunk
VNNP
tp561
a(V,
V,
tp562
a(Vif
VIN
tp563
a(Vdemocracy
VNN
tp564
a(Vwere
VVBD
tp565
a(Vabolished
VVBN
tp566
a(V,
V,
tp567
a(Vbut
VCC
tp568
a(Vthe
VDT
tp569
a(Vbig
VJJ
tp570
a(Vquestion
VNN
tp571
a(Vis
VVBZ
tp572
a(Vwhether
VIN
tp573
a(Vthat
VDT
tp574
a(Vwould
VMD
tp575
a(Vbe
VVB
tp576
a(Vany
VRB
tp577
a(Vbetter
VRB
tp578
a(V!
V.
tp579
aa(lp580
(VWe
VPRP
tp581
a(Vneed
VVBP
tp582
a(Vto
VTO
tp583
a(Vtackle
VVB
tp584
a(Vthis
VDT
tp585
a(Vold
VJJ
tp586
a(Vchestnut
VNN
tp587
a(Vyet
VRB
tp588
a(Vagain
VRB
tp589
a(V,
V,
tp590
a(Vand
VCC
tp591
a(VI
VPRP
tp592
a(Vhope
VVBP
tp593
a(Vthat
VIN
tp594
a(Vthe
VDT
tp595
a(Vnext
VJJ
tp596
a(VParliament
VNNP
tp597
a(Vwill
VMD
tp598
a(Vdo
VVB
tp599
a(Vsomething
VNN
tp600
a(Vabout
VIN
tp601
a(Vthis
VDT
tp602
a(Vat
VIN
tp603
a(Vsome
VDT
tp604
a(Vpoint
VNN
tp605
a(V.
V.
tp606
aa(lp607
(VWe
VPRP
tp608
a(Valso
VRB
tp609
a(Vcall
VVBP
tp610
a(Vfor
VIN
tp611
a(Vthe
VDT
tp612
a(Vlaunch
VNN
tp613
a(Vof
VIN
tp614
a(Va
VDT
tp615
a(VEuropean
VJJ
tp616
a(VYear
VNN
tp617
a(Vof
VIN
tp618
a(VMental
VNNP
tp619
a(VHealth
VNNP
tp620
a(V,
V,
tp621
a(Vto
VTO
tp622
a(Vcomplement
VNN
tp623
a(VWorld
VNN
tp624
a(VAlzheimer
VNN
tp625
a(V&apos;s
VNNS
tp626
a(VDay
VNN
tp627
a(V,
V,
tp628
a(Vwhich
VWDT
tp629
a(VI
VPRP
tp630
a(Vhope
VVBP
tp631
a(Vwill
VMD
tp632
a(Vprovide
VVB
tp633
a(Van
VDT
tp634
a(Vopportunity
VNN
tp635
a(Vto
VTO
tp636
a(Vfurther
VJJ
tp637
a(Vraise
VNN
tp638
a(Vawareness
VNN
tp639
a(Vof
VIN
tp640
a(Vthis
VDT
tp641
a(Vissue
VNN
tp642
a(V.
V.
tp643
aa(lp644
(VThe
VDT
tp645
a(Vshare
VNN
tp646
a(Vof
VIN
tp647
a(VVAT
VNNP
tp648
a(Vis
VVBZ
tp649
a(Vfalling
VVBG
tp650
a(V.
V.
tp651
aa(lp652
(VIf
VIN
tp653
a(Vthis
VDT
tp654
a(Vis
VVBZ
tp655
a(Vthe
VDT
tp656
a(Vcase
VNN
tp657
a(V,
V,
tp658
a(Vthen
VRB
tp659
a(Vthe
VDT
tp660
a(Vinterpretation
VNN
tp661
a(Vyou
VPRP
tp662
a(Vhave
VVBP
tp663
a(Vgiven
VVBN
tp664
a(Vus
VPRP
tp665
a(Vis
VVBZ
tp666
a(Vwrong
VJJ
tp667
a(V.
V.
tp668
aa(lp669
(VIn
VIN
tp670
a(Va
VDT
tp671
a(Vresidential
VJJ
tp672
a(Vinstitution
VNN
tp673
a(Vin
VIN
tp674
a(VBelgium
VNNP
tp675
a(V,
V,
tp676
a(Vdisabled
VJJ
tp677
a(Vpeople
VNNS
tp678
a(Vhave
VVBP
tp679
a(Vbeen
VVBN
tp680
a(Vabused
VVBN
tp681
a(Vby
VIN
tp682
a(Vcarers
VNNS
tp683
a(Vand
VCC
tp684
a(Vhealth
VNN
tp685
a(Vworkers
VNNS
tp686
a(V,
V,
tp687
a(Vphysically
VRB
tp688
a(Vbeaten
VVBN
tp689
a(Vand
VCC
tp690
a(Vtheir
VPRP$
tp691
a(Vmoney
VNN
tp692
a(Vtaken
VVBN
tp693
a(Vand
VCC
tp694
a(Vused
VVBN
tp695
a(Vby
VIN
tp696
a(Vstaff
VNN
tp697
a(V.
V.
tp698
aa(lp699
(VI
VPRP
tp700
a(Vthink
VVBP
tp701
a(Vwe
VPRP
tp702
a(Vfind
VVB
tp703
a(Van
VDT
tp704
a(Vanswer
VNN
tp705
a(Vto
VTO
tp706
a(Vthat
VDT
tp707
a(Vwithin
VIN
tp708
a(Vthat
VDT
tp709
a(VExplanatory
VJJ
tp710
a(VStatement
VNN
tp711
a(V;
V:
tp712
a(Vand
VCC
tp713
a(Vthat
VDT
tp714
a(Vis
VVBZ
tp715
a(Vwhy
VWRB
tp716
a(Vparagraph
VNN
tp717
a(V8
VCD
tp718
a(Vis
VVBZ
tp719
a(Vso
VRB
tp720
a(Vimportant
VJJ
tp721
a(Vto
VTO
tp722
a(Vthis
VDT
tp723
a(VParliament
VNNP
tp724
a(V,
V,
tp725
a(Vbecause
VIN
tp726
a(Vthat
VDT
tp727
a(Vis
VVBZ
tp728
a(Vthe
VDT
tp729
a(Vway
VNN
tp730
a(Vthat
VIN
tp731
a(Vwe
VPRP
tp732
a(Vcan
VMD
tp733
a(Vgive
VVB
tp734
a(Vdischarge
VNN
tp735
a(Vto
VTO
tp736
a(Vthe
VDT
tp737
a(VCommission
VNNP
tp738
a(V,
V,
tp739
a(Veven
VRB
tp740
a(Vwith
VIN
tp741
a(Vthe
VDT
tp742
a(VStatement
VNN
tp743
a(Vof
VIN
tp744
a(VAssurance
VNNP
tp745
a(Vbeing
VVBG
tp746
a(Vas
VIN
tp747
a(Vit
VPRP
tp748
a(Vis
VVBZ
tp749
a(V.
V.
tp750
aa(lp751
(VBinge
VVB
tp752
a(Vdrinking
VNN
tp753
a(Vin
VIN
tp754
a(Vparticular
VJJ
tp755
a(V,
V,
tp756
a(Vwhere
VWRB
tp757
a(Vyou
VPRP
tp758
a(Vliterally
VRB
tp759
a(Vdrank
VVBD
tp760
a(Vyourself
VPRP
tp761
a(Vunder
VIN
tp762
a(Vthe
VDT
tp763
a(Vtable
VNN
tp764
a(V,
V,
tp765
a(Vseemed
VVBD
tp766
a(Vto
VTO
tp767
a(Vbe
VVB
tp768
a(Vpopular
VJJ
tp769
a(V.
V.
tp770
aa(lp771
(VLast
VJJ
tp772
a(Vweek
VNN
tp773
a(V,
V,
tp774
a(Vin
VIN
tp775
a(Vthe
VDT
tp776
a(Vlight
VNN
tp777
a(Vof
VIN
tp778
a(Vthese
VDT
tp779
a(Vfacts
VNNS
tp780
a(V,
V,
tp781
a(Vthe
VDT
tp782
a(VCommission
VNNP
tp783
a(Vhanded
VNN
tp784
a(Vover
VIN
tp785
a(Vthe
VDT
tp786
a(Vfindings
VNNS
tp787
a(Vto
VTO
tp788
a(Vthe
VDT
tp789
a(Vrelevant
VJJ
tp790
a(Vlegal
VJJ
tp791
a(Vauthorities
VNNS
tp792
a(Vin
VIN
tp793
a(Vthe
VDT
tp794
a(VMember
VNNP
tp795
a(VState
VNNP
tp796
a(Vconcerned
VVBN
tp797
a(V.
V.
tp798
aa(lp799
(V(
VNN
tp800
a(VPL
VNN
tp801
a(V)
VCD
tp802
a(VMadam
VNNP
tp803
a(VPresident
VNNP
tp804
a(V,
V,
tp805
a(Vthe
VDT
tp806
a(Vmain
VJJ
tp807
a(Vinformation
VNN
tp808
a(Vthat
VWDT
tp809
a(VMember
VNNP
tp810
a(VStates
VNNPS
tp811
a(Vshould
VMD
tp812
a(Vbe
VVB
tp813
a(Vgathering
VVBG
tp814
a(Vis
VVBZ
tp815
a(Vthe
VDT
tp816
a(Vquantity
VNN
tp817
a(Vof
VIN
tp818
a(Vproducts
VNNS
tp819
a(Vapplied
VVBN
tp820
a(V.
V.
tp821
aa(lp822
(VSo
VRB
tp823
a(Vfar
VRB
tp824
a(V,
V,
tp825
a(Vwe
VPRP
tp826
a(Vonly
VRB
tp827
a(Vhave
VVBP
tp828
a(Vpreliminary
VJJ
tp829
a(Vdata
VNNS
tp830
a(Vbased
VVBN
tp831
a(Von
VIN
tp832
a(Vhypothetical
VJJ
tp833
a(Vscenarios
VNNS
tp834
a(V,
V,
tp835
a(Vand
VCC
tp836
a(Vfurther
VRB
tp837
a(Vexperimental
VJJ
tp838
a(Vdata
VNNS
tp839
a(Vis
VVBZ
tp840
a(Vrequired
VVBN
tp841
a(Vto
VTO
tp842
a(Vprovide
VVB
tp843
a(Va
VDT
tp844
a(Vmore
VRBR
tp845
a(Vaccurate
VJJ
tp846
a(Vpicture
VNN
tp847
a(V.
V.
tp848
aa(lp849
(VThis
VDT
tp850
a(Vis
VVBZ
tp851
a(Vwhy
VWRB
tp852
a(Vthe
VDT
tp853
a(VEU
VNNP
tp854
a(V,
V,
tp855
a(Vin
VIN
tp856
a(Vthe
VDT
tp857
a(Vpast
VNN
tp858
a(V,
V,
tp859
a(Vhas
VVBZ
tp860
a(Vbrought
VVBN
tp861
a(Vin
VIN
tp862
a(Vlegislation
VNN
tp863
a(Vfor
VIN
tp864
a(Vmaternity
VNN
tp865
a(Vand
VCC
tp866
a(Vpaternity
VNN
tp867
a(Vleave
VVBP
tp868
a(V.
V.
tp869
aa(lp870
(VIt
VPRP
tp871
a(Vseems
VVBZ
tp872
a(Vthat
VIN
tp873
a(V,
V,
tp874
a(Vwith
VIN
tp875
a(Vthe
VDT
tp876
a(Vassistance
VNN
tp877
a(Vof
VIN
tp878
a(Vthe
VDT
tp879
a(Vrapporteur
VNN
tp880
a(V,
V,
tp881
a(Vthese
VDT
tp882
a(Vhave
VVBP
tp883
a(Vnow
VRB
tp884
a(Vbeen
VVBN
tp885
a(Vresolved
VVBN
tp886
a(V.
V.
tp887
aa(lp888
(VIf
VIN
tp889
a(Vglobalisation
VNN
tp890
a(Vis
VVBZ
tp891
a(Vto
VTO
tp892
a(Vprovide
VVB
tp893
a(Vnew
VJJ
tp894
a(Vopportunities
VNNS
tp895
a(V,
V,
tp896
a(Vit
VPRP
tp897
a(Vmust
VMD
tp898
a(Vinclude
VVB
tp899
a(Vglobalisation
VNN
tp900
a(Vof
VIN
tp901
a(Vthe
VDT
tp902
a(Vhuman
VJJ
tp903
a(Vrights
VNNS
tp904
a(Vof
VIN
tp905
a(Vall
VDT
tp906
a(Vpeople
VNNS
tp907
a(V,
V,
tp908
a(Vglobalisation
VNN
tp909
a(Vof
VIN
tp910
a(Vfairness
VNN
tp911
a(Vand
VCC
tp912
a(Vglobalisation
VNN
tp913
a(Vof
VIN
tp914
a(Vequal
VJJ
tp915
a(Vopportunities
VNNS
tp916
a(V.
V.
tp917
aa(lp918
(VThis
VDT
tp919
a(Vis
VVBZ
tp920
a(Vnow
VRB
tp921
a(Vchanging
VVBG
tp922
a(V.
V.
tp923
aa(lp924
(VAccording
VVBG
tp925
a(Vto
VTO
tp926
a(Vthe
VDT
tp927
a(Vlatest
VJJS
tp928
a(Vfigures
VNNS
tp929
a(Vfrom
VIN
tp930
a(VEurostat
VNNP
tp931
a(V,
V,
tp932
a(Vthe
VDT
tp933
a(Vhighest
VJJS
tp934
a(Vrates
VNNS
tp935
a(Vof
VIN
tp936
a(Vunemployment
VNN
tp937
a(Vin
VIN
tp938
a(Vthe
VDT
tp939
a(VEU
VNNP
tp940
a(Vare
VVBP
tp941
a(Vin
VIN
tp942
a(Vthe
VDT
tp943
a(Vnew
VJJ
tp944
a(VMember
VNNP
tp945
a(VStates
VNNPS
tp946
a(V.
V.
tp947
aa(lp948
(VOn
VIN
tp949
a(Vthe
VDT
tp950
a(Vother
VJJ
tp951
a(Vhand
VNN
tp952
a(V,
V,
tp953
a(VI
VPRP
tp954
a(Vdo
VVBP
tp955
a(Vunderstand
VVB
tp956
a(Vthat
VIN
tp957
a(Vnot
VRB
tp958
a(Veveryone
VNN
tp959
a(Vwants
VVBZ
tp960
a(Vto
VTO
tp961
a(Vbe
VVB
tp962
a(Vintegrated
VVBN
tp963
a(V,
V,
tp964
a(Vof
VIN
tp965
a(Vcourse
VNN
tp966
a(V.
V.
tp967
aa(lp968
(VCharles-Hilaire
VNNP
tp969
a(VLaurent
VNNP
tp970
a(V,
V,
tp971
a(Va
VDT
tp972
a(Vmember
VNN
tp973
a(Vof
VIN
tp974
a(Vthe
VDT
tp975
a(VConvention
VNNP
tp976
a(V,
V,
tp977
a(Von
VIN
tp978
a(Vassignment
VNN
tp979
a(Vthere
VRB
tp980
a(V,
V,
tp981
a(Vwrote
VVBD
tp982
a(Vat
VIN
tp983
a(Vthe
VDT
tp984
a(Vtime
VNN
tp985
a(Vto
VTO
tp986
a(Vthe
VDT
tp987
a(VCouncil
VNNP
tp988
a(Vfor
VIN
tp989
a(VProtection
VNNP
tp990
a(Vof
VIN
tp991
a(Vthe
VDT
tp992
a(VPublic
VNN
tp993
a(V:
V:
tp994
a(V&apos;
VVB
tp995
a(VWe
VPRP
tp996
a(Vwill
VMD
tp997
a(Vtake
VVB
tp998
a(Vcare
VNN
tp999
a(Vto
VTO
tp1000
a(Vremove
VVB
tp1001
a(Veverything
VNN
tp1002
a(Vfrom
VIN
tp1003
a(Vthis
VDT
tp1004
a(Vcountry
VNN
tp1005
a(Vwhich
VWDT
tp1006
a(Vmight
VMD
tp1007
a(Vadorn
VVB
tp1008
a(Vit
VPRP
tp1009
a(Vand
VCC
tp1010
a(Vmake
VVB
tp1011
a(Vof
VIN
tp1012
a(Vit
VPRP
tp1013
a(Vthe
VDT
tp1014
a(Vmost
VRBS
tp1015
a(Vbeautiful
VJJ
tp1016
a(Vin
VIN
tp1017
a(Vthe
VDT
tp1018
a(Vuniverse
VNN
tp1019
a(V&apos;
VNN
tp1020
a(V.
V.
tp1021
aa(lp1022
(VThe
VDT
tp1023
a(VChinese
VJJ
tp1024
a(Vauthorities
VNNS
tp1025
a(Vhave
VVBP
tp1026
a(Vsuccessfully
VRB
tp1027
a(Vpersuaded
VVBN
tp1028
a(Vcompanies
VNNS
tp1029
a(Vsuch
VJJ
tp1030
a(Vas
VIN
tp1031
a(VYahoo
VNNP
tp1032
a(Vand
VCC
tp1033
a(VGoogle
VNNP
tp1034
a(Vto
VTO
tp1035
a(Vallow
VVB
tp1036
a(Vfiltering
VVBG
tp1037
a(Vof
VIN
tp1038
a(Vtheir
VPRP$
tp1039
a(Vsearch
VNN
tp1040
a(Vengines
VNNS
tp1041
a(V.
V.
tp1042
aa(lp1043
(VAfrica
VNNP
tp1044
a(Vmust
VMD
tp1045
a(Vnot
VRB
tp1046
a(Vbe
VVB
tp1047
a(Va
VDT
tp1048
a(Vterritory
VNN
tp1049
a(Vin
VIN
tp1050
a(Vwhich
VWDT
tp1051
a(Villegitimate
VJJ
tp1052
a(Vgovernments
VNNS
tp1053
a(Vare
VVBP
tp1054
a(Vaccepted
VVBN
tp1055
a(Vas
VIN
tp1056
a(Vthough
VIN
tp1057
a(Vthis
VDT
tp1058
a(Vwere
VVBD
tp1059
a(Van
VDT
tp1060
a(Vinevitability
VNN
tp1061
a(V.
V.
tp1062
aa(lp1063
(VHowever
VRB
tp1064
a(V,
V,
tp1065
a(Vthe
VDT
tp1066
a(VE-112
VNN
tp1067
a(Vhas
VVBZ
tp1068
a(Vnot
VRB
tp1069
a(Vbeen
VVBN
tp1070
a(Vpart
VNN
tp1071
a(Vof
VIN
tp1072
a(Vthe
VDT
tp1073
a(Vsolution
VNN
tp1074
a(V.
V.
tp1075
aa(lp1076
(VIn
VIN
tp1077
a(Vaccordance
VNN
tp1078
a(Vwith
VIN
tp1079
a(VRule
VNN
tp1080
a(V126
VCD
tp1081
a(V,
V,
tp1082
a(VI
VPRP
tp1083
a(Vhave
VVBP
tp1084
a(Vone
VCD
tp1085
a(Vminute
VNN
tp1086
a(Vto
VTO
tp1087
a(Vspeak
VVB
tp1088
a(Vagainst
VIN
tp1089
a(Vthe
VDT
tp1090
a(Vmotion
VNN
tp1091
a(V.
V.
tp1092
aa(lp1093
(VIt
VPRP
tp1094
a(Valso
VRB
tp1095
a(Vaims
VVBZ
tp1096
a(Vto
VTO
tp1097
a(Vremove
VVB
tp1098
a(Vobstacles
VNNS
tp1099
a(Vto
VTO
tp1100
a(Vcross-border
VJJ
tp1101
a(Vmobility
VNN
tp1102
a(Vand
VCC
tp1103
a(Vestablish
VVB
tp1104
a(Va
VDT
tp1105
a(VEuropean
VJJ
tp1106
a(VInsurance
VNN
tp1107
a(Vand
VCC
tp1108
a(VOccupational
VNNP
tp1109
a(VPensions
VNNPS
tp1110
a(VAuthority
VNNP
tp1111
a(Vwith
VIN
tp1112
a(Vresponsibility
VNN
tp1113
a(Vfor
VIN
tp1114
a(Vsetting
VVBG
tp1115
a(Vup
VRP
tp1116
a(Va
VDT
tp1117
a(Vsystem
VNN
tp1118
a(Vof
VIN
tp1119
a(Vcoordination
VNN
tp1120
a(Vin
VIN
tp1121
a(Vemergencies
VNNS
tp1122
a(Vand
VCC
tp1123
a(Vsupporting
VVBG
tp1124
a(VMember
VNNP
tp1125
a(VStates
VNNPS
tp1126
a(V.
V.
tp1127
aa(lp1128
(VThat
VDT
tp1129
a(Vis
VVBZ
tp1130
a(Vwhy
VWRB
tp1131
a(V,
V,
tp1132
a(Vbefore
VIN
tp1133
a(Vthe
VDT
tp1134
a(VCommission
VNNP
tp1135
a(Vtables
VNNS
tp1136
a(Va
VDT
tp1137
a(VMarco
VNNP
tp1138
a(VPolo
VNNP
tp1139
a(VIII
VNNP
tp1140
a(Vproposal
VNN
tp1141
a(V,
V,
tp1142
a(Vwe
VPRP
tp1143
a(Vreally
VRB
tp1144
a(Vneed
VVBP
tp1145
a(Va
VDT
tp1146
a(Vgeneral
VJJ
tp1147
a(Vdebate
VNN
tp1148
a(Vso
VIN
tp1149
a(Vthat
VIN
tp1150
a(Vwe
VPRP
tp1151
a(Vcan
VMD
tp1152
a(Vreintroduce
VVB
tp1153
a(Vall
VPDT
tp1154
a(Vthese
VDT
tp1155
a(Vpoints
VNNS
tp1156
a(Vwhich
VWDT
tp1157
a(Vare
VVBP
tp1158
a(Vnecessary
VJJ
tp1159
a(Vto
VTO
tp1160
a(Vour
VPRP$
tp1161
a(Vfuture
VJJ
tp1162
a(Vorientation
VNN
tp1163
a(V.
V.
tp1164
aa(lp1165
(VWhy
VWRB
tp1166
a(Vdo
VVBP
tp1167
a(Vyou
VPRP
tp1168
a(Vnot
VRB
tp1169
a(Vtake
VVB
tp1170
a(Vmeasures
VNNS
tp1171
a(Vagainst
VIN
tp1172
a(VChina
VNNP
tp1173
a(V?
V.
tp1174
aa(lp1175
(VBasically
VRB
tp1176
a(V,
V,
tp1177
a(Vthe
VDT
tp1178
a(Vmore
VRBR
tp1179
a(Vwe
VPRP
tp1180
a(Vlose
VVBP
tp1181
a(Vour
VPRP$
tp1182
a(Vgrip
VNN
tp1183
a(Von
VIN
tp1184
a(Vmorals
VNNS
tp1185
a(V,
V,
tp1186
a(Vthe
VDT
tp1187
a(Vmore
VRBR
tp1188
a(Vwe
VPRP
tp1189
a(Vtighten
VVBP
tp1190
a(Vour
VPRP$
tp1191
a(Vgrip
VNN
tp1192
a(Von
VIN
tp1193
a(Vour
VPRP$
tp1194
a(Vwallet
VNN
tp1195
a(V.
V.
tp1196
aa(lp1197
(VIt
VPRP
tp1198
a(Vwas
VVBD
tp1199
a(Vas
VIN
tp1200
a(Vif
VIN
tp1201
a(Vthe
VDT
tp1202
a(Vworld
VNN
tp1203
a(Vdid
VVBD
tp1204
a(Vnot
VRB
tp1205
a(Vappear
VVB
tp1206
a(Vsufficiently
VRB
tp1207
a(Vinteresting
VJJ
tp1208
a(Vto
VTO
tp1209
a(Vman
VVB
tp1210
a(Vto
VTO
tp1211
a(Vprompt
VVB
tp1212
a(Vhim
VPRP
tp1213
a(Vto
VTO
tp1214
a(Vbring
VVB
tp1215
a(Vchildren
VNNS
tp1216
a(Vinto
VIN
tp1217
a(Vexistence
VNN
tp1218
a(V.
V.
tp1219
aa(lp1220
(VOne
VCD
tp1221
a(Vof
VIN
tp1222
a(Vmy
VPRP$
tp1223
a(VDutch
VJJ
tp1224
a(Vfriends
VNNS
tp1225
a(Vis
VVBZ
tp1226
a(Vterrified
VVBN
tp1227
a(Vthat
VIN
tp1228
a(Vhis
VPRP$
tp1229
a(VFrench
VJJ
tp1230
a(Vex-wife
VNN
tp1231
a(Vwill
VMD
tp1232
a(Vabduct
VVB
tp1233
a(Vthe
VDT
tp1234
a(Vchildren
VNNS
tp1235
a(Vand
VCC
tp1236
a(Vhe
VPRP
tp1237
a(Vwill
VMD
tp1238
a(Vnever
VRB
tp1239
a(Vsee
VVB
tp1240
a(Vthem
VPRP
tp1241
a(Vagain
VRB
tp1242
a(V.
V.
tp1243
aa(lp1244
(VBetween
VIN
tp1245
a(V1990
VCD
tp1246
a(Vand
VCC
tp1247
a(V2000
VCD
tp1248
a(V,
V,
tp1249
a(Vresearch
VNN
tp1250
a(Vand
VCC
tp1251
a(Vdevelopment
VNN
tp1252
a(Vexpenditure
VNN
tp1253
a(Vgrew
VVBD
tp1254
a(Vat
VIN
tp1255
a(Vtwice
VRB
tp1256
a(Vthe
VDT
tp1257
a(Vrate
VNN
tp1258
a(Vin
VIN
tp1259
a(Vthe
VDT
tp1260
a(VUS
VNNP
tp1261
a(Vcompared
VVBN
tp1262
a(Vwith
VIN
tp1263
a(VEurope
VNNP
tp1264
a(V.
V.
tp1265
aa(lp1266
(VThey
VPRP
tp1267
a(Vwere
VVBD
tp1268
a(Vshown
VVBN
tp1269
a(Vup
VRP
tp1270
a(Vas
VIN
tp1271
a(Vforgers
VNNS
tp1272
a(Vof
VIN
tp1273
a(Vdata
VNNS
tp1274
a(V,
V,
tp1275
a(Vforgers
VNNS
tp1276
a(Vof
VIN
tp1277
a(Vclimate
VNN
tp1278
a(Vcomputer
VNN
tp1279
a(Vmodels
VNNS
tp1280
a(V,
V,
tp1281
a(Vhiders
VNNS
tp1282
a(Vof
VIN
tp1283
a(Vinconvenient
VJJ
tp1284
a(Vdata
VNNS
tp1285
a(Vand
VCC
tp1286
a(Vconspirators
VNNS
tp1287
a(Vwith
VIN
tp1288
a(VObama
VNNP
tp1289
a(V&apos;s
VNNS
tp1290
a(Vgreen
VJJ
tp1291
a(Vminions
VNNS
tp1292
a(V.
V.
tp1293
aa(lp1294
(VThe
VDT
tp1295
a(Vstatistics
VNNS
tp1296
a(Vbeggar
VNN
tp1297
a(Vbelief
VNN
tp1298
a(V.
V.
tp1299
aa(lp1300
(VMany
VJJ
tp1301
a(VUK
VNNP
tp1302
a(Vsupermarket
VNN
tp1303
a(Vchains
VNNS
tp1304
a(Vfor
VIN
tp1305
a(Vthis
VDT
tp1306
a(Vreason
VNN
tp1307
a(Vhave
VVBP
tp1308
a(Vaimed
VVBN
tp1309
a(Vto
VTO
tp1310
a(Vdo
VVB
tp1311
a(Vaway
VRB
tp1312
a(Vwith
VIN
tp1313
a(Va
VDT
tp1314
a(Vpractice
VNN
tp1315
a(Vthey
VPRP
tp1316
a(Vhave
VVBP
tp1317
a(Vpreviously
VRB
tp1318
a(Vadopted
VVBN
tp1319
a(V.
V.
tp1320
aa(lp1321
(VOf
VIN
tp1322
a(Vcourse
VNN
tp1323
a(V,
V,
tp1324
a(Vthat
VWDT
tp1325
a(Vsolution
VNN
tp1326
a(Vhas
VVBZ
tp1327
a(Vnegative
VJJ
tp1328
a(Vaspects
VNNS
tp1329
a(V,
V,
tp1330
a(Vit
VPRP
tp1331
a(Vrequires
VVBZ
tp1332
a(Vhuge
VJJ
tp1333
a(Vadministrative
VJJ
tp1334
a(Vintervention
VNN
tp1335
a(V,
V,
tp1336
a(Vmeasures
VNNS
tp1337
a(Vand
VCC
tp1338
a(Vcontrols
VNNS
tp1339
a(V,
V,
tp1340
a(Vand
VCC
tp1341
a(Vit
VPRP
tp1342
a(Vwould
VMD
tp1343
a(Vbe
VVB
tp1344
a(Vvery
VRB
tp1345
a(Vcostly
VJJ
tp1346
a(V.
V.
tp1347
aa(lp1348
(VVery
VRB
tp1349
a(Vsoon
VRB
tp1350
a(Vthe
VDT
tp1351
a(VBasque
VJJ
tp1352
a(VCountry
VNN
tp1353
a(Vwill
VMD
tp1354
a(Vhave
VVB
tp1355
a(Vthe
VDT
tp1356
a(Vopportunity
VNN
tp1357
a(Vto
VTO
tp1358
a(Vspeak
VVB
tp1359
a(Vfreely
VRB
tp1360
a(Vthrough
VIN
tp1361
a(Vthe
VDT
tp1362
a(Vballot
VNN
tp1363
a(Vbox
VNN
tp1364
a(Vand
VCC
tp1365
a(Vthen
VRB
tp1366
a(VMr
VNNP
tp1367
a(VGorostiaga
VNNP
tp1368
a(Vwill
VMD
tp1369
a(Vsee
VVB
tp1370
a(Vthe
VDT
tp1371
a(Vresults
VNNS
tp1372
a(Vof
VIN
tp1373
a(Vthe
VDT
tp1374
a(Vhorror
VNN
tp1375
a(Vhe
VPRP
tp1376
a(Vbrings
VVBZ
tp1377
a(Vto
VTO
tp1378
a(Vthis
VDT
tp1379
a(VHouse
VNNP
tp1380
a(V.
V.
tp1381
aa(lp1382
(VMeanwhile
VRB
tp1383
a(V,
V,
tp1384
a(Vwe
VPRP
tp1385
a(Vcould
VMD
tp1386
a(Venvisage
VVB
tp1387
a(Vbuying
VVBG
tp1388
a(Vgas
VNN
tp1389
a(Vdirectly
VRB
tp1390
a(Vfrom
VIN
tp1391
a(VRussia
VNNP
tp1392
a(Vat
VIN
tp1393
a(Vthe
VDT
tp1394
a(VRussian-Ukrainian
VJJ
tp1395
a(Vborder
VNN
tp1396
a(V.
V.
tp1397
aa(lp1398
(VSuch
VJJ
tp1399
a(Vviolent
VJJ
tp1400
a(Vcrimes
VNNS
tp1401
a(Vhave
VVBP
tp1402
a(Va
VDT
tp1403
a(Vmajor
VJJ
tp1404
a(Vimpact
VNN
tp1405
a(Von
VIN
tp1406
a(Vand
VCC
tp1407
a(Vdo
VVB
tp1408
a(Virreparable
VJJ
tp1409
a(Vdamage
VNN
tp1410
a(Vto
VTO
tp1411
a(Va
VDT
tp1412
a(Vwoman
VNN
tp1413
a(V&apos;s
VVBZ
tp1414
a(Vphysical
VJJ
tp1415
a(Vand
VCC
tp1416
a(Vmental
VJJ
tp1417
a(Vhealth
VNN
tp1418
a(V,
V,
tp1419
a(Vand
VCC
tp1420
a(Vtherefore
VRB
tp1421
a(Vthe
VDT
tp1422
a(VMember
VNNP
tp1423
a(VStates
VNNPS
tp1424
a(Vshould
VMD
tp1425
a(Vensure
VVB
tp1426
a(Vbetter
VJJR
tp1427
a(Vhealthcare
VNN
tp1428
a(Vfor
VIN
tp1429
a(Vthe
VDT
tp1430
a(Vvictims
VNNS
tp1431
a(Vof
VIN
tp1432
a(Vviolence
VNN
tp1433
a(V.
V.
tp1434
aa(lp1435
(VThis
VDT
tp1436
a(Vis
VVBZ
tp1437
a(Va
VDT
tp1438
a(Vvery
VRB
tp1439
a(Vdepressing
VJJ
tp1440
a(Vsituation
VNN
tp1441
a(V,
V,
tp1442
a(Vand
VCC
tp1443
a(Vconfidence
VNN
tp1444
a(Vin
VIN
tp1445
a(Vthe
VDT
tp1446
a(Vwhole
VJJ
tp1447
a(VUnion
VNNP
tp1448
a(Vis
VVBZ
tp1449
a(Vbeing
VVBG
tp1450
a(Vundermined
VVBN
tp1451
a(V.
V.
tp1452
aa(lp1453
(VI
VPRP
tp1454
a(Vfind
VVBP
tp1455
a(Vcomments
VNNS
tp1456
a(Vmade
VVBN
tp1457
a(Vthis
VDT
tp1458
a(Vweek
VNN
tp1459
a(Vin
VIN
tp1460
a(VDublin
VNNP
tp1461
a(Vby
VIN
tp1462
a(Va
VDT
tp1463
a(Vscientist
VNN
tp1464
a(VDr
VNNP
tp1465
a(VSue
VNNP
tp1466
a(VLon
VNNP
tp1467
a(V-
V:
tp1468
a(Vwho
VWP
tp1469
a(Vis
VVBZ
tp1470
a(VBNFL
VNNP
tp1471
a(V&apos;s
VNNS
tp1472
a(Vdirector
VNN
tp1473
a(Vof
VIN
tp1474
a(Voperations
VNNS
tp1475
a(Vand
VCC
tp1476
a(Vtechnology
VNN
tp1477
a(V-
V:
tp1478
a(Vthat
VIN
tp1479
a(Vthe
VDT
tp1480
a(VUK
VNNP
tp1481
a(Vhas
VVBZ
tp1482
a(Va
VDT
tp1483
a(Vsafety
VNN
tp1484
a(Vrecord
VNN
tp1485
a(Vwhich
VWDT
tp1486
a(Vwould
VMD
tp1487
a(Vbear
VVB
tp1488
a(Vup
VRP
tp1489
a(Vto
VTO
tp1490
a(Vthe
VDT
tp1491
a(Vclosest
VJJS
tp1492
a(Vscrutiny
VNN
tp1493
a(Vrather
VRB
tp1494
a(Vsickening
VJJ
tp1495
a(V.
V.
tp1496
aa(lp1497
(VWe
VPRP
tp1498
a(Vmust
VMD
tp1499
a(Vbear
VVB
tp1500
a(Vthis
VDT
tp1501
a(Vin
VIN
tp1502
a(Vmind
VNN
tp1503
a(Vat
VIN
tp1504
a(Vall
VDT
tp1505
a(Vtimes
VNNS
tp1506
a(V.
V.
tp1507
aa(lp1508
(VFor
VIN
tp1509
a(Vus
VPRP
tp1510
a(V,
V,
tp1511
a(Vit
VPRP
tp1512
a(Vis
VVBZ
tp1513
a(Va
VDT
tp1514
a(Vstage
VNN
tp1515
a(Vin
VIN
tp1516
a(Vimplementing
VVBG
tp1517
a(Vwider
VJJR
tp1518
a(Vlegal
VJJ
tp1519
a(Vprotection
VNN
tp1520
a(V.
V.
tp1521
aa(lp1522
(VToday
VNN
tp1523
a(V,
V,
tp1524
a(Vthere
VEX
tp1525
a(Vare
VVBP
tp1526
a(Vmore
VRBR
tp1527
a(V22
VCD
tp1528
a(Vmillion
VCD
tp1529
a(Vuprooted
VVBD
tp1530
a(Vpeople
VNNS
tp1531
a(Vin
VIN
tp1532
a(Vthe
VDT
tp1533
a(Vworld
VNN
tp1534
a(Vand
VCC
tp1535
a(Vthat
VDT
tp1536
a(Vfigure
VNN
tp1537
a(Vis
VVBZ
tp1538
a(Vincreasing
VVBG
tp1539
a(V.
V.
tp1540
aa(lp1541
(VThis
VDT
tp1542
a(Vcomes
VVBZ
tp1543
a(Vback
VRB
tp1544
a(V,
V,
tp1545
a(Vto
VTO
tp1546
a(Va
VDT
tp1547
a(Vlarge
VJJ
tp1548
a(Vdegree
VNN
tp1549
a(V,
V,
tp1550
a(Vto
VTO
tp1551
a(Vthe
VDT
tp1552
a(Vfact
VNN
tp1553
a(Vthat
VIN
tp1554
a(Varound
VIN
tp1555
a(V80
VCD
tp1556
a(V%
VNN
tp1557
a(Vof
VIN
tp1558
a(VEU
VNNP
tp1559
a(Vresources
VNNS
tp1560
a(Vare
VVBP
tp1561
a(Vtransferred
VVBN
tp1562
a(Vback
VRB
tp1563
a(Vto
VTO
tp1564
a(Vthe
VDT
tp1565
a(VMember
VNNP
tp1566
a(VStates
VNNPS
tp1567
a(Vand
VCC
tp1568
a(Vare
VVBP
tp1569
a(Vadministered
VVBN
tp1570
a(Vthere
VRB
tp1571
a(V,
V,
tp1572
a(Vwhich
VWDT
tp1573
a(Vmeans
VVBZ
tp1574
a(Vthat
VIN
tp1575
a(Vthe
VDT
tp1576
a(Vchances
VNNS
tp1577
a(Vof
VIN
tp1578
a(Vputting
VVBG
tp1579
a(Vtogether
VRP
tp1580
a(Van
VDT
tp1581
a(Voverall
VJJ
tp1582
a(Vpicture
VNN
tp1583
a(Vare
VVBP
tp1584
a(Vhighly
VRB
tp1585
a(Vvariable
VJJ
tp1586
a(V,
V,
tp1587
a(Vgiven
VVBN
tp1588
a(Vthe
VDT
tp1589
a(Vmany
VJJ
tp1590
a(Vforms
VNNS
tp1591
a(Vand
VCC
tp1592
a(Vinconsistent
VJJ
tp1593
a(Vquality
VNN
tp1594
a(Vof
VIN
tp1595
a(Vthe
VDT
tp1596
a(Vadministration
VNN
tp1597
a(Vat
VIN
tp1598
a(Vnational
VJJ
tp1599
a(Vlevel
VNN
tp1600
a(V.
V.
tp1601
aa(lp1602
(VThere
VEX
tp1603
a(Vis
VVBZ
tp1604
a(Valso
VRB
tp1605
a(Va
VDT
tp1606
a(Vproposed
VVBN
tp1607
a(Vamendment
VNN
tp1608
a(Vto
VTO
tp1609
a(Vboth
VDT
tp1610
a(Vof
VIN
tp1611
a(VMrs
VNNP
tp1612
a(VDe
VNNP
tp1613
a(VPalacio
VNNP
tp1614
a(V&apos;
VNNP
tp1615
a(Vs
VVBZ
tp1616
a(Vreports
VNNS
tp1617
a(V.
V.
tp1618
aa(lp1619
(VGreat
VJJ
tp1620
a(Veconomic
VJJ
tp1621
a(Vinsecurity
VNN
tp1622
a(Vlies
VVBZ
tp1623
a(Vin
VIN
tp1624
a(Vstore
VNN
tp1625
a(Vfor
VIN
tp1626
a(Vthe
VDT
tp1627
a(Vcandidate
VNN
tp1628
a(Vcountries
VNNS
tp1629
a(V,
V,
tp1630
a(Vand
VCC
tp1631
a(Vwe
VPRP
tp1632
a(Vhave
VVBP
tp1633
a(Vto
VTO
tp1634
a(Vget
VVB
tp1635
a(Vthem
VPRP
tp1636
a(Vto
VTO
tp1637
a(Vunderstand
VVB
tp1638
a(Vthat
VIN
tp1639
a(Vwe
VPRP
tp1640
a(Vknow
VVBP
tp1641
a(Vwhat
VWP
tp1642
a(Vdifficulties
VNNS
tp1643
a(Vthey
VPRP
tp1644
a(Vwill
VMD
tp1645
a(Vface
VVB
tp1646
a(V.
V.
tp1647
aa(lp1648
(VThe
VDT
tp1649
a(Vdeadlines
VNNS
tp1650
a(Vhave
VVBP
tp1651
a(Vbeen
VVBN
tp1652
a(Vvery
VRB
tp1653
a(Vshort
VJJ
tp1654
a(Vand
VCC
tp1655
a(Vthe
VDT
tp1656
a(Vpackage
VNN
tp1657
a(Vis
VVBZ
tp1658
a(Vchallenging
VVBG
tp1659
a(Vand
VCC
tp1660
a(Vcomplicated
VVBN
tp1661
a(V.
V.
tp1662
aa(lp1663
(VAsylum-seekers
VNNS
tp1664
a(Vare
VVBP
tp1665
a(Vaccordingly
VRB
tp1666
a(Vdenigrated
VVBN
tp1667
a(Vas
VIN
tp1668
a(Vbeing
VVBG
tp1669
a(Va
VDT
tp1670
a(Vburden
VNN
tp1671
a(V.
V.
tp1672
aa(lp1673
(VThis
VDT
tp1674
a(Vreflects
VVBZ
tp1675
a(Vthe
VDT
tp1676
a(Vfact
VNN
tp1677
a(Vthat
VIN
tp1678
a(Vproduct
VNN
tp1679
a(Vdevelopment
VNN
tp1680
a(Vand
VCC
tp1681
a(Vthe
VDT
tp1682
a(Vexperimental
VJJ
tp1683
a(Vphase
VNN
tp1684
a(Vcan
VMD
tp1685
a(Vbe
VVB
tp1686
a(Vparticularly
VRB
tp1687
a(Vlong
VRB
tp1688
a(Vfor
VIN
tp1689
a(Vthose
VDT
tp1690
a(Vcompanies
VNNS
tp1691
a(Vand
VCC
tp1692
a(Vthat
VIN
tp1693
a(V,
V,
tp1694
a(Vduring
VIN
tp1695
a(Vthat
VDT
tp1696
a(Vtime
VNN
tp1697
a(V,
V,
tp1698
a(Vthey
VPRP
tp1699
a(Vneed
VVBP
tp1700
a(Vaccess
VNN
tp1701
a(Vto
VTO
tp1702
a(Vrisk
VVB
tp1703
a(Vcapital
VNN
tp1704
a(Vin
VIN
tp1705
a(Vorder
VNN
tp1706
a(Vto
VTO
tp1707
a(Vcontinue
VVB
tp1708
a(Vtheir
VPRP$
tp1709
a(Vbusiness
VNN
tp1710
a(V.
V.
tp1711
aa(lp1712
(VIt
VPRP
tp1713
a(Vis
VVBZ
tp1714
a(Vworrying
VVBG
tp1715
a(Vthat
VIN
tp1716
a(Vthe
VDT
tp1717
a(VEU
VNNP
tp1718
a(V,
V,
tp1719
a(Vdespite
VIN
tp1720
a(Vhaving
VVBG
tp1721
a(Vworked
VVBN
tp1722
a(Vout
VRP
tp1723
a(Va
VDT
tp1724
a(Vcommon
VJJ
tp1725
a(Vposition
VNN
tp1726
a(V,
V,
tp1727
a(Vwas
VVBD
tp1728
a(Vnot
VRB
tp1729
a(Vable
VJJ
tp1730
a(Vto
VTO
tp1731
a(Vuse
VVB
tp1732
a(Vit
VPRP
tp1733
a(Vas
VIN
tp1734
a(Va
VDT
tp1735
a(Vplatform
VNN
tp1736
a(Vfor
VIN
tp1737
a(Van
VDT
tp1738
a(Vagreement
VNN
tp1739
a(Vwith
VIN
tp1740
a(Vother
VJJ
tp1741
a(Vcountries
VNNS
tp1742
a(V.
V.
tp1743
aa(lp1744
(VThis
VDT
tp1745
a(Vis
VVBZ
tp1746
a(Vnot
VRB
tp1747
a(Vthe
VDT
tp1748
a(Vcase
VNN
tp1749
a(Vat
VIN
tp1750
a(Vall
VDT
tp1751
a(V.
V.
tp1752
a(VNo
VDT
tp1753
a(Vmore
VRBR
tp1754
a(Vso
VRB
tp1755
a(V,
V,
tp1756
a(Vin
VIN
tp1757
a(Vactual
VJJ
tp1758
a(Vfact
VNN
tp1759
a(V,
V,
tp1760
a(Vthan
VIN
tp1761
a(Vis
VVBZ
tp1762
a(Vthe
VDT
tp1763
a(Vguarantee
VNN
tp1764
a(Vof
VIN
tp1765
a(Vfreedom
VNN
tp1766
a(Vof
VIN
tp1767
a(Vexpression
VNN
tp1768
a(Vor
VCC
tp1769
a(Va
VDT
tp1770
a(Vfair
VJJ
tp1771
a(Vhearing
VNN
tp1772
a(V.
V.
tp1773
aa(lp1774
(VWe
VPRP
tp1775
a(Vmust
VMD
tp1776
a(Vconsider
VVB
tp1777
a(Vwhat
VWP
tp1778
a(Vhappened
VVBD
tp1779
a(Vin
VIN
tp1780
a(Vthe
VDT
tp1781
a(Vpast
VNN
tp1782
a(Vwhich
VWDT
tp1783
a(Vwas
VVBD
tp1784
a(Vthe
VDT
tp1785
a(Vcause
VNN
tp1786
a(Vof
VIN
tp1787
a(Vall
VPDT
tp1788
a(Vthis
VDT
tp1789
a(V.
V.
tp1790
aa(lp1791
(VUnderstandably
VRB
tp1792
a(V,
V,
tp1793
a(Vindustry
VNN
tp1794
a(Vnever
VRB
tp1795
a(Vlikes
VVBZ
tp1796
a(Vuncertainty
VNN
tp1797
a(V.
V.
tp1798
aa(lp1799
(VWhen
VWRB
tp1800
a(Vthe
VDT
tp1801
a(VCommissioner
VNNP
tp1802
a(Vsent
VVBD
tp1803
a(Van
VDT
tp1804
a(Ve-mail
VNN
tp1805
a(Vto
VTO
tp1806
a(Va
VDT
tp1807
a(Vnumber
VNN
tp1808
a(Vof
VIN
tp1809
a(VFinnish
VJJ
tp1810
a(VMEPs
VNNS
tp1811
a(Vlast
VJJ
tp1812
a(Vweek
VNN
tp1813
a(V,
V,
tp1814
a(VParliament
VNNP
tp1815
a(V\u2019
VCD
tp1816
a(Vs
VNNS
tp1817
a(Vspam
VVBP
tp1818
a(Vprogram
VNN
tp1819
a(Vlabelled
VVBN
tp1820
a(Vit
VPRP
tp1821
a(Vas
VIN
tp1822
a(V\u2018
VNN
tp1823
a(Vsuspected
VVBN
tp1824
a(Vspam
VNN
tp1825
a(V\u2019
VNN
tp1826
a(V,
V,
tp1827
a(Vnot
VRB
tp1828
a(Vhowever
VRB
tp1829
a(Vwith
VIN
tp1830
a(Vthe
VDT
tp1831
a(Vlabel
VNN
tp1832
a(V\u2018
VRB
tp1833
a(Vsuspected
VVBN
tp1834
a(Vhigh
VJJ
tp1835
a(V\u2019
VNN
tp1836
a(V,
V,
tp1837
a(Vbut
VCC
tp1838
a(V\u2018
VRB
tp1839
a(Vsuspected
VVBN
tp1840
a(Vlow
VJJ
tp1841
a(V\u2019
VNN
tp1842
a(V.
V.
tp1843
aa(lp1844
(VYesterday
VNN
tp1845
a(Vthe
VDT
tp1846
a(Vfarming
VVBG
tp1847
a(Vpress
VNN
tp1848
a(Vwas
VVBD
tp1849
a(Valready
VRB
tp1850
a(Vtelling
VVBG
tp1851
a(Vus
VPRP
tp1852
a(Vthat
VIN
tp1853
a(Vland
VNN
tp1854
a(Vand
VCC
tp1855
a(Vanimal
VNN
tp1856
a(Vpremiums
VNNS
tp1857
a(Vwere
VVBD
tp1858
a(Vto
VTO
tp1859
a(Vremain
VVB
tp1860
a(Vthe
VDT
tp1861
a(Vbasis
VNN
tp1862
a(Vof
VIN
tp1863
a(Vfuture
VJJ
tp1864
a(VEU
VNNP
tp1865
a(Vagricultural
VJJ
tp1866
a(Vpolicy
VNN
tp1867
a(V.
V.
tp1868
aa(lp1869
(VWe
VPRP
tp1870
a(Vadopted
VVBD
tp1871
a(Va
VDT
tp1872
a(Vdirective
VNN
tp1873
a(Vin
VIN
tp1874
a(V1992
VCD
tp1875
a(V,
V,
tp1876
a(Vand
VCC
tp1877
a(Vnow
VRB
tp1878
a(Vwe
VPRP
tp1879
a(Vare
VVBP
tp1880
a(Veven
VRB
tp1881
a(Vcontravening
VVBG
tp1882
a(Vthe
VDT
tp1883
a(Vactual
VJJ
tp1884
a(Vsolvency
VNN
tp1885
a(Vratio
VNN
tp1886
a(Vdirective
VNN
tp1887
a(V.
V.
tp1888
aa(lp1889
(VWith
VIN
tp1890
a(Vthis
VDT
tp1891
a(Vin
VIN
tp1892
a(Vmind
VNN
tp1893
a(V,
V,
tp1894
a(Vwe
VPRP
tp1895
a(Vshould
VMD
tp1896
a(Vtake
VVB
tp1897
a(Vthe
VDT
tp1898
a(Vcentury-old
VJJ
tp1899
a(VBiblical
VJJ
tp1900
a(Vcommandment
VNN
tp1901
a(V&quot;
VNN
tp1902
a(Vlove
VNN
tp1903
a(Vthy
VPRP$
tp1904
a(Vneighbour
VNN
tp1905
a(Vlike
VIN
tp1906
a(Vthyself
VNN
tp1907
a(V&quot;
VNN
tp1908
a(Vto
VTO
tp1909
a(Vheart
VNN
tp1910
a(V.
V.
tp1911
aa(lp1912
(VThere
VRB
tp1913
a(V,
V,
tp1914
a(Vthe
VDT
tp1915
a(Vnew
VJJ
tp1916
a(Vtext
VNN
tp1917
a(Vpresented
VVBN
tp1918
a(Vby
VIN
tp1919
a(Vthe
VDT
tp1920
a(Vchairman
VNN
tp1921
a(Vhas
VVBZ
tp1922
a(Vcreated
VVBN
tp1923
a(Va
VDT
tp1924
a(Vgreater
VJJR
tp1925
a(Vfluidity
VNN
tp1926
a(Vin
VIN
tp1927
a(Vthe
VDT
tp1928
a(Vnegotiations
VNNS
tp1929
a(V,
V,
tp1930
a(Vrather
VRB
tp1931
a(Vthan
VIN
tp1932
a(Vmore
VJJR
tp1933
a(Vconcrete
VJJ
tp1934
a(Vfoundations
VNNS
tp1935
a(V.
V.
tp1936
aa(lp1937
(VAfter
VIN
tp1938
a(Vswine
VNNS
tp1939
a(Vfever
VNN
tp1940
a(Vand
VCC
tp1941
a(VBSE
VNN
tp1942
a(V,
V,
tp1943
a(Vconsumers
VNNS
tp1944
a(Vwant
VVBP
tp1945
a(Vmore
VJJR
tp1946
a(Vthan
VIN
tp1947
a(Vever
VRB
tp1948
a(Vto
VTO
tp1949
a(Vbe
VVB
tp1950
a(Vinformed
VVBN
tp1951
a(Vabout
VIN
tp1952
a(Vwhat
VWP
tp1953
a(Vthey
VPRP
tp1954
a(Vare
VVBP
tp1955
a(Veating
VVBG
tp1956
a(V.
V.
tp1957
aa(lp1958
(VIt
VPRP
tp1959
a(Vis
VVBZ
tp1960
a(Vbeneath
VIN
tp1961
a(Vthe
VDT
tp1962
a(Vdignity
VNN
tp1963
a(Vof
VIN
tp1964
a(Vthis
VDT
tp1965
a(VHouse
VNNP
tp1966
a(Vto
VTO
tp1967
a(Vpostpone
VVB
tp1968
a(Vsuch
VPDT
tp1969
a(Va
VDT
tp1970
a(Vdebate
VNN
tp1971
a(Vto
VTO
tp1972
a(Vthe
VDT
tp1973
a(Vevening
VNN
tp1974
a(Vsitting
VVBG
tp1975
a(V.
V.
tp1976
aa(lp1977
(VFinancial
VNNP
tp1978
a(Vmanagement
VNN
tp1979
a(Vand
VCC
tp1980
a(Vthe
VDT
tp1981
a(Vlegislation
VNN
tp1982
a(Vitself
VPRP
tp1983
a(Vare
VVBP
tp1984
a(Vunacceptably
VRB
tp1985
a(Vbad
VJJ
tp1986
a(V.
V.
tp1987
aa(lp1988
(VGradually
VRB
tp1989
a(Vand
VCC
tp1990
a(Vprogressively
VRB
tp1991
a(V.
V.
tp1992
aa(lp1993
(VThis
VDT
tp1994
a(Vreport
VNN
tp1995
a(Vpoints
VVBZ
tp1996
a(Vout
VRP
tp1997
a(Vthe
VDT
tp1998
a(Vconcern
VNN
tp1999
a(Vabout
VIN
tp2000
a(Vthe
VDT
tp2001
a(Vinsufficient
VJJ
tp2002
a(Vprogress
VNN
tp2003
a(Vmade
VVBN
tp2004
a(Vby
VIN
tp2005
a(VMember
VNNP
tp2006
a(VStates
VNNPS
tp2007
a(Vtoward
VIN
tp2008
a(Vachieving
VVBG
tp2009
a(Vequality
VNN
tp2010
a(Vbetween
VIN
tp2011
a(Vmen
VNNS
tp2012
a(Vand
VCC
tp2013
a(Vwomen
VNNS
tp2014
a(V.
V.
tp2015
aa(lp2016
(VThe
VDT
tp2017
a(Vconsequence
VNN
tp2018
a(Vwill
VMD
tp2019
a(Vbe
VVB
tp2020
a(Vseries
VNN
tp2021
a(Vproduction
VNN
tp2022
a(Vof
VIN
tp2023
a(Vliving
VVBG
tp2024
a(Vbeings
VNNS
tp2025
a(Voutside
VIN
tp2026
a(Vthe
VDT
tp2027
a(Vlaws
VNNS
tp2028
a(Vof
VIN
tp2029
a(Vnature
VNN
tp2030
a(V,
V,
tp2031
a(Vand
VCC
tp2032
a(Vinstead
VRB
tp2033
a(Vof
VIN
tp2034
a(Vanimals
VNNS
tp2035
a(Vbeing
VVBG
tp2036
a(Vbred
VVBN
tp2037
a(Vby
VIN
tp2038
a(Vnatural
VJJ
tp2039
a(Vreproduction
VNN
tp2040
a(Vthey
VPRP
tp2041
a(Vwill
VMD
tp2042
a(Vbe
VVB
tp2043
a(Vproduced
VVBN
tp2044
a(Vnon-sexually
VRB
tp2045
a(V,
V,
tp2046
a(Vlike
VIN
tp2047
a(Vplant
VNN
tp2048
a(Vcuttings
VNNS
tp2049
a(V.
V.
tp2050
aa(lp2051
(VI
VPRP
tp2052
a(Vtherefore
VRB
tp2053
a(Vhope
VVBP
tp2054
a(V,
V,
tp2055
a(Vfirstly
VRB
tp2056
a(V,
V,
tp2057
a(Vthat
VIN
tp2058
a(Vour
VPRP$
tp2059
a(Vfellow
VJJ
tp2060
a(VMembers
VNNS
tp2061
a(Vwill
VMD
tp2062
a(Vsupport
VVB
tp2063
a(Vus
VPRP
tp2064
a(Vin
VIN
tp2065
a(Vthe
VDT
tp2066
a(Vconciliation
VNN
tp2067
a(V-
V:
tp2068
a(Vbut
VCC
tp2069
a(Vvotes
VNNS
tp2070
a(Von
VIN
tp2071
a(Vthis
VDT
tp2072
a(Varea
VNN
tp2073
a(Vare
VVBP
tp2074
a(Valways
VRB
tp2075
a(Vvery
VRB
tp2076
a(Vmuch
VJJ
tp2077
a(Vin
VIN
tp2078
a(Vagreement
VNN
tp2079
a(V-
V:
tp2080
a(Vbut
VCC
tp2081
a(Valso
VRB
tp2082
a(Vthat
VIN
tp2083
a(Vthe
VDT
tp2084
a(VCouncil
VNNP
tp2085
a(Vand
VCC
tp2086
a(Vthe
VDT
tp2087
a(VCommission
VNNP
tp2088
a(Vwill
VMD
tp2089
a(Vmanage
VVB
tp2090
a(Vto
VTO
tp2091
a(Vlisten
VVB
tp2092
a(Vto
VTO
tp2093
a(Vus
VPRP
tp2094
a(Vand
VCC
tp2095
a(Vthat
VIN
tp2096
a(Vwe
VPRP
tp2097
a(Vshall
VMD
tp2098
a(Veach
VDT
tp2099
a(Vtake
VVB
tp2100
a(Va
VDT
tp2101
a(Vstep
VNN
tp2102
a(Vtowards
VIN
tp2103
a(Vthe
VDT
tp2104
a(Vother
VJJ
tp2105
a(V.
V.
tp2106
aa(lp2107
(VThis
VDT
tp2108
a(Vresolution
VNN
tp2109
a(Vis
VVBZ
tp2110
a(Valready
VRB
tp2111
a(Vthe
VDT
tp2112
a(Vfourth
VJJ
tp2113
a(Vin
VIN
tp2114
a(Va
VDT
tp2115
a(Vrow
VNN
tp2116
a(Vwithin
VIN
tp2117
a(Va
VDT
tp2118
a(Vshort
VJJ
tp2119
a(Vspace
VNN
tp2120
a(Vof
VIN
tp2121
a(Vtime
VNN
tp2122
a(Vin
VIN
tp2123
a(Vconnection
VNN
tp2124
a(Vwith
VIN
tp2125
a(Vthe
VDT
tp2126
a(VChechen
VJJ
tp2127
a(Vtragedy
VNN
tp2128
a(V.
V.
tp2129
aa(lp2130
(VBy
VIN
tp2131
a(Vuniting
VVBG
tp2132
a(Vthe
VDT
tp2133
a(Vactions
VNNS
tp2134
a(Vof
VIN
tp2135
a(Vdebtors
VNNS
tp2136
a(Vand
VCC
tp2137
a(Vcreditors
VNNS
tp2138
a(Vin
VIN
tp2139
a(Va
VDT
tp2140
a(Vglobal
VJJ
tp2141
a(Vstrategy
VNN
tp2142
a(Vaimed
VVBN
tp2143
a(Vat
VIN
tp2144
a(Vthe
VDT
tp2145
a(Velimination
VNN
tp2146
a(Vof
VIN
tp2147
a(Vpoverty
VNN
tp2148
a(V,
V,
tp2149
a(Vit
VPRP
tp2150
a(Vis
VVBZ
tp2151
a(Vpossible
VJJ
tp2152
a(Vthat
VIN
tp2153
a(Vwe
VPRP
tp2154
a(Vwill
VMD
tp2155
a(Vachieve
VVB
tp2156
a(Vobjective
VJJ
tp2157
a(V15
VCD
tp2158
a(Vof
VIN
tp2159
a(Vthe
VDT
tp2160
a(VCopenhagen
VNNP
tp2161
a(VSummit
VNNP
tp2162
a(Von
VIN
tp2163
a(Vsocial
VJJ
tp2164
a(Vdevelopment
VNN
tp2165
a(V,
V,
tp2166
a(Vwhich
VWDT
tp2167
a(Vis
VVBZ
tp2168
a(Van
VDT
tp2169
a(Vobjective
VNN
tp2170
a(Vwhich
VWDT
tp2171
a(Vwe
VPRP
tp2172
a(Vfully
VRB
tp2173
a(Videntify
VVBP
tp2174
a(Vwith
VIN
tp2175
a(V.
V.
tp2176
aa(lp2177
(VHebron
VNNP
tp2178
a(Vis
VVBZ
tp2179
a(Va
VDT
tp2180
a(Vblatant
VJJ
tp2181
a(Vexample
VNN
tp2182
a(Vof
VIN
tp2183
a(Vapartheid
VNN
tp2184
a(V.
V.
tp2185
aa(lp2186
(VLast
VJJ
tp2187
a(Vyear
VNN
tp2188
a(V,
V,
tp2189
a(Va
VDT
tp2190
a(Vcampaign
VNN
tp2191
a(Vwas
VVBD
tp2192
a(Vlaunched
VVBN
tp2193
a(Vin
VIN
tp2194
a(VMexico
VNNP
tp2195
a(VCity
VNNP
tp2196
a(Von
VIN
tp2197
a(Vsubway
VNN
tp2198
a(Vtickets
VNNS
tp2199
a(Vaimed
VVBN
tp2200
a(Vat
VIN
tp2201
a(Vpromoting
VVBG
tp2202
a(Vthe
VDT
tp2203
a(Vright
VNN
tp2204
a(Vof
VIN
tp2205
a(Vhomosexual
VJJ
tp2206
a(Vcouples
VNNS
tp2207
a(Vto
VTO
tp2208
a(Vadopt
VVB
tp2209
a(V.
V.
tp2210
aa(lp2211
(VTo
VTO
tp2212
a(Vunite
VVB
tp2213
a(Vthem
VPRP
tp2214
a(Vand
VCC
tp2215
a(Vto
VTO
tp2216
a(Vgive
VVB
tp2217
a(Vthem
VPRP
tp2218
a(Va
VDT
tp2219
a(Vsense
VNN
tp2220
a(Vof
VIN
tp2221
a(Vunity
VNN
tp2222
a(Vthrough
VIN
tp2223
a(Vtheir
VPRP$
tp2224
a(Vown
VJJ
tp2225
a(Vrepresentation
VNN
tp2226
a(Vis
VVBZ
tp2227
a(Vdifficult
VJJ
tp2228
a(V.
V.
tp2229
aa(lp2230
(VThe
VDT
tp2231
a(VIMF
VNNP
tp2232
a(V,
V,
tp2233
a(Vthe
VDT
tp2234
a(VWorld
VNNP
tp2235
a(VBank
VNNP
tp2236
a(V,
V,
tp2237
a(Vand
VCC
tp2238
a(Vthe
VDT
tp2239
a(VWorld
VNNP
tp2240
a(VTrade
VNNP
tp2241
a(VOrganisation
VNNP
tp2242
a(Vare
VVBP
tp2243
a(Vall
VDT
tp2244
a(Vorganisations
VNNS
tp2245
a(Vbuilt
VVBN
tp2246
a(Vin
VIN
tp2247
a(Vthe
VDT
tp2248
a(V1940s
VCD
tp2249
a(Vto
VTO
tp2250
a(Vdeal
VVB
tp2251
a(Vwith
VIN
tp2252
a(Vthe
VDT
tp2253
a(Vproblems
VNNS
tp2254
a(Vof
VIN
tp2255
a(Vthe
VDT
tp2256
a(V1940s
VNNS
tp2257
a(V.
V.
tp2258
aa(lp2259
(VFinally
VRB
tp2260
a(V,
V,
tp2261
a(VI
VPRP
tp2262
a(Vwould
VMD
tp2263
a(Vlike
VVB
tp2264
a(Vto
VTO
tp2265
a(Vgo
VVB
tp2266
a(Vback
VRB
tp2267
a(Vover
VIN
tp2268
a(Va
VDT
tp2269
a(Vrecent
VJJ
tp2270
a(Vadmission
VNN
tp2271
a(Vby
VIN
tp2272
a(VPresident
VNNP
tp2273
a(VBush
VNNP
tp2274
a(V,
V,
tp2275
a(Vthis
VDT
tp2276
a(VSunday
VNNP
tp2277
a(V,
V,
tp2278
a(Vin
VIN
tp2279
a(Van
VDT
tp2280
a(Vinterview
VNN
tp2281
a(Vbroadcast
VNN
tp2282
a(Vby
VIN
tp2283
a(VNBC
VNNP
tp2284
a(V,
V,
tp2285
a(Vstating
VVBG
tp2286
a(Vthat
VIN
tp2287
a(VSaddam
VNNP
tp2288
a(VHussein
VNNP
tp2289
a(Vand
VCC
tp2290
a(Vthe
VDT
tp2291
a(VIraqi
VJJ
tp2292
a(Vregime
VNN
tp2293
a(Vdid
VVBD
tp2294
a(Vnot
VRB
tp2295
a(V,
V,
tp2296
a(Vin
VIN
tp2297
a(Vall
VDT
tp2298
a(Vlikelihood
VNN
tp2299
a(V,
V,
tp2300
a(Vpossess
VVBP
tp2301
a(Vweapons
VNNS
tp2302
a(Vof
VIN
tp2303
a(Vmass
VNN
tp2304
a(Vdestruction
VNN
tp2305
a(V,
V,
tp2306
a(Vbut
VCC
tp2307
a(Vthat
VIN
tp2308
a(Vthe
VDT
tp2309
a(Vwar
VNN
tp2310
a(Vwas
VVBD
tp2311
a(Vnonetheless
VRB
tp2312
a(Vjustifiable
VJJ
tp2313
a(Vbecause
VIN
tp2314
a(V,
V,
tp2315
a(Vif
VIN
tp2316
a(Vthey
VPRP
tp2317
a(Vdid
VVBD
tp2318
a(Vnot
VRB
tp2319
a(Vhave
VVB
tp2320
a(Vweapons
VNNS
tp2321
a(Vof
VIN
tp2322
a(Vmass
VNN
tp2323
a(Vdestruction
VNN
tp2324
a(V,
V,
tp2325
a(Vit
VPRP
tp2326
a(Vcould
VMD
tp2327
a(Vperhaps
VRB
tp2328
a(Vhave
VVB
tp2329
a(Vbeen
VVBN
tp2330
a(Vpossible
VJJ
tp2331
a(Vfor
VIN
tp2332
a(Vthem
VPRP
tp2333
a(Vto
VTO
tp2334
a(Vobtain
VVB
tp2335
a(Vthem
VPRP
tp2336
a(Vone
VCD
tp2337
a(Vday
VNN
tp2338
a(V.
V.
tp2339
aa(lp2340
(VI
VPRP
tp2341
a(Vwas
VVBD
tp2342
a(Vnot
VRB
tp2343
a(Vaware
VJJ
tp2344
a(Vof
VIN
tp2345
a(Vit
VPRP
tp2346
a(V,
V,
tp2347
a(Vbut
VCC
tp2348
a(VI
VPRP
tp2349
a(Vhave
VVBP
tp2350
a(Valready
VRB
tp2351
a(Vgiven
VVBN
tp2352
a(Vinstructions
VNNS
tp2353
a(Vfor
VIN
tp2354
a(Vit
VPRP
tp2355
a(Vto
VTO
tp2356
a(Vbe
VVB
tp2357
a(Vchecked
VVBN
tp2358
a(V.
V.
tp2359
aa(lp2360
(VIf
VIN
tp2361
a(Vthe
VDT
tp2362
a(Vchallenge
VNN
tp2363
a(Vof
VIN
tp2364
a(Vthe
VDT
tp2365
a(V1980s
VNNS
tp2366
a(Vwas
VVBD
tp2367
a(Vto
VTO
tp2368
a(Vcomplete
VVB
tp2369
a(Vthe
VDT
tp2370
a(Vsingle
VJJ
tp2371
a(Vmarket
VNN
tp2372
a(V,
V,
tp2373
a(Vthe
VDT
tp2374
a(Vchallenge
VNN
tp2375
a(Vof
VIN
tp2376
a(Vthe
VDT
tp2377
a(V1990s
VCD
tp2378
a(Vto
VTO
tp2379
a(Vcomplete
VVB
tp2380
a(Vthe
VDT
tp2381
a(Vsingle
VJJ
tp2382
a(Vcurrency
VNN
tp2383
a(V,
V,
tp2384
a(Vthe
VDT
tp2385
a(Vchallenge
VNN
tp2386
a(Vat
VIN
tp2387
a(Vthe
VDT
tp2388
a(Vturn
VNN
tp2389
a(Vof
VIN
tp2390
a(Vthe
VDT
tp2391
a(Vcentury
VNN
tp2392
a(Vmust
VMD
tp2393
a(Vbe
VVB
tp2394
a(Vto
VTO
tp2395
a(Vcreate
VVB
tp2396
a(Vand
VCC
tp2397
a(Vmake
VVB
tp2398
a(Venlargement
VNN
tp2399
a(Vwork
VNN
tp2400
a(Vfor
VIN
tp2401
a(Vthe
VDT
tp2402
a(Vbenefit
VNN
tp2403
a(Vof
VIN
tp2404
a(Vthe
VDT
tp2405
a(VEuropean
VNNP
tp2406
a(VUnion
VNNP
tp2407
a(V.
V.
tp2408
aa(lp2409
(VI
VPRP
tp2410
a(Vam
VVBP
tp2411
a(Valso
VRB
tp2412
a(Vin
VIN
tp2413
a(Vfavour
VNN
tp2414
a(Vof
VIN
tp2415
a(VAmendment
VNNP
tp2416
a(VNo
VNNP
tp2417
a(V4
VCD
tp2418
a(Vwhich
VWDT
tp2419
a(Vproposes
VVBZ
tp2420
a(Vto
VTO
tp2421
a(Vextend
VVB
tp2422
a(Vthe
VDT
tp2423
a(Vprotection
VNN
tp2424
a(Vof
VIN
tp2425
a(Vworkers
VNNS
tp2426
a(Vof
VIN
tp2427
a(Vemployers
VNNS
tp2428
a(Vin
VIN
tp2429
a(Vother
VJJ
tp2430
a(Vinsolvency
VNN
tp2431
a(Vsituations
VNNS
tp2432
a(Vbeyond
VIN
tp2433
a(Vthose
VDT
tp2434
a(Vsituations
VNNS
tp2435
a(Vcovered
VVBN
tp2436
a(Vby
VIN
tp2437
a(Vthe
VDT
tp2438
a(Vdefinition
VNN
tp2439
a(Vof
VIN
tp2440
a(Vinsolvency
VNN
tp2441
a(Vproposed
VVBN
tp2442
a(Vby
VIN
tp2443
a(Vthe
VDT
tp2444
a(VCommission
VNNP
tp2445
a(V.
V.
tp2446
aa(lp2447
(VThere
VEX
tp2448
a(Vis
VVBZ
tp2449
a(Vnever
VRB
tp2450
a(Va
VDT
tp2451
a(Vdull
VJJ
tp2452
a(Vmoment
VNN
tp2453
a(Vwith
VIN
tp2454
a(VEuropa
VNN
tp2455
a(V.
V.
tp2456
aa.