(lp1
(lp2
(VIt
VPRP
tp3
a(Vwill
VMD
tp4
a(Vnot
VRB
tp5
a(Vtherefore
VRB
tp6
a(Vbe
VVB
tp7
a(Vpossible
VJJ
tp8
a(Vto
VTO
tp9
a(Vuse
VVB
tp10
a(Vthe
VDT
tp11
a(Vfund
VNN
tp12
a(Vto
VTO
tp13
a(Vbuy
VVB
tp14
a(Vfirearms
VNNS
tp15
a(V.
V.
tp16
aa(lp17
(VMadam
VNNP
tp18
a(VPresident
VNNP
tp19
a(V,
V,
tp20
a(Vbehind
VIN
tp21
a(Vthe
VDT
tp22
a(Vtechnical
VJJ
tp23
a(Vaspects
VNNS
tp24
a(Vthis
VDT
tp25
a(Vis
VVBZ
tp26
a(Vactually
VRB
tp27
a(Va
VDT
tp28
a(Vquestion
VNN
tp29
a(Vof
VIN
tp30
a(Vpower
VNN
tp31
a(V.
V.
tp32
aa(lp33
(VThe
VDT
tp34
a(Vchallenging
VJJ
tp35
a(Vtask
VNN
tp36
a(Vis
VVBZ
tp37
a(Vto
VTO
tp38
a(Vfind
VVB
tp39
a(Vthe
VDT
tp40
a(Vright
VJJ
tp41
a(Vbalance
VNN
tp42
a(V.
V.
tp43
aa(lp44
(VI
VPRP
tp45
a(Vdo
VVBP
tp46
a(Vnot
VRB
tp47
a(Vlike
VVB
tp48
a(Vand
VCC
tp49
a(Vhave
VVB
tp50
a(Vnever
VRB
tp51
a(Vliked
VVBD
tp52
a(Vthe
VDT
tp53
a(Vway
VNN
tp54
a(Vthat
VIN
tp55
a(Vthe
VDT
tp56
a(VCouncil
VNNP
tp57
a(Vtackles
VVBZ
tp58
a(VEuropean
VJJ
tp59
a(Vbudgets
VNNS
tp60
a(V.
V.
tp61
aa(lp62
(VThis
VDT
tp63
a(Vmeasure
VNN
tp64
a(Vmay
VMD
tp65
a(Valso
VRB
tp66
a(Vinclude
VVB
tp67
a(Venrichment
VNN
tp68
a(Vof
VIN
tp69
a(Vapicultural
VJJ
tp70
a(Vflora
VNN
tp71
a(Vin
VIN
tp72
a(Vcertain
VJJ
tp73
a(Vareas
VNNS
tp74
a(V.
V.
tp75
aa(lp76
(VThat
VDT
tp77
a(Vis
VVBZ
tp78
a(Vwhy
VWRB
tp79
a(V,
V,
tp80
a(Von
VIN
tp81
a(V23
VCD
tp82
a(VApril
VNNP
tp83
a(V2010
VCD
tp84
a(V,
V,
tp85
a(VI
VPRP
tp86
a(Vasked
VVBD
tp87
a(Vthe
VDT
tp88
a(VEuropean
VJJ
tp89
a(VCommission
VNNP
tp90
a(Va
VDT
tp91
a(Vquestion
VNN
tp92
a(Vabout
VIN
tp93
a(Va
VDT
tp94
a(Vjoint
VJJ
tp95
a(Voperation
VNN
tp96
a(Vinvolving
VVBG
tp97
a(Vthe
VDT
tp98
a(V27
VCD
tp99
a(VMember
VNNP
tp100
a(VStates
VNNPS
tp101
a(V,
V,
tp102
a(Vcalled
VVBN
tp103
a(V&apos;
VJJ
tp104
a(VMedi-Fake
VJJ
tp105
a(V&apos;
VNN
tp106
a(V,
V,
tp107
a(Vwhich
VWDT
tp108
a(Vat
VIN
tp109
a(Vthe
VDT
tp110
a(Vtime
VNN
tp111
a(Vhad
VVBD
tp112
a(Vconfiscated
VVBN
tp113
a(V34
VCD
tp114
a(Vmillion
VCD
tp115
a(Vcounterfeit
VNN
tp116
a(Vtablets
VNNS
tp117
a(Vin
VIN
tp118
a(Vonly
VRB
tp119
a(Vtwo
VCD
tp120
a(Vmonths
VNNS
tp121
a(V.
V.
tp122
aa(lp123
(VFurther
VRB
tp124
a(V,
V,
tp125
a(Vthe
VDT
tp126
a(Vjudgment
VNN
tp127
a(Vrenders
VVBZ
tp128
a(Vtrade
VNN
tp129
a(Vunions
VNNS
tp130
a(Vhelpless
VJJ
tp131
a(Vto
VTO
tp132
a(Vprotect
VVB
tp133
a(Vtheir
VPRP$
tp134
a(Vworkers
VNNS
tp135
a(V&apos;
VVBP
tp136
a(Vwages
VNNS
tp137
a(V.
V.
tp138
aa(lp139
(VI
VPRP
tp140
a(Vdo
VVBP
tp141
a(Vnot
VRB
tp142
a(Vneed
VVB
tp143
a(Va
VDT
tp144
a(Vplea
VNN
tp145
a(Vfor
VIN
tp146
a(Vthis
VDT
tp147
a(V.
V.
tp148
aa(lp149
(VThis
VDT
tp150
a(Vdelegation
VNN
tp151
a(Vis
VVBZ
tp152
a(Vmade
VVBN
tp153
a(Vup
VRP
tp154
a(Vof
VIN
tp155
a(Vfour
VCD
tp156
a(Vmembers
VNNS
tp157
a(V,
V,
tp158
a(Vheaded
VVBN
tp159
a(Vby
VIN
tp160
a(VMr
VNNP
tp161
a(VSooronbay
VNNP
tp162
a(VJeenbekov
VNNP
tp163
a(V,
V,
tp164
a(VVice-President
VNNP
tp165
a(Vof
VIN
tp166
a(Vthe
VDT
tp167
a(VKyrgyz
VNNP
tp168
a(Vparliament
VNN
tp169
a(V.
V.
tp170
aa(lp171
(VIn
VIN
tp172
a(Vchapter
VNN
tp173
a(V15
VCD
tp174
a(Vthe
VDT
tp175
a(VCourt
VNNP
tp176
a(Vdiscusses
VVBZ
tp177
a(Vthe
VDT
tp178
a(Vfailings
VNNS
tp179
a(Vof
VIN
tp180
a(Vthe
VDT
tp181
a(VCommunity
VNNP
tp182
a(V&apos;s
VNNS
tp183
a(Vdecentralized
VVBN
tp184
a(Vbodies
VNNS
tp185
a(V.
V.
tp186
aa(lp187
(VThe
VDT
tp188
a(VDirector-General
VNNP
tp189
a(Vand
VCC
tp190
a(Vall
VPDT
tp191
a(Vthe
VDT
tp192
a(Vdirectors
VNNS
tp193
a(Vwere
VVBD
tp194
a(Vmoved
VVBN
tp195
a(Vto
VTO
tp196
a(Vadvisory
VJJ
tp197
a(Vposts
VNNS
tp198
a(Vwhile
VIN
tp199
a(Vthe
VDT
tp200
a(VCommission
VNNP
tp201
a(Vconducted
VVBD
tp202
a(Va
VDT
tp203
a(Vthorough
VJJ
tp204
a(Vinvestigation
VNN
tp205
a(Vinto
VIN
tp206
a(Vwho
VWP
tp207
a(Vwas
VVBD
tp208
a(Vdirectly
VRB
tp209
a(Vinvolved
VVBN
tp210
a(V.
V.
tp211
aa(lp212
(VThese
VDT
tp213
a(Vtwo
VCD
tp214
a(Vthings
VNNS
tp215
a(Vdo
VVBP
tp216
a(Vnot
VRB
tp217
a(Vgo
VVB
tp218
a(Vtogether
VRB
tp219
a(V.
V.
tp220
aa(lp221
(VIt
VPRP
tp222
a(Vwill
VMD
tp223
a(Vbe
VVB
tp224
a(Vmore
VRBR
tp225
a(Vdifficult
VJJ
tp226
a(V,
V,
tp227
a(Vunder
VIN
tp228
a(Vthese
VDT
tp229
a(Vconditions
VNNS
tp230
a(V,
V,
tp231
a(Vto
VTO
tp232
a(Vincrease
VVB
tp233
a(Vcompany
VNN
tp234
a(Vcontributions
VNNS
tp235
a(Vand
VCC
tp236
a(Vcharges
VNNS
tp237
a(V&apos;
VRB
tp238
a(V.
V.
tp239
aa(lp240
(VMany
VJJ
tp241
a(Vof
VIN
tp242
a(Vthe
VDT
tp243
a(Vtricks
VNNS
tp244
a(Vthat
VWDT
tp245
a(Vare
VVBP
tp246
a(Vused
VVBN
tp247
a(Vto
VTO
tp248
a(Vprovide
VVB
tp249
a(Vgrist
VNN
tp250
a(Vto
VTO
tp251
a(Vthe
VDT
tp252
a(Vmills
VNNS
tp253
a(Vof
VIN
tp254
a(Vthe
VDT
tp255
a(Velection
VNN
tp256
a(Vcampaigns
VNNS
tp257
a(Vare
VVBP
tp258
a(Vtoo
VRB
tp259
a(Vobvious
VJJ
tp260
a(Vnot
VRB
tp261
a(Vto
VTO
tp262
a(Vbe
VVB
tp263
a(Vnoticed
VVBN
tp264
a(V,
V,
tp265
a(Vand
VCC
tp266
a(V,
V,
tp267
a(Vhaving
VVBG
tp268
a(Vnoticed
VVBN
tp269
a(Vthem
VPRP
tp270
a(V,
V,
tp271
a(Vwe
VPRP
tp272
a(Vhave
VVBP
tp273
a(Vto
VTO
tp274
a(Vvote
VVB
tp275
a(Vagainst
VIN
tp276
a(Vthem
VPRP
tp277
a(V.
V.
tp278
aa(lp279
(VMr
VNNP
tp280
a(VPresident
VNNP
tp281
a(V,
V,
tp282
a(Vthe
VDT
tp283
a(VEuropean
VNNP
tp284
a(VParliament
VNNP
tp285
a(Vhas
VVBZ
tp286
a(Va
VDT
tp287
a(Vcrucial
VJJ
tp288
a(Vrole
VNN
tp289
a(Vto
VTO
tp290
a(Vplay
VVB
tp291
a(Vin
VIN
tp292
a(Vthe
VDT
tp293
a(Vdevelopment
VNN
tp294
a(Vof
VIN
tp295
a(Vthe
VDT
tp296
a(VWater
VNN
tp297
a(VDirective
VNN
tp298
a(V.
V.
tp299
aa(lp300
(VEuropean
VJJ
tp301
a(Vtourists
VNNS
tp302
a(Vbear
VVBP
tp303
a(Va
VDT
tp304
a(Vconsiderable
VJJ
tp305
a(Vpart
VNN
tp306
a(Vof
VIN
tp307
a(Vthe
VDT
tp308
a(Vresponsibility
VNN
tp309
a(Vfor
VIN
tp310
a(Vthis
VDT
tp311
a(Vsituation
VNN
tp312
a(V.
V.
tp313
aa(lp314
(VSome
VDT
tp315
a(V40
VCD
tp316
a(V000
VCD
tp317
a(Vpeople
VNNS
tp318
a(Vlose
VVBP
tp319
a(Vtheir
VPRP$
tp320
a(Vlives
VNNS
tp321
a(Vin
VIN
tp322
a(Vroad
VNN
tp323
a(Vaccidents
VNNS
tp324
a(Vevery
VDT
tp325
a(Vyear
VNN
tp326
a(V,
V,
tp327
a(Vand
VCC
tp328
a(Vaccidents
VNNS
tp329
a(Vof
VIN
tp330
a(Vthis
VDT
tp331
a(Vtype
VNN
tp332
a(Vare
VVBP
tp333
a(Vthe
VDT
tp334
a(Vmain
VJJ
tp335
a(Vcause
VNN
tp336
a(Vof
VIN
tp337
a(Vdeath
VNN
tp338
a(Vfor
VIN
tp339
a(Vpeople
VNNS
tp340
a(Vunder
VIN
tp341
a(V45
VCD
tp342
a(Vyears
VNNS
tp343
a(Vof
VIN
tp344
a(Vage
VNN
tp345
a(V.
V.
tp346
aa(lp347
(VUnfortunately
VRB
tp348
a(V,
V,
tp349
a(Vthere
VEX
tp350
a(Vare
VVBP
tp351
a(Vstill
VRB
tp352
a(Vtens
VNNS
tp353
a(Vof
VIN
tp354
a(Vthousands
VNNS
tp355
a(Vof
VIN
tp356
a(Vchildren
VNNS
tp357
a(Vwho
VWP
tp358
a(Vhave
VVBP
tp359
a(VAK-47s
VNNS
tp360
a(Vput
VVB
tp361
a(Vinto
VIN
tp362
a(Vtheir
VPRP$
tp363
a(Vhands
VNNS
tp364
a(Vand
VCC
tp365
a(Vare
VVBP
tp366
a(Vsent
VVBN
tp367
a(Vout
VRP
tp368
a(Vto
VTO
tp369
a(Vwar
VNN
tp370
a(Vto
VTO
tp371
a(Vkill
VVB
tp372
a(Vother
VJJ
tp373
a(Vpeople
VNNS
tp374
a(V.
V.
tp375
aa(lp376
(VOr
VCC
tp377
a(Vhave
VVB
tp378
a(VI
VPRP
tp379
a(Vgot
VVBD
tp380
a(Vthis
VDT
tp381
a(Vwrong
VJJ
tp382
a(V?
V.
tp383
aa(lp384
(VAll
VPDT
tp385
a(Vthe
VDT
tp386
a(VMember
VNNP
tp387
a(VStates
VNNPS
tp388
a(Vare
VVBP
tp389
a(Vparty
VNN
tp390
a(Vto
VTO
tp391
a(Vthat
VDT
tp392
a(VConvention
VNNP
tp393
a(V,
V,
tp394
a(Vbut
VCC
tp395
a(Vthe
VDT
tp396
a(VEU
VNNP
tp397
a(Vis
VVBZ
tp398
a(Vnot
VRB
tp399
a(V.
V.
tp400
aa(lp401
(VI
VPRP
tp402
a(Vhave
VVBP
tp403
a(Van
VDT
tp404
a(Vexcellent
VJJ
tp405
a(Vstandard
VNN
tp406
a(Vof
VIN
tp407
a(Vliving
VNN
tp408
a(Vbecause
VIN
tp409
a(VI
VPRP
tp410
a(Vtravel
VVBP
tp411
a(V,
V,
tp412
a(VI
VPRP
tp413
a(Vvisit
VVBP
tp414
a(Vplaces
VNNS
tp415
a(V.
V.
tp416
aa(lp417
(VI
VPRP
tp418
a(Vthink
VVBP
tp419
a(Vthat
VIN
tp420
a(VBarack
VNNP
tp421
a(VObama
VNNP
tp422
a(V&apos;s
VNNS
tp423
a(Velection
VNN
tp424
a(Vslogan
VNN
tp425
a(V-
V:
tp426
a(V&apos;
VJJ
tp427
a(VThe
VDT
tp428
a(Vchange
VNN
tp429
a(Vwe
VPRP
tp430
a(Vneed
VVBP
tp431
a(V&apos;
VSYM
tp432
a(V-
V:
tp433
a(Vconcerns
VNNS
tp434
a(Vus
VPRP
tp435
a(V,
V,
tp436
a(VEuropeans
VNNPS
tp437
a(V,
V,
tp438
a(Vas
VRB
tp439
a(Vwell
VRB
tp440
a(V.
V.
tp441
aa(lp442
(VHow
VWRB
tp443
a(Vcan
VMD
tp444
a(Vwe
VPRP
tp445
a(Vmanage
VVB
tp446
a(Vmigratory
VJJ
tp447
a(Vflows
VNNS
tp448
a(Vsuccessfully
VRB
tp449
a(V?
V.
tp450
aa(lp451
(VAdolescent
VJJ
tp452
a(Vgirls
VNNS
tp453
a(Vin
VIN
tp454
a(VSub-Saharan
VNNP
tp455
a(VAfrica
VNNP
tp456
a(Vare
VVBP
tp457
a(V6
VCD
tp458
a(Vtimes
VNNS
tp459
a(Vmore
VRBR
tp460
a(Vlikely
VJJ
tp461
a(Vto
VTO
tp462
a(Vbe
VVB
tp463
a(Vinfected
VJJ
tp464
a(Vthan
VIN
tp465
a(Vboys
VNNS
tp466
a(Vof
VIN
tp467
a(Vtheir
VPRP$
tp468
a(Vage
VNN
tp469
a(V.
V.
tp470
aa(lp471
(VThis
VDT
tp472
a(Vconsequence
VNN
tp473
a(Vis
VVBZ
tp474
a(Va
VDT
tp475
a(Vfurther
VJJ
tp476
a(Vdeterioration
VNN
tp477
a(Vin
VIN
tp478
a(Vthe
VDT
tp479
a(Vatmosphere
VNN
tp480
a(Vas
VIN
tp481
a(Vregards
VVBZ
tp482
a(VEuropean
VJJ
tp483
a(Vpolicy
VNN
tp484
a(Vat
VIN
tp485
a(Vhome
VNN
tp486
a(Vin
VIN
tp487
a(VGermany
VNNP
tp488
a(V.
V.
tp489
aa(lp490
(VThe
VDT
tp491
a(Vsecond
VJJ
tp492
a(Vproblem
VNN
tp493
a(Vis
VVBZ
tp494
a(Vrelated
VVBN
tp495
a(Vto
VTO
tp496
a(Vthe
VDT
tp497
a(Vevaluation
VNN
tp498
a(Vof
VIN
tp499
a(Vmarket
VNN
tp500
a(Vanalysis
VNN
tp501
a(Vexpenses
VNNS
tp502
a(V.
V.
tp503
aa(lp504
(VTo
VTO
tp505
a(Vtry
VVB
tp506
a(Vand
VCC
tp507
a(Vput
VVB
tp508
a(Vourselves
VPRP
tp509
a(Vin
VIN
tp510
a(Vthe
VDT
tp511
a(Vposition
VNN
tp512
a(Vof
VIN
tp513
a(Vthe
VDT
tp514
a(Vfamilies
VNNS
tp515
a(Vof
VIN
tp516
a(Vvictims
VNNS
tp517
a(Vand
VCC
tp518
a(Vof
VIN
tp519
a(Vall
VDT
tp520
a(Vinnocent
VJJ
tp521
a(Vdetainees
VNNS
tp522
a(Vand
VCC
tp523
a(Vdestitute
VJJ
tp524
a(Vpeople
VNNS
tp525
a(V.
V.
tp526
aa(lp527
(VAre
VVBP
tp528
a(Vwe
VPRP
tp529
a(Vgoing
VVBG
tp530
a(Vto
VTO
tp531
a(Vlet
VVB
tp532
a(Vthe
VDT
tp533
a(VPalestinian
VNNP
tp534
a(VAuthority
VNNP
tp535
a(Vfall
VVB
tp536
a(V?
V.
tp537
aa(lp538
(VI
VPRP
tp539
a(Vask
VVBP
tp540
a(Vthe
VDT
tp541
a(Velection
VNN
tp542
a(Vofficers
VNNS
tp543
a(Vto
VTO
tp544
a(Vcome
VVB
tp545
a(Vto
VTO
tp546
a(Vthe
VDT
tp547
a(Vrostrum
VNN
tp548
a(Vto
VTO
tp549
a(Voversee
VVB
tp550
a(Vthe
VDT
tp551
a(Vvote
VNN
tp552
a(V.
V.
tp553
aa(lp554
(VCertainly
VRB
tp555
a(V,
V,
tp556
a(Vnot
VRB
tp557
a(Vall
VPDT
tp558
a(Vthe
VDT
tp559
a(Vborder
VNN
tp560
a(Vregions
VNNS
tp561
a(Vare
VVBP
tp562
a(Vthe
VDT
tp563
a(Vsame
VJJ
tp564
a(V.
V.
tp565
aa(lp566
(VThat
VDT
tp567
a(Vis
VVBZ
tp568
a(Vone
VCD
tp569
a(Vfurther
VJJ
tp570
a(Vreason
VNN
tp571
a(Vto
VTO
tp572
a(Vreject
VVB
tp573
a(Vboth
VCC
tp574
a(Vthe
VDT
tp575
a(VConstitution
VNNP
tp576
a(Vand
VCC
tp577
a(Vthe
VDT
tp578
a(VLaschet
VNNP
tp579
a(Vreport
VNN
tp580
a(V.
V.
tp581
aa(lp582
(VMr
VNNP
tp583
a(VLouis
VNNP
tp584
aa(lp585
(VWe
VPRP
tp586
a(Vare
VVBP
tp587
a(Vat
VIN
tp588
a(Vthe
VDT
tp589
a(Vmoment
VNN
tp590
a(Vstill
VRB
tp591
a(Vcarrying
VVBG
tp592
a(Vout
VRP
tp593
a(Vinvestigations
VNNS
tp594
a(V.
V.
tp595
aa(lp596
(VIn
VIN
tp597
a(VGermany
VNNP
tp598
a(V,
V,
tp599
a(Vfor
VIN
tp600
a(Varound
VIN
tp601
a(V100
VCD
tp602
a(Vyears
VNNS
tp603
a(Vfrom
VIN
tp604
a(Vthe
VDT
tp605
a(Vadvent
VNN
tp606
a(Vof
VIN
tp607
a(Vtrademarks
VNNS
tp608
a(Vwe
VPRP
tp609
a(Vhad
VVBD
tp610
a(Vinternational
VJJ
tp611
a(Vexhaustion
VNN
tp612
a(V.
V.
tp613
aa(lp614
(VThe
VDT
tp615
a(V&apos;
VNNP
tp616
a(VWall
VNNP
tp617
a(V&apos;
VNNP
tp618
a(Vstreet
VNN
tp619
a(Vfell
VVBD
tp620
a(V.
V.
tp621
aa(lp622
(VTen
VCD
tp623
a(Vyears
VNNS
tp624
a(Vafter
VIN
tp625
a(VRio
VNNP
tp626
a(V,
V,
tp627
a(Vthings
VNNS
tp628
a(Vare
VVBP
tp629
a(Vnot
VRB
tp630
a(Vlooking
VVBG
tp631
a(Vtoo
VRB
tp632
a(Vgood
VJJ
tp633
a(V.
V.
tp634
aa(lp635
(VThere
VEX
tp636
a(Vmay
VMD
tp637
a(Vbe
VVB
tp638
a(Va
VDT
tp639
a(Vvariety
VNN
tp640
a(Vof
VIN
tp641
a(Vexplanations
VNNS
tp642
a(Vfor
VIN
tp643
a(Vthis
VDT
tp644
a(V,
V,
tp645
a(Vbut
VCC
tp646
a(Vthat
VDT
tp647
a(Vis
VVBZ
tp648
a(Vnot
VRB
tp649
a(Vsomething
VNN
tp650
a(VI
VPRP
tp651
a(Vcan
VMD
tp652
a(Vgo
VVB
tp653
a(Vinto
VIN
tp654
a(Vnow
VRB
tp655
a(V,
V,
tp656
a(Vbecause
VIN
tp657
a(VI
VPRP
tp658
a(Vdo
VVBP
tp659
a(Vnot
VRB
tp660
a(Vhave
VVB
tp661
a(Vthe
VDT
tp662
a(Vtime
VNN
tp663
a(V.
V.
tp664
aa(lp665
(VWe
VPRP
tp666
a(Vknow
VVBP
tp667
a(Vfrom
VIN
tp668
a(Vthe
VDT
tp669
a(VSouth
VNNP
tp670
a(VAmerican
VNNP
tp671
a(Vexperience
VNN
tp672
a(Vthat
VWDT
tp673
a(Vonce
VRB
tp674
a(Vthat
VIN
tp675
a(Vhappens
VVBZ
tp676
a(Vyou
VPRP
tp677
a(Vbegin
VVB
tp678
a(Vto
VTO
tp679
a(Vcompletely
VRB
tp680
a(Vlose
VVB
tp681
a(Vcontrol
VNN
tp682
a(Vof
VIN
tp683
a(Va
VDT
tp684
a(Vpolitical
VJJ
tp685
a(Vsituation
VNN
tp686
a(V.
V.
tp687
aa(lp688
(VIndeed
VRB
tp689
a(V,
V,
tp690
a(Vthe
VDT
tp691
a(Vevents
VNNS
tp692
a(Vof
VIN
tp693
a(Vlast
VJJ
tp694
a(Vsummer
VNN
tp695
a(Vhave
VVBP
tp696
a(Vconfirmed
VVBN
tp697
a(Vthe
VDT
tp698
a(Vurgent
VJJ
tp699
a(Vneed
VNN
tp700
a(Vfor
VIN
tp701
a(Vdifficult
VJJ
tp702
a(Vsituations
VNNS
tp703
a(Vto
VTO
tp704
a(Vbe
VVB
tp705
a(Vanticipated
VVBN
tp706
a(V,
V,
tp707
a(Vas
VRB
tp708
a(Vmuch
VJJ
tp709
a(Vfor
VIN
tp710
a(Vthe
VDT
tp711
a(VMember
VNNP
tp712
a(VStates
VNNPS
tp713
a(Vof
VIN
tp714
a(Vdestination
VNN
tp715
a(Vor
VCC
tp716
a(Vof
VIN
tp717
a(Vtransit
VNN
tp718
a(Vas
VIN
tp719
a(Vfor
VIN
tp720
a(Vthe
VDT
tp721
a(Vimmigrants
VNNS
tp722
a(Vthemselves
VPRP
tp723
a(V.
V.
tp724
aa(lp725
(VMight
VVB
tp726
a(Vthe
VDT
tp727
a(VAmerican
VJJ
tp728
a(Vpeople
VNNS
tp729
a(Vbe
VVB
tp730
a(Vless
VRBR
tp731
a(Vhumane
VJJ
tp732
a(Vthan
VIN
tp733
a(Vourselves
VPRP
tp734
a(V?
V.
tp735
aa(lp736
(VI
VPRP
tp737
a(Vunderstood
VVBD
tp738
a(Vyou
VPRP
tp739
a(Vwere
VVBD
tp740
a(Vonly
VRB
tp741
a(Vgiving
VVBG
tp742
a(Vit
VPRP
tp743
a(Vto
VTO
tp744
a(Vthe
VDT
tp745
a(VQuestioner
VNNP
tp746
a(Vand
VCC
tp747
a(Vone
VCD
tp748
a(Vother
VJJ
tp749
a(V.
V.
tp750
aa(lp751
(VIf
VIN
tp752
a(Vwe
VPRP
tp753
a(Vare
VVBP
tp754
a(Vregarded
VVBN
tp755
a(Vas
VIN
tp756
a(V75-kilo
VJJ
tp757
a(Vsheep
VNN
tp758
a(V,
V,
tp759
a(Vthere
VEX
tp760
a(Vwill
VMD
tp761
a(Vbe
VVB
tp762
a(Vten
VCD
tp763
a(Vof
VIN
tp764
a(Vus
VPRP
tp765
a(Vin
VIN
tp766
a(Van
VDT
tp767
a(Varea
VNN
tp768
a(Vas
VIN
tp769
a(Vlarge
VJJ
tp770
a(Vas
VIN
tp771
a(Va
VDT
tp772
a(Vdouble
VJJ
tp773
a(Vbed
VNN
tp774
a(V.
V.
tp775
aa(lp776
(VThe
VDT
tp777
a(Vpictures
VNNS
tp778
a(Vthey
VPRP
tp779
a(Vtook
VVBD
tp780
a(Vappeared
VVBN
tp781
a(Von
VIN
tp782
a(VDutch
VJJ
tp783
a(Vtelevision
VNN
tp784
a(Vat
VIN
tp785
a(Vpeak
VJJ
tp786
a(Vviewing
VNN
tp787
a(Vtime
VNN
tp788
a(V.
V.
tp789
aa(lp790
(VSadly
VRB
tp791
a(V,
V,
tp792
a(Vthis
VDT
tp793
a(Vis
VVBZ
tp794
a(Vnot
VRB
tp795
a(Vthe
VDT
tp796
a(Vcase
VNN
tp797
a(V.
V.
tp798
aa(lp799
(V(
VNN
tp800
a(VNL
VNNP
tp801
a(V)
VCD
tp802
a(VMr
VNNP
tp803
a(VPresident
VNNP
tp804
a(V,
V,
tp805
a(Vit
VPRP
tp806
a(Vis
VVBZ
tp807
a(Vgood
VJJ
tp808
a(Vthat
VIN
tp809
a(Vwe
VPRP
tp810
a(Vas
VIN
tp811
a(Va
VDT
tp812
a(VParliament
VNNP
tp813
a(Vare
VVBP
tp814
a(Vmaking
VVBG
tp815
a(Vour
VPRP$
tp816
a(Vvoice
VNN
tp817
a(Vheard
VVBN
tp818
a(Vin
VIN
tp819
a(Vthe
VDT
tp820
a(Vdiscussion
VNN
tp821
a(Vthat
VWDT
tp822
a(Vis
VVBZ
tp823
a(Vtaking
VVBG
tp824
a(Vplace
VNN
tp825
a(Vin
VIN
tp826
a(Vthe
VDT
tp827
a(Vmedia
VNNS
tp828
a(V,
V,
tp829
a(Vas
VIN
tp830
a(Vproduct
VNN
tp831
a(Vsafety
VNN
tp832
a(Vdirectly
VRB
tp833
a(Vaffects
VVBZ
tp834
a(Vour
VPRP$
tp835
a(Vcitizens
VNNS
tp836
a(Vand
VCC
tp837
a(Vour
VPRP$
tp838
a(Vchildren
VNNS
tp839
a(V.
V.
tp840
aa(lp841
(VHopes
VVBZ
tp842
a(Vfor
VIN
tp843
a(Va
VDT
tp844
a(Vunited
VVBN
tp845
a(Vcontinent
VNN
tp846
a(Vare
VVBP
tp847
a(Vdying
VVBG
tp848
a(V.
V.
tp849
aa(lp850
(VI
VPRP
tp851
a(Vam
VVBP
tp852
a(Vin
VIN
tp853
a(Vthe
VDT
tp854
a(Vbest
VJJS
tp855
a(Vposition
VNN
tp856
a(Vto
VTO
tp857
a(Vmake
VVB
tp858
a(Vthe
VDT
tp859
a(Vrailways
VNNS
tp860
a(Vsafe
VJJ
tp861
a(V!
V.
tp862
aa(lp863
(VPerhaps
VRB
tp864
a(Vwe
VPRP
tp865
a(Vcan
VMD
tp866
a(Vthen
VRB
tp867
a(Vdeal
VVB
tp868
a(Vwith
VIN
tp869
a(Vboth
VDT
tp870
a(Vpoints
VNNS
tp871
a(Vtogether
VRB
tp872
a(V.
V.
tp873
aa(lp874
(VThis
VDT
tp875
a(Vis
VVBZ
tp876
a(Vliterally
VRB
tp877
a(Vthe
VDT
tp878
a(Vchronicle
VNN
tp879
a(Vof
VIN
tp880
a(Va
VDT
tp881
a(Vdeath
VNN
tp882
a(Vforetold
VNN
tp883
a(V.
V.
tp884
aa(lp885
(VTelevision
VNN
tp886
a(Vbroadcasting
VNN
tp887
aa(lp888
(VEpidemiological
VJJ
tp889
a(Vsurveillance
VNN
tp890
aa(lp891
(VThe
VDT
tp892
a(Vrecent
VJJ
tp893
a(Vinstitutional
VJJ
tp894
a(Vcrisis
VNN
tp895
a(Vand
VCC
tp896
a(Vthe
VDT
tp897
a(Vverdicts
VNNS
tp898
a(Vreached
VVBN
tp899
a(Vby
VIN
tp900
a(VParliament
VNNP
tp901
a(Vitself
VPRP
tp902
a(Vor
VCC
tp903
a(Vthrough
VIN
tp904
a(Vthe
VDT
tp905
a(VGroup
VNN
tp906
a(Vof
VIN
tp907
a(VIndependent
VNNP
tp908
a(VExperts
VNNS
tp909
a(Vmust
VMD
tp910
a(Vstill
VRB
tp911
a(Vbe
VVB
tp912
a(Vfresh
VJJ
tp913
a(Vin
VIN
tp914
a(Vour
VPRP$
tp915
a(Vminds
VNNS
tp916
a(V.
V.
tp917
aa(lp918
(VSuch
VJJ
tp919
a(Vservices
VNNS
tp920
a(Vinclude
VVBP
tp921
a(Vtelemedicine
VNN
tp922
a(V,
V,
tp923
a(Vremote
VJJ
tp924
a(Vdiagnosis
VNN
tp925
a(V,
V,
tp926
a(Vremote
VJJ
tp927
a(Vdrug
VNN
tp928
a(Vprescription
VNN
tp929
a(Vand
VCC
tp930
a(Vothers
VNNS
tp931
a(V.
V.
tp932
aa(lp933
(VFor
VIN
tp934
a(Vthe
VDT
tp935
a(Vtime
VNN
tp936
a(Vbeing
VVBG
tp937
a(V,
V,
tp938
a(Vthe
VDT
tp939
a(VCouncil
VNNP
tp940
a(Vhas
VVBZ
tp941
a(Vno
VDT
tp942
a(Vinstrument
VNN
tp943
a(Vwhich
VWDT
tp944
a(Vwould
VMD
tp945
a(Venable
VVB
tp946
a(Vit
VPRP
tp947
a(Vto
VTO
tp948
a(Vdo
VVB
tp949
a(Vwhat
VWP
tp950
a(Vyou
VPRP
tp951
a(Vwant
VVBP
tp952
a(Vit
VPRP
tp953
a(Vto
VTO
tp954
a(Vdo
VVB
tp955
a(V.
V.
tp956
aa(lp957
(VThe
VDT
tp958
a(VTreaty
VNNP
tp959
a(Vis
VVBZ
tp960
a(Vthe
VDT
tp961
a(VEuropean
VNNP
tp962
a(VUnion
VNNP
tp963
a(V&apos;s
VVBZ
tp964
a(Vlaw
VNN
tp965
a(V.
V.
tp966
aa(lp967
(VI
VPRP
tp968
a(Vam
VVBP
tp969
a(Vnot
VRB
tp970
a(Vimplying
VVBG
tp971
a(Vanything
VNN
tp972
a(Vof
VIN
tp973
a(Vthe
VDT
tp974
a(Vsort
VNN
tp975
a(V.
V.
tp976
aa(lp977
(VNeurodegenerative
VJJ
tp978
a(Vdiseases
VNNS
tp979
a(Vpose
VVBP
tp980
a(Va
VDT
tp981
a(Vmajor
VJJ
tp982
a(Vhealth
VNN
tp983
a(Vproblem
VNN
tp984
a(Vin
VIN
tp985
a(VEurope
VNNP
tp986
a(V.
V.
tp987
aa(lp988
(VIt
VPRP
tp989
a(Vmarks
VVBZ
tp990
a(Vthe
VDT
tp991
a(Vend
VNN
tp992
a(Vof
VIN
tp993
a(Van
VDT
tp994
a(Vimpressive
VJJ
tp995
a(Vpresidency
VNN
tp996
a(Vby
VIN
tp997
a(Vthe
VDT
tp998
a(VSwedish
VJJ
tp999
a(VGovernment
VNN
tp1000
a(Vand
VCC
tp1001
a(VI
VPRP
tp1002
a(Vcongratulate
VVBP
tp1003
a(Vmy
VPRP$
tp1004
a(VSwedish
VJJ
tp1005
a(Vcolleagues
VNNS
tp1006
a(V.
V.
tp1007
aa(lp1008
(VFirst
VNNP
tp1009
a(Vof
VIN
tp1010
a(Vall
VDT
tp1011
a(Vby
VIN
tp1012
a(Vtrusting
VVBG
tp1013
a(Vour
VPRP$
tp1014
a(Vown
VJJ
tp1015
a(Vmeasures
VNNS
tp1016
a(V.
V.
tp1017
aa(lp1018
(VSuch
VJJ
tp1019
a(Vvoluntary
VJJ
tp1020
a(Vinformation
VNN
tp1021
a(Von
VIN
tp1022
a(Varea
VNN
tp1023
a(Vof
VIN
tp1024
a(Vorigin
VNN
tp1025
a(Vis
VVBZ
tp1026
a(Vpossible
VJJ
tp1027
a(V,
V,
tp1028
a(Vas
VRB
tp1029
a(Vlong
VRB
tp1030
a(Vas
VIN
tp1031
a(Vprotected
VJJ
tp1032
a(Vdesignations
VNNS
tp1033
a(Vof
VIN
tp1034
a(Vorigin
VNN
tp1035
a(Vare
VVBP
tp1036
a(Vnot
VRB
tp1037
a(Vinvolved
VVBN
tp1038
a(V,
V,
tp1039
a(Vbecause
VIN
tp1040
a(Vit
VPRP
tp1041
a(Vlogically
VRB
tp1042
a(Vfollows
VVBZ
tp1043
a(Vthat
VIN
tp1044
a(Vprotected
VVBN
tp1045
a(Vdesignations
VNNS
tp1046
a(Vof
VIN
tp1047
a(Vorigin
VNN
tp1048
a(Vmust
VMD
tp1049
a(Vbe
VVB
tp1050
a(Vprotected
VVBN
tp1051
a(Vas
VIN
tp1052
a(Vsuch
VJJ
tp1053
a(V.
V.
tp1054
aa(lp1055
(VIt
VPRP
tp1056
a(Vaims
VVBZ
tp1057
a(Vto
VTO
tp1058
a(Vboost
VVB
tp1059
a(Vthe
VDT
tp1060
a(Vfree
VJJ
tp1061
a(Vmovement
VNN
tp1062
a(Vof
VIN
tp1063
a(Vgoods
VNNS
tp1064
a(V,
V,
tp1065
a(Vthat
VDT
tp1066
a(Vis
VVBZ
tp1067
a(Vto
VTO
tp1068
a(Vsay
VVB
tp1069
a(Vthe
VDT
tp1070
a(Vinternal
VJJ
tp1071
a(Vmarket
VNN
tp1072
a(V,
V,
tp1073
a(Vas
VIN
tp1074
a(Vfar
VRB
tp1075
a(Vas
VIN
tp1076
a(Vthe
VDT
tp1077
a(Vcableway
VNN
tp1078
a(Vindustry
VNN
tp1079
a(Vis
VVBZ
tp1080
a(Vconcerned
VVBN
tp1081
a(V.
V.
tp1082
aa(lp1083
(VAs
VIN
tp1084
a(Vfor
VIN
tp1085
a(Vhis
VPRP$
tp1086
a(Vhealth
VNN
tp1087
a(V,
V,
tp1088
a(Vhe
VPRP
tp1089
a(Vis
VVBZ
tp1090
a(Vlooking
VVBG
tp1091
a(Va
VDT
tp1092
a(Vlittle
VJJ
tp1093
a(Vbetter
VJJR
tp1094
a(V.
V.
tp1095
aa(lp1096
(VThey
VPRP
tp1097
a(Vdid
VVBD
tp1098
a(V,
V,
tp1099
a(Vin
VIN
tp1100
a(Vthe
VDT
tp1101
a(Vend
VNN
tp1102
a(Vwith
VIN
tp1103
a(Vobviously
VRB
tp1104
a(Vplanned
VVBN
tp1105
a(Vand
VCC
tp1106
a(Vcriminal
VJJ
tp1107
a(Vacts
VNNS
tp1108
a(Vof
VIN
tp1109
a(Vviolence
VNN
tp1110
a(V.
V.
tp1111
aa(lp1112
(VFor
VIN
tp1113
a(Vthis
VDT
tp1114
a(Vreason
VNN
tp1115
a(V,
V,
tp1116
a(Vtoo
VRB
tp1117
a(V,
V,
tp1118
a(Vthe
VDT
tp1119
a(Vnew
VJJ
tp1120
a(VLaw
VNN
tp1121
a(Von
VIN
tp1122
a(Vthe
VDT
tp1123
a(Vstate
VNN
tp1124
a(Vlanguage
VNN
tp1125
a(Vis
VVBZ
tp1126
a(Vsuperfluous
VJJ
tp1127
a(V,
V,
tp1128
a(Vas
VIN
tp1129
a(Vthe
VDT
tp1130
a(VSlovak
VJJ
tp1131
a(Vlanguage
VNN
tp1132
a(Vis
VVBZ
tp1133
a(Vnot
VRB
tp1134
a(Vunder
VIN
tp1135
a(Vthreat
VNN
tp1136
a(Vin
VIN
tp1137
a(VSlovakia
VNNP
tp1138
a(V.
V.
tp1139
aa(lp1140
(VI
VPRP
tp1141
a(Vdo
VVBP
tp1142
a(Vnot
VRB
tp1143
a(Vknow
VVB
tp1144
a(Vwhat
VWP
tp1145
a(Vto
VTO
tp1146
a(Vdo
VVB
tp1147
a(V.
V.
tp1148
aa(lp1149
(VIn
VIN
tp1150
a(Vthe
VDT
tp1151
a(Vsame
VJJ
tp1152
a(Vway
VNN
tp1153
a(V,
V,
tp1154
a(Vfurther
VRB
tp1155
a(Von
VIN
tp1156
a(Vin
VIN
tp1157
a(Vthe
VDT
tp1158
a(Vsame
VJJ
tp1159
a(Vclause
VNN
tp1160
a(Vit
VPRP
tp1161
a(Vreads
VVBZ
tp1162
a(V&quot;
VJJ
tp1163
a(Veiner
VNN
tp1164
a(Vbegrenzten
VNN
tp1165
a(VAnzahl
VNN
tp1166
a(V...
V:
tp1167
a(V&quot;
VIN
tp1168
aa(lp1169
(V\u2013
VNN
tp1170
a(VMr
VNNP
tp1171
a(VPresident
VNNP
tp1172
a(V,
V,
tp1173
a(VI
VPRP
tp1174
a(Vshould
VMD
tp1175
a(Vlike
VVB
tp1176
a(Vto
VTO
tp1177
a(Vstart
VVB
tp1178
a(Vby
VIN
tp1179
a(Vcongratulating
VNN
tp1180
a(Vyou
VPRP
tp1181
a(Von
VIN
tp1182
a(Vthe
VDT
tp1183
a(Vvictory
VNN
tp1184
a(Vof
VIN
tp1185
a(VSpain
VNNP
tp1186
a(V&apos;s
VNNS
tp1187
a(Vnational
VJJ
tp1188
a(Vteam
VNN
tp1189
a(Vin
VIN
tp1190
a(Vthe
VDT
tp1191
a(VWorld
VNNP
tp1192
a(VBasketball
VNNP
tp1193
a(VChampionship
VNNP
tp1194
a(V.
V.
tp1195
aa(lp1196
(VThis
VDT
tp1197
a(Vdirective
VNN
tp1198
a(Vhas
VVBZ
tp1199
a(Vbeen
VVBN
tp1200
a(Va
VDT
tp1201
a(Vlong
VJJ
tp1202
a(Vtime
VNN
tp1203
a(Vcoming
VVBG
tp1204
a(V.
V.
tp1205
aa(lp1206
(VI
VPRP
tp1207
a(Vwould
VMD
tp1208
a(Vlike
VVB
tp1209
a(Vto
VTO
tp1210
a(Vsay
VVB
tp1211
a(Vto
VTO
tp1212
a(Vyou
VPRP
tp1213
a(V,
V,
tp1214
a(Vthe
VDT
tp1215
a(VMembers
VNNS
tp1216
a(Vof
VIN
tp1217
a(Vthis
VDT
tp1218
a(VParliament
VNNP
tp1219
a(V,
V,
tp1220
a(Vthat
VIN
tp1221
a(Vwe
VPRP
tp1222
a(Vrecognise
VVBP
tp1223
a(Vthat
VIN
tp1224
a(Vwe
VPRP
tp1225
a(Vall
VDT
tp1226
a(Vhave
VVBP
tp1227
a(Vto
VTO
tp1228
a(Vtake
VVB
tp1229
a(Vany
VDT
tp1230
a(Vfinal
VJJ
tp1231
a(Vdeal
VNN
tp1232
a(Vhome
VNN
tp1233
a(Vand
VCC
tp1234
a(Vjustify
VVB
tp1235
a(Vit
VPRP
tp1236
a(Vto
VTO
tp1237
a(Vour
VPRP$
tp1238
a(Velectorates
VNNS
tp1239
a(V.
V.
tp1240
aa(lp1241
(VOne
VCD
tp1242
a(Vof
VIN
tp1243
a(Vthe
VDT
tp1244
a(Vcountries
VNNS
tp1245
a(Vthat
VWDT
tp1246
a(Vhas
VVBZ
tp1247
a(Vbeen
VVBN
tp1248
a(Vearmarked
VVBN
tp1249
a(Vfor
VIN
tp1250
a(Vsuch
VJJ
tp1251
a(Van
VDT
tp1252
a(Vaction
VNN
tp1253
a(Vplan
VNN
tp1254
a(Vis
VVBZ
tp1255
a(VMorocco
VNNP
tp1256
a(V.
V.
tp1257
aa(lp1258
(VWe
VPRP
tp1259
a(Vmight
VMD
tp1260
a(Vwell
VRB
tp1261
a(Vask
VVB
tp1262
a(Vhow
VWRB
tp1263
a(V.
V.
tp1264
aa(lp1265
(VIt
VPRP
tp1266
a(Vwants
VVBZ
tp1267
a(Vthe
VDT
tp1268
a(Vend
VNN
tp1269
a(Vof
VIN
tp1270
a(Vimport
VNN
tp1271
a(Vlicences
VNNS
tp1272
a(V,
V,
tp1273
a(Vbecause
VIN
tp1274
a(Vthe
VDT
tp1275
a(VB
VNN
tp1276
a(Vlicences
VNNS
tp1277
a(Vgive
VVBP
tp1278
a(VCommunity
VNNP
tp1279
a(Vbananas
VNNS
tp1280
a(Vand
VCC
tp1281
a(VACP
VNN
tp1282
a(Vbananas
VNNS
tp1283
a(Vpriority
VNN
tp1284
a(Vsales
VNNS
tp1285
a(Vover
VIN
tp1286
a(Vdollar
VNN
tp1287
a(Vbananas
VNNS
tp1288
a(V.
V.
tp1289
aa(lp1290
(VThese
VDT
tp1291
a(Vservices
VNNS
tp1292
a(Vshould
VMD
tp1293
a(Vinclude
VVB
tp1294
a(Vsuch
VJJ
tp1295
a(Vthings
VNNS
tp1296
a(Vas
VIN
tp1297
a(Vhealthcare
VNN
tp1298
a(Vand
VCC
tp1299
a(Vcare
VNN
tp1300
a(Vservices
VNNS
tp1301
a(V,
V,
tp1302
a(Veducation
VNN
tp1303
a(V,
V,
tp1304
a(Vleisure
VNN
tp1305
a(V,
V,
tp1306
a(Vtransport
VNN
tp1307
a(Vand
VCC
tp1308
a(Vbroadband
VNN
tp1309
a(V.
V.
tp1310
aa(lp1311
(VEven
VRB
tp1312
a(Vwithout
VIN
tp1313
a(Vthis
VDT
tp1314
a(Vescalation
VNN
tp1315
a(Vof
VIN
tp1316
a(Vthe
VDT
tp1317
a(Vconflict
VNN
tp1318
a(V,
V,
tp1319
a(Vin
VIN
tp1320
a(VSouth
VNNP
tp1321
a(VSudan
VNNP
tp1322
a(V,
V,
tp1323
a(Vover
VIN
tp1324
a(V40
VCD
tp1325
a(V%
VNN
tp1326
a(Vof
VIN
tp1327
a(Vthe
VDT
tp1328
a(Vpopulation
VNN
tp1329
a(Vare
VVBP
tp1330
a(Valready
VRB
tp1331
a(Vdependent
VJJ
tp1332
a(Von
VIN
tp1333
a(Vfood
VNN
tp1334
a(Vaid
VNN
tp1335
a(V.
V.
tp1336
aa(lp1337
(VOn
VIN
tp1338
a(Vthe
VDT
tp1339
a(Vother
VJJ
tp1340
a(Vhand
VNN
tp1341
a(V,
V,
tp1342
a(Vit
VPRP
tp1343
a(Vis
VVBZ
tp1344
a(Vobvious
VJJ
tp1345
a(Vthat
VIN
tp1346
a(Vthe
VDT
tp1347
a(VAmericans
VNNPS
tp1348
a(Vwere
VVBD
tp1349
a(Vdoing
VVBG
tp1350
a(Vexactly
VRB
tp1351
a(Vthe
VDT
tp1352
a(Vsame
VJJ
tp1353
a(Vthing
VNN
tp1354
a(V.
V.
tp1355
aa(lp1356
(VThis
VDT
tp1357
a(Vgoes
VVBZ
tp1358
a(Vbeyond
VIN
tp1359
a(Vthe
VDT
tp1360
a(Vpoultry
VNN
tp1361
a(Vindustry
VNN
tp1362
a(V:
V:
tp1363
a(Vit
VPRP
tp1364
a(Vis
VVBZ
tp1365
a(Vin
VIN
tp1366
a(Vthe
VDT
tp1367
a(Vpig
VNN
tp1368
a(Vindustry
VNN
tp1369
a(Vand
VCC
tp1370
a(Vin
VIN
tp1371
a(Vthe
VDT
tp1372
a(Vred
VJJ
tp1373
a(Vmeat
VNN
tp1374
a(Vindustry
VNN
tp1375
a(Vas
VRB
tp1376
a(Vwell
VRB
tp1377
a(V.
V.
tp1378
aa(lp1379
(VI
VPRP
tp1380
a(Vcannot
VVBP
tp1381
a(Vhelp
VNN
tp1382
a(Vthinking
VNN
tp1383
a(Vof
VIN
tp1384
a(Vthe
VDT
tp1385
a(VCouncil
VNNP
tp1386
a(Vstatement
VNN
tp1387
a(Vafter
VIN
tp1388
a(Vthe
VDT
tp1389
a(Velections
VNNS
tp1390
a(V.
V.
tp1391
aa(lp1392
(VWe
VPRP
tp1393
a(Vcannot
VVBP
tp1394
a(Vremain
VVBP
tp1395
a(Vstatic
VJJ
tp1396
a(V;
V:
tp1397
a(Vinstead
VRB
tp1398
a(V,
V,
tp1399
a(Vwe
VPRP
tp1400
a(Vneed
VVBP
tp1401
a(Vcontinual
VJJ
tp1402
a(Vadvances
VNNS
tp1403
a(V.
V.
tp1404
aa(lp1405
(VHuman
VJJ
tp1406
a(Vrights
VNNS
tp1407
a(Vand
VCC
tp1408
a(Vfundamental
VJJ
tp1409
a(Vfreedoms
VNNS
tp1410
a(Vare
VVBP
tp1411
a(Vindivisible
VJJ
tp1412
a(V.
V.
tp1413
aa(lp1414
(VAt
VIN
tp1415
a(Vthe
VDT
tp1416
a(Vsame
VJJ
tp1417
a(Vtime
VNN
tp1418
a(V,
V,
tp1419
a(Vdestruction
VNN
tp1420
a(Vof
VIN
tp1421
a(Vthe
VDT
tp1422
a(Vfamily
VNN
tp1423
a(Vis
VVBZ
tp1424
a(Vone
VCD
tp1425
a(Vof
VIN
tp1426
a(Vthe
VDT
tp1427
a(Vcauses
VNNS
tp1428
a(Vof
VIN
tp1429
a(Vsexual
VJJ
tp1430
a(Vpromiscuity
VNN
tp1431
a(V,
V,
tp1432
a(Vwhich
VWDT
tp1433
a(Vis
VVBZ
tp1434
a(Va
VDT
tp1435
a(Vfurther
VJJ
tp1436
a(Vlink
VNN
tp1437
a(Vin
VIN
tp1438
a(Vthe
VDT
tp1439
a(Vchain
VNN
tp1440
a(Vof
VIN
tp1441
a(Vinfection
VNN
tp1442
a(Vof
VIN
tp1443
a(Vsexually
VRB
tp1444
a(Vtransmitted
VJJ
tp1445
a(Vdiseases
VNNS
tp1446
a(V,
V,
tp1447
a(Vin
VIN
tp1448
a(Vparticular
VJJ
tp1449
a(Vchlamydia
VNN
tp1450
a(Vand
VCC
tp1451
a(VHIV
VNN
tp1452
a(V,
V,
tp1453
a(Vwhich
VWDT
tp1454
a(Vcause
VVBP
tp1455
a(Va
VDT
tp1456
a(Vgreat
VJJ
tp1457
a(Vdeal
VNN
tp1458
a(Vof
VIN
tp1459
a(Vsuffering
VNN
tp1460
a(V,
V,
tp1461
a(Vas
VRB
tp1462
a(Vwell
VRB
tp1463
a(Vas
VIN
tp1464
a(Vcancer
VNN
tp1465
a(Vand
VCC
tp1466
a(Vdeath
VNN
tp1467
a(V.
V.
tp1468
aa(lp1469
(VA
VDT
tp1470
a(Vpatently
VRB
tp1471
a(Vfraudulent
VJJ
tp1472
a(Vfirm
VNN
tp1473
a(Vearns
VVBZ
tp1474
a(Vtremendous
VJJ
tp1475
a(Vamounts
VNNS
tp1476
a(Vof
VIN
tp1477
a(Vmoney
VNN
tp1478
a(Vout
VIN
tp1479
a(Vof
VIN
tp1480
a(Vcontracts
VNNS
tp1481
a(Vwith
VIN
tp1482
a(Vthe
VDT
tp1483
a(VCommission
VNNP
tp1484
a(V.
V.
tp1485
aa(lp1486
(VIt
VPRP
tp1487
a(Vis
VVBZ
tp1488
a(Vwaging
VVBG
tp1489
a(Va
VDT
tp1490
a(Vwar
VNN
tp1491
a(Vagainst
VIN
tp1492
a(Vits
VPRP$
tp1493
a(Vown
VJJ
tp1494
a(Vpeople
VNNS
tp1495
a(V.
V.
tp1496
aa(lp1497
(VMr
VNNP
tp1498
a(VPresident
VNNP
tp1499
a(V,
V,
tp1500
a(VI
VPRP
tp1501
a(Vam
VVBP
tp1502
a(Vconfused
VVBN
tp1503
a(Vnow
VRB
tp1504
a(V.
V.
tp1505
aa(lp1506
(VPierre
VNNP
tp1507
a(VMoscovici
VNNP
tp1508
aa(lp1509
(VIn
VIN
tp1510
a(Vrecent
VJJ
tp1511
a(Vyears
VNNS
tp1512
a(Vthe
VDT
tp1513
a(Vnumber
VNN
tp1514
a(Vof
VIN
tp1515
a(VHIV
VNN
tp1516
a(Vinfections
VNNS
tp1517
a(Vin
VIN
tp1518
a(VEurope
VNNP
tp1519
a(Vand
VCC
tp1520
a(VCentral
VNNP
tp1521
a(VAsia
VNNP
tp1522
a(Vhas
VVBZ
tp1523
a(Vdoubled
VVBN
tp1524
a(Vfrom
VIN
tp1525
a(V1.25
VCD
tp1526
a(Vto
VTO
tp1527
a(V2.4
VCD
tp1528
a(Vmillion
VCD
tp1529
a(V.
V.
tp1530
aa(lp1531
(VHow
VWRB
tp1532
a(Vmany
VJJ
tp1533
a(Vwould
VMD
tp1534
a(Vbe
VVB
tp1535
a(Vdecommissioned
VVBN
tp1536
a(V?
V.
tp1537
aa(lp1538
(VThings
VNNS
tp1539
a(Vare
VVBP
tp1540
a(Vactually
VRB
tp1541
a(Vrather
VRB
tp1542
a(Vmore
VRBR
tp1543
a(Vcomplicated
VJJ
tp1544
a(Vthan
VIN
tp1545
a(Vthat
VDT
tp1546
a(V.
V.
tp1547
aa(lp1548
(VI
VPRP
tp1549
a(Vhave
VVBP
tp1550
a(Vtherefore
VRB
tp1551
a(Vhad
VVBN
tp1552
a(Venough
VRB
tp1553
a(Vof
VIN
tp1554
a(Vthis
VDT
tp1555
a(Vsort
VNN
tp1556
a(Vof
VIN
tp1557
a(Vattack
VNN
tp1558
a(Vwhich
VWDT
tp1559
a(V\u2013
VVBP
tp1560
a(Vit
VPRP
tp1561
a(Vhas
VVBZ
tp1562
a(Vto
VTO
tp1563
a(Vbe
VVB
tp1564
a(Vsaid
VVBN
tp1565
a(V\u2013
VRB
tp1566
a(Vborders
VNNS
tp1567
a(Von
VIN
tp1568
a(Vnastiness
VNN
tp1569
a(Vand
VCC
tp1570
a(Vwhich
VWDT
tp1571
a(VI
VPRP
tp1572
a(Vcannot
VVBP
tp1573
a(Vlet
VVB
tp1574
a(Vpass
VVB
tp1575
a(V.
V.
tp1576
aa(lp1577
(VBut
VCC
tp1578
a(Vlet
VVB
tp1579
a(Vus
VPRP
tp1580
a(Vtry
VVB
tp1581
a(Vfor
VIN
tp1582
a(Vthe
VDT
tp1583
a(Vbest
VJJS
tp1584
a(Voption
VNN
tp1585
a(V.
V.
tp1586
aa(lp1587
(VWe
VPRP
tp1588
a(Vhave
VVBP
tp1589
a(Vall
VDT
tp1590
a(Vin
VIN
tp1591
a(Vour
VPRP$
tp1592
a(Vown
VJJ
tp1593
a(Vway
VNN
tp1594
a(Vcontributed
VVBD
tp1595
a(Vto
VTO
tp1596
a(Vthe
VDT
tp1597
a(Vtragedy
VNN
tp1598
a(V.
V.
tp1599
aa(lp1600
(VThus
VRB
tp1601
a(Vhe
VPRP
tp1602
a(Vis
VVBZ
tp1603
a(Vwithout
VIN
tp1604
a(Vthe
VDT
tp1605
a(Vpass
VNN
tp1606
a(Vfor
VIN
tp1607
a(Vthat
VDT
tp1608
a(Vtime
VNN
tp1609
a(Vand
VCC
tp1610
a(Vcannot
VNN
tp1611
a(Vhunt
VNN
tp1612
a(Vin
VIN
tp1613
a(Vother
VJJ
tp1614
a(Vthird
VJJ
tp1615
a(Vcountries
VNNS
tp1616
a(Vin
VIN
tp1617
a(Vthe
VDT
tp1618
a(Vmean
VJJ
tp1619
a(Vtime
VNN
tp1620
a(V.
V.
tp1621
aa(lp1622
(VAnd
VCC
tp1623
a(Vthen
VRB
tp1624
a(V?
V.
tp1625
aa(lp1626
(VThe
VDT
tp1627
a(Vnext
VJJ
tp1628
a(Vstep
VNN
tp1629
a(Vis
VVBZ
tp1630
a(Vto
VTO
tp1631
a(Vreduce
VVB
tp1632
a(Vby
VIN
tp1633
a(V70
VCD
tp1634
a(V%
VNN
tp1635
a(Vthe
VDT
tp1636
a(Vdisproportion
VNN
tp1637
a(Vin
VIN
tp1638
a(Vmortality
VNN
tp1639
a(Vfrom
VIN
tp1640
a(Vcancer
VNN
tp1641
a(Vamong
VIN
tp1642
a(VEuropeans
VNNPS
tp1643
a(Vbeing
VVBG
tp1644
a(Vtreated
VVBN
tp1645
a(Vfor
VIN
tp1646
a(Vthese
VDT
tp1647
a(Vconditions
VNNS
tp1648
a(V.
V.
tp1649
aa(lp1650
(VFrom
VIN
tp1651
a(Vtoday
VNN
tp1652
a(V,
V,
tp1653
a(V\u2018
VCD
tp1654
a(VBolkestein
VNN
tp1655
a(V\u2019
VNN
tp1656
a(Vis
VVBZ
tp1657
a(Vno
VDT
tp1658
a(Vmore
VRBR
tp1659
a(V.
V.
tp1660
aa(lp1661
(VLaughter
VNN
tp1662
a(Vand
VCC
tp1663
a(Vapplause
VNN
tp1664
aa(lp1665
(VIts
VPRP$
tp1666
a(Vopponents
VNNS
tp1667
a(Vdo
VVBP
tp1668
a(Vnot
VRB
tp1669
a(Vreject
VVB
tp1670
a(Vthe
VDT
tp1671
a(Vname
VNN
tp1672
a(V.
V.
tp1673
aa(lp1674
(VIt
VPRP
tp1675
a(Vmay
VMD
tp1676
a(Vlook
VVB
tp1677
a(Vas
VIN
tp1678
a(Vthough
VIN
tp1679
a(Vyou
VPRP
tp1680
a(Vare
VVBP
tp1681
a(Vunlucky
VJJ
tp1682
a(Vto
VTO
tp1683
a(Vbe
VVB
tp1684
a(Vleading
VVBG
tp1685
a(Vthe
VDT
tp1686
a(VEU
VNNP
tp1687
a(Vin
VIN
tp1688
a(Vsuch
VPDT
tp1689
a(Va
VDT
tp1690
a(Vsituation
VNN
tp1691
a(V,
V,
tp1692
a(Vbut
VCC
tp1693
a(Vevery
VDT
tp1694
a(Vcrisis
VNN
tp1695
a(Vis
VVBZ
tp1696
a(Valso
VRB
tp1697
a(Van
VDT
tp1698
a(Vopportunity
VNN
tp1699
a(V.
V.
tp1700
aa(lp1701
(VIt
VPRP
tp1702
a(Vis
VVBZ
tp1703
a(Va
VDT
tp1704
a(Vblack
VJJ
tp1705
a(Vhole
VNN
tp1706
a(V.
V.
tp1707
aa(lp1708
(VWe
VPRP
tp1709
a(Vmust
VMD
tp1710
a(Vgo
VVB
tp1711
a(Vbeyond
VIN
tp1712
a(Vthe
VDT
tp1713
a(VPrague
VNNP
tp1714
a(Vmandate
VNN
tp1715
a(V.
V.
tp1716
aa(lp1717
(VIf
VIN
tp1718
a(Vwe
VPRP
tp1719
a(Vwant
VVBP
tp1720
a(Vto
VTO
tp1721
a(Vachieve
VVB
tp1722
a(Vcomplete
VJJ
tp1723
a(Vequality
VNN
tp1724
a(Vbetween
VIN
tp1725
a(Vmen
VNNS
tp1726
a(Vand
VCC
tp1727
a(Vwomen
VNNS
tp1728
a(Von
VIN
tp1729
a(Vthe
VDT
tp1730
a(Vlabour
VNN
tp1731
a(Vmarket
VNN
tp1732
a(V,
V,
tp1733
a(Vwomen
VNNS
tp1734
a(Vneed
VVBP
tp1735
a(Vto
VTO
tp1736
a(Vbe
VVB
tp1737
a(Vfully
VRB
tp1738
a(Vcompensated
VVBN
tp1739
a(Vduring
VIN
tp1740
a(Vmaternity
VNN
tp1741
a(Vleave
VNN
tp1742
a(V,
V,
tp1743
a(Vand
VCC
tp1744
a(Vmen
VNNS
tp1745
a(Vneed
VVBP
tp1746
a(Vto
VTO
tp1747
a(Vbe
VVB
tp1748
a(Vinvolved
VVBN
tp1749
a(Vin
VIN
tp1750
a(Vlooking
VVBG
tp1751
a(Vafter
VIN
tp1752
a(Vthe
VDT
tp1753
a(Vchildren
VNNS
tp1754
a(Vand
VCC
tp1755
a(Vthus
VRB
tp1756
a(Vgranted
VVBN
tp1757
a(Vpaternity
VNN
tp1758
a(Vleave
VNN
tp1759
a(V.
V.
tp1760
aa.