(lp1
(lp2
(VEnergy
VNNP
tp3
a(Vis
VVBZ
tp4
a(Vpart
VNN
tp5
a(Vof
VIN
tp6
a(Vthe
VDT
tp7
a(VETS
VNN
tp8
a(Vand
VCC
tp9
a(Vcarbon
VNN
tp10
a(Vprice
VNN
tp11
a(Vmust
VMD
tp12
a(Vbe
VVB
tp13
a(Vthe
VDT
tp14
a(Vmain
VJJ
tp15
a(Vdriver
VNN
tp16
a(Vof
VIN
tp17
a(Vdevelopment
VNN
tp18
a(V.
V.
tp19
aa(lp20
(VIt
VPRP
tp21
a(Vprevents
VVBZ
tp22
a(Vall
VDT
tp23
a(Vnuclear
VJJ
tp24
a(Vtests
VNNS
tp25
a(Vin
VIN
tp26
a(Vwhatever
VWDT
tp27
a(Vplace
VNN
tp28
a(V,
V,
tp29
a(Vincluding
VVBG
tp30
a(Vso-called
VJJ
tp31
a(Vpeaceful
VJJ
tp32
a(Vnuclear
VJJ
tp33
a(Vexplosions
VNNS
tp34
a(V,
V,
tp35
a(Vwhich
VWDT
tp36
a(Vwere
VVBD
tp37
a(Vthe
VDT
tp38
a(Vsubject
VNN
tp39
a(Vof
VIN
tp40
a(Va
VDT
tp41
a(Vheated
VJJ
tp42
a(Vtheoretical
VJJ
tp43
a(Vdebate
VNN
tp44
a(Vwhen
VWRB
tp45
a(Vthe
VDT
tp46
a(VNon-Proliferation
VNNP
tp47
a(VTreaty
VNNP
tp48
a(Vcame
VVBD
tp49
a(Vinto
VIN
tp50
a(Vbeing
VVBG
tp51
a(Vin
VIN
tp52
a(Vthe
VDT
tp53
a(V1960s
VNNS
tp54
a(V.
V.
tp55
aa(lp56
(VThis
VDT
tp57
a(Vwould
VMD
tp58
a(Valso
VRB
tp59
a(Vbe
VVB
tp60
a(Vvery
VRB
tp61
a(Vvaluable
VJJ
tp62
a(Vfor
VIN
tp63
a(Vthe
VDT
tp64
a(Vfuture
VJJ
tp65
a(Vdevelopment
VNN
tp66
a(Vof
VIN
tp67
a(Vrelations
VNNS
tp68
a(Vespecially
VRB
tp69
a(Vwith
VIN
tp70
a(Vlarger
VJJR
tp71
a(Vpartners
VNNS
tp72
a(Vsuch
VJJ
tp73
a(Vas
VIN
tp74
a(VRussia
VNNP
tp75
a(V,
V,
tp76
a(VTurkey
VNNP
tp77
a(Vand
VCC
tp78
a(VUkraine
VNNP
tp79
a(V.
V.
tp80
aa(lp81
(VWe
VPRP
tp82
a(Vhave
VVBP
tp83
a(Vtried
VVBN
tp84
a(V.
V.
tp85
aa(lp86
(VThey
VPRP
tp87
a(Vremember
VVBP
tp88
a(Vthe
VDT
tp89
a(Vdivision
VNN
tp90
a(Vover
VIN
tp91
a(Vforeign
VJJ
tp92
a(Vpolicy
VNN
tp93
a(V,
V,
tp94
a(Vthey
VPRP
tp95
a(Vremember
VVBP
tp96
a(Vthe
VDT
tp97
a(Vsplit
VNN
tp98
a(Vover
VIN
tp99
a(Vbudgetary
VJJ
tp100
a(Vpolicy
VNN
tp101
a(V,
V,
tp102
a(Vthey
VPRP
tp103
a(Vremember
VVBP
tp104
a(Vthe
VDT
tp105
a(Vdeadlock
VNN
tp106
a(Von
VIN
tp107
a(Vthe
VDT
tp108
a(Vdraft
VNN
tp109
a(Vconstitution
VNN
tp110
a(V,
V,
tp111
a(Vand
VCC
tp112
a(Vthey
VPRP
tp113
a(Vremember
VVBP
tp114
a(Vthe
VDT
tp115
a(Vfeeling
VNN
tp116
a(Vof
VIN
tp117
a(Vimpotence
VNN
tp118
a(Vas
VIN
tp119
a(Vthey
VPRP
tp120
a(Vwatched
VVBD
tp121
a(Vthe
VDT
tp122
a(Vdollar
VNN
tp123
a(Vsoar
VVB
tp124
a(Vin
VIN
tp125
a(Vvalue
VNN
tp126
a(V.
V.
tp127
aa(lp128
(VThis
VDT
tp129
a(Vman
VNN
tp130
a(Vis
VVBZ
tp131
a(Va
VDT
tp132
a(Vmonster
VNN
tp133
a(V.
V.
tp134
aa(lp135
(VThere
VEX
tp136
a(Vare
VVBP
tp137
a(Vdifferent
VJJ
tp138
a(Vpolitical
VJJ
tp139
a(Vgroups
VNNS
tp140
a(Vand
VCC
tp141
a(Vthere
VEX
tp142
a(Vare
VVBP
tp143
a(Vdiffering
VVBG
tp144
a(Vpolitical
VJJ
tp145
a(Vviews
VNNS
tp146
a(V.
V.
tp147
aa(lp148
(VCo-operation
VNN
tp149
a(Vis
VVBZ
tp150
a(Vthe
VDT
tp151
a(Vkey
VJJ
tp152
a(Vto
VTO
tp153
a(Va
VDT
tp154
a(Vsuccessful
VJJ
tp155
a(Venvironmental
VJJ
tp156
a(Vpolicy
VNN
tp157
a(V.
V.
tp158
aa(lp159
(VWhen
VWRB
tp160
a(Vthe
VDT
tp161
a(Vforces
VNNS
tp162
a(Vof
VIN
tp163
a(Vnature
VNN
tp164
a(Vwreak
VVB
tp165
a(Vhavoc
VNN
tp166
a(Vin
VIN
tp167
a(Vthis
VDT
tp168
a(Vway
VNN
tp169
a(V,
V,
tp170
a(Vleaving
VVBG
tp171
a(Vbehind
VIN
tp172
a(Va
VDT
tp173
a(Vtrail
VNN
tp174
a(Vof
VIN
tp175
a(Vdestruction
VNN
tp176
a(V,
V,
tp177
a(Vdeath
VNN
tp178
a(Vand
VCC
tp179
a(Vinjury
VNN
tp180
a(V,
V,
tp181
a(Vwe
VPRP
tp182
a(Vcannot
VVBP
tp183
a(Vhelp
VNN
tp184
a(Vbut
VCC
tp185
a(Vfeel
VVBP
tp186
a(Vcompletely
VRB
tp187
a(Vpowerless
VJJ
tp188
a(V.
V.
tp189
aa(lp190
(VWill
VMD
tp191
a(VGeneva
VNNP
tp192
a(Vhappen
VVB
tp193
a(V?
V.
tp194
aa(lp195
(VThey
VPRP
tp196
a(Vcertainly
VRB
tp197
a(Vcould
VMD
tp198
a(Vbe
VVB
tp199
a(Vready
VJJ
tp200
a(Vby
VIN
tp201
a(Vthen
VRB
tp202
a(Vif
VIN
tp203
a(Vthis
VDT
tp204
a(Vprospect
VNN
tp205
a(Vwere
VVBD
tp206
a(Vset
VVBN
tp207
a(Vbefore
VIN
tp208
a(Vthem
VPRP
tp209
a(Vnow
VRB
tp210
a(V.
V.
tp211
aa(lp212
(VThese
VDT
tp213
a(Vplans
VNNS
tp214
a(Vshould
VMD
tp215
a(Vbe
VVB
tp216
a(Vobligatory
VJJ
tp217
a(Vfor
VIN
tp218
a(Vall
VPDT
tp219
a(Vthe
VDT
tp220
a(Vcountries
VNNS
tp221
a(Vinvolved
VVBN
tp222
a(V,
V,
tp223
a(Vwith
VIN
tp224
a(Vthe
VDT
tp225
a(Vexception
VNN
tp226
a(Vof
VIN
tp227
a(Vthe
VDT
tp228
a(Vleast
VJJS
tp229
a(Vdeveloped
VVBN
tp230
a(V.
V.
tp231
aa(lp232
(VWe
VPRP
tp233
a(Vare
VVBP
tp234
a(Vin
VIN
tp235
a(Vthe
VDT
tp236
a(Vworst
VJJS
tp237
a(Vcrisis
VNN
tp238
a(Vsince
VIN
tp239
a(V1929
VCD
tp240
a(V.
V.
tp241
aa(lp242
(VLadies
VNNP
tp243
a(Vand
VCC
tp244
a(Vgentlemen
VNNS
tp245
a(V,
V,
tp246
a(Vyou
VPRP
tp247
a(Vhave
VVBP
tp248
a(Vnot
VRB
tp249
a(Vmisheard
VVB
tp250
a(Vme
VPRP
tp251
a(V;
V:
tp252
a(Vin
VIN
tp253
a(V2005
VCD
tp254
a(V,
V,
tp255
a(Vone
VCD
tp256
a(Vof
VIN
tp257
a(Vthe
VDT
tp258
a(Vmost
VRBS
tp259
a(Vfiercely
VRB
tp260
a(Vcriticised
VVBD
tp261
a(Vaspects
VNNS
tp262
a(Vof
VIN
tp263
a(Vthe
VDT
tp264
a(Vsituation
VNN
tp265
a(Vin
VIN
tp266
a(VMyanmar
VNNP
tp267
a(Vis
VVBZ
tp268
a(Vthe
VDT
tp269
a(Vrole
VNN
tp270
a(Vof
VIN
tp271
a(Vthe
VDT
tp272
a(Varmy
VNN
tp273
a(Vin
VIN
tp274
a(Vdaily
VJJ
tp275
a(Vlife
VNN
tp276
a(Vand
VCC
tp277
a(Vthe
VDT
tp278
a(Vimprisonment
VNN
tp279
a(Vof
VIN
tp280
a(Vhundreds
VNNS
tp281
a(Vof
VIN
tp282
a(Vpeople
VNNS
tp283
a(Von
VIN
tp284
a(Vaccount
VNN
tp285
a(Vof
VIN
tp286
a(Vtheir
VPRP$
tp287
a(Vpolitical
VJJ
tp288
a(Vopinions
VNNS
tp289
a(V.
V.
tp290
aa(lp291
(VThe
VDT
tp292
a(VUnited
VNNP
tp293
a(VStates
VNNPS
tp294
a(Vand
VCC
tp295
a(Vthe
VDT
tp296
a(VEuropean
VNNP
tp297
a(VUnion
VNNP
tp298
a(Vare
VVBP
tp299
a(Vjointly
VRB
tp300
a(Vcommitted
VVBN
tp301
a(Vto
VTO
tp302
a(Vimplementing
VVBG
tp303
a(Vthis
VDT
tp304
a(Vvital
VJJ
tp305
a(Vprogramme
VNN
tp306
a(Vto
VTO
tp307
a(Vreduce
VVB
tp308
a(Vworld
VNN
tp309
a(Vpoverty
VNN
tp310
a(V.
V.
tp311
aa(lp312
(VThe
VDT
tp313
a(VEU
VNNP
tp314
a(VMember
VNNP
tp315
a(VStates
VNNPS
tp316
a(Vare
VVBP
tp317
a(Vstill
VRB
tp318
a(Vhaving
VVBG
tp319
a(Vto
VTO
tp320
a(Voffer
VVB
tp321
a(Vtheir
VPRP$
tp322
a(Vtreasury
VNN
tp323
a(Vbonds
VNNS
tp324
a(Vin
VIN
tp325
a(Vthe
VDT
tp326
a(Vbazaar
VNN
tp327
a(Vof
VIN
tp328
a(Vthe
VDT
tp329
a(Vfinancial
VJJ
tp330
a(Vmarkets
VNNS
tp331
a(Vand
VCC
tp332
a(Vtry
VVB
tp333
a(Vto
VTO
tp334
a(Vgain
VVB
tp335
a(Vthe
VDT
tp336
a(Vconfidence
VNN
tp337
a(Vof
VIN
tp338
a(Vthe
VDT
tp339
a(Vspeculators
VNNS
tp340
a(Vby
VIN
tp341
a(Vadopting
VVBG
tp342
a(Vsuicidal
VJJ
tp343
a(Vausterity
VNN
tp344
a(Vpackages
VNNS
tp345
a(V.
V.
tp346
aa(lp347
(VThis
VDT
tp348
a(Vexample
VNN
tp349
a(Vis
VVBZ
tp350
a(Vnot
VRB
tp351
a(Vunique
VJJ
tp352
a(V.
V.
tp353
aa(lp354
(VIt
VPRP
tp355
a(Vis
VVBZ
tp356
a(Vhard
VJJ
tp357
a(Vto
VTO
tp358
a(Vsay
VVB
tp359
a(V.
V.
tp360
aa(lp361
(VMore
VRBR
tp362
a(Vspecifically
VRB
tp363
a(V,
V,
tp364
a(Vthe
VDT
tp365
a(Vincrease
VNN
tp366
a(Vin
VIN
tp367
a(Vvulnerable
VJJ
tp368
a(Vgroups
VNNS
tp369
a(Vsurprises
VNNS
tp370
a(Vus
VPRP
tp371
a(V,
V,
tp372
a(Vgiven
VVBN
tp373
a(Vthe
VDT
tp374
a(Vinvestment
VNN
tp375
a(Vin
VIN
tp376
a(Vthese
VDT
tp377
a(Vregions
VNNS
tp378
a(V.
V.
tp379
aa(lp380
(VThe
VDT
tp381
a(VUEN
VNNP
tp382
a(VGroup
VNNP
tp383
a(Vare
VVBP
tp384
a(Vwelcome
VJJ
tp385
a(Vto
VTO
tp386
a(Vvote
VVB
tp387
a(Vagainst
VIN
tp388
a(Vthem
VPRP
tp389
a(Vand
VCC
tp390
a(Vthen
VRB
tp391
a(Vwe
VPRP
tp392
a(Vwill
VMD
tp393
a(Vsee
VVB
tp394
a(Vif
VIN
tp395
a(Vit
VPRP
tp396
a(Vis
VVBZ
tp397
a(Vleft
VVBN
tp398
a(Vin
VIN
tp399
a(Vor
VCC
tp400
a(Vtaken
VVBN
tp401
a(Vout
VRP
tp402
a(V.
V.
tp403
aa(lp404
(VOne
VCD
tp405
a(Vof
VIN
tp406
a(Vthe
VDT
tp407
a(VMembers
VNNS
tp408
a(Vreferred
VVBD
tp409
a(Vto
VTO
tp410
a(Vthe
VDT
tp411
a(Vcase
VNN
tp412
a(Vof
VIN
tp413
a(Vthe
VDT
tp414
a(VState
VNN
tp415
a(Vof
VIN
tp416
a(VSingapore
VNNP
tp417
a(V.
V.
tp418
aa(lp419
(VProblems
VNNS
tp420
a(Valso
VRB
tp421
a(Vremain
VVBP
tp422
a(Vin
VIN
tp423
a(Vthe
VDT
tp424
a(Vfields
VNNS
tp425
a(Vof
VIN
tp426
a(Veconomic
VJJ
tp427
a(Vcompetition
VNN
tp428
a(V,
V,
tp429
a(Vof
VIN
tp430
a(Vstate
VNN
tp431
a(Vsupport
VNN
tp432
a(Vand
VCC
tp433
a(V,
V,
tp434
a(Vof
VIN
tp435
a(Vcourse
VNN
tp436
a(V,
V,
tp437
a(Vof
VIN
tp438
a(Vprotecting
VVBG
tp439
a(Vthe
VDT
tp440
a(Vnatural
VJJ
tp441
a(Venvironment
VNN
tp442
a(V.
V.
tp443
aa(lp444
(VWhat
VWDT
tp445
a(Vworks
VNNS
tp446
a(Vbest
VRBS
tp447
a(Vis
VVBZ
tp448
a(Vnot
VRB
tp449
a(Vclear
VJJ
tp450
a(V.
V.
tp451
aa(lp452
(VWe
VPRP
tp453
a(Vdo
VVBP
tp454
a(Vnot
VRB
tp455
a(Vwork
VVB
tp456
a(Vfor
VIN
tp457
a(Vvery
VRB
tp458
a(Vmany
VJJ
tp459
a(Vyears
VNNS
tp460
a(Vof
VIN
tp461
a(Vour
VPRP$
tp462
a(Vlives
VNNS
tp463
a(V.
V.
tp464
aa(lp465
(VWe
VPRP
tp466
a(Veven
VRB
tp467
a(Vsee
VVBP
tp468
a(Vold
VJJ
tp469
a(Vmen
VNNS
tp470
a(Vof
VIN
tp471
a(Varms
VNNS
tp472
a(Vnow
VRB
tp473
a(Vtalking
VVBG
tp474
a(Vabout
VIN
tp475
a(Vputting
VVBG
tp476
a(Vdown
VRP
tp477
a(Vyour
VPRP$
tp478
a(Vguns
VNNS
tp479
a(Vand
VCC
tp480
a(Vspeaking
VVBG
tp481
a(Vfor
VIN
tp482
a(Vpeace
VNN
tp483
a(V.
V.
tp484
aa(lp485
(VTheir
VPRP$
tp486
a(Vtiming
VNN
tp487
a(Vwas
VVBD
tp488
a(Va
VDT
tp489
a(Vbit
VNN
tp490
a(Vodd
VJJ
tp491
a(V,
V,
tp492
a(Vconsidering
VVBG
tp493
a(Vthat
VIN
tp494
a(Vtheir
VPRP$
tp495
a(Vmove
VNN
tp496
a(Vwas
VVBD
tp497
a(Vmade
VVBN
tp498
a(Vduring
VIN
tp499
a(Vthe
VDT
tp500
a(VCOREPER
VNNP
tp501
a(Vmeeting
VNN
tp502
a(V.
V.
tp503
aa(lp504
(VSo
VRB
tp505
a(V29
VCD
tp506
a(Vcountries
VNNS
tp507
a(Vhave
VVBP
tp508
a(Vsigned
VVBN
tp509
a(Vup
VRP
tp510
a(Vto
VTO
tp511
a(Vit
VPRP
tp512
a(V.
V.
tp513
aa(lp514
(VI
VPRP
tp515
a(Vtherefore
VRB
tp516
a(Vbelieve
VVBP
tp517
a(Vthat
VIN
tp518
a(V,
V,
tp519
a(Vin
VIN
tp520
a(Vthe
VDT
tp521
a(Vfuture
VNN
tp522
a(V,
V,
tp523
a(Vwe
VPRP
tp524
a(Vshould
VMD
tp525
a(Vin
VIN
tp526
a(Vevery
VDT
tp527
a(Vway
VNN
tp528
a(Vsupport
VNN
tp529
a(Vprecisely
VRB
tp530
a(Vthis
VDT
tp531
a(Vorganisation
VNN
tp532
a(V,
V,
tp533
a(Vfor
VIN
tp534
a(Vit
VPRP
tp535
a(Vis
VVBZ
tp536
a(Vpsychological
VJJ
tp537
a(Vdamage
VNN
tp538
a(Vabove
VIN
tp539
a(Vall
VDT
tp540
a(Vthat
VIN
tp541
a(Vthe
VDT
tp542
a(Vchildren
VNNS
tp543
a(Vare
VVBP
tp544
a(Vsuffering
VVBG
tp545
a(Vfrom
VIN
tp546
a(Vand
VCC
tp547
a(Vwhich
VWDT
tp548
a(Vmakes
VVBZ
tp549
a(Vmany
VJJ
tp550
a(Vof
VIN
tp551
a(Vthem
VPRP
tp552
a(Vwant
VVBP
tp553
a(Vto
VTO
tp554
a(Vreturn
VVB
tp555
a(Vto
VTO
tp556
a(Vthe
VDT
tp557
a(Vmilitary
VJJ
tp558
a(Vforces
VNNS
tp559
a(V.
V.
tp560
aa(lp561
(VAn
VDT
tp562
a(Veye
VNN
tp563
a(Vfor
VIN
tp564
a(Van
VDT
tp565
a(Veye
VNN
tp566
a(Vand
VCC
tp567
a(Va
VDT
tp568
a(Vtooth
VNN
tp569
a(Vfor
VIN
tp570
a(Va
VDT
tp571
a(Vtooth
VNN
tp572
a(V.
V.
tp573
aa(lp574
(VIt
VPRP
tp575
a(Vwill
VMD
tp576
a(Vonly
VRB
tp577
a(Vbe
VVB
tp578
a(Vpossible
VJJ
tp579
a(Vfor
VIN
tp580
a(Vthe
VDT
tp581
a(Vexact
VJJ
tp582
a(Vborders
VNNS
tp583
a(Vof
VIN
tp584
a(Vthe
VDT
tp585
a(Vstate
VNN
tp586
a(Vof
VIN
tp587
a(VIsrael
VNNP
tp588
a(V,
V,
tp589
a(Vthe
VDT
tp590
a(Vonly
VJJ
tp591
a(Vdemocracy
VNN
tp592
a(Vin
VIN
tp593
a(Vthat
VDT
tp594
a(Vregion
VNN
tp595
a(V,
V,
tp596
a(Vto
VTO
tp597
a(Vbe
VVB
tp598
a(Vuniversally
VRB
tp599
a(Vrecognised
VVBN
tp600
a(Vonce
VRB
tp601
a(Vthese
VDT
tp602
a(Vnegotiations
VNNS
tp603
a(Vhave
VVBP
tp604
a(Vproved
VVBN
tp605
a(Vto
VTO
tp606
a(Vbe
VVB
tp607
a(Va
VDT
tp608
a(Vsuccess
VNN
tp609
a(V.
V.
tp610
aa(lp611
(VThis
VDT
tp612
a(Vwas
VVBD
tp613
a(Vsold
VVBN
tp614
a(Vwhen
VWRB
tp615
a(Vhe
VPRP
tp616
a(Vwas
VVBD
tp617
a(Vnot
VRB
tp618
a(Vlooking
VVBG
tp619
a(V.
V.
tp620
aa(lp621
(VI
VPRP
tp622
a(Vam
VVBP
tp623
a(Vin
VIN
tp624
a(Vfull
VJJ
tp625
a(Vagreement
VNN
tp626
a(Vwith
VIN
tp627
a(Vwhat
VWP
tp628
a(Vyou
VPRP
tp629
a(Vplan
VVBP
tp630
a(Vto
VTO
tp631
a(Vdo
VVB
tp632
a(Vin
VIN
tp633
a(Vyour
VPRP$
tp634
a(Vfour
VCD
tp635
a(Vpoints
VNNS
tp636
a(V.
V.
tp637
aa(lp638
(VThe
VDT
tp639
a(Vkey
VNN
tp640
a(Vis
VVBZ
tp641
a(Vhow
VWRB
tp642
a(Vwe
VPRP
tp643
a(Vprovide
VVBP
tp644
a(Vincentives
VNNS
tp645
a(Vto
VTO
tp646
a(Vresearch
VNN
tp647
a(V.
V.
tp648
aa(lp649
(VSuch
VPDT
tp650
a(Va
VDT
tp651
a(Vcontribution
VNN
tp652
a(Vcan
VMD
tp653
a(Vbe
VVB
tp654
a(Vconceived
VVBN
tp655
a(V.
V.
tp656
aa(lp657
(VThen
VRB
tp658
a(V,
V,
tp659
a(Vcombining
VVBG
tp660
a(Vthe
VDT
tp661
a(Vcervical
VJJ
tp662
a(Vsmear
VNN
tp663
a(V(
VCD
tp664
a(Vpap
VNN
tp665
a(Vtest
VNN
tp666
a(V)
VNN
tp667
a(Vwith
VIN
tp668
a(Vthe
VDT
tp669
a(VHPV
VNN
tp670
a(Vtest
VNN
tp671
a(Vto
VTO
tp672
a(Vdetect
VVB
tp673
a(Vcervical
VJJ
tp674
a(Vcancer
VNN
tp675
a(V.
V.
tp676
aa(lp677
(VThis
VDT
tp678
a(Vwould
VMD
tp679
a(Vlead
VVB
tp680
a(Vto
VTO
tp681
a(Vvirtual
VJJ
tp682
a(Vfarming
VNN
tp683
a(V.
V.
tp684
aa(lp685
(VYes
VUH
tp686
a(V,
V,
tp687
a(Vyou
VPRP
tp688
a(Vmay
VMD
tp689
a(Vwell
VRB
tp690
a(Vbe
VVB
tp691
a(Vright
VRB
tp692
a(V.
V.
tp693
aa(lp694
(VHowever
VRB
tp695
a(V,
V,
tp696
a(Vdogs
VNNS
tp697
a(Vare
VVBP
tp698
a(Vguardian
VNN
tp699
a(Vangels
VNNS
tp700
a(V.
V.
tp701
aa(lp702
(VOver
VIN
tp703
a(Vthe
VDT
tp704
a(Vlast
VJJ
tp705
a(Vfive
VCD
tp706
a(Vdecades
VNNS
tp707
a(V,
V,
tp708
a(Vthe
VDT
tp709
a(Vtransplanting
VVBG
tp710
a(Vof
VIN
tp711
a(Vorgans
VNNS
tp712
a(Vhas
VVBZ
tp713
a(Vbecome
VVBN
tp714
a(Van
VDT
tp715
a(Veffective
VJJ
tp716
a(Vpractice
VNN
tp717
a(Vat
VIN
tp718
a(Vglobal
VJJ
tp719
a(Vlevel
VNN
tp720
a(V,
V,
tp721
a(Vwhich
VWDT
tp722
a(Vhas
VVBZ
tp723
a(Vcontributed
VVBN
tp724
a(Vto
VTO
tp725
a(Vimproving
VVBG
tp726
a(Vthe
VDT
tp727
a(Vquality
VNN
tp728
a(Vof
VIN
tp729
a(Vlife
VNN
tp730
a(Vand
VCC
tp731
a(Vincreasing
VVBG
tp732
a(Vthe
VDT
tp733
a(Vlife
VNN
tp734
a(Vexpectancies
VNNS
tp735
a(Vof
VIN
tp736
a(Vsufferers
VNNS
tp737
a(V.
V.
tp738
aa(lp739
(VPresident
VNNP
tp740
a(VMusharraf
VNNP
tp741
a(Vhas
VVBZ
tp742
a(Vtaken
VVBN
tp743
a(Voff
VRP
tp744
a(Vhis
VPRP$
tp745
a(Vuniform
VNN
tp746
a(Vas
VIN
tp747
a(Vpromised
VVBN
tp748
a(V.
V.
tp749
aa(lp750
(VI
VPRP
tp751
a(Vlook
VVBP
tp752
a(Vforward
VRB
tp753
a(Vto
VTO
tp754
a(Vassessing
VVBG
tp755
a(Vthe
VDT
tp756
a(Vsituation
VNN
tp757
a(Vfor
VIN
tp758
a(Vmyself
VPRP
tp759
a(Vduring
VIN
tp760
a(Vmy
VPRP$
tp761
a(Vtrip
VNN
tp762
a(Vto
VTO
tp763
a(VChina
VNNP
tp764
a(Vearly
VRB
tp765
a(Vnext
VJJ
tp766
a(Vmonth
VNN
tp767
a(V.
V.
tp768
aa(lp769
(VShortly
VRB
tp770
a(Vafter
VIN
tp771
a(Vour
VPRP$
tp772
a(Vsummit
VNN
tp773
a(Vin
VIN
tp774
a(VWashington
VNNP
tp775
a(V,
V,
tp776
a(Vwe
VPRP
tp777
a(Vand
VCC
tp778
a(Vthe
VDT
tp779
a(VUnited
VNNP
tp780
a(VStates
VNNPS
tp781
a(Vwill
VMD
tp782
a(Vco-host
VVB
tp783
a(Van
VDT
tp784
a(Vinternational
VJJ
tp785
a(Vconference
VNN
tp786
a(Vin
VIN
tp787
a(VBrussels
VNNP
tp788
a(Von
VIN
tp789
a(VIraq
VNNP
tp790
a(V.
V.
tp791
aa(lp792
(VIn
VIN
tp793
a(Vall
VDT
tp794
a(Vprobability
VNN
tp795
a(V,
V,
tp796
a(Vthe
VDT
tp797
a(Vvote
VNN
tp798
a(Vwill
VMD
tp799
a(Vnot
VRB
tp800
a(Vtake
VVB
tp801
a(Vmuch
VJJ
tp802
a(Vtime
VNN
tp803
a(V.
V.
tp804
aa(lp805
(VGood
VJJ
tp806
a(Vluck
VNN
tp807
a(Vfor
VIN
tp808
a(Vthe
VDT
tp809
a(Vcontinuation
VNN
tp810
a(Vof
VIN
tp811
a(Vyour
VPRP$
tp812
a(Vwork
VNN
tp813
a(V.
V.
tp814
aa(lp815
(VIn
VIN
tp816
a(Vover
VIN
tp817
a(V55
VCD
tp818
a(V%
VNN
tp819
a(Vof
VIN
tp820
a(Vthe
VDT
tp821
a(Vcases
VNNS
tp822
a(V,
V,
tp823
a(Vthe
VDT
tp824
a(Vaggressor
VNN
tp825
a(Vwas
VVBD
tp826
a(Vthe
VDT
tp827
a(Vvictim
VNN
tp828
a(V&apos;s
VVBZ
tp829
a(Vprofessional
VJJ
tp830
a(Vsuperior
VJJ
tp831
a(V.
V.
tp832
aa(lp833
(VIit
VNN
tp834
a(Vis
VVBZ
tp835
a(Vestimated
VVBN
tp836
a(Vthat
VIN
tp837
a(V17
VCD
tp838
a(V%
VNN
tp839
a(Vof
VIN
tp840
a(Vwomen
VNNS
tp841
a(Vlive
VVBP
tp842
a(Vin
VIN
tp843
a(Vpoverty
VNN
tp844
a(V,
V,
tp845
a(Vand
VCC
tp846
a(Vthat
VIN
tp847
a(Vmost
VJJS
tp848
a(Vof
VIN
tp849
a(Vthese
VDT
tp850
a(Vare
VVBP
tp851
a(Vlone
VJJ
tp852
a(Vmothers
VNNS
tp853
a(Vand
VCC
tp854
a(Vimmigrants
VNNS
tp855
a(V.
V.
tp856
aa(lp857
(VIt
VPRP
tp858
a(Vwill
VMD
tp859
a(Veven
VRB
tp860
a(Vbe
VVB
tp861
a(Vmore
VRBR
tp862
a(Vin
VIN
tp863
a(Vthe
VDT
tp864
a(V2000
VCD
tp865
a(V.
V.
tp866
aa(lp867
(VI
VPRP
tp868
a(Vdo
VVBP
tp869
a(Vnot
VRB
tp870
a(Vtherefore
VRB
tp871
a(Vbelieve
VVB
tp872
a(Vthat
VIN
tp873
a(Vanimals
VNNS
tp874
a(Vare
VVBP
tp875
a(Vbeing
VVBG
tp876
a(Vtreated
VVBN
tp877
a(Vcruelly
VRB
tp878
a(Vif
VIN
tp879
a(Vthey
VPRP
tp880
a(Vare
VVBP
tp881
a(Vnot
VRB
tp882
a(Vstunned
VJJ
tp883
a(Vafter
VIN
tp884
a(Vtheir
VPRP$
tp885
a(Vthroats
VNNS
tp886
a(Vare
VVBP
tp887
a(Vcut
VVBN
tp888
a(V.
V.
tp889
aa(lp890
(VI
VPRP
tp891
a(Vam
VVBP
tp892
a(Vthe
VDT
tp893
a(Vfirst
VJJ
tp894
a(Vto
VTO
tp895
a(Vacknowledge
VVB
tp896
a(Vthat
VIN
tp897
a(Vwe
VPRP
tp898
a(Vhave
VVBP
tp899
a(Va
VDT
tp900
a(Vgreat
VJJ
tp901
a(Vdeal
VNN
tp902
a(Vto
VTO
tp903
a(Vdo
VVB
tp904
a(Vto
VTO
tp905
a(Vimprove
VVB
tp906
a(Vour
VPRP$
tp907
a(Vperformance
VNN
tp908
a(V.
V.
tp909
aa(lp910
(VThere
VEX
tp911
a(Vare
VVBP
tp912
a(Vmany
VJJ
tp913
a(Vgood
VJJ
tp914
a(Vemployers
VNNS
tp915
a(Vin
VIN
tp916
a(VIreland
VNNP
tp917
a(Vwho
VWP
tp918
a(Vtreat
VVBP
tp919
a(Vtheir
VPRP$
tp920
a(Vworkers
VNNS
tp921
a(Vwell
VRB
tp922
a(V.
V.
tp923
aa(lp924
(VEven
VRB
tp925
a(Vat
VIN
tp926
a(Vthat
VDT
tp927
a(Vtime
VNN
tp928
a(V,
V,
tp929
a(Vthe
VDT
tp930
a(VWest
VNNP
tp931
a(Vcapitulated
VVBD
tp932
a(Vmorally
VRB
tp933
a(Vto
VTO
tp934
a(Vthe
VDT
tp935
a(VSoviets
VNNPS
tp936
a(V.
V.
tp937
aa(lp938
(VLast
VJJ
tp939
a(Vyear
VNN
tp940
a(V,
V,
tp941
a(Vthe
VDT
tp942
a(VEU
VNNP
tp943
a(Vadopted
VVBD
tp944
a(V3
VCD
tp945
a(V124
VCD
tp946
a(Vregulations
VNNS
tp947
a(V.
V.
tp948
aa(lp949
(VLast
VJJ
tp950
a(Vweek
VNN
tp951
a(V,
V,
tp952
a(Va
VDT
tp953
a(Vweb
VNN
tp954
a(Vsite
VNN
tp955
a(Vof
VIN
tp956
a(Vthis
VDT
tp957
a(Vkind
VNN
tp958
a(Vwas
VVBD
tp959
a(Vopened
VVBN
tp960
a(Vthat
VIN
tp961
a(Vrefers
VVBZ
tp962
a(Vto
VTO
tp963
a(Va
VDT
tp964
a(VSoviet
VJJ
tp965
a(Vhistory
VNN
tp966
a(Vbook
VNN
tp967
a(Vfrom
VIN
tp968
a(V1982
VCD
tp969
a(V,
V,
tp970
a(Vaccording
VVBG
tp971
a(Vto
VTO
tp972
a(Vwhich
VWDT
tp973
a(VFinland
VNNP
tp974
a(Vsupposedly
VRB
tp975
a(Vinitiated
VVBD
tp976
a(Vthe
VDT
tp977
a(VWinter
VNNP
tp978
a(VWar
VNNP
tp979
a(V.
V.
tp980
aa(lp981
(VYou
VPRP
tp982
a(Vcannot
VVBP
tp983
a(Vhave
VVB
tp984
a(Va
VDT
tp985
a(VConstitution
VNNP
tp986
a(Vthat
VWDT
tp987
a(Vis
VVBZ
tp988
a(Vnegotiated
VVBN
tp989
a(Vby
VIN
tp990
a(V500
VCD
tp991
a(Vmillion
VCD
tp992
a(Vpeople
VNNS
tp993
a(V.
V.
tp994
aa(lp995
(VBoth
VDT
tp996
a(Vare
VVBP
tp997
a(Vmuch
VRB
tp998
a(Vmore
VRBR
tp999
a(Vexpensive
VJJ
tp1000
a(Vthan
VIN
tp1001
a(Voverland
VNN
tp1002
a(Vroutes
VNNS
tp1003
a(V.
V.
tp1004
aa(lp1005
(VI
VPRP
tp1006
a(Vheard
VVBD
tp1007
a(Vabout
VIN
tp1008
a(Van
VDT
tp1009
a(Vinteresting
VJJ
tp1010
a(Vreport
VNN
tp1011
a(Vtoday
VNN
tp1012
a(V,
V,
tp1013
a(Vwhich
VWDT
tp1014
a(Vsays
VVBZ
tp1015
a(Vthat
VIN
tp1016
a(Vthe
VDT
tp1017
a(VPolish
VJJ
tp1018
a(Vmedical
VJJ
tp1019
a(Vhealthcare
VNN
tp1020
a(Vsystem
VNN
tp1021
a(Vhas
VVBZ
tp1022
a(Vstarted
VVBN
tp1023
a(Vreceiving
VVBG
tp1024
a(Vpatients
VNNS
tp1025
a(Vfrom
VIN
tp1026
a(VGermany
VNNP
tp1027
a(Vand
VCC
tp1028
a(Vthe
VDT
tp1029
a(VUK
VNNP
tp1030
a(V.
V.
tp1031
aa(lp1032
(VHe
VPRP
tp1033
a(Vreminded
VVBD
tp1034
a(Vus
VPRP
tp1035
a(Vof
VIN
tp1036
a(Vthe
VDT
tp1037
a(Vhistory
VNN
tp1038
a(Vof
VIN
tp1039
a(Vhis
VPRP$
tp1040
a(Vand
VCC
tp1041
a(Vmany
VJJ
tp1042
a(Vcountries
VNNS
tp1043
a(V,
V,
tp1044
a(Vparticularly
VRB
tp1045
a(Vin
VIN
tp1046
a(VEastern
VNNP
tp1047
a(VEurope
VNNP
tp1048
a(V,
V,
tp1049
a(Vwhich
VWDT
tp1050
a(Vwere
VVBD
tp1051
a(Voccupied
VVBN
tp1052
a(Vby
VIN
tp1053
a(Vthe
VDT
tp1054
a(VNazis
VNNPS
tp1055
a(Vand
VCC
tp1056
a(Vthen
VRB
tp1057
a(V,
V,
tp1058
a(Veffectively
VRB
tp1059
a(V,
V,
tp1060
a(Vby
VIN
tp1061
a(Vthe
VDT
tp1062
a(VCommunists
VNNPS
tp1063
a(V.
V.
tp1064
aa(lp1065
(VWhat
VWP
tp1066
a(Vis
VVBZ
tp1067
a(Vmore
VJJR
tp1068
a(V,
V,
tp1069
a(VI
VPRP
tp1070
a(Vbelieve
VVBP
tp1071
a(Vthat
VIN
tp1072
a(V,
V,
tp1073
a(Vif
VIN
tp1074
a(Veveryone
VNN
tp1075
a(Vmakes
VVBZ
tp1076
a(Vmore
VJJR
tp1077
a(Vof
VIN
tp1078
a(Van
VDT
tp1079
a(Veffort
VNN
tp1080
a(V,
V,
tp1081
a(Vwe
VPRP
tp1082
a(Vare
VVBP
tp1083
a(Vnow
VRB
tp1084
a(Vreally
VRB
tp1085
a(Vvery
VRB
tp1086
a(Vclose
VJJ
tp1087
a(Vto
VTO
tp1088
a(Va
VDT
tp1089
a(VEuropean
VJJ
tp1090
a(Vdevelopment
VNN
tp1091
a(Vconsensus
VNN
tp1092
a(V.
V.
tp1093
aa(lp1094
(VThe
VDT
tp1095
a(Vbest
VJJS
tp1096
a(Vsecurity
VNN
tp1097
a(Vpolicy
VNN
tp1098
a(Vwill
VMD
tp1099
a(Vbe
VVB
tp1100
a(Vfor
VIN
tp1101
a(Vthe
VDT
tp1102
a(VEU
VNNP
tp1103
a(Vto
VTO
tp1104
a(Vparticipate
VVB
tp1105
a(Vin
VIN
tp1106
a(Vinvestment
VNN
tp1107
a(Vin
VIN
tp1108
a(VRussia
VNNP
tp1109
a(V&apos;s
VNNS
tp1110
a(Vgas
VNN
tp1111
a(Vresources
VNNS
tp1112
a(Vin
VIN
tp1113
a(Vexchange
VNN
tp1114
a(Vfor
VIN
tp1115
a(Vlong-term
VJJ
tp1116
a(Vsupply
VNN
tp1117
a(Vcontracts
VNNS
tp1118
a(V.
V.
tp1119
aa(lp1120
(VWe
VPRP
tp1121
a(Vwant
VVBP
tp1122
a(Vto
VTO
tp1123
a(Vwork
VVB
tp1124
a(Vand
VCC
tp1125
a(Vwe
VPRP
tp1126
a(Vshall
VMD
tp1127
a(Vwork
VVB
tp1128
a(Vfor
VIN
tp1129
a(Vpeace
VNN
tp1130
a(Vand
VCC
tp1131
a(Va
VDT
tp1132
a(Vpeaceful
VJJ
tp1133
a(Vresolution
VNN
tp1134
a(Vto
VTO
tp1135
a(Vany
VDT
tp1136
a(Vdifferences
VNNS
tp1137
a(V.
V.
tp1138
aa(lp1139
(VMany
VJJ
tp1140
a(Vof
VIN
tp1141
a(Vthese
VDT
tp1142
a(Vissues
VNNS
tp1143
a(Vhave
VVBP
tp1144
a(Vbeen
VVBN
tp1145
a(Von
VIN
tp1146
a(Vthe
VDT
tp1147
a(Vtable
VNN
tp1148
a(Vfor
VIN
tp1149
a(Vyears
VNNS
tp1150
a(V.
V.
tp1151
aa(lp1152
(VGoodbye
VNNP
tp1153
a(Vkoruna
VNNP
tp1154
a(V,
V,
tp1155
a(Vwelcome
VJJ
tp1156
a(Veuro
VNN
tp1157
a(V.
V.
tp1158
aa(lp1159
(VThey
VPRP
tp1160
a(Vare
VVBP
tp1161
a(Vall
VDT
tp1162
a(Vgone
VVBN
tp1163
a(V.
V.
tp1164
aa(lp1165
(VOnly
VRB
tp1166
a(Vthose
VDT
tp1167
a(Vwho
VWP
tp1168
a(Vhave
VVBP
tp1169
a(Van
VDT
tp1170
a(Vunblemished
VJJ
tp1171
a(Vcriminal
VJJ
tp1172
a(Vrecord
VNN
tp1173
a(Vare
VVBP
tp1174
a(Vallowed
VVBN
tp1175
a(Vto
VTO
tp1176
a(Vwork
VVB
tp1177
a(Vwith
VIN
tp1178
a(Vchildren
VNNS
tp1179
a(V.
V.
tp1180
aa(lp1181
a(lp1182
(VWhy
VWRB
tp1183
a(Vis
VVBZ
tp1184
a(Vit
VPRP
tp1185
a(Vfiltered
VVBN
tp1186
a(Vby
VIN
tp1187
a(Vthe
VDT
tp1188
a(VMinistry
VNNP
tp1189
a(Vof
VIN
tp1190
a(Vthe
VDT
tp1191
a(VInterior
VNNP
tp1192
a(V?
V.
tp1193
aa(lp1194
(VThe
VDT
tp1195
a(Vobjective
VNN
tp1196
a(Vwas
VVBD
tp1197
a(Vthat
VIN
tp1198
a(Vduring
VIN
tp1199
a(Vthis
VDT
tp1200
a(Vperiod
VNN
tp1201
a(Vthe
VDT
tp1202
a(VEU
VNNP
tp1203
a(Vwould
VMD
tp1204
a(Vcatch
VVB
tp1205
a(Vup
VRP
tp1206
a(Vwith
VIN
tp1207
a(Vour
VPRP$
tp1208
a(Vmore
VRBR
tp1209
a(Vstringent
VJJ
tp1210
a(Vregulations
VNNS
tp1211
a(V.
V.
tp1212
aa(lp1213
(VOf
VIN
tp1214
a(Vcourse
VNN
tp1215
a(V,
V,
tp1216
a(Vin
VIN
tp1217
a(Vmany
VJJ
tp1218
a(Vways
VNNS
tp1219
a(Vthis
VDT
tp1220
a(Vis
VVBZ
tp1221
a(Va
VDT
tp1222
a(Vhighly
VRB
tp1223
a(Vtechnical
VJJ
tp1224
a(Vexercise
VNN
tp1225
a(Vand
VCC
tp1226
a(V,
V,
tp1227
a(Vunlike
VIN
tp1228
a(Vnational
VJJ
tp1229
a(Vbudgets
VNNS
tp1230
a(V,
V,
tp1231
a(Vit
VPRP
tp1232
a(Vdoes
VVBZ
tp1233
a(Vnot
VRB
tp1234
a(Vhave
VVB
tp1235
a(Vmuch
VJJ
tp1236
a(Veffect
VNN
tp1237
a(Von
VIN
tp1238
a(Vthe
VDT
tp1239
a(Vcourse
VNN
tp1240
a(Vof
VIN
tp1241
a(Veconomic
VJJ
tp1242
a(Vdevelopment
VNN
tp1243
a(Vin
VIN
tp1244
a(Vthe
VDT
tp1245
a(VEuropean
VNNP
tp1246
a(VUnion
VNNP
tp1247
a(V.
V.
tp1248
aa(lp1249
(VWe
VPRP
tp1250
a(Vstill
VRB
tp1251
a(Vdo
VVBP
tp1252
a(Vnot
VRB
tp1253
a(Vknow
VVB
tp1254
a(Vwhat
VWP
tp1255
a(Vis
VVBZ
tp1256
a(Vequivalent
VJJ
tp1257
a(Vto
VTO
tp1258
a(Vordinary
VJJ
tp1259
a(Vfood
VNN
tp1260
a(V.
V.
tp1261
aa(lp1262
(VI
VPRP
tp1263
a(Vam
VVBP
tp1264
a(Vthinking
VVBG
tp1265
a(Vin
VIN
tp1266
a(Vparticular
VJJ
tp1267
a(Vof
VIN
tp1268
a(Vthe
VDT
tp1269
a(Vnew
VJJ
tp1270
a(VPresident
VNNP
tp1271
a(Vof
VIN
tp1272
a(VBrazil
VNNP
tp1273
a(V,
V,
tp1274
a(VMr
VNNP
tp1275
a(VLula
VNNP
tp1276
a(Vda
VNNP
tp1277
a(VSilva
VNNP
tp1278
a(V.
V.
tp1279
aa(lp1280
(VIn
VIN
tp1281
a(Vview
VNN
tp1282
a(Vof
VIN
tp1283
a(Vyour
VPRP$
tp1284
a(Vpersonal
VJJ
tp1285
a(Vbackground
VNN
tp1286
a(V,
V,
tp1287
a(Vhow
VWRB
tp1288
a(Vcan
VMD
tp1289
a(Vyou
VPRP
tp1290
a(Vdo
VVB
tp1291
a(Vsuch
VPDT
tp1292
a(Va
VDT
tp1293
a(Vthing
VNN
tp1294
a(V?
V.
tp1295
aa(lp1296
(VRadio
VNNP
tp1297
a(VFree
VNNP
tp1298
a(VAsia
VNNP
tp1299
a(Vhas
VVBZ
tp1300
a(Va
VDT
tp1301
a(Vbudget
VNN
tp1302
a(Vof
VIN
tp1303
a(Vabout
VIN
tp1304
a(VEUR
V$
tp1305
a(V30
VCD
tp1306
a(Vmillion
VCD
tp1307
a(Vper
VIN
tp1308
a(Vyear
VNN
tp1309
a(V.
V.
tp1310
aa(lp1311
(VThis
VDT
tp1312
a(Vis
VVBZ
tp1313
a(Vdictated
VVBN
tp1314
a(Vby
VIN
tp1315
a(Vthe
VDT
tp1316
a(Vgeography
VNN
tp1317
a(V,
V,
tp1318
a(Vand
VCC
tp1319
a(Valso
VRB
tp1320
a(Vby
VIN
tp1321
a(Vthe
VDT
tp1322
a(Vgeopolitics
VNNS
tp1323
a(V.
V.
tp1324
aa(lp1325
(VIn
VIN
tp1326
a(Vthis
VDT
tp1327
a(Vrespect
VNN
tp1328
a(V,
V,
tp1329
a(Vit
VPRP
tp1330
a(Vis
VVBZ
tp1331
a(Van
VDT
tp1332
a(Vunexpected
VJJ
tp1333
a(Vwelcome
VJJ
tp1334
a(Vbreak
VNN
tp1335
a(V.
V.
tp1336
aa(lp1337
(VFear
VNN
tp1338
a(Von
VIN
tp1339
a(Vboth
VDT
tp1340
a(Vsides
VNNS
tp1341
a(V.
V.
tp1342
aa(lp1343
(VAlready
VRB
tp1344
a(V,
V,
tp1345
a(VMr
VNNP
tp1346
a(VPresident
VNNP
tp1347
a(V,
V,
tp1348
a(Vyour
VPRP$
tp1349
a(Vinitial
VJJ
tp1350
a(Vdeclarations
VNNS
tp1351
a(Vhave
VVBP
tp1352
a(Vencouraged
VVBN
tp1353
a(Vme
VPRP
tp1354
a(Vgreatly
VRB
tp1355
a(V:
V:
tp1356
a(V&apos;
VVB
tp1357
a(Vyes
VRB
tp1358
a(V,
V,
tp1359
a(Vwe
VPRP
tp1360
a(Vare
VVBP
tp1361
a(Vgoing
VVBG
tp1362
a(Vto
VTO
tp1363
a(Vchange
VVB
tp1364
a(V&apos;
VNN
tp1365
a(V,
V,
tp1366
a(Vyou
VPRP
tp1367
a(Vsay
VVBP
tp1368
a(V.
V.
tp1369
aa(lp1370
(VNow
VRB
tp1371
a(Vwe
VPRP
tp1372
a(Vmove
VVBP
tp1373
a(Von
VIN
tp1374
a(Vto
VTO
tp1375
a(Vthe
VDT
tp1376
a(VCommission
VNNP
tp1377
a(V&apos;s
VNNS
tp1378
a(Vreaction
VNN
tp1379
a(V.
V.
tp1380
aa(lp1381
(VAlready
VRB
tp1382
a(Vin
VIN
tp1383
a(V2008
VCD
tp1384
a(V,
V,
tp1385
a(Vthe
VDT
tp1386
a(VCommission
VNNP
tp1387
a(Vproposed
VVBD
tp1388
a(Va
VDT
tp1389
a(Vrevised
VVBN
tp1390
a(VDublin
VNNP
tp1391
a(Vregulation
VNN
tp1392
a(Vto
VTO
tp1393
a(Vaddress
VVB
tp1394
a(Vthe
VDT
tp1395
a(Videntified
VVBN
tp1396
a(Vgaps
VNNS
tp1397
a(V.
V.
tp1398
aa(lp1399
(VA
VDT
tp1400
a(Vmajor
VJJ
tp1401
a(Vtask
VNN
tp1402
a(Vfacing
VVBG
tp1403
a(Vthe
VDT
tp1404
a(Vnext
VJJ
tp1405
a(VParliament
VNNP
tp1406
a(Vwill
VMD
tp1407
a(Vbe
VVB
tp1408
a(Vto
VTO
tp1409
a(Vbring
VVB
tp1410
a(Vthe
VDT
tp1411
a(Vcitizens
VNNS
tp1412
a(Vof
VIN
tp1413
a(Vthe
VDT
tp1414
a(Vnew
VJJ
tp1415
a(VEurope
VNNP
tp1416
a(Vto
VTO
tp1417
a(Va
VDT
tp1418
a(Vgreater
VJJR
tp1419
a(Vunderstanding
VNN
tp1420
a(Vof
VIN
tp1421
a(V,
V,
tp1422
a(Vand
VCC
tp1423
a(Vinvolvement
VNN
tp1424
a(Vwith
VIN
tp1425
a(V,
V,
tp1426
a(Vthe
VDT
tp1427
a(Vinstitutions
VNNS
tp1428
a(V.
V.
tp1429
aa(lp1430
(VAll
VDT
tp1431
a(VI
VPRP
tp1432
a(Vwas
VVBD
tp1433
a(Vcriticising
VVBG
tp1434
a(Vwas
VVBD
tp1435
a(Vthe
VDT
tp1436
a(Vfact
VNN
tp1437
a(Vthat
VIN
tp1438
a(Vthey
VPRP
tp1439
a(Vdo
VVBP
tp1440
a(Vnot
VRB
tp1441
a(Vfeature
VVB
tp1442
a(Vin
VIN
tp1443
a(Vthe
VDT
tp1444
a(Vtitle
VNN
tp1445
a(Vtoo
VRB
tp1446
a(V,
V,
tp1447
a(Vbecause
VIN
tp1448
a(VI
VPRP
tp1449
a(Vconsider
VVBP
tp1450
a(Vthem
VPRP
tp1451
a(Vto
VTO
tp1452
a(Vbe
VVB
tp1453
a(Vimportant
VJJ
tp1454
a(V.
V.
tp1455
aa(lp1456
(VOur
VPRP$
tp1457
a(Vnation
VNN
tp1458
a(Vand
VCC
tp1459
a(Vhomeland
VNN
tp1460
a(Vare
VVBP
tp1461
a(Vwhat
VWP
tp1462
a(Vis
VVBZ
tp1463
a(Vmost
VRBS
tp1464
a(Vsacred
VJJ
tp1465
a(Vto
VTO
tp1466
a(Vus
VPRP
tp1467
a(V,
V,
tp1468
a(Vafter
VIN
tp1469
a(VGod
VNNP
tp1470
a(Vand
VCC
tp1471
a(Vthe
VDT
tp1472
a(Vfamily
VNN
tp1473
a(V.
V.
tp1474
aa(lp1475
(VIn
VIN
tp1476
a(Va
VDT
tp1477
a(Vcrisis
VNN
tp1478
a(Vlike
VIN
tp1479
a(Vthis
VDT
tp1480
a(V,
V,
tp1481
a(Vthat
VWDT
tp1482
a(Vhas
VVBZ
tp1483
a(Vto
VTO
tp1484
a(Vbe
VVB
tp1485
a(Vsaid
VVBN
tp1486
a(V.
V.
tp1487
aa(lp1488
(VThis
VDT
tp1489
a(Vis
VVBZ
tp1490
a(Vnot
VRB
tp1491
a(Vjust
VRB
tp1492
a(Va
VDT
tp1493
a(Vhalf-hearted
VJJ
tp1494
a(Vcompromise
VNN
tp1495
a(V,
V,
tp1496
a(Vbut
VCC
tp1497
a(Va
VDT
tp1498
a(Vreally
VRB
tp1499
a(Vgood
VJJ
tp1500
a(Vpackage
VNN
tp1501
a(V.
V.
tp1502
aa(lp1503
(VThese
VDT
tp1504
a(Vpeople
VNNS
tp1505
a(Vare
VVBP
tp1506
a(Vlooking
VVBG
tp1507
a(Vfor
VIN
tp1508
a(Vtemporary
VJJ
tp1509
a(Vshelter
VNN
tp1510
a(V.
V.
tp1511
aa(lp1512
(VThe
VDT
tp1513
a(Vcontrol
VNN
tp1514
a(Vtower
VNN
tp1515
a(Vis
VVBZ
tp1516
a(Vthere
VRB
tp1517
a(V,
V,
tp1518
a(Vand
VCC
tp1519
a(Vall
VPDT
tp1520
a(Vthe
VDT
tp1521
a(Velectronic
VJJ
tp1522
a(Vequipment
VNN
tp1523
a(V.
V.
tp1524
aa(lp1525
(VNot
VRB
tp1526
a(Vhere
VRB
tp1527
a(V.
V.
tp1528
aa(lp1529
(VThey
VPRP
tp1530
a(Vhave
VVBP
tp1531
a(Vnever
VRB
tp1532
a(Vgiven
VVBN
tp1533
a(Vup
VRP
tp1534
a(Vthe
VDT
tp1535
a(Vstruggle
VNN
tp1536
a(Vnor
VCC
tp1537
a(Vbowed
VVBD
tp1538
a(Vtheir
VPRP$
tp1539
a(Vheads
VNNS
tp1540
a(V.
V.
tp1541
aa(lp1542
(VAs
VRB
tp1543
a(Vlong
VRB
tp1544
a(Vas
VIN
tp1545
a(VIsrael
VNNP
tp1546
a(Vcontinues
VVBZ
tp1547
a(Vto
VTO
tp1548
a(Voccupy
VVB
tp1549
a(Vthe
VDT
tp1550
a(VWest
VNNP
tp1551
a(VBank
VNNP
tp1552
a(V,
V,
tp1553
a(Vas
VRB
tp1554
a(Vlong
VRB
tp1555
a(Vas
VIN
tp1556
a(VIsrael
VNNP
tp1557
a(Vfails
VVBZ
tp1558
a(Vto
VTO
tp1559
a(Voffer
VVB
tp1560
a(Va
VDT
tp1561
a(Vpositive
VJJ
tp1562
a(Vsolution
VNN
tp1563
a(Vto
VTO
tp1564
a(Vthe
VDT
tp1565
a(VPalestinians
VNNPS
tp1566
a(Vof
VIN
tp1567
a(Vthe
VDT
tp1568
a(VWest
VNNP
tp1569
a(VBank
VNNP
tp1570
a(V,
V,
tp1571
a(Vmore
VRBR
tp1572
a(Vand
VCC
tp1573
a(Vmore
VRBR
tp1574
a(VPalestinians
VNNPS
tp1575
a(Vwill
VMD
tp1576
a(Vturn
VVB
tp1577
a(Vto
VTO
tp1578
a(VHamas
VNNP
tp1579
a(V.
V.
tp1580
aa(lp1581
(VThe
VDT
tp1582
a(Vlong
VJJ
tp1583
a(Vjourney
VNN
tp1584
a(Vexcuses
VVBZ
tp1585
a(Vyour
VPRP$
tp1586
a(Vtardiness.&apos;
VNN
tp1587
aa(lp1588
(VThey
VPRP
tp1589
a(Vadmired
VVBD
tp1590
a(VMao
VNNP
tp1591
a(Vduring
VIN
tp1592
a(Vthe
VDT
tp1593
a(Vcultural
VJJ
tp1594
a(Vrevolution
VNN
tp1595
a(V,
V,
tp1596
a(Vwhich
VWDT
tp1597
a(Vcost
VVBD
tp1598
a(Vthe
VDT
tp1599
a(VChinese
VJJ
tp1600
a(Vpeople
VNNS
tp1601
a(Vthe
VDT
tp1602
a(Vsmall
VJJ
tp1603
a(Vmatter
VNN
tp1604
a(Vof
VIN
tp1605
a(V10
VCD
tp1606
a(Vmillion
VCD
tp1607
a(Vlives
VNNS
tp1608
a(V.
V.
tp1609
aa(lp1610
(VWe
VPRP
tp1611
a(Vare
VVBP
tp1612
a(Vwaiting
VVBG
tp1613
a(V,
V,
tp1614
a(Vhowever
VRB
tp1615
a(V!
V.
tp1616
aa(lp1617
(VWe
VPRP
tp1618
a(Vwill
VMD
tp1619
a(Vsee
VVB
tp1620
a(Vbetter
VJJR
tp1621
a(Vand
VCC
tp1622
a(Vbetter
VJJR
tp1623
a(Vopportunities
VNNS
tp1624
a(Vfor
VIN
tp1625
a(Vexporting
VVBG
tp1626
a(V.
V.
tp1627
aa(lp1628
(VThings
VNNS
tp1629
a(Vcannot
VVBP
tp1630
a(Vgo
VVB
tp1631
a(Von
VIN
tp1632
a(Vlike
VIN
tp1633
a(Vthat
VDT
tp1634
a(V.
V.
tp1635
aa(lp1636
(VOf
VIN
tp1637
a(Vcourse
VNN
tp1638
a(V,
V,
tp1639
a(Vnone
VNN
tp1640
a(Vof
VIN
tp1641
a(Vthis
VDT
tp1642
a(Vwould
VMD
tp1643
a(Vhave
VVB
tp1644
a(Vbeen
VVBN
tp1645
a(Vpossible
VJJ
tp1646
a(Vwithout
VIN
tp1647
a(Vthe
VDT
tp1648
a(Vwork
VNN
tp1649
a(Vof
VIN
tp1650
a(Vthe
VDT
tp1651
a(Vrapporteurs
VNNS
tp1652
a(V.
V.
tp1653
aa(lp1654
(VCarrefour
VNNP
tp1655
a(Varrives
VVBZ
tp1656
a(Vwith
VIN
tp1657
a(V20
VCD
tp1658
a(V000
VCD
tp1659
a(Vsquare
VJJ
tp1660
a(Vmetres
VNNS
tp1661
a(Vand
VCC
tp1662
a(Vall
VPDT
tp1663
a(Vthe
VDT
tp1664
a(Vsmall
VJJ
tp1665
a(Vshops
VNNS
tp1666
a(Vin
VIN
tp1667
a(Vthe
VDT
tp1668
a(Ventire
VJJ
tp1669
a(Vregion
VNN
tp1670
a(Vclose
VJJ
tp1671
a(V.
V.
tp1672
aa(lp1673
(VSince
VIN
tp1674
a(V1992
VCD
tp1675
a(V,
V,
tp1676
a(Vwe
VPRP
tp1677
a(Vhave
VVBP
tp1678
a(Vtried
VVBN
tp1679
a(Veverything
VNN
tp1680
a(Vin
VIN
tp1681
a(Vorder
VNN
tp1682
a(Vto
VTO
tp1683
a(Vconvince
VVB
tp1684
a(VMilosevic
VNNP
tp1685
a(Vto
VTO
tp1686
a(Vabandon
VVB
tp1687
a(Vthis
VDT
tp1688
a(Vpolicy
VNN
tp1689
a(V.
V.
tp1690
aa(lp1691
(VThe
VDT
tp1692
a(VItalian
VJJ
tp1693
a(Vbioethics
VNNS
tp1694
a(Vcommittee
VNN
tp1695
a(Vhas
VVBZ
tp1696
a(Vdeclared
VVBN
tp1697
a(Vthat
VIN
tp1698
a(Vthe
VDT
tp1699
a(Vembryo
VNN
tp1700
a(Vis
VVBZ
tp1701
a(Vone
VCD
tp1702
a(Vof
VIN
tp1703
a(Vus
VPRP
tp1704
a(V.
V.
tp1705
aa(lp1706
(VEveryone
VNN
tp1707
a(Vmust
VMD
tp1708
a(Vface
VVB
tp1709
a(Vup
VRP
tp1710
a(Vto
VTO
tp1711
a(Vtheir
VPRP$
tp1712
a(Vresponsibilities
VNNS
tp1713
a(V.
V.
tp1714
aa(lp1715
(VAn
VDT
tp1716
a(Vexample
VNN
tp1717
a(Vof
VIN
tp1718
a(Vone
VCD
tp1719
a(Vsuch
VJJ
tp1720
a(Vissue
VNN
tp1721
a(Vis
VVBZ
tp1722
a(Vthe
VDT
tp1723
a(Vgranting
VVBG
tp1724
a(Vof
VIN
tp1725
a(Vexemptions
VNNS
tp1726
a(Vfor
VIN
tp1727
a(Vharmless
VJJ
tp1728
a(Vtypes
VNNS
tp1729
a(Vof
VIN
tp1730
a(Vmachinery
VNN
tp1731
a(Vsuch
VJJ
tp1732
a(Vas
VIN
tp1733
a(Vwristwatches
VNNS
tp1734
a(V.
V.
tp1735
aa(lp1736
(VYour
VPRP$
tp1737
a(VForeign
VNNP
tp1738
a(VMinister
VNNP
tp1739
a(V,
V,
tp1740
a(VMr
VNNP
tp1741
a(VVerhagen
VNNP
tp1742
a(V,
V,
tp1743
a(Vsaid
VVBD
tp1744
a(V:
V:
tp1745
a(V&apos;
VVB
tp1746
a(VIn
VIN
tp1747
a(Vtoday
VNN
tp1748
a(V&apos;s
VNNS
tp1749
a(Vglobalised
VJJ
tp1750
a(Vworld
VNN
tp1751
a(Vpeople
VNNS
tp1752
a(Vare
VVBP
tp1753
a(Vafraid
VJJ
tp1754
a(Vof
VIN
tp1755
a(Vlosing
VVBG
tp1756
a(Vtheir
VPRP$
tp1757
a(Vjobs
VNNS
tp1758
a(V,
V,
tp1759
a(Vtheir
VPRP$
tp1760
a(Vsocial
VJJ
tp1761
a(Vsecurity
VNN
tp1762
a(V,
V,
tp1763
a(Vtheir
VPRP$
tp1764
a(Vquality
VNN
tp1765
a(Vof
VIN
tp1766
a(Vlife
VNN
tp1767
a(V&apos;
VNN
tp1768
a(V.
V.
tp1769
aa.