(lp1
(lp2
(VAs
VIN
tp3
a(Vfor
VIN
tp4
a(Vmyself
VPRP
tp5
a(Vand
VCC
tp6
a(Vmy
VPRP$
tp7
a(Vcolleagues
VNNS
tp8
a(Vat
VIN
tp9
a(Vthe
VDT
tp10
a(VCommission
VNNP
tp11
a(V,
V,
tp12
a(Vwe
VPRP
tp13
a(Vshall
VMD
tp14
a(Vplay
VVB
tp15
a(Vthe
VDT
tp16
a(Vrole
VNN
tp17
a(Vof
VIN
tp18
a(Vhonest
VJJ
tp19
a(Vbrokers
VNNS
tp20
a(Vin
VIN
tp21
a(Vorder
VNN
tp22
a(Vto
VTO
tp23
a(Vmake
VVB
tp24
a(Vthis
VDT
tp25
a(Vpossible
VJJ
tp26
a(V.
V.
tp27
aa(lp28
(VI
VPRP
tp29
a(Vam
VVBP
tp30
a(Vone
VCD
tp31
a(Vof
VIN
tp32
a(Vthose
VDT
tp33
a(Vwho
VWP
tp34
a(Vbelieve
VVBP
tp35
a(Vthere
VEX
tp36
a(Vis
VVBZ
tp37
a(Vstill
VRB
tp38
a(Va
VDT
tp39
a(Vgreat
VJJ
tp40
a(Vdeal
VNN
tp41
a(Vof
VIN
tp42
a(Vwork
VNN
tp43
a(Vto
VTO
tp44
a(Vbe
VVB
tp45
a(Vdone
VVBN
tp46
a(Vhere
VRB
tp47
a(V,
V,
tp48
a(Vfor
VIN
tp49
a(Vthere
VEX
tp50
a(Vare
VVBP
tp51
a(Vmany
VJJ
tp52
a(Vwho
VWP
tp53
a(Vhave
VVBP
tp54
a(Vrelapsed
VVBN
tp55
a(Vinto
VIN
tp56
a(Va
VDT
tp57
a(Vblinkered
VJJ
tp58
a(Vsupply-and-demand
VJJ
tp59
a(Vview
VNN
tp60
a(Vof
VIN
tp61
a(Vfood
VNN
tp62
a(Vpolicy
VNN
tp63
a(Vand
VCC
tp64
a(Vare
VVBP
tp65
a(Vunable
VJJ
tp66
a(Vto
VTO
tp67
a(Vlook
VVB
tp68
a(Vbeyond
VIN
tp69
a(Vthe
VDT
tp70
a(Vshop
VNN
tp71
a(Vcounter
VNN
tp72
a(V.
V.
tp73
aa(lp74
(VI
VPRP
tp75
a(Vwelcome
VVBP
tp76
a(Vthe
VDT
tp77
a(Vprospect
VNN
tp78
a(Vof
VIN
tp79
a(Vcompensation
VNN
tp80
a(V,
V,
tp81
a(Vif
VIN
tp82
a(Vit
VPRP
tp83
a(Vis
VVBZ
tp84
a(Vavailable
VJJ
tp85
a(V.
V.
tp86
aa(lp87
(VThe
VDT
tp88
a(Vsituation
VNN
tp89
a(Vin
VIN
tp90
a(Vterms
VNNS
tp91
a(Vof
VIN
tp92
a(Vcooperation
VNN
tp93
a(Vin
VIN
tp94
a(Vthe
VDT
tp95
a(Vfight
VNN
tp96
a(Vagainst
VIN
tp97
a(Vterrorism
VNN
tp98
a(Vwill
VMD
tp99
a(Valso
VRB
tp100
a(Vbe
VVB
tp101
a(Vexamined
VVBN
tp102
a(V.
V.
tp103
aa(lp104
(VUnforeseen
VJJ
tp105
a(Vcosts
VNNS
tp106
a(Vin
VIN
tp107
a(Vconnection
VNN
tp108
a(Vwith
VIN
tp109
a(Vthe
VDT
tp110
a(Vconstruction
VNN
tp111
a(Vof
VIN
tp112
a(Vthe
VDT
tp113
a(Vtunnel
VNN
tp114
a(Vmay
VMD
tp115
a(Vhave
VVB
tp116
a(Vaffected
VVBN
tp117
a(Venvironmental
VJJ
tp118
a(Vsafety
VNN
tp119
a(V.
V.
tp120
aa(lp121
(VThe
VDT
tp122
a(Vvictims
VNNS
tp123
a(Vexpect
VVBP
tp124
a(Va
VDT
tp125
a(Vgreat
VJJ
tp126
a(Vdeal
VNN
tp127
a(Vof
VIN
tp128
a(Vus
VPRP
tp129
a(Vand
VCC
tp130
a(Vthis
VDT
tp131
a(Vis
VVBZ
tp132
a(Va
VDT
tp133
a(Vchallenge
VNN
tp134
a(Vwe
VPRP
tp135
a(Vmust
VMD
tp136
a(Vaccept
VVB
tp137
a(V.
V.
tp138
aa(lp139
(VFor
VIN
tp140
a(Vexample
VNN
tp141
a(V,
V,
tp142
a(Vthe
VDT
tp143
a(Vgrowth
VNN
tp144
a(Vin
VIN
tp145
a(Vsolar
VJJ
tp146
a(Vand
VCC
tp147
a(Vwind
VNN
tp148
a(Vpower
VNN
tp149
a(Vtechnologies
VNNS
tp150
a(Vis
VVBZ
tp151
a(V30
VCD
tp152
a(V%
VNN
tp153
a(Vper
VIN
tp154
a(Vannum
VNN
tp155
a(V.
V.
tp156
aa(lp157
(VIt
VPRP
tp158
a(Vis
VVBZ
tp159
a(Va
VDT
tp160
a(Vconcern
VNN
tp161
a(Vfor
VIN
tp162
a(Vall
VPDT
tp163
a(Vthose
VDT
tp164
a(Vwho
VWP
tp165
a(Vare
VVBP
tp166
a(Vnot
VRB
tp167
a(Vegotists
VNNS
tp168
a(Vor
VCC
tp169
a(Vopportunists
VNNS
tp170
a(V.
V.
tp171
aa(lp172
(VData
VNNS
tp173
a(Vfrom
VIN
tp174
a(Vresearch
VNN
tp175
a(Vvessels
VNNS
tp176
a(Vis
VVBZ
tp177
a(Vconstantly
VRB
tp178
a(Vbeing
VVBG
tp179
a(Vassembled
VVBN
tp180
a(V.
V.
tp181
aa(lp182
(VConsequently
VRB
tp183
a(V,
V,
tp184
a(Veven
VRB
tp185
a(Vthe
VDT
tp186
a(Vconstitutions
VNNS
tp187
a(Vof
VIN
tp188
a(Vmany
VJJ
tp189
a(Vstates
VNNS
tp190
a(Vcontain
VVBP
tp191
a(Va
VDT
tp192
a(Vreference
VNN
tp193
a(Vto
VTO
tp194
a(VChristian
VNNP
tp195
a(Vtraditions
VNNS
tp196
a(V.
V.
tp197
aa(lp198
(VThis
VDT
tp199
a(Vis
VVBZ
tp200
a(Vusually
VRB
tp201
a(Vat
VIN
tp202
a(Vthe
VDT
tp203
a(Vcost
VNN
tp204
a(Vof
VIN
tp205
a(Vthe
VDT
tp206
a(Vconsumer
VNN
tp207
a(V,
V,
tp208
a(Vwho
VWP
tp209
a(Vis
VVBZ
tp210
a(Voffered
VVBN
tp211
a(Vservices
VNNS
tp212
a(Vthat
VWDT
tp213
a(Vare
VVBP
tp214
a(Vmore
VRBR
tp215
a(Vexpensive
VJJ
tp216
a(Vand
VCC
tp217
a(Vof
VIN
tp218
a(Vlower
VJJR
tp219
a(Vquality
VNN
tp220
a(V.
V.
tp221
aa(lp222
(VIt
VPRP
tp223
a(Vwas
VVBD
tp224
a(Vwith
VIN
tp225
a(Vthat
VDT
tp226
a(Vintention
VNN
tp227
a(Vthat
VIN
tp228
a(VI
VPRP
tp229
a(Vdrew
VVBD
tp230
a(Vup
VRP
tp231
a(Vmy
VPRP$
tp232
a(Vhumble
VJJ
tp233
a(Vreport
VNN
tp234
a(V,
V,
tp235
a(Vwith
VIN
tp236
a(Vthe
VDT
tp237
a(Vcooperation
VNN
tp238
a(Vof
VIN
tp239
a(Vmany
VJJ
tp240
a(Vcivil
VJJ
tp241
a(Vsociety
VNN
tp242
a(Vorganisations
VNNS
tp243
a(Vfrom
VIN
tp244
a(VEurope
VNNP
tp245
a(Vand
VCC
tp246
a(VCentral
VNNP
tp247
a(VAmerica
VNNP
tp248
a(V.
V.
tp249
aa(lp250
(VBut
VCC
tp251
a(Vat
VIN
tp252
a(Vleast
VJJS
tp253
a(Vas
VIN
tp254
a(Vimportantly
VRB
tp255
a(V,
V,
tp256
a(Vit
VPRP
tp257
a(Vprovided
VVBD
tp258
a(Vsome
VDT
tp259
a(Vparliamentary
VJJ
tp260
a(Vinput
VNN
tp261
a(Vinto
VIN
tp262
a(Vthe
VDT
tp263
a(VASEM
VNNP
tp264
a(Vprocess
VNN
tp265
a(V,
V,
tp266
a(Vwhich
VWDT
tp267
a(Vculminates
VVBZ
tp268
a(Vlater
VRB
tp269
a(Vin
VIN
tp270
a(Vthe
VDT
tp271
a(Vyear
VNN
tp272
a(Vwith
VIN
tp273
a(Vthe
VDT
tp274
a(VCopenhagen
VNNP
tp275
a(Vmeeting
VNN
tp276
a(V.
V.
tp277
aa(lp278
(V.
V.
tp279
a(V\u2013
VCD
tp280
a(VGood
VJJ
tp281
a(Vmorning
VNN
tp282
a(V,
V,
tp283
a(Vlittle
VJJ
tp284
a(VEU
VNNP
tp285
a(V!
V.
tp286
aa(lp287
(VI
VPRP
tp288
a(Vthink
VVBP
tp289
a(Vthat
VIN
tp290
a(Vthis
VDT
tp291
a(Vis
VVBZ
tp292
a(Vthe
VDT
tp293
a(Vway
VNN
tp294
a(Vthat
VIN
tp295
a(Vour
VPRP$
tp296
a(Vmessage
VNN
tp297
a(Vshould
VMD
tp298
a(Vbe
VVB
tp299
a(Vunderstood
VVBN
tp300
a(Vwith
VIN
tp301
a(Vregard
VNN
tp302
a(Vto
VTO
tp303
a(Vprospects
VNNS
tp304
a(Vfor
VIN
tp305
a(Vthe
VDT
tp306
a(Vfuture
VNN
tp307
a(V.
V.
tp308
aa(lp309
(VIt
VPRP
tp310
a(Vis
VVBZ
tp311
a(Vtoo
VRB
tp312
a(Vearly
VJJ
tp313
a(Vfor
VIN
tp314
a(VParliament
VNNP
tp315
a(Vto
VTO
tp316
a(Vtake
VVB
tp317
a(Va
VDT
tp318
a(Vposition
VNN
tp319
a(V.
V.
tp320
aa(lp321
(VThere
VEX
tp322
a(Vare
VVBP
tp323
a(Vunscrupulous
VJJ
tp324
a(Vdoctors
VNNS
tp325
a(Vand
VCC
tp326
a(Vother
VJJ
tp327
a(Vindividuals
VNNS
tp328
a(Vwho
VWP
tp329
a(Vearn
VVBP
tp330
a(Vbetween
VIN
tp331
a(VDM
VNN
tp332
a(V1000
VCD
tp333
a(Vand
VCC
tp334
a(V3000
VCD
tp335
a(Vper
VIN
tp336
a(Vcase
VNN
tp337
a(V.
V.
tp338
aa(lp339
(VOur
VPRP$
tp340
a(Vscientists
VNNS
tp341
a(Vand
VCC
tp342
a(Vyoung
VJJ
tp343
a(Vresearchers
VNNS
tp344
a(V,
V,
tp345
a(Vmainly
VRB
tp346
a(Vin
VIN
tp347
a(Vmathematics
VNNS
tp348
a(V,
V,
tp349
a(Vphysics
VNNS
tp350
a(V,
V,
tp351
a(Vchemistry
VNN
tp352
a(Vand
VCC
tp353
a(Vin
VIN
tp354
a(Vthe
VDT
tp355
a(Vlife
VNN
tp356
a(Vsciences
VNNS
tp357
a(V,
V,
tp358
a(Vare
VVBP
tp359
a(Vvery
VRB
tp360
a(Vrespected
VVBN
tp361
a(Vall
VDT
tp362
a(Vover
VIN
tp363
a(Vthe
VDT
tp364
a(Vworld
VNN
tp365
a(V.
V.
tp366
aa(lp367
(VI
VPRP
tp368
a(Vwould
VMD
tp369
a(Vtherefore
VRB
tp370
a(Vlike
VVB
tp371
a(Vto
VTO
tp372
a(Vsee
VVB
tp373
a(Va
VDT
tp374
a(Vlink
VNN
tp375
a(Vestablished
VVBN
tp376
a(Vbetween
VIN
tp377
a(Vhow
VWRB
tp378
a(Vwe
VPRP
tp379
a(Vview
VVBP
tp380
a(Vthese
VDT
tp381
a(Vdisasters
VNNS
tp382
a(Vand
VCC
tp383
a(Venergy
VNN
tp384
a(Vpolicy
VNN
tp385
a(V.
V.
tp386
aa(lp387
(VYou
VPRP
tp388
a(Vtalk
VVBP
tp389
a(Vabout
VIN
tp390
a(Vdecentralisation
VNN
tp391
a(Vbut
VCC
tp392
a(Vpractise
VNN
tp393
a(Vcentralisation
VNN
tp394
a(V.
V.
tp395
aa(lp396
(VWhen
VWRB
tp397
a(VI
VPRP
tp398
a(Vget
VVBP
tp399
a(Vthe
VDT
tp400
a(Vanswer
VNN
tp401
a(Von
VIN
tp402
a(Vpaper
VNN
tp403
a(VI
VPRP
tp404
a(Vam
VVBP
tp405
a(Vgoing
VVBG
tp406
a(Vto
VTO
tp407
a(Vgo
VVB
tp408
a(Vthrough
VIN
tp409
a(Vit
VPRP
tp410
a(Vagain
VRB
tp411
a(Vand
VCC
tp412
a(VI
VPRP
tp413
a(Vwill
VMD
tp414
a(Vcome
VVB
tp415
a(Vback
VRB
tp416
a(Vif
VIN
tp417
a(VI
VPRP
tp418
a(Vfeel
VVBP
tp419
a(Vthat
VIN
tp420
a(Vthe
VDT
tp421
a(Vanswer
VNN
tp422
a(Vneeds
VVBZ
tp423
a(Vto
VTO
tp424
a(Vbe
VVB
tp425
a(Velaborated
VVBN
tp426
a(V.
V.
tp427
aa(lp428
(VIn
VIN
tp429
a(Vaddition
VNN
tp430
a(V,
V,
tp431
a(Vthe
VDT
tp432
a(Velection
VNN
tp433
a(Vcampaign
VNN
tp434
a(Vin
VIN
tp435
a(Vthe
VDT
tp436
a(VUSA
VNNP
tp437
a(Vis
VVBZ
tp438
a(Vin
VIN
tp439
a(Vfull
VJJ
tp440
a(Vswing
VNN
tp441
a(Vand
VCC
tp442
a(V,
V,
tp443
a(Vfor
VIN
tp444
a(Vthis
VDT
tp445
a(Vreason
VNN
tp446
a(V,
V,
tp447
a(Vwe
VPRP
tp448
a(Vmust
VMD
tp449
a(Vconsider
VVB
tp450
a(Vthe
VDT
tp451
a(Vfacts
VNNS
tp452
a(V.
V.
tp453
aa(lp454
(VWhy
VWRB
tp455
a(Vdo
VVBP
tp456
a(Vwe
VPRP
tp457
a(Vallow
VVB
tp458
a(Vblack
VJJ
tp459
a(Vholes
VNNS
tp460
a(Vin
VIN
tp461
a(Vthe
VDT
tp462
a(Vtaxation
VNN
tp463
a(Vsystem
VNN
tp464
a(Vthese
VDT
tp465
a(Vdays
VNNS
tp466
a(Vhere
VRB
tp467
a(Vin
VIN
tp468
a(VEurope
VNNP
tp469
a(V?
V.
tp470
aa(lp471
(VMr
VNNP
tp472
a(VSchultz
VNNP
tp473
a(V,
V,
tp474
a(VI
VPRP
tp475
a(Vdid
VVBD
tp476
a(Vnot
VRB
tp477
a(Vinterrupt
VVB
tp478
a(Vyou
VPRP
tp479
a(V.
V.
tp480
aa(lp481
(V(
VNN
tp482
a(VES
VNN
tp483
a(V)
VCD
tp484
a(VMr
VNNP
tp485
a(VPresident
VNNP
tp486
a(V,
V,
tp487
a(Vlast
VJJ
tp488
a(Vweek
VNN
tp489
a(VEurope
VNNP
tp490
a(Vmissed
VVBD
tp491
a(Va
VDT
tp492
a(Vgreat
VJJ
tp493
a(Vopportunity
VNN
tp494
a(V:
V:
tp495
a(Vthe
VDT
tp496
a(Vopportunity
VNN
tp497
a(Vto
VTO
tp498
a(Vbe
VVB
tp499
a(Vthe
VDT
tp500
a(Vworld
VNN
tp501
a(Vleader
VNN
tp502
a(Vin
VIN
tp503
a(Vastrophysical
VJJ
tp504
a(Vresearch
VNN
tp505
a(Vfor
VIN
tp506
a(Vthe
VDT
tp507
a(Vnext
VJJ
tp508
a(Vtwenty
VCD
tp509
a(Vyears
VNNS
tp510
a(V.
V.
tp511
a(VThe
VDT
tp512
a(VEuropean
VJJ
tp513
a(VSouthern
VNNP
tp514
a(VObservatory
VNNP
tp515
a(Vdecided
VVBD
tp516
a(V,
V,
tp517
a(Von
VIN
tp518
a(Vthe
VDT
tp519
a(Vbasis
VNN
tp520
a(Vof
VIN
tp521
a(Vreports
VNNS
tp522
a(Vwhich
VWDT
tp523
a(Vwere
VVBD
tp524
a(Vfar
VRB
tp525
a(Vfrom
VIN
tp526
a(Vtransparent
VJJ
tp527
a(V,
V,
tp528
a(Vthat
VIN
tp529
a(Vthe
VDT
tp530
a(VEuropean
VJJ
tp531
a(VVery
VRB
tp532
a(VLarge
VJJ
tp533
a(VTelescope
VNNP
tp534
a(Vwould
VMD
tp535
a(Vbe
VVB
tp536
a(Vlocated
VVBN
tp537
a(Vin
VIN
tp538
a(VChile
VNNP
tp539
a(Vand
VCC
tp540
a(Vnot
VRB
tp541
a(Vin
VIN
tp542
a(Vthe
VDT
tp543
a(VCanaries
VNNPS
tp544
a(V.
V.
tp545
aa(lp546
(VAfter
VIN
tp547
a(Vall
VDT
tp548
a(V,
V,
tp549
a(Vthat
VIN
tp550
a(Vsaves
VVBZ
tp551
a(Vthem
VPRP
tp552
a(Va
VDT
tp553
a(Vgreat
VJJ
tp554
a(Vdeal
VNN
tp555
a(Vof
VIN
tp556
a(Vtime
VNN
tp557
a(V,
V,
tp558
a(Vmoney
VNN
tp559
a(Vand
VCC
tp560
a(Vbother
VVB
tp561
a(V.
V.
tp562
aa(lp563
(VThese
VDT
tp564
a(Vamendments
VNNS
tp565
a(Vmust
VMD
tp566
a(Vthen
VRB
tp567
a(Vbe
VVB
tp568
a(Vcarefully
VRB
tp569
a(Vconsidered
VVBN
tp570
a(Vby
VIN
tp571
a(Vthe
VDT
tp572
a(Vinternational
VJJ
tp573
a(Vcommunity
VNN
tp574
a(V,
V,
tp575
a(Vthe
VDT
tp576
a(VCommission
VNNP
tp577
a(Vand
VCC
tp578
a(Vthe
VDT
tp579
a(VCouncil
VNNP
tp580
a(V.
V.
tp581
aa(lp582
(VIn
VIN
tp583
a(Vmy
VPRP$
tp584
a(Vview
VNN
tp585
a(V,
V,
tp586
a(VParliament
VNNP
tp587
a(Vshould
VMD
tp588
a(Vadopt
VVB
tp589
a(Va
VDT
tp590
a(Vrigorous
VJJ
tp591
a(Vand
VCC
tp592
a(Vcondemnatory
VJJ
tp593
a(Vapproach
VNN
tp594
a(V.
V.
tp595
a(VThat
VDT
tp596
a(Vapproach
VNN
tp597
a(Vwill
VMD
tp598
a(Valso
VRB
tp599
a(Vbe
VVB
tp600
a(Vconstructive
VJJ
tp601
a(Vbecause
VIN
tp602
a(Vof
VIN
tp603
a(Vthe
VDT
tp604
a(Vthings
VNNS
tp605
a(Vthat
VWDT
tp606
a(Vare
VVBP
tp607
a(Vbeing
VVBG
tp608
a(Vdemanded
VVBD
tp609
a(Vfrom
VIN
tp610
a(Vthe
VDT
tp611
a(VCommission
VNNP
tp612
a(V.
V.
tp613
aa(lp614
(VI
VPRP
tp615
a(Vwill
VMD
tp616
a(Vgive
VVB
tp617
a(Vyou
VPRP
tp618
a(Van
VDT
tp619
a(Vexample
VNN
tp620
a(Vof
VIN
tp621
a(Vhow
VWRB
tp622
a(Vbasic
VJJ
tp623
a(Vthey
VPRP
tp624
a(Vare
VVBP
tp625
a(V,
V,
tp626
a(Vwhich
VWDT
tp627
a(VI
VPRP
tp628
a(Vhope
VVBP
tp629
a(Vwill
VMD
tp630
a(Vnot
VRB
tp631
a(Vbe
VVB
tp632
a(Vunpleasant
VJJ
tp633
a(V.
V.
tp634
a(VIn
VIN
tp635
a(Vone
VCD
tp636
a(Vof
VIN
tp637
a(Vthese
VDT
tp638
a(V,
V,
tp639
a(Vit
VPRP
tp640
a(Vstates
VVBZ
tp641
a(Vthat
VIN
tp642
a(V&quot;
VNN
tp643
a(Vthere
VEX
tp644
a(Vare
VVBP
tp645
a(V30
VCD
tp646
a(Vinspectors
VNNS
tp647
a(Vin
VIN
tp648
a(VSpain
VNNP
tp649
a(V&apos;
VNNP
tp650
a(V.
V.
tp651
aa(lp652
(VIt
VPRP
tp653
a(Vis
VVBZ
tp654
a(Vthe
VDT
tp655
a(Vworst
VJJS
tp656
a(Vform
VNN
tp657
a(Vof
VIN
tp658
a(Vextortion
VNN
tp659
a(Vin
VIN
tp660
a(Vthe
VDT
tp661
a(VEuropean
VNNP
tp662
a(VUnion
VNNP
tp663
a(V;
V:
tp664
a(Vit
VPRP
tp665
a(Vis
VVBZ
tp666
a(Va
VDT
tp667
a(Vform
VNN
tp668
a(Vof
VIN
tp669
a(Vextortion
VNN
tp670
a(Vthat
VWDT
tp671
a(Vconsists
VVBZ
tp672
a(Vof
VIN
tp673
a(Vwriting
VVBG
tp674
a(Vto
VTO
tp675
a(VBasque
VJJ
tp676
a(Vbusinesspeople
VNN
tp677
a(Vand
VCC
tp678
a(Vasking
VVBG
tp679
a(Vthem
VPRP
tp680
a(Vto
VTO
tp681
a(Vfund
VVB
tp682
a(Vits
VPRP$
tp683
a(Vcriminal
VJJ
tp684
a(Vactivities
VNNS
tp685
a(V.
V.
tp686
aa(lp687
(VMoreover
VRB
tp688
a(V,
V,
tp689
a(Vit
VPRP
tp690
a(Vcan
VMD
tp691
a(Vbe
VVB
tp692
a(Vseen
VVBN
tp693
a(Vas
VIN
tp694
a(Va
VDT
tp695
a(Vreminder
VNN
tp696
a(Vof
VIN
tp697
a(Vthe
VDT
tp698
a(VEuropean
VNNP
tp699
a(VParliament
VNNP
tp700
a(V&apos;s
VVBZ
tp701
a(Vrequest
VNN
tp702
a(Vfor
VIN
tp703
a(Vthe
VDT
tp704
a(VMember
VNNP
tp705
a(VStates
VNNPS
tp706
a(Vto
VTO
tp707
a(Vtake
VVB
tp708
a(Vsteps
VNNS
tp709
a(Vtowards
VIN
tp710
a(Vthe
VDT
tp711
a(Vfuture
VJJ
tp712
a(Vintroduction
VNN
tp713
a(Vof
VIN
tp714
a(Va
VDT
tp715
a(Vvisa
VNN
tp716
a(Vintended
VVBN
tp717
a(Vspecifically
VRB
tp718
a(Vfor
VIN
tp719
a(Vstudents
VNNS
tp720
a(Vparticipating
VVBG
tp721
a(Vin
VIN
tp722
a(Vexchange
VNN
tp723
a(Vprogrammes
VNNS
tp724
a(V.
V.
tp725
aa(lp726
(VConsequently
VRB
tp727
a(V,
V,
tp728
a(Vthis
VDT
tp729
a(Vpact
VNN
tp730
a(Vsuits
VNNS
tp731
a(Vboth
VCC
tp732
a(Vthe
VDT
tp733
a(VIsraeli
VJJ
tp734
a(VGovernment
VNN
tp735
a(V-
V:
tp736
a(Vwhich
VWDT
tp737
a(Vis
VVBZ
tp738
a(Vbacked
VVBN
tp739
a(Vunconditionally
VRB
tp740
a(Vby
VIN
tp741
a(Vthe
VDT
tp742
a(VUnited
VNNP
tp743
a(VStates
VNNPS
tp744
a(V-
V:
tp745
a(Vand
VCC
tp746
a(V,
V,
tp747
a(Vsince
VIN
tp748
a(Vthe
VDT
tp749
a(VGulf
VNNP
tp750
a(VWar
VNNP
tp751
a(V,
V,
tp752
a(VSyria
VNNP
tp753
a(V&apos;s
VNNS
tp754
a(Vdictators
VNNS
tp755
a(V.
V.
tp756
aa(lp757
(VThe
VDT
tp758
a(Vdictator
VNN
tp759
a(V,
V,
tp760
a(Vwho
VWP
tp761
a(Vholds
VVBZ
tp762
a(Va
VDT
tp763
a(VRussian
VJJ
tp764
a(Vpassport
VNN
tp765
a(Vand
VCC
tp766
a(Vwas
VVBD
tp767
a(Vtrained
VVBN
tp768
a(Vby
VIN
tp769
a(Vthe
VDT
tp770
a(VKGB
VNNP
tp771
a(V,
V,
tp772
a(Vclaimed
VVBD
tp773
a(V80
VCD
tp774
a(V%
VNN
tp775
a(Vof
VIN
tp776
a(Vthe
VDT
tp777
a(Vvote
VNN
tp778
a(V.
V.
tp779
aa(lp780
(VRape
VNN
tp781
a(Vand
VCC
tp782
a(Vsexual
VJJ
tp783
a(Vviolence
VNN
tp784
a(Vare
VVBP
tp785
a(Valso
VRB
tp786
a(Von
VIN
tp787
a(Vthe
VDT
tp788
a(Vincrease
VNN
tp789
a(Vin
VIN
tp790
a(VEurope
VNNP
tp791
a(V.
V.
tp792
aa(lp793
(VThe
VDT
tp794
a(Vright
VNN
tp795
a(Vto
VTO
tp796
a(Vself-defence
VNN
tp797
a(Vand
VCC
tp798
a(Vthe
VDT
tp799
a(Vright
VNN
tp800
a(Vto
VTO
tp801
a(Vtake
VVB
tp802
a(Vfollow-up
VJJ
tp803
a(Vaction
VNN
tp804
a(Vdo
VVBP
tp805
a(Vof
VIN
tp806
a(Vcourse
VNN
tp807
a(Vexist
VVBP
tp808
a(V,
V,
tp809
a(Vbut
VCC
tp810
a(Vnot
VRB
tp811
a(Vthe
VDT
tp812
a(Vright
VNN
tp813
a(Vto
VTO
tp814
a(Vlaunch
VVB
tp815
a(Van
VDT
tp816
a(Vall-out
VJJ
tp817
a(Vwar
VNN
tp818
a(Vwithout
VIN
tp819
a(Vnegotiating
VVBG
tp820
a(V,
V,
tp821
a(Vwithout
VIN
tp822
a(Vissuing
VVBG
tp823
a(Van
VDT
tp824
a(Vultimatum
VNN
tp825
a(V,
V,
tp826
a(Vwithout
VIN
tp827
a(Vdeclaring
VVBG
tp828
a(Vwar
VNN
tp829
a(Vand
VCC
tp830
a(Vwithout
VIN
tp831
a(Vfirst
VJJ
tp832
a(Vreferring
VVBG
tp833
a(Vthe
VDT
tp834
a(Vmatter
VNN
tp835
a(Vto
VTO
tp836
a(Vthe
VDT
tp837
a(VSecurity
VNNP
tp838
a(VCouncil
VNNP
tp839
a(V.
V.
tp840
aa(lp841
(VWe
VPRP
tp842
a(Vhave
VVBP
tp843
a(Vdiscussed
VVBN
tp844
a(VLibya
VNNP
tp845
a(Vtoday
VNN
tp846
a(V.
V.
tp847
a(VIn
VIN
tp848
a(Vrecent
VJJ
tp849
a(Vdays
VNNS
tp850
a(Vand
VCC
tp851
a(Vweeks
VNNS
tp852
a(V,
V,
tp853
a(Vwe
VPRP
tp854
a(Vhave
VVBP
tp855
a(Vdiscussed
VVBN
tp856
a(VEgypt
VNNP
tp857
a(Vand
VCC
tp858
a(VTunisia
VNNP
tp859
a(V.
V.
tp860
aa(lp861
(V(
VNN
tp862
a(VPL
VNN
tp863
a(V)
VCD
tp864
a(V...
V:
tp865
a(Vabout
VIN
tp866
a(Vthe
VDT
tp867
a(Vcitizens
VNNS
tp868
a(V&apos;
VVBP
tp869
a(Vinitiative
VNN
tp870
a(V.
V.
tp871
aa(lp872
(VIndustries
VNNP
tp873
a(Vmust
VMD
tp874
a(Vprovide
VVB
tp875
a(Va
VDT
tp876
a(Vdescription
VNN
tp877
a(Vof
VIN
tp878
a(Vthe
VDT
tp879
a(Vcontents
VNNS
tp880
a(Vof
VIN
tp881
a(Vwhat
VWP
tp882
a(Vthey
VPRP
tp883
a(Vpropose
VVBP
tp884
a(Vto
VTO
tp885
a(Vsell
VVB
tp886
a(V,
V,
tp887
a(Vwhich
VWDT
tp888
a(Vwill
VMD
tp889
a(Vfacilitate
VVB
tp890
a(Vthe
VDT
tp891
a(Vclassification
VNN
tp892
a(Vof
VIN
tp893
a(Vweb
VNN
tp894
a(Vpages
VNNS
tp895
a(Vand
VCC
tp896
a(Vmake
VVB
tp897
a(Vit
VPRP
tp898
a(Vpossible
VJJ
tp899
a(Vto
VTO
tp900
a(Vformulate
VVB
tp901
a(Vabbreviations
VNNS
tp902
a(Vand
VCC
tp903
a(Vadvisory
VJJ
tp904
a(Vmessages
VNNS
tp905
a(Vand
VCC
tp906
a(Vto
VTO
tp907
a(Vprovide
VVB
tp908
a(Vappropriate
VJJ
tp909
a(Vfiltering
VVBG
tp910
a(V.
V.
tp911
aa(lp912
(VAs
VIN
tp913
a(Vtime
VNN
tp914
a(Vpasses
VVBZ
tp915
a(V,
V,
tp916
a(Vwe
VPRP
tp917
a(Vare
VVBP
tp918
a(Vbeing
VVBG
tp919
a(Vleft
VVBN
tp920
a(Vfurther
VRB
tp921
a(Vand
VCC
tp922
a(Vfurther
VRB
tp923
a(Vbehind
VRB
tp924
a(V.
V.
tp925
aa(lp926
(VIntensive
VJJ
tp927
a(Vdiplomatic
VJJ
tp928
a(Vactivity
VNN
tp929
a(Vcommenced
VVBN
tp930
a(Vin
VIN
tp931
a(VSkopje
VNNP
tp932
a(Vto
VTO
tp933
a(Vsupport
VVB
tp934
a(Vthe
VDT
tp935
a(VFYROM
VNNP
tp936
a(Vgovernment
VNN
tp937
a(V,
V,
tp938
a(Vthe
VDT
tp939
a(Vcountry
VNN
tp940
a(V&apos;
VNN
tp941
a(Vs
VVBZ
tp942
a(Vsovereignty
VNN
tp943
a(Vand
VCC
tp944
a(Vits
VPRP$
tp945
a(Vterritorial
VJJ
tp946
a(Vintegrity
VNN
tp947
a(V.
V.
tp948
aa(lp949
(VAllow
VVB
tp950
a(Vme
VPRP
tp951
a(Vto
VTO
tp952
a(Vpoint
VVB
tp953
a(Vout
VRP
tp954
a(Vthat
VIN
tp955
a(VArticle
VNNP
tp956
a(V137
VCD
tp957
a(Vof
VIN
tp958
a(Vthe
VDT
tp959
a(VAgreement
VNN
tp960
a(Vsays
VVBZ
tp961
a(Vthat
VIN
tp962
a(Vthe
VDT
tp963
a(Vprovisions
VNNS
tp964
a(Vof
VIN
tp965
a(Vthis
VDT
tp966
a(VArticle
VNN
tp967
a(Vshall
VMD
tp968
a(Vnot
VRB
tp969
a(Vapply
VVB
tp970
a(Vto
VTO
tp971
a(Vsalaries
VNNS
tp972
a(V.
V.
tp973
aa(lp974
(VIn
VIN
tp975
a(VItaly
VNNP
tp976
a(V,
V,
tp977
a(Vfor
VIN
tp978
a(Vinstance
VNN
tp979
a(V,
V,
tp980
a(Vyoungsters
VNNS
tp981
a(Vcan
VMD
tp982
a(Vride
VVB
tp983
a(Vmopeds
VNNS
tp984
a(Vfrom
VIN
tp985
a(Vthe
VDT
tp986
a(Vage
VNN
tp987
a(Vof
VIN
tp988
a(V14
VCD
tp989
a(V,
V,
tp990
a(Vand
VCC
tp991
a(Vseveral
VJJ
tp992
a(Vstudies
VNNS
tp993
a(Vhave
VVBP
tp994
a(Vshown
VVBN
tp995
a(Vthat
VIN
tp996
a(Vthat
VDT
tp997
a(Vis
VVBZ
tp998
a(Vnot
VRB
tp999
a(Vthe
VDT
tp1000
a(Vage
VNN
tp1001
a(Vgroup
VNN
tp1002
a(Vat
VIN
tp1003
a(Vgreatest
VJJS
tp1004
a(Vrisk
VNN
tp1005
a(V.
V.
tp1006
aa(lp1007
(VI
VPRP
tp1008
a(Vreject
VVBP
tp1009
a(Vthis
VDT
tp1010
a(Vsocial
VJJ
tp1011
a(Vregression
VNN
tp1012
a(V,
V,
tp1013
a(Vincluding
VVBG
tp1014
a(Vin
VIN
tp1015
a(Vthe
VDT
tp1016
a(Vname
VNN
tp1017
a(Vof
VIN
tp1018
a(Vmy
VPRP$
tp1019
a(VEuropean
VJJ
tp1020
a(Videal
VNN
tp1021
a(V.
V.
tp1022
aa(lp1023
(VUnemployment
VNN
tp1024
a(Vin
VIN
tp1025
a(Vthe
VDT
tp1026
a(VAlbanian
VJJ
tp1027
a(Vpart
VNN
tp1028
a(Vis
VVBZ
tp1029
a(Vtwo-and-a-half
VCD
tp1030
a(Vtimes
VNNS
tp1031
a(Vhigher
VJJR
tp1032
a(Vthan
VIN
tp1033
a(Vin
VIN
tp1034
a(Vthe
VDT
tp1035
a(VSerbian
VJJ
tp1036
a(Vpart
VNN
tp1037
a(V.
V.
tp1038
aa(lp1039
(VThis
VDT
tp1040
a(Vis
VVBZ
tp1041
a(Va
VDT
tp1042
a(Vlegislative
VJJ
tp1043
a(Vchamber
VNN
tp1044
a(Vin
VIN
tp1045
a(Vwhich
VWDT
tp1046
a(Vserious
VJJ
tp1047
a(Vwork
VNN
tp1048
a(Vis
VVBZ
tp1049
a(Vrequired
VVBN
tp1050
a(V!
V.
tp1051
aa(lp1052
(VIt
VPRP
tp1053
a(Vis
VVBZ
tp1054
a(Vnot
VRB
tp1055
a(Vlimited
VVBN
tp1056
a(Vto
VTO
tp1057
a(Vaccess
VNN
tp1058
a(Vto
VTO
tp1059
a(Vdocuments
VNNS
tp1060
a(V,
V,
tp1061
a(Vimportant
VJJ
tp1062
a(Vthough
VIN
tp1063
a(Vthat
VDT
tp1064
a(Vmay
VMD
tp1065
a(Vbe
VVB
tp1066
a(V.
V.
tp1067
aa(lp1068
(VThe
VDT
tp1069
a(VMinister
VNNP
tp1070
a(Vfor
VIN
tp1071
a(VEducation
VNNP
tp1072
a(Vreappointed
VVBD
tp1073
a(Vthe
VDT
tp1074
a(Vcandidate
VNN
tp1075
a(V,
V,
tp1076
a(Vthe
VDT
tp1077
a(Vcandidate
VNN
tp1078
a(Vsubmitted
VVBD
tp1079
a(Va
VDT
tp1080
a(Vcomplaint
VNN
tp1081
a(Vagainst
VIN
tp1082
a(Vme
VPRP
tp1083
a(Vin
VIN
tp1084
a(V1993
VCD
tp1085
a(V,
V,
tp1086
a(Vtogether
VRB
tp1087
a(Vwith
VIN
tp1088
a(Vthe
VDT
tp1089
a(VPresident
VNNP
tp1090
a(Vof
VIN
tp1091
a(Vthe
VDT
tp1092
a(VLegal
VNNP
tp1093
a(VCommittee
VNNP
tp1094
a(Vwe
VPRP
tp1095
a(Vsubmitted
VVBD
tp1096
a(Vdetailed
VJJ
tp1097
a(Vmemoranda
VNNS
tp1098
a(Vand
VCC
tp1099
a(Vthe
VDT
tp1100
a(Vmatter
VNN
tp1101
a(Vwas
VVBD
tp1102
a(Vconsigned
VVBN
tp1103
a(Vto
VTO
tp1104
a(Vthe
VDT
tp1105
a(Varchives
VNNS
tp1106
a(V.
V.
tp1107
aa(lp1108
(VI
VPRP
tp1109
a(Vhad
VVBD
tp1110
a(Vquoted
VVBN
tp1111
a(VMr
VNNP
tp1112
a(VKaczy\u0144ski
VNNP
tp1113
a(V,
V,
tp1114
a(Vwho
VWP
tp1115
a(Vvery
VRB
tp1116
a(Vmuch
VJJ
tp1117
a(Vwants
VVBZ
tp1118
a(Va
VDT
tp1119
a(Vbetter
VJJR
tp1120
a(Vatmosphere
VNN
tp1121
a(Vto
VTO
tp1122
a(Vmake
VVB
tp1123
a(Vthe
VDT
tp1124
a(Vre-introduction
VNN
tp1125
a(Vof
VIN
tp1126
a(Vthe
VDT
tp1127
a(Vdeath
VNN
tp1128
a(Vpenalty
VNN
tp1129
a(Vin
VIN
tp1130
a(VEurope
VNNP
tp1131
a(Vpossible
VJJ
tp1132
a(V.
V.
tp1133
aa(lp1134
(VIf
VIN
tp1135
a(Vyou
VPRP
tp1136
a(Vdrive
VVB
tp1137
a(Vyour
VPRP$
tp1138
a(Vcar
VNN
tp1139
a(V,
V,
tp1140
a(VMr
VNNP
tp1141
a(VBarroso
VNNP
tp1142
a(V,
V,
tp1143
a(Vdown
VIN
tp1144
a(Vthe
VDT
tp1145
a(Vroad
VNN
tp1146
a(V,
V,
tp1147
a(Vand
VCC
tp1148
a(Vthe
VDT
tp1149
a(Vbrakes
VNNS
tp1150
a(Vonly
VRB
tp1151
a(Vwork
VVBP
tp1152
a(V79
VCD
tp1153
a(V%
VNN
tp1154
a(Vof
VIN
tp1155
a(Vthe
VDT
tp1156
a(Vtime
VNN
tp1157
a(V,
V,
tp1158
a(Vyou
VPRP
tp1159
a(Vwill
VMD
tp1160
a(Vno
VDT
tp1161
a(Vdoubt
VNN
tp1162
a(Vat
VIN
tp1163
a(Vsome
VDT
tp1164
a(Vpoint
VNN
tp1165
a(Vcrash
VNN
tp1166
a(V.
V.
tp1167
aa(lp1168
(VThe
VDT
tp1169
a(Vpeople
VNNS
tp1170
a(Vof
VIN
tp1171
a(VSouthern
VNNP
tp1172
a(VSudan
VNNP
tp1173
a(Vwho
VWP
tp1174
a(Vlived
VVBD
tp1175
a(Vand
VCC
tp1176
a(Vworked
VVBD
tp1177
a(Vin
VIN
tp1178
a(Vthe
VDT
tp1179
a(VNorth
VNNP
tp1180
a(V,
V,
tp1181
a(Vsometimes
VRB
tp1182
a(Veven
VRB
tp1183
a(Vowning
VVBG
tp1184
a(Vproperty
VNN
tp1185
a(V,
V,
tp1186
a(Vhave
VVBP
tp1187
a(Vfled
VVBN
tp1188
a(Vto
VTO
tp1189
a(Vthe
VDT
tp1190
a(VSouth
VNNP
tp1191
a(Vin
VIN
tp1192
a(Vtens
VNNS
tp1193
a(V,
V,
tp1194
a(Veven
VRB
tp1195
a(Vhundreds
VNNS
tp1196
a(V,
V,
tp1197
a(Vof
VIN
tp1198
a(Vthousands
VNNS
tp1199
a(V.
V.
tp1200
aa(lp1201
(VEach
VDT
tp1202
a(Vairport
VNN
tp1203
a(Vis
VVBZ
tp1204
a(Vunique
VJJ
tp1205
a(V(
VNN
tp1206
a(Vrunway
VNN
tp1207
a(Vconfiguration
VNN
tp1208
a(V,
V,
tp1209
a(Vdistribution
VNN
tp1210
a(Vof
VIN
tp1211
a(Vtraffic
VNN
tp1212
a(Vand
VCC
tp1213
a(Vso
VRB
tp1214
a(Vforth
VRB
tp1215
a(V)
VCD
tp1216
a(V.
V.
tp1217
aa(lp1218
(VHalf
VNN
tp1219
a(Vof
VIN
tp1220
a(Vall
VDT
tp1221
a(Vlong-term
VJJ
tp1222
a(Vsmokers
VNNS
tp1223
a(Vwill
VMD
tp1224
a(Veventually
VRB
tp1225
a(Vbe
VVB
tp1226
a(Vkilled
VVBN
tp1227
a(Vby
VIN
tp1228
a(Vtobacco
VNN
tp1229
a(Vand
VCC
tp1230
a(Vof
VIN
tp1231
a(Vthese
VDT
tp1232
a(V,
V,
tp1233
a(Vhalf
VNN
tp1234
a(Vwill
VMD
tp1235
a(Vdie
VVB
tp1236
a(Vduring
VIN
tp1237
a(Vmiddle
VJJ
tp1238
a(Vage
VNN
tp1239
a(Vlosing
VVBG
tp1240
a(V20
VCD
tp1241
a(Vto
VTO
tp1242
a(V25
VCD
tp1243
a(Vyears
VNNS
tp1244
a(Vof
VIN
tp1245
a(Vlife
VNN
tp1246
a(V.
V.
tp1247
aa(lp1248
(VAt
VIN
tp1249
a(Vthe
VDT
tp1250
a(Vbeginning
VNN
tp1251
a(Vof
VIN
tp1252
a(Vlast
VJJ
tp1253
a(Vyear
VNN
tp1254
a(V,
V,
tp1255
a(Vthere
VEX
tp1256
a(Vwas
VVBD
tp1257
a(Vonly
VRB
tp1258
a(Vone
VCD
tp1259
a(V-
V:
tp1260
a(Vnow
VRB
tp1261
a(Vthere
VEX
tp1262
a(Vare
VVBP
tp1263
a(Vthree
VCD
tp1264
a(V.
V.
tp1265
aa(lp1266
(VMadam
VNNP
tp1267
a(VPresident
VNNP
tp1268
a(V,
V,
tp1269
a(VIndonesia
VNNP
tp1270
a(Vis
VVBZ
tp1271
a(Va
VDT
tp1272
a(Vbig
VJJ
tp1273
a(Vcountry
VNN
tp1274
a(Vwith
VIN
tp1275
a(Vmany
VJJ
tp1276
a(Vcultures
VNNS
tp1277
a(Vand
VCC
tp1278
a(Va
VDT
tp1279
a(Vlarge
VJJ
tp1280
a(Vpopulation
VNN
tp1281
a(Vof
VIN
tp1282
a(Vnearly
VRB
tp1283
a(V200
VCD
tp1284
a(Vmillion
VCD
tp1285
a(Vpeople
VNNS
tp1286
a(V,
V,
tp1287
a(Va
VDT
tp1288
a(Vgrowing
VVBG
tp1289
a(Veconomy
VNN
tp1290
a(Vand
VCC
tp1291
a(Vfreedom
VNN
tp1292
a(Vof
VIN
tp1293
a(Vreligion
VNN
tp1294
a(Vdespite
VIN
tp1295
a(Vthe
VDT
tp1296
a(Vfact
VNN
tp1297
a(Vthat
VIN
tp1298
a(Vit
VPRP
tp1299
a(Vis
VVBZ
tp1300
a(Va
VDT
tp1301
a(VMuslim
VJJ
tp1302
a(Vcountry
VNN
tp1303
a(V.
V.
tp1304
aa(lp1305
(VSecondly
VRB
tp1306
a(V,
V,
tp1307
a(Vyou
VPRP
tp1308
a(Vspoke
VVBD
tp1309
a(Vof
VIN
tp1310
a(Vcriminal
VJJ
tp1311
a(Vaccountability
VNN
tp1312
a(V.
V.
tp1313
aa(lp1314
(VThis
VDT
tp1315
a(Vis
VVBZ
tp1316
a(Van
VDT
tp1317
a(Vartificial
VJJ
tp1318
a(Vdistinction
VNN
tp1319
a(Vand
VCC
tp1320
a(Vmakes
VVBZ
tp1321
a(Vmonitoring
VVBG
tp1322
a(Vmore
VRBR
tp1323
a(Vdifficult
VJJ
tp1324
a(V.
V.
tp1325
aa(lp1326
(VWe
VPRP
tp1327
a(Vhave
VVBP
tp1328
a(Vsituations
VNNS
tp1329
a(Vwhere
VWRB
tp1330
a(Vthe
VDT
tp1331
a(VPolish
VNNP
tp1332
a(VEmbassy
VNNP
tp1333
a(Vis
VVBZ
tp1334
a(Von
VIN
tp1335
a(Vrecord
VNN
tp1336
a(Vas
VIN
tp1337
a(Vsaying
VVBG
tp1338
a(Vthat
VIN
tp1339
a(Vit
VPRP
tp1340
a(Vhas
VVBZ
tp1341
a(Vqueues
VNNS
tp1342
a(Vof
VIN
tp1343
a(Vpeople
VNNS
tp1344
a(Vcoming
VVBG
tp1345
a(Vto
VTO
tp1346
a(Vit
VPRP
tp1347
a(Vin
VIN
tp1348
a(Vtears
VNNS
tp1349
a(V,
V,
tp1350
a(Vhaving
VVBG
tp1351
a(Vbeen
VVBN
tp1352
a(Vfired
VVBN
tp1353
a(Von
VIN
tp1354
a(Vthe
VDT
tp1355
a(Vspot
VNN
tp1356
a(Vby
VIN
tp1357
a(Vemployers
VNNS
tp1358
a(Vwho
VWP
tp1359
a(Vknow
VVBP
tp1360
a(Vthat
VIN
tp1361
a(Vthere
VEX
tp1362
a(Vis
VVBZ
tp1363
a(Va
VDT
tp1364
a(Vqueue
VNN
tp1365
a(Vof
VIN
tp1366
a(VPolish
VJJ
tp1367
a(Vworkers
VNNS
tp1368
a(Vwaiting
VVBG
tp1369
a(Vto
VTO
tp1370
a(Vtake
VVB
tp1371
a(Vtheir
VPRP$
tp1372
a(Vjobs
VNNS
tp1373
a(V.
V.
tp1374
aa(lp1375
(VIt
VPRP
tp1376
a(Vprescribed
VVBD
tp1377
a(Vhomeopathic
VJJ
tp1378
a(Vremedies
VNNS
tp1379
a(Vwhere
VWRB
tp1380
a(Vmajor
VJJ
tp1381
a(Vsurgery
VNN
tp1382
a(Vis
VVBZ
tp1383
a(Vobviously
VRB
tp1384
a(Vneeded
VVBN
tp1385
a(V.
V.
tp1386
aa(lp1387
(VAny
VDT
tp1388
a(Vkind
VNN
tp1389
a(Vof
VIN
tp1390
a(Vinformation
VNN
tp1391
a(V-
V:
tp1392
a(Vhowever
VRB
tp1393
a(Vimprobable
VJJ
tp1394
a(V-
V:
tp1395
a(Vwill
VMD
tp1396
a(Vbe
VVB
tp1397
a(Vexamined
VVBN
tp1398
a(V.
V.
tp1399
aa(lp1400
(VIn
VIN
tp1401
a(Vrecent
VJJ
tp1402
a(Vweeks
VNNS
tp1403
a(Van
VDT
tp1404
a(Vincrease
VNN
tp1405
a(Vhas
VVBZ
tp1406
a(Vbeen
VVBN
tp1407
a(Vfelt
VVBN
tp1408
a(Vin
VIN
tp1409
a(Vthe
VDT
tp1410
a(Vmigratory
VJJ
tp1411
a(Vpressure
VNN
tp1412
a(Von
VIN
tp1413
a(Vthe
VDT
tp1414
a(VMediterranean
VJJ
tp1415
a(Vcountries
VNNS
tp1416
a(Vof
VIN
tp1417
a(Vthe
VDT
tp1418
a(VEuropean
VNNP
tp1419
a(VUnion
VNNP
tp1420
a(V.
V.
tp1421
aa(lp1422
(VThe
VDT
tp1423
a(VHost
VNNP
tp1424
a(VCity
VNNP
tp1425
a(VContract
VNNP
tp1426
a(V,
V,
tp1427
a(Vthe
VDT
tp1428
a(Vhuman
VJJ
tp1429
a(Vrights
VNNS
tp1430
a(Vclause
VNN
tp1431
a(Vin
VIN
tp1432
a(Vthe
VDT
tp1433
a(VChinese
VNNP
tp1434
a(VConstitution
VNNP
tp1435
a(V,
V,
tp1436
a(Vthe
VDT
tp1437
a(VUniversal
VNNP
tp1438
a(VDeclaration
VNNP
tp1439
a(Vof
VIN
tp1440
a(VHuman
VNNP
tp1441
a(VRights
VNNP
tp1442
a(V-
V:
tp1443
a(Vthese
VDT
tp1444
a(Vare
VVBP
tp1445
a(Vpromises
VNNS
tp1446
a(Vmade
VVBN
tp1447
a(Vto
VTO
tp1448
a(VChina
VNNP
tp1449
a(V&apos;s
VNNS
tp1450
a(Vcitizens
VNNS
tp1451
a(V.
V.
tp1452
aa(lp1453
(VThe
VDT
tp1454
a(VGreen
VNNP
tp1455
a(VPaper
VNNP
tp1456
a(Von
VIN
tp1457
a(Vcommerce
VNN
tp1458
a(Vwas
VVBD
tp1459
a(Vin
VIN
tp1460
a(Vfact
VNN
tp1461
a(Vcompleted
VVBN
tp1462
a(Vat
VIN
tp1463
a(Vthe
VDT
tp1464
a(Vend
VNN
tp1465
a(Vof
VIN
tp1466
a(V1996
VCD
tp1467
a(Vafter
VIN
tp1468
a(Valmost
VRB
tp1469
a(Vtwo
VCD
tp1470
a(Vyears
VNNS
tp1471
a(Vof
VIN
tp1472
a(Vpreparation
VNN
tp1473
a(V.
V.
tp1474
aa(lp1475
(VSuch
VPDT
tp1476
a(Va
VDT
tp1477
a(Vlist
VNN
tp1478
a(Vwould
VMD
tp1479
a(Vbe
VVB
tp1480
a(Van
VDT
tp1481
a(Vinteresting
VJJ
tp1482
a(Vsource
VNN
tp1483
a(Vof
VIN
tp1484
a(Vinformation
VNN
tp1485
a(Vfor
VIN
tp1486
a(Vterrorists
VNNS
tp1487
a(V.
V.
tp1488
aa(lp1489
(VUnlike
VIN
tp1490
a(Vsome
VDT
tp1491
a(VMembers
VNNS
tp1492
a(VI
VPRP
tp1493
a(Vwelcome
VVBP
tp1494
a(Vthis
VDT
tp1495
a(V.
V.
tp1496
aa(lp1497
(VNevertheless
VRB
tp1498
a(V,
V,
tp1499
a(Vover
VIN
tp1500
a(Vthe
VDT
tp1501
a(Vlast
VJJ
tp1502
a(V30
VCD
tp1503
a(Vyears
VNNS
tp1504
a(Va
VDT
tp1505
a(Vconsiderable
VJJ
tp1506
a(Vamount
VNN
tp1507
a(Vhas
VVBZ
tp1508
a(Vbeen
VVBN
tp1509
a(Vachieved
VVBN
tp1510
a(V,
V,
tp1511
a(Valthough
VIN
tp1512
a(Vmuch
VRB
tp1513
a(Vmore
VJJR
tp1514
a(Vstill
VRB
tp1515
a(Vlies
VVBZ
tp1516
a(Vahead
VRB
tp1517
a(Vto
VTO
tp1518
a(Vbe
VVB
tp1519
a(Vdone
VVBN
tp1520
a(V.
V.
tp1521
aa(lp1522
(VThink
VVB
tp1523
a(Vof
VIN
tp1524
a(Vthe
VDT
tp1525
a(Vwaste
VNN
tp1526
a(V-
V:
tp1527
a(Vthe
VDT
tp1528
a(Vtotal
VNN
tp1529
a(V,
V,
tp1530
a(Vabject
VJJ
tp1531
a(Vwaste
VNN
tp1532
a(Vof
VIN
tp1533
a(Vlife
VNN
tp1534
a(Vfrom
VIN
tp1535
a(Vthe
VDT
tp1536
a(Vpreventable
VJJ
tp1537
a(Vtransmission
VNN
tp1538
a(Vof
VIN
tp1539
a(Vthe
VDT
tp1540
a(VHIV
VNN
tp1541
a(Vvirus
VNN
tp1542
a(V.
V.
tp1543
aa(lp1544
(VCuba
VNNP
tp1545
a(V&apos;s
VVBZ
tp1546
a(VStalinist
VJJ
tp1547
a(Vregime
VNN
tp1548
a(V,
V,
tp1549
a(Vwith
VIN
tp1550
a(Vits
VPRP$
tp1551
a(Vtotalitarian
VJJ
tp1552
a(Vways
VNNS
tp1553
a(V,
V,
tp1554
a(Vis
VVBZ
tp1555
a(Vattempting
VVBG
tp1556
a(Vto
VTO
tp1557
a(Vdamage
VVB
tp1558
a(Vrelations
VNNS
tp1559
a(Vbetween
VIN
tp1560
a(Vthe
VDT
tp1561
a(VEU
VNNP
tp1562
a(Vand
VCC
tp1563
a(Vthis
VDT
tp1564
a(Vregion
VNN
tp1565
a(Vas
VIN
tp1566
a(Va
VDT
tp1567
a(Vwhole
VNN
tp1568
a(V.
V.
tp1569
aa(lp1570
(VMr
VNNP
tp1571
a(VPresident
VNNP
tp1572
a(V,
V,
tp1573
a(Vthe
VDT
tp1574
a(Vpast
VJJ
tp1575
a(Vyear
VNN
tp1576
a(Vhas
VVBZ
tp1577
a(Vseen
VVBN
tp1578
a(Vstartling
VJJ
tp1579
a(Vhikes
VNNS
tp1580
a(Vin
VIN
tp1581
a(Vthe
VDT
tp1582
a(Vcost
VNN
tp1583
a(Vof
VIN
tp1584
a(Vbasic
VJJ
tp1585
a(Vfoods
VNNS
tp1586
a(V,
V,
tp1587
a(Vsuch
VJJ
tp1588
a(Vthat
VIN
tp1589
a(V100
VCD
tp1590
a(Vmillion
VCD
tp1591
a(Vpeople
VNNS
tp1592
a(Vare
VVBP
tp1593
a(Vbeing
VVBG
tp1594
a(Vpushed
VVBN
tp1595
a(Vinto
VIN
tp1596
a(Vpoverty
VNN
tp1597
a(Vand
VCC
tp1598
a(Vhundreds
VNNS
tp1599
a(Vof
VIN
tp1600
a(Vthousands
VNNS
tp1601
a(Vput
VVBN
tp1602
a(Vat
VIN
tp1603
a(Vrisk
VNN
tp1604
a(Vof
VIN
tp1605
a(Vstarvation
VNN
tp1606
a(V.
V.
tp1607
aa(lp1608
(VIt
VPRP
tp1609
a(Vis
VVBZ
tp1610
a(Vprecisely
VRB
tp1611
a(Vthat
VIN
tp1612
a(Vwhich
VWDT
tp1613
a(Vis
VVBZ
tp1614
a(Vto
VTO
tp1615
a(Vbe
VVB
tp1616
a(Vdiscussed
VVBN
tp1617
a(V.
V.
tp1618
aa(lp1619
(VYou
VPRP
tp1620
a(Vwill
VMD
tp1621
a(Vunderstand
VVB
tp1622
a(Vthat
VIN
tp1623
a(VI
VPRP
tp1624
a(Vam
VVBP
tp1625
a(Vobliged
VVBN
tp1626
a(Vto
VTO
tp1627
a(Vbe
VVB
tp1628
a(Vvery
VRB
tp1629
a(Vfirm
VJJ
tp1630
a(V,
V,
tp1631
a(Vunless
VIN
tp1632
a(VI
VPRP
tp1633
a(Vwant
VVBP
tp1634
a(Veveryone
VNN
tp1635
a(Vto
VTO
tp1636
a(Vgo
VVB
tp1637
a(Vto
VTO
tp1638
a(Vbed
VNN
tp1639
a(Vat
VIN
tp1640
a(V2
VCD
tp1641
a(Va.m.
VNN
tp1642
aa(lp1643
(VWe
VPRP
tp1644
a(Vhave
VVBP
tp1645
a(Vseen
VVBN
tp1646
a(Vthe
VDT
tp1647
a(Vextent
VNN
tp1648
a(Vto
VTO
tp1649
a(Vwhich
VWDT
tp1650
a(Vthe
VDT
tp1651
a(Vglamour
VNN
tp1652
a(Vproductions
VNNS
tp1653
a(Vof
VIN
tp1654
a(Vthe
VDT
tp1655
a(VUnited
VNNP
tp1656
a(VStates
VNNPS
tp1657
a(Vcontrast
VNN
tp1658
a(Vwith
VIN
tp1659
a(Vthe
VDT
tp1660
a(Vreality
VNN
tp1661
a(Vof
VIN
tp1662
a(VNew
VNNP
tp1663
a(VOrleans
VNNP
tp1664
a(V.
V.
tp1665
aa(lp1666
(VShipowners
VNNS
tp1667
a(Vwho
VWP
tp1668
a(Vhave
VVBP
tp1669
a(Vbeen
VVBN
tp1670
a(Vgrossly
VRB
tp1671
a(Vnegligent
VJJ
tp1672
a(V-
V:
tp1673
a(Von
VIN
tp1674
a(Vthe
VDT
tp1675
a(Vscale
VNN
tp1676
a(Vof
VIN
tp1677
a(Vfaults
VNNS
tp1678
a(V,
V,
tp1679
a(Vone
VCD
tp1680
a(Vdegree
VNN
tp1681
a(Vbelow
VIN
tp1682
a(Vinexcusable
VJJ
tp1683
a(Vconduct
VNN
tp1684
a(V-
V:
tp1685
a(Vand
VCC
tp1686
a(Vare
VVBP
tp1687
a(Vresponsible
VJJ
tp1688
a(Vfor
VIN
tp1689
a(Vmajor
VJJ
tp1690
a(Vpollution
VNN
tp1691
a(V,
V,
tp1692
a(Vshould
VMD
tp1693
a(Vno
VRB
tp1694
a(Vlonger
VRB
tp1695
a(Vbe
VVB
tp1696
a(Vable
VJJ
tp1697
a(Vto
VTO
tp1698
a(Vbenefit
VVB
tp1699
a(Vfrom
VIN
tp1700
a(Vthis
VDT
tp1701
a(Vprivilege
VNN
tp1702
a(Vof
VIN
tp1703
a(Vhaving
VVBG
tp1704
a(Vtheir
VPRP$
tp1705
a(Vliability
VNN
tp1706
a(Vlimited
VVBN
tp1707
a(V.
V.
tp1708
aa(lp1709
(VI
VPRP
tp1710
a(Vwill
VMD
tp1711
a(Vend
VVB
tp1712
a(Von
VIN
tp1713
a(Va
VDT
tp1714
a(Vlighter
VJJR
tp1715
a(Vnote
VNN
tp1716
a(V.
V.
tp1717
aa(lp1718
(VEurope
VNNP
tp1719
a(Vtherefore
VRB
tp1720
a(Vhad
VVBD
tp1721
a(Va
VDT
tp1722
a(Vgreat
VJJ
tp1723
a(Vopportunity
VNN
tp1724
a(V,
V,
tp1725
a(Vin
VIN
tp1726
a(Van
VDT
tp1727
a(Varea
VNN
tp1728
a(Vthat
VWDT
tp1729
a(Vvery
VRB
tp1730
a(Vmuch
VRB
tp1731
a(Vstrikes
VVBZ
tp1732
a(Va
VDT
tp1733
a(Vchord
VNN
tp1734
a(Vamong
VIN
tp1735
a(Vour
VPRP$
tp1736
a(Vcitizens
VNNS
tp1737
a(V,
V,
tp1738
a(Vto
VTO
tp1739
a(Vforge
VVB
tp1740
a(Vitself
VPRP
tp1741
a(Van
VDT
tp1742
a(Videntity
VNN
tp1743
a(Vof
VIN
tp1744
a(Vprogress
VNN
tp1745
a(Vby
VIN
tp1746
a(Vchanging
VVBG
tp1747
a(Vconditions
VNNS
tp1748
a(Vhere
VRB
tp1749
a(Vand
VCC
tp1750
a(Vin
VIN
tp1751
a(Vthe
VDT
tp1752
a(Vworld
VNN
tp1753
a(V.
V.
tp1754
aa(lp1755
(VThe
VDT
tp1756
a(Vcase
VNN
tp1757
a(Vinvolved
VVBD
tp1758
a(Va
VDT
tp1759
a(V41-year-old
VJJ
tp1760
a(Vman
VNN
tp1761
a(Vand
VCC
tp1762
a(Va
VDT
tp1763
a(V12-year-old
VJJ
tp1764
a(Vgirl
VNN
tp1765
a(V.
V.
tp1766
aa(lp1767
(VHe
VPRP
tp1768
a(Vasked
VVBD
tp1769
a(Vfor
VIN
tp1770
a(Vpermission
VNN
tp1771
a(Vto
VTO
tp1772
a(Vvisit
VVB
tp1773
a(Vher
VPRP
tp1774
a(Vto
VTO
tp1775
a(Vsay
VVB
tp1776
a(Vgoodbye
VNN
tp1777
a(Vto
VTO
tp1778
a(Vhis
VPRP$
tp1779
a(Vdear
VRB
tp1780
a(Vwife
VNN
tp1781
a(V.
V.
tp1782
aa(lp1783
(VTrue
VJJ
tp1784
a(V,
V,
tp1785
a(Vthis
VDT
tp1786
a(Vsystem
VNN
tp1787
a(Vis
VVBZ
tp1788
a(V&apos;
VJJ
tp1789
a(Vperforming
VVBG
tp1790
a(V&apos;
VRB
tp1791
a(Vless
VRBR
tp1792
a(Vwell
VRB
tp1793
a(Vthan
VIN
tp1794
a(Vmight
VMD
tp1795
a(Vhave
VVB
tp1796
a(Vbeen
VVBN
tp1797
a(Vfeared
VVBN
tp1798
a(V,
V,
tp1799
a(Vbut
VCC
tp1800
a(Vit
VPRP
tp1801
a(Vexists
VVBZ
tp1802
a(Vand
VCC
tp1803
a(Vthat
VWDT
tp1804
a(Vis
VVBZ
tp1805
a(Vintolerable
VJJ
tp1806
a(V!
V.
tp1807
aa(lp1808
(VWhatever
VWDT
tp1809
a(Vthe
VDT
tp1810
a(Vparticulars
VNNS
tp1811
a(Vmay
VMD
tp1812
a(Vbe
VVB
tp1813
a(V,
V,
tp1814
a(VI
VPRP
tp1815
a(Vthink
VVBP
tp1816
a(Vwe
VPRP
tp1817
a(Vneed
VVB
tp1818
a(Vthis
VDT
tp1819
a(Vkind
VNN
tp1820
a(Vof
VIN
tp1821
a(Vagreement
VNN
tp1822
a(Vwith
VIN
tp1823
a(VSyria
VNNP
tp1824
a(Vso
VIN
tp1825
a(Vthat
VIN
tp1826
a(Vwe
VPRP
tp1827
a(Vcan
VMD
tp1828
a(Vput
VVB
tp1829
a(Vpressure
VNN
tp1830
a(Von
VIN
tp1831
a(Vher
VPRP$
tp1832
a(Vto
VTO
tp1833
a(Vnegotiate
VVB
tp1834
a(Vwith
VIN
tp1835
a(VIsrael
VNNP
tp1836
a(Vand
VCC
tp1837
a(Vto
VTO
tp1838
a(Vfurther
VVB
tp1839
a(Vthe
VDT
tp1840
a(Vpeace
VNN
tp1841
a(Vprocess
VNN
tp1842
a(V.
V.
tp1843
aa(lp1844
(VNo
VDT
tp1845
a(Vwonder
VNN
tp1846
a(Vthe
VDT
tp1847
a(Vsmugglers
VNNS
tp1848
a(Vand
VCC
tp1849
a(Vtraffickers
VNNS
tp1850
a(Vare
VVBP
tp1851
a(Vlaughing
VVBG
tp1852
a(Vall
VPDT
tp1853
a(Vthe
VDT
tp1854
a(Vway
VNN
tp1855
a(Vto
VTO
tp1856
a(Vthe
VDT
tp1857
a(Vbank
VNN
tp1858
a(V.
V.
tp1859
aa(lp1860
(VCommissioner
VNNP
tp1861
a(V,
V,
tp1862
a(Valbeit
VIN
tp1863
a(Vsomewhat
VRB
tp1864
a(Vbelatedly
VRB
tp1865
a(V,
V,
tp1866
a(Vwe
VPRP
tp1867
a(Vare
VVBP
tp1868
a(Vtaking
VVBG
tp1869
a(Vstricter
VJJR
tp1870
a(Vand
VCC
tp1871
a(Vstricter
VJJR
tp1872
a(Vmeasures
VNNS
tp1873
a(V.
V.
tp1874
aa(lp1875
(VAre
VVBP
tp1876
a(Vthere
VEX
tp1877
a(Vany
VDT
tp1878
a(Vcurrent
VJJ
tp1879
a(Vplans
VNNS
tp1880
a(Vto
VTO
tp1881
a(Vintroduce
VVB
tp1882
a(Va
VDT
tp1883
a(Vjoint
VJJ
tp1884
a(VEuropean
VJJ
tp1885
a(Vday
VNN
tp1886
a(Vor
VCC
tp1887
a(Vnational
VJJ
tp1888
a(Vdays
VNNS
tp1889
a(Vof
VIN
tp1890
a(VHolocaust
VNNP
tp1891
a(Vremembrance
VNN
tp1892
a(V?
V.
tp1893
aa(lp1894
(VI
VPRP
tp1895
a(Vdo
VVBP
tp1896
a(Vnot
VRB
tp1897
a(Vbelieve
VVB
tp1898
a(Vthat
VIN
tp1899
a(Vto
VTO
tp1900
a(Vbe
VVB
tp1901
a(Vthe
VDT
tp1902
a(Vcase
VNN
tp1903
a(V.
V.
tp1904
aa(lp1905
(VSo
VIN
tp1906
a(VI
VPRP
tp1907
a(Vjust
VRB
tp1908
a(Vwanted
VVBD
tp1909
a(Vto
VTO
tp1910
a(Vask
VVB
tp1911
a(V:
V:
tp1912
a(Vhave
VVB
tp1913
a(VI
VPRP
tp1914
a(Vmisunderstood
VVBD
tp1915
a(Vsomething
VNN
tp1916
a(Vor
VCC
tp1917
a(Vhas
VVBZ
tp1918
a(Vthe
VDT
tp1919
a(Vtimetable
VNN
tp1920
a(Vchanged
VVBD
tp1921
a(Vin
VIN
tp1922
a(Vsome
VDT
tp1923
a(Vway
VNN
tp1924
a(V?
V.
tp1925
aa(lp1926
(VThe
VDT
tp1927
a(VHigh
VJJ
tp1928
a(VRepresentative
VNNP
tp1929
a(V,
V,
tp1930
a(VMr
VNNP
tp1931
a(VSolana
VNNP
tp1932
a(V,
V,
tp1933
a(Vand
VCC
tp1934
a(VCommissioner
VNNP
tp1935
a(VPatten
VNNP
tp1936
a(Vreiterated
VVBD
tp1937
a(Vthe
VDT
tp1938
a(Vneed
VNN
tp1939
a(Vto
VTO
tp1940
a(Vrebuild
VVB
tp1941
a(VPalestinian
VJJ
tp1942
a(Vinfrastructure
VNN
tp1943
a(V.
V.
tp1944
a(VThey
VPRP
tp1945
a(Valso
VRB
tp1946
a(Vrecalled
VVBD
tp1947
a(Vthe
VDT
tp1948
a(Vconclusions
VNNS
tp1949
a(Vof
VIN
tp1950
a(Vthe
VDT
tp1951
a(Vad
VNN
tp1952
a(Vhoc
VFW
tp1953
a(VContact
VNN
tp1954
a(VGroup
VNN
tp1955
a(Vin
VIN
tp1956
a(VOslo
VNNP
tp1957
a(Vconcerning
VVBG
tp1958
a(Vthe
VDT
tp1959
a(Vneed
VNN
tp1960
a(Vto
VTO
tp1961
a(Vavoid
VVB
tp1962
a(Va
VDT
tp1963
a(Vsecurity
VNN
tp1964
a(Vvacuum
VNN
tp1965
a(Vin
VIN
tp1966
a(Vthe
VDT
tp1967
a(VPalestinian
VJJ
tp1968
a(VTerritories
VNNPS
tp1969
a(V.
V.
tp1970
aa(lp1971
(VThis
VDT
tp1972
a(Vis
VVBZ
tp1973
a(Vnot
VRB
tp1974
a(Va
VDT
tp1975
a(Vquestion
VNN
tp1976
a(Vfor
VIN
tp1977
a(Vthe
VDT
tp1978
a(VEuropean
VJJ
tp1979
a(VCentral
VNNP
tp1980
a(VBank
VNNP
tp1981
a(V,
V,
tp1982
a(Vbut
VCC
tp1983
a(VI
VPRP
tp1984
a(Vhave
VVBP
tp1985
a(Vmyself
VPRP
tp1986
a(V,
V,
tp1987
a(Vduring
VIN
tp1988
a(Va
VDT
tp1989
a(Vvisit
VNN
tp1990
a(Vto
VTO
tp1991
a(VTurkey
VNNP
tp1992
a(V,
V,
tp1993
a(Vaddressed
VVBD
tp1994
a(Vthis
VDT
tp1995
a(Vissue
VNN
tp1996
a(Vwith
VIN
tp1997
a(Vmembers
VNNS
tp1998
a(Vof
VIN
tp1999
a(Vthe
VDT
tp2000
a(VTurkish
VJJ
tp2001
a(VGovernment
VNN
tp2002
a(V,
V,
tp2003
a(Vand
VCC
tp2004
a(Vthey
VPRP
tp2005
a(Vpromised
VVBD
tp2006
a(Vto
VTO
tp2007
a(Vgradually
VRB
tp2008
a(Vphase
VVB
tp2009
a(Vout
VRP
tp2010
a(Vthis
VDT
tp2011
a(Vcoin
VNN
tp2012
a(Vand
VCC
tp2013
a(Vchange
VVB
tp2014
a(Vit
VPRP
tp2015
a(Vso
VIN
tp2016
a(Vit
VPRP
tp2017
a(Vwill
VMD
tp2018
a(Vnot
VRB
tp2019
a(Vbe
VVB
tp2020
a(Vso
VRB
tp2021
a(Vsimilar
VJJ
tp2022
a(Vto
VTO
tp2023
a(VEuropean
VJJ
tp2024
a(Vcoins
VNNS
tp2025
a(V.
V.
tp2026
aa(lp2027
(VThe
VDT
tp2028
a(Vnationalisation
VNN
tp2029
a(Vepisode
VNN
tp2030
a(Vin
VIN
tp2031
a(Vthe
VDT
tp2032
a(Vdecolonisation
VNN
tp2033
a(Vera
VNN
tp2034
a(Vwas
VVBD
tp2035
a(Vfollowed
VVBN
tp2036
a(Vby
VIN
tp2037
a(Van
VDT
tp2038
a(Vepisode
VNN
tp2039
a(Vof
VIN
tp2040
a(Vwild
VJJ
tp2041
a(Vprivatisations
VNNS
tp2042
a(Vof
VIN
tp2043
a(Vundertakings
VNNS
tp2044
a(V,
V,
tp2045
a(Vonly
VRB
tp2046
a(Vfor
VIN
tp2047
a(Vthese
VDT
tp2048
a(Voften
VRB
tp2049
a(Vto
VTO
tp2050
a(Vbecome
VVB
tp2051
a(Vimpoverished
VJJ
tp2052
a(V.
V.
tp2053
aa(lp2054
(VHaving
VVBG
tp2055
a(Vspoken
VVBN
tp2056
a(Vto
VTO
tp2057
a(Vhim
VPRP
tp2058
a(VI
VPRP
tp2059
a(Vhave
VVBP
tp2060
a(Vno
VDT
tp2061
a(Vdoubt
VNN
tp2062
a(Vthat
VIN
tp2063
a(Vhe
VPRP
tp2064
a(Vbelieves
VVBZ
tp2065
a(Vhe
VPRP
tp2066
a(Vhas
VVBZ
tp2067
a(Vhonest
VJJ
tp2068
a(Vcause
VNN
tp2069
a(V.
V.
tp2070
aa(lp2071
(VWomen
VNNS
tp2072
a(Vwill
VMD
tp2073
a(Vbe
VVB
tp2074
a(Vtreated
VVBN
tp2075
a(Vonly
VRB
tp2076
a(Vby
VIN
tp2077
a(Vfemale
VJJ
tp2078
a(Vdoctors
VNNS
tp2079
a(Vand
VCC
tp2080
a(Vmen
VNNS
tp2081
a(Vonly
VRB
tp2082
a(Vby
VIN
tp2083
a(Vmale
VJJ
tp2084
a(Vdoctors
VNNS
tp2085
a(V.
V.
tp2086
aa(lp2087
(VTo
VTO
tp2088
a(Vthe
VDT
tp2089
a(Vvery
VJJ
tp2090
a(Vcountry
VNN
tp2091
a(Vwhere
VWRB
tp2092
a(Vonly
VRB
tp2093
a(Vsix
VCD
tp2094
a(Vthousand
VCD
tp2095
a(VRoma
VNNP
tp2096
a(Vremained
VVBD
tp2097
a(Vout
VIN
tp2098
a(Vof
VIN
tp2099
a(V150
VCD
tp2100
a(Vthousand
VCD
tp2101
a(V,
V,
tp2102
a(Vand
VCC
tp2103
a(Veven
VRB
tp2104
a(Vthis
VDT
tp2105
a(Vsmall
VJJ
tp2106
a(Vgroup
VNN
tp2107
a(Vcontinues
VVBZ
tp2108
a(Vto
VTO
tp2109
a(Vlive
VVB
tp2110
a(Vthere
VRB
tp2111
a(Vin
VIN
tp2112
a(Vinhuman
VJJ
tp2113
a(Vcircumstances
VNNS
tp2114
a(V.
V.
tp2115
aa(lp2116
(VWe
VPRP
tp2117
a(Vare
VVBP
tp2118
a(Valso
VRB
tp2119
a(Vparticularly
VRB
tp2120
a(Vpleased
VJJ
tp2121
a(Vthat
VIN
tp2122
a(Vthe
VDT
tp2123
a(VAustralian
VJJ
tp2124
a(Vauthorities
VNNS
tp2125
a(Vhave
VVBP
tp2126
a(Vconfirmed
VVBN
tp2127
a(Vthat
VIN
tp2128
a(Vit
VPRP
tp2129
a(Vis
VVBZ
tp2130
a(Vnot
VRB
tp2131
a(Vworth
VJJ
tp2132
a(Vcollecting
VVBG
tp2133
a(Vsensitive
VJJ
tp2134
a(Vdata
VNNS
tp2135
a(Vsuch
VJJ
tp2136
a(Vas
VIN
tp2137
a(Vfood
VNN
tp2138
a(Vpreferences
VNNS
tp2139
a(V.
V.
tp2140
aa(lp2141
(VWe
VPRP
tp2142
a(Vhave
VVBP
tp2143
a(Vthe
VDT
tp2144
a(Vright
VNN
tp2145
a(Vto
VTO
tp2146
a(Vspeak
VVB
tp2147
a(Vfreely
VRB
tp2148
a(V.
V.
tp2149
aa(lp2150
(VModern
VNNP
tp2151
a(Vfood
VNN
tp2152
a(Vsystems
VNNS
tp2153
a(Vmean
VVBP
tp2154
a(Vthat
VIN
tp2155
a(Vanimal
VJJ
tp2156
a(Vdiseases
VNNS
tp2157
a(Vtravel
VVBP
tp2158
a(Vfar
VRB
tp2159
a(Vand
VCC
tp2160
a(Vtravel
VVB
tp2161
a(Vquickly
VRB
tp2162
a(V.
V.
tp2163
aa(lp2164
(VI
VPRP
tp2165
a(Vwelcome
VVBP
tp2166
a(Vthis
VDT
tp2167
a(Vdevelopment
VNN
tp2168
a(V.
V.
tp2169
aa(lp2170
(VMoreover
VRB
tp2171
a(V,
V,
tp2172
a(Vthe
VDT
tp2173
a(Vmonitoring
VNN
tp2174
a(Vmission
VNN
tp2175
a(Vrecently
VRB
tp2176
a(Vshowed
VVBD
tp2177
a(Vits
VPRP$
tp2178
a(Vvalue
VNN
tp2179
a(Vwhen
VWRB
tp2180
a(Vit
VPRP
tp2181
a(Vwas
VVBD
tp2182
a(Vdeployed
VVBN
tp2183
a(Vin
VIN
tp2184
a(VPresevo
VNNP
tp2185
a(VValley
VNNP
tp2186
a(V.
V.
tp2187
aa(lp2188
(VMr
VNNP
tp2189
a(VProdi
VNNP
tp2190
a(Vhas
VVBZ
tp2191
a(Vdescribed
VVBN
tp2192
a(Vthe
VDT
tp2193
a(Vassassination
VNN
tp2194
a(Vof
VIN
tp2195
a(Vthe
VDT
tp2196
a(VHamas
VNNP
tp2197
a(Vleader
VNN
tp2198
a(Vas
VIN
tp2199
a(Van
VDT
tp2200
a(Villegal
VJJ
tp2201
a(Vand
VCC
tp2202
a(Virresponsible
VJJ
tp2203
a(Vact
VNN
tp2204
a(V.
V.
tp2205
aa(lp2206
(VConsider
VVB
tp2207
a(V,
V,
tp2208
a(Vfor
VIN
tp2209
a(Vexample
VNN
tp2210
a(V,
V,
tp2211
a(Vthat
VIN
tp2212
a(Vin
VIN
tp2213
a(VThessaloniki
VNNP
tp2214
a(V,
V,
tp2215
a(Vuntil
VIN
tp2216
a(Vthe
VDT
tp2217
a(VSecond
VJJ
tp2218
a(VWorld
VNNP
tp2219
a(VWar
VNNP
tp2220
a(V,
V,
tp2221
a(Vthere
VEX
tp2222
a(Vlived
VVBD
tp2223
a(Vthe
VDT
tp2224
a(Vlargest
VJJS
tp2225
a(Vgroup
VNN
tp2226
a(Vof
VIN
tp2227
a(VSephardic
VNNP
tp2228
a(VJews
VNNPS
tp2229
a(Vexpelled
VVBD
tp2230
a(Vfrom
VIN
tp2231
a(Vmy
VPRP$
tp2232
a(Vcountry
VNN
tp2233
a(V,
V,
tp2234
a(Vwhich
VWDT
tp2235
a(Vhas
VVBZ
tp2236
a(Va
VDT
tp2237
a(VGreek
VJJ
tp2238
a(V,
V,
tp2239
a(VRoman
VNNP
tp2240
a(V,
V,
tp2241
a(VChristian
VNNP
tp2242
a(V,
V,
tp2243
a(VMuslim
VJJ
tp2244
a(Vand
VCC
tp2245
a(VJewish
VJJ
tp2246
a(Vhistory
VNN
tp2247
a(V.
V.
tp2248
aa(lp2249
(VI
VPRP
tp2250
a(Vbelieve
VVBP
tp2251
a(V,
V,
tp2252
a(Vhowever
VRB
tp2253
a(V,
V,
tp2254
a(Vthat
VIN
tp2255
a(Vhis
VPRP$
tp2256
a(Vproposals
VNNS
tp2257
a(Vdo
VVBP
tp2258
a(Vnot
VRB
tp2259
a(Vmeet
VVB
tp2260
a(Vthis
VDT
tp2261
a(Vcriterion
VNN
tp2262
a(V,
V,
tp2263
a(Vbecause
VIN
tp2264
a(Vhe
VPRP
tp2265
a(Vonly
VRB
tp2266
a(Vwants
VVBZ
tp2267
a(Vto
VTO
tp2268
a(Vtreat
VVB
tp2269
a(Vso-called
VJJ
tp2270
a(Vnon-traditional
VJJ
tp2271
a(Vforms
VNNS
tp2272
a(Vof
VIN
tp2273
a(Vcohabitation
VNN
tp2274
a(Vas
VIN
tp2275
a(Vequal
VJJ
tp2276
a(Vif
VIN
tp2277
a(Vthe
VDT
tp2278
a(Vpeople
VNNS
tp2279
a(Vconcerned
VVBN
tp2280
a(Vcan
VMD
tp2281
a(Vprovide
VVB
tp2282
a(Vformal
VJJ
tp2283
a(Vrecognition
VNN
tp2284
a(Vby
VIN
tp2285
a(Va
VDT
tp2286
a(VMember
VNNP
tp2287
a(VState
VNNP
tp2288
a(Vand
VCC
tp2289
a(Vonly
VRB
tp2290
a(Vin
VIN
tp2291
a(Vcases
VNNS
tp2292
a(Vin
VIN
tp2293
a(Vwhich
VWDT
tp2294
a(Vthey
VPRP
tp2295
a(Vdo
VVBP
tp2296
a(Vnot
VRB
tp2297
a(Vhave
VVB
tp2298
a(Vaccess
VNN
tp2299
a(Vto
VTO
tp2300
a(Vlegal
VJJ
tp2301
a(Vmarriage
VNN
tp2302
a(V.
V.
tp2303
aa(lp2304
(VI
VPRP
tp2305
a(Vheard
VVBD
tp2306
a(Von
VIN
tp2307
a(Vthe
VDT
tp2308
a(Vtelevision
VNN
tp2309
a(Vthis
VDT
tp2310
a(Vmorning
VNN
tp2311
a(Vthat
VIN
tp2312
a(Vone
VCD
tp2313
a(Vfaction
VNN
tp2314
a(Vwithin
VIN
tp2315
a(Vthe
VDT
tp2316
a(VIndonesian
VJJ
tp2317
a(Varmy
VNN
tp2318
a(Vwas
VVBD
tp2319
a(Vactually
VRB
tp2320
a(Vsaying
VVBG
tp2321
a(Vthat
VIN
tp2322
a(Vit
VPRP
tp2323
a(Vwanted
VVBD
tp2324
a(Vto
VTO
tp2325
a(Vlead
VVB
tp2326
a(Vthe
VDT
tp2327
a(Vmultinational
VJJ
tp2328
a(Vpeacekeeping
VNN
tp2329
a(Vforce
VNN
tp2330
a(V!
V.
tp2331
aa(lp2332
(VIt
VPRP
tp2333
a(Vhas
VVBZ
tp2334
a(Valready
VRB
tp2335
a(Vhad
VVBD
tp2336
a(Vthe
VDT
tp2337
a(Vworst
VJJS
tp2338
a(Vof
VIN
tp2339
a(Vthe
VDT
tp2340
a(Vfight
VNN
tp2341
a(V.
V.
tp2342
aa(lp2343
(VThat
VDT
tp2344
a(Vis
VVBZ
tp2345
a(Va
VDT
tp2346
a(Vmixture
VNN
tp2347
a(Vof
VIN
tp2348
a(Vdisingenuousness
VNN
tp2349
a(Vand
VCC
tp2350
a(Vabsurdity
VNN
tp2351
a(V.
V.
tp2352
aa.