(lp1
(lp2
(VNo
VDT
tp3
a(Vnation
VNN
tp4
a(Vis
VVBZ
tp5
a(Vbetter
VJJR
tp6
a(Vor
VCC
tp7
a(Vworse
VJJR
tp8
a(Vthan
VIN
tp9
a(Vany
VDT
tp10
a(Vother
VJJ
tp11
a(V.
V.
tp12
aa(lp13
(VThat
VDT
tp14
a(Vis
VVBZ
tp15
a(Vthe
VDT
tp16
a(Vsecond
VJJ
tp17
a(Velement
VNN
tp18
a(Vthat
VIN
tp19
a(Vwe
VPRP
tp20
a(Vneed
VVBP
tp21
a(Vto
VTO
tp22
a(Vtake
VVB
tp23
a(Vinto
VIN
tp24
a(Vaccount
VNN
tp25
a(V.
V.
tp26
aa(lp27
(VEvery
VDT
tp28
a(Vday
VNN
tp29
a(VI
VCD
tp30
a(Vfight
VVBP
tp31
a(Vthe
VDT
tp32
a(Vbattle
VNN
tp33
a(Vagainst
VIN
tp34
a(Vthis
VDT
tp35
a(Vscourge
VNN
tp36
a(V.
V.
tp37
aa(lp38
(VPolitical
VJJ
tp39
a(Vprisoners
VNNS
tp40
a(Vare
VVBP
tp41
a(Vbeing
VVBG
tp42
a(Vtortured
VJJ
tp43
a(V.
V.
tp44
aa(lp45
(VThe
VDT
tp46
a(Vvery
VRB
tp47
a(Vsame
VJJ
tp48
a(Vservices
VNNS
tp49
a(Vused
VVBN
tp50
a(Vby
VIN
tp51
a(Vlocal
VJJ
tp52
a(Vcitizens
VNNS
tp53
a(Vare
VVBP
tp54
a(Voffered
VVBN
tp55
a(Vto
VTO
tp56
a(Vforeigners
VNNS
tp57
a(Vat
VIN
tp58
a(Vtwo
VCD
tp59
a(Vor
VCC
tp60
a(Vthree
VCD
tp61
a(Vtimes
VNNS
tp62
a(Vthe
VDT
tp63
a(Vprice
VNN
tp64
a(V.
V.
tp65
aa(lp66
(VChina
VNNP
tp67
a(Vcontinues
VVBZ
tp68
a(Vto
VTO
tp69
a(Vpersecute
VVB
tp70
a(Vfollowers
VNNS
tp71
a(Vof
VIN
tp72
a(Vthe
VDT
tp73
a(VCatholic
VNNP
tp74
a(VChurch
VNNP
tp75
a(V.
V.
tp76
aa(lp77
(VPeople
VNNS
tp78
a(Vnow
VRB
tp79
a(Vtravel
VVBP
tp80
a(Vat
VIN
tp81
a(Vlightning
VNN
tp82
a(Vspeed
VNN
tp83
a(V.
V.
tp84
aa(lp85
(VThere
VEX
tp86
a(Vcomes
VVBZ
tp87
a(Va
VDT
tp88
a(Vpoint
VNN
tp89
a(Vwhere
VWRB
tp90
a(Vit
VPRP
tp91
a(Vno
VRB
tp92
a(Vlonger
VRBR
tp93
a(Vmakes
VVBZ
tp94
a(Vsense
VNN
tp95
a(Vto
VTO
tp96
a(Vask
VVB
tp97
a(Vwho
VWP
tp98
a(Vis
VVBZ
tp99
a(Vguilty
VJJ
tp100
a(Vand
VCC
tp101
a(Vwho
VWP
tp102
a(Vinnocent
VJJ
tp103
a(V,
V,
tp104
a(Vbecause
VIN
tp105
a(Vthe
VDT
tp106
a(Vcycle
VNN
tp107
a(Vof
VIN
tp108
a(Vviolence
VNN
tp109
a(Vno
VRB
tp110
a(Vlonger
VRB
tp111
a(Vhas
VVBZ
tp112
a(Va
VDT
tp113
a(Vdiscernible
VJJ
tp114
a(Vbeginning
VNN
tp115
a(Vor
VCC
tp116
a(Vend
VNN
tp117
a(V.
V.
tp118
aa(lp119
(VThird
VNNP
tp120
a(V,
V,
tp121
a(Vthey
VPRP
tp122
a(Vmust
VMD
tp123
a(Vbe
VVB
tp124
a(Vflexible
VJJ
tp125
a(Vin
VIN
tp126
a(Vtheir
VPRP$
tp127
a(Vimplementation
VNN
tp128
a(Vto
VTO
tp129
a(Vtake
VVB
tp130
a(Vaccount
VNN
tp131
a(Vof
VIN
tp132
a(Vrapidly
VRB
tp133
a(Vchanging
VVBG
tp134
a(Vmarkets
VNNS
tp135
a(Vand
VCC
tp136
a(Vtechnologies
VNNS
tp137
a(V.
V.
tp138
aa(lp139
(VHowever
VRB
tp140
a(V,
V,
tp141
a(Veducation
VNN
tp142
a(Vplays
VVBZ
tp143
a(Van
VDT
tp144
a(Vimportant
VJJ
tp145
a(Vpart
VNN
tp146
a(Vin
VIN
tp147
a(Vchanging
VVBG
tp148
a(Vmentalities
VNNS
tp149
a(V.
V.
tp150
aa(lp151
(VI
VPRP
tp152
a(Vam
VVBP
tp153
a(Va
VDT
tp154
a(Vdiabetic
VJJ
tp155
a(Vand
VCC
tp156
a(Vwere
VVBD
tp157
a(Vit
VPRP
tp158
a(Vnot
VRB
tp159
a(Vfor
VIN
tp160
a(Vbiotechnology
VNN
tp161
a(Vfrom
VIN
tp162
a(Vthe
VDT
tp163
a(Vliver
VNN
tp164
a(Vof
VIN
tp165
a(Va
VDT
tp166
a(Vpoor
VJJ
tp167
a(Vinnocent
VJJ
tp168
a(Vpig
VNN
tp169
a(VI
VPRP
tp170
a(Vwould
VMD
tp171
a(Vbe
VVB
tp172
a(Va
VDT
tp173
a(Vdead
VJJ
tp174
a(Vman
VNN
tp175
a(Vtoday
VNN
tp176
a(V.
V.
tp177
aa(lp178
(VIn
VIN
tp179
a(Vother
VJJ
tp180
a(Vparts
VNNS
tp181
a(Vof
VIN
tp182
a(Vthe
VDT
tp183
a(Vworld
VNN
tp184
a(Vmore
VRBR
tp185
a(Vthan
VIN
tp186
a(V30
VCD
tp187
a(V%
VNN
tp188
a(Vof
VIN
tp189
a(Vthe
VDT
tp190
a(Vmedicines
VNNS
tp191
a(Von
VIN
tp192
a(Vsale
VNN
tp193
a(Vcan
VMD
tp194
a(Vbe
VVB
tp195
a(Vfake
VJJ
tp196
a(V.
V.
tp197
aa(lp198
(VThis
VDT
tp199
a(Vis
VVBZ
tp200
a(Vnot
VRB
tp201
a(Vcorrecting
VVBG
tp202
a(Vmistakes
VNNS
tp203
a(V,
V,
tp204
a(Vimproving
VVBG
tp205
a(Vpublic
VJJ
tp206
a(Vmanagement
VNN
tp207
a(Vor
VCC
tp208
a(Vpreventing
VVBG
tp209
a(Vanother
VDT
tp210
a(VGreek
VJJ
tp211
a(Vsituation
VNN
tp212
a(V:
V:
tp213
a(Vthis
VDT
tp214
a(Vis
VVBZ
tp215
a(Vdemocracy
VNN
tp216
a(Vheld
VVBN
tp217
a(Vat
VIN
tp218
a(Vgunpoint
VNN
tp219
a(V.
V.
tp220
aa(lp221
(VI
VPRP
tp222
a(Valso
VRB
tp223
a(Vwelcome
VVBP
tp224
a(Van
VDT
tp225
a(Vinitiative
VNN
tp226
a(Vto
VTO
tp227
a(Vdistribute
VVB
tp228
a(Vfruit
VNN
tp229
a(Vand
VCC
tp230
a(Vvegetables
VNNS
tp231
a(Vfree
VJJ
tp232
a(Vin
VIN
tp233
a(Vschools
VNNS
tp234
a(V.
V.
tp235
aa(lp236
(VNow
VRB
tp237
a(Vthey
VPRP
tp238
a(Vwant
VVBP
tp239
a(Vback
VRB
tp240
a(Vinto
VIN
tp241
a(Vgovernment
VNN
tp242
a(V,
V,
tp243
a(Vbut
VCC
tp244
a(Vthink
VVBP
tp245
a(Vthey
VPRP
tp246
a(Vshould
VMD
tp247
a(Vkeep
VVB
tp248
a(Vtheir
VPRP$
tp249
a(VArmy
VNNP
tp250
a(VCouncil
VNNP
tp251
a(V.
V.
tp252
aa(lp253
(VMuch
VJJ
tp254
a(Vdepends
VVBZ
tp255
a(Von
VIN
tp256
a(Vrelations
VNNS
tp257
a(Vwith
VIN
tp258
a(VTurkey
VNNP
tp259
a(V.
V.
tp260
aa(lp261
(VAfter
VIN
tp262
a(Vall
VDT
tp263
a(V,
V,
tp264
a(Vuranium
VNN
tp265
a(Vis
VVBZ
tp266
a(Vimported
VVBN
tp267
a(V,
V,
tp268
a(Vand
VCC
tp269
a(Vnot
VRB
tp270
a(Vonly
VRB
tp271
a(Vfrom
VIN
tp272
a(Vcountries
VNNS
tp273
a(Vwe
VPRP
tp274
a(Vlike
VVBP
tp275
a(V.
V.
tp276
aa(lp277
(VIt
VPRP
tp278
a(Vis
VVBZ
tp279
a(Valways
VRB
tp280
a(Vbetter
VJJR
tp281
a(Vto
VTO
tp282
a(Vcall
VVB
tp283
a(Vthings
VNNS
tp284
a(Vby
VIN
tp285
a(Vtheir
VPRP$
tp286
a(Vright
VJJ
tp287
a(Vname
VNN
tp288
a(V.
V.
tp289
aa(lp290
(VThere
VEX
tp291
a(Vare
VVBP
tp292
a(Vmany
VJJ
tp293
a(Vpoints
VNNS
tp294
a(Vwhich
VWDT
tp295
a(Vwe
VPRP
tp296
a(Vnaturally
VRB
tp297
a(Vagree
VVBP
tp298
a(Vwith
VIN
tp299
a(V,
V,
tp300
a(Vfor
VIN
tp301
a(Vexample
VNN
tp302
a(Vthose
VDT
tp303
a(Vrelating
VVBG
tp304
a(Vto
VTO
tp305
a(Vworking
VVBG
tp306
a(Vhours
VNNS
tp307
a(Vin
VIN
tp308
a(Vthe
VDT
tp309
a(Vtransport
VNN
tp310
a(Vindustry
VNN
tp311
a(Vand
VCC
tp312
a(Vto
VTO
tp313
a(Vthe
VDT
tp314
a(Vdisabled
VJJ
tp315
a(V.
V.
tp316
aa(lp317
(VWe
VPRP
tp318
a(Vhad
VVBD
tp319
a(Vjust
VRB
tp320
a(Vbeen
VVBN
tp321
a(Vvisiting
VVBG
tp322
a(Vthe
VDT
tp323
a(VYad
VNNP
tp324
a(VVashem
VNNP
tp325
a(VMuseum
VNNP
tp326
a(V,
V,
tp327
a(Vwhen
VWRB
tp328
a(Vthe
VDT
tp329
a(Vambassador
VNN
tp330
a(Vfor
VIN
tp331
a(Vmy
VPRP$
tp332
a(Vcountry
VNN
tp333
a(V&apos;
VJJ
tp334
a(Vphoned
VVBD
tp335
a(Vme
VPRP
tp336
a(Vwith
VIN
tp337
a(Vthe
VDT
tp338
a(Vnews
VNN
tp339
a(V.
V.
tp340
aa(lp341
(VIn
VIN
tp342
a(Vaddition
VNN
tp343
a(Vto
VTO
tp344
a(Vbreast
VNN
tp345
a(V,
V,
tp346
a(Vcervical
VJJ
tp347
a(Vand
VCC
tp348
a(Vcolorectal
VJJ
tp349
a(Vcancer
VNN
tp350
a(V,
V,
tp351
a(Vwe
VPRP
tp352
a(Vmust
VMD
tp353
a(Vadd
VVB
tp354
a(Vskin
VNN
tp355
a(Vcancer
VNN
tp356
a(V,
V,
tp357
a(Vand
VCC
tp358
a(Vpossibly
VRB
tp359
a(Vlung
VNN
tp360
a(Vand
VCC
tp361
a(Vprostate
VNN
tp362
a(Vcancer
VNN
tp363
a(V.
V.
tp364
aa(lp365
(VAll
VDT
tp366
a(Vtypes
VNNS
tp367
a(Vof
VIN
tp368
a(Vtrafficking
VNN
tp369
a(V,
V,
tp370
a(Vproduction
VNN
tp371
a(Vand
VCC
tp372
a(Vsale
VNN
tp373
a(Vwill
VMD
tp374
a(Vnow
VRB
tp375
a(Vbe
VVB
tp376
a(Vpunished
VVBN
tp377
a(V.
V.
tp378
aa(lp379
(VThat
VDT
tp380
a(Vwas
VVBD
tp381
a(Valso
VRB
tp382
a(Vthe
VDT
tp383
a(Vreality
VNN
tp384
a(Vof
VIN
tp385
a(Vthe
VDT
tp386
a(Vtime
VNN
tp387
a(V.
V.
tp388
aa(lp389
(VEurope
VNNP
tp390
a(Vshould
VMD
tp391
a(Vbe
VVB
tp392
a(Vashamed
VJJ
tp393
a(Vthat
VIN
tp394
a(Vin
VIN
tp395
a(Vthis
VDT
tp396
a(Vrespect
VNN
tp397
a(Vthe
VDT
tp398
a(Vstandards
VNNS
tp399
a(Vin
VIN
tp400
a(Vthe
VDT
tp401
a(VEU
VNNP
tp402
a(Vare
VVBP
tp403
a(Vlower
VJJR
tp404
a(Vthan
VIN
tp405
a(Vin
VIN
tp406
a(Vthe
VDT
tp407
a(VUnited
VNNP
tp408
a(VStates
VNNPS
tp409
a(V.
V.
tp410
aa(lp411
(VCommunism
VNNP
tp412
a(Vwas
VVBD
tp413
a(Vkept
VVBN
tp414
a(Vat
VIN
tp415
a(Vbay
VNN
tp416
a(V,
V,
tp417
a(Vpartly
VRB
tp418
a(Vthanks
VNNS
tp419
a(Vto
VTO
tp420
a(VTurkish
VJJ
tp421
a(Vloyalty
VNN
tp422
a(Vtowards
VIN
tp423
a(Vthe
VDT
tp424
a(VNATO
VNNP
tp425
a(VPact
VNNP
tp426
a(V.
V.
tp427
aa(lp428
(VThe
VDT
tp429
a(Vfear
VNN
tp430
a(Vof
VIN
tp431
a(Vthe
VDT
tp432
a(Vstigma
VNN
tp433
a(Vattached
VVBN
tp434
a(Vto
VTO
tp435
a(Va
VDT
tp436
a(Vpositive
VJJ
tp437
a(Vtest
VNN
tp438
a(Vresult
VNN
tp439
a(Vcan
VMD
tp440
a(Vprevent
VVB
tp441
a(Vpatients
VNNS
tp442
a(Vfrom
VIN
tp443
a(Vaccessing
VVBG
tp444
a(Vearly
VJJ
tp445
a(Vscreening
VNN
tp446
a(V.
V.
tp447
aa(lp448
(VI
VPRP
tp449
a(Vshall
VMD
tp450
a(Vnever
VRB
tp451
a(Vforget
VVB
tp452
a(Vhow
VWRB
tp453
a(Vyou
VPRP
tp454
a(Vreceived
VVBD
tp455
a(Vme
VPRP
tp456
a(Vin
VIN
tp457
a(Vyour
VPRP$
tp458
a(VMoscow
VNNP
tp459
a(Vflat
VJJ
tp460
a(Vafter
VIN
tp461
a(Vmy
VPRP$
tp462
a(Vvisit
VNN
tp463
a(Vto
VTO
tp464
a(Vyour
VPRP$
tp465
a(Vhusband
VNN
tp466
a(V&apos;s
VVBZ
tp467
a(Vgrave
VNN
tp468
a(Vin
VIN
tp469
a(VFebruary
VNNP
tp470
a(V1990
VCD
tp471
a(V;
V:
tp472
a(Vit
VPRP
tp473
a(Vwas
VVBD
tp474
a(Va
VDT
tp475
a(Vmoving
VVBG
tp476
a(Vexperience
VNN
tp477
a(V.
V.
tp478
aa(lp479
(VThat
VDT
tp480
a(Vis
VVBZ
tp481
a(Vthe
VDT
tp482
a(Vonly
VJJ
tp483
a(Vdifference
VNN
tp484
a(V.
V.
tp485
aa(lp486
(VIt
VPRP
tp487
a(Vmust
VMD
tp488
a(Vbe
VVB
tp489
a(Vsaid
VVBD
tp490
a(Vthat
VIN
tp491
a(Vin
VIN
tp492
a(Vthe
VDT
tp493
a(Vareas
VNNS
tp494
a(Vwhere
VWRB
tp495
a(Vit
VPRP
tp496
a(Vhas
VVBZ
tp497
a(Vbeen
VVBN
tp498
a(Vimplemented
VVBN
tp499
a(Vthere
VEX
tp500
a(Vhas
VVBZ
tp501
a(Vbeen
VVBN
tp502
a(Vgood
VJJ
tp503
a(Vfinancial
VJJ
tp504
a(Vcontrol
VNN
tp505
a(V.
V.
tp506
aa(lp507
(VEconomic
VNNP
tp508
a(Vinterests
VNNS
tp509
a(Vdeserve
VVBP
tp510
a(Vto
VTO
tp511
a(Vbe
VVB
tp512
a(Vprotected
VVBN
tp513
a(V.
V.
tp514
aa(lp515
(VThis
VDT
tp516
a(Vmeans
VVBZ
tp517
a(Vthat
VIN
tp518
a(V,
V,
tp519
a(Vcontrary
VJJ
tp520
a(Vto
VTO
tp521
a(Vwhat
VWP
tp522
a(Vwas
VVBD
tp523
a(Vwritten
VVBN
tp524
a(Von
VIN
tp525
a(Vthe
VDT
tp526
a(Vwalls
VNNS
tp527
a(Vof
VIN
tp528
a(Vthe
VDT
tp529
a(VMembers
VNNS
tp530
a(V&apos;
VVBP
tp531
a(Vrestaurant
VNN
tp532
a(Vin
VIN
tp533
a(VBrussels
VNNP
tp534
a(Va
VDT
tp535
a(Vmonth
VNN
tp536
a(Vago
VRB
tp537
a(V,
V,
tp538
a(Vthe
VDT
tp539
a(VEuropean
VNNP
tp540
a(VUnion
VNNP
tp541
a(Vdoes
VVBZ
tp542
a(Vnot
VRB
tp543
a(Vneed
VVB
tp544
a(Vimmigration
VNN
tp545
a(V.
V.
tp546
aa(lp547
(VThat
VDT
tp548
a(Vis
VVBZ
tp549
a(Vwhy
VWRB
tp550
a(VI
VPRP
tp551
a(Vam
VVBP
tp552
a(Vin
VIN
tp553
a(Vfavour
VNN
tp554
a(Vof
VIN
tp555
a(Vthis
VDT
tp556
a(Vproposal
VNN
tp557
a(V.
V.
tp558
aa(lp559
(VThe
VDT
tp560
a(Vofficials
VNNS
tp561
a(Vfrom
VIN
tp562
a(VSweden
VNNP
tp563
a(V\u2019
VCD
tp564
a(Vs
VNNS
tp565
a(VMinistry
VNNP
tp566
a(Vof
VIN
tp567
a(VForeign
VNNP
tp568
a(VAffairs
VNNPS
tp569
a(Vwho
VWP
tp570
a(Vhave
VVBP
tp571
a(Vbeen
VVBN
tp572
a(Vable
VJJ
tp573
a(Vto
VTO
tp574
a(Vvisit
VVB
tp575
a(VMehdi
VNNP
tp576
a(VGhezali
VNNP
tp577
a(Vare
VVBP
tp578
a(Vnot
VRB
tp579
a(Vallowed
VVBN
tp580
a(Vto
VTO
tp581
a(Vtell
VVB
tp582
a(Vhis
VPRP$
tp583
a(Vfamily
VNN
tp584
a(Vhow
VWRB
tp585
a(Vhe
VPRP
tp586
a(Vis
VVBZ
tp587
a(V.
V.
tp588
aa(lp589
(VPrince
VNNP
tp590
a(VVictor
VNNP
tp591
a(VEmmanuel
VNNP
tp592
a(Vhas
VVBZ
tp593
a(Vbeen
VVBN
tp594
a(Vin
VIN
tp595
a(Vexile
VNN
tp596
a(Vfor
VIN
tp597
a(V50
VCD
tp598
a(Vyears
VNNS
tp599
a(Vnow
VRB
tp600
a(V.
V.
tp601
aa(lp602
(VIt
VPRP
tp603
a(Vwill
VMD
tp604
a(Vbe
VVB
tp605
a(Vresumed
VVBN
tp606
a(Vthis
VDT
tp607
a(Vevening
VNN
tp608
a(Vat
VIN
tp609
a(V9.00
VCD
tp610
a(Vp.m.
VNN
tp611
aa(lp612
(VThat
VDT
tp613
a(Vis
VVBZ
tp614
a(Vthe
VDT
tp615
a(Vway
VNN
tp616
a(Vit
VPRP
tp617
a(Vhappens
VVBZ
tp618
a(V,
V,
tp619
a(Vso
VRB
tp620
a(VMr
VNNP
tp621
a(VDacian
VNNP
tp622
a(VCiolo\u015f
VNNP
tp623
a(Vis
VVBZ
tp624
a(Vfully
VRB
tp625
a(Vincluded
VVBN
tp626
a(Vin
VIN
tp627
a(Vthese
VDT
tp628
a(Vdiscussions
VNNS
tp629
a(V.
V.
tp630
aa(lp631
(VAlready
VRB
tp632
a(V,
V,
tp633
a(Vthere
VEX
tp634
a(V800
VCD
tp635
a(Vmillion
VCD
tp636
a(Vpeople
VNNS
tp637
a(Vwho
VWP
tp638
a(Vare
VVBP
tp639
a(Vdying
VVBG
tp640
a(Vof
VIN
tp641
a(Vstarvation
VNN
tp642
a(V.
V.
tp643
aa(lp644
(V\u2013
VNN
tp645
a(VMr
VNNP
tp646
a(VPresident
VNNP
tp647
a(V,
V,
tp648
a(VI
VPRP
tp649
a(Vhave
VVBP
tp650
a(Valways
VRB
tp651
a(Vheld
VVBN
tp652
a(Vthat
VIN
tp653
a(Vthe
VDT
tp654
a(Vdegree
VNN
tp655
a(Vof
VIN
tp656
a(Vcivilisation
VNN
tp657
a(Vof
VIN
tp658
a(Va
VDT
tp659
a(Vpeople
VNNS
tp660
a(Vcan
VMD
tp661
a(Valso
VRB
tp662
a(Vbe
VVB
tp663
a(Vmeasured
VVBN
tp664
a(Vby
VIN
tp665
a(Vhow
VWRB
tp666
a(Vmuch
VJJ
tp667
a(Vthey
VPRP
tp668
a(Vrespect
VVBP
tp669
a(Vanimals
VNNS
tp670
a(V.
V.
tp671
aa(lp672
(VThat
VDT
tp673
a(Vis
VVBZ
tp674
a(Vso
VRB
tp675
a(Vtypical
VJJ
tp676
a(Vof
VIN
tp677
a(Vthis
VDT
tp678
a(Vplace
VNN
tp679
a(V:
V:
tp680
a(Vfull
VJJ
tp681
a(Vof
VIN
tp682
a(Vhypocrisy
VNN
tp683
a(Vand
VCC
tp684
a(Vhumbug
VNN
tp685
a(V.
V.
tp686
aa(lp687
(VEnough
VNNP
tp688
a(Vcrocodile
VNNP
tp689
a(Vtears
VNNS
tp690
a(V!
V.
tp691
aa(lp692
(VThe
VDT
tp693
a(Vword
VNN
tp694
a(V&apos;
VNN
tp695
a(Vappear
VVBP
tp696
a(V&apos;
VNN
tp697
a(Vis
VVBZ
tp698
a(Vhighly
VRB
tp699
a(Vsuspicious
VJJ
tp700
a(V.
V.
tp701
aa(lp702
(VEverything
VNN
tp703
a(Vmust
VMD
tp704
a(Vbe
VVB
tp705
a(Vdone
VVBN
tp706
a(Vto
VTO
tp707
a(Vput
VVB
tp708
a(Vthis
VDT
tp709
a(Vright
VNN
tp710
a(V,
V,
tp711
a(Vto
VTO
tp712
a(Vpromote
VVB
tp713
a(Vthe
VDT
tp714
a(Vunity
VNN
tp715
a(Vof
VIN
tp716
a(Vfamilies
VNNS
tp717
a(Vin
VIN
tp718
a(Vfamiliar
VJJ
tp719
a(Vcultural
VJJ
tp720
a(Vand
VCC
tp721
a(Vsocial
VJJ
tp722
a(Venvironments
VNNS
tp723
a(V.
V.
tp724
aa(lp725
(VNo
VDT
tp726
a(Vone
VNN
tp727
a(V-
V:
tp728
a(Vnot
VRB
tp729
a(Vin
VIN
tp730
a(Vthis
VDT
tp731
a(VHouse
VNNP
tp732
a(Vanyway
VRB
tp733
a(V-
V:
tp734
a(Vwants
VVBZ
tp735
a(Vto
VTO
tp736
a(Vprint
VVB
tp737
a(Vmoney
VNN
tp738
a(V.
V.
tp739
aa(lp740
(VOnly
VRB
tp741
a(Vshort-term
VJJ
tp742
a(Vmeasures
VNNS
tp743
a(Vof
VIN
tp744
a(Vthis
VDT
tp745
a(Vkind
VNN
tp746
a(Vcan
VMD
tp747
a(Vbe
VVB
tp748
a(Vjustified
VJJ
tp749
a(V.
V.
tp750
aa(lp751
(VI
VPRP
tp752
a(Vagree
VVBP
tp753
a(Vwith
VIN
tp754
a(Vmuch
VJJ
tp755
a(Vof
VIN
tp756
a(Vwhat
VWP
tp757
a(Vyou
VPRP
tp758
a(Vsaid
VVBD
tp759
a(V,
V,
tp760
a(VOlivier
VNNP
tp761
a(V.
V.
tp762
aa(lp763
(VLast
VJJ
tp764
a(Vmonth
VNN
tp765
a(V,
V,
tp766
a(Vthe
VDT
tp767
a(VConstitutional
VNNP
tp768
a(VCourt
VNNP
tp769
a(Vin
VIN
tp770
a(Vthis
VDT
tp771
a(Vcountry
VNN
tp772
a(Vreaffirmed
VVBN
tp773
a(Vby
VIN
tp774
a(Va
VDT
tp775
a(Vnarrow
VJJ
tp776
a(Vmajority
VNN
tp777
a(Vthe
VDT
tp778
a(Vdeath
VNN
tp779
a(Vpenalty
VNN
tp780
a(Vas
VIN
tp781
a(Vbeing
VVBG
tp782
a(Vconstitutional
VJJ
tp783
a(V.
V.
tp784
aa(lp785
(VWe
VPRP
tp786
a(Vneed
VVBP
tp787
a(Vto
VTO
tp788
a(Vfind
VVB
tp789
a(Vpenalties
VNNS
tp790
a(Vand
VCC
tp791
a(Vpunish
VVB
tp792
a(Voffenders
VNNS
tp793
a(V.
V.
tp794
aa(lp795
(VWe
VPRP
tp796
a(Vin
VIN
tp797
a(VFrance
VNNP
tp798
a(Vare
VVBP
tp799
a(Vwell
VRB
tp800
a(Vaware
VJJ
tp801
a(Vof
VIN
tp802
a(Vthe
VDT
tp803
a(Vabuses
VNNS
tp804
a(Vthat
VWDT
tp805
a(Vcan
VMD
tp806
a(Vresult
VVB
tp807
a(Vfrom
VIN
tp808
a(Vfile
VNN
tp809
a(Vconnection
VNN
tp810
a(V.
V.
tp811
aa(lp812
(VWe
VPRP
tp813
a(Valso
VRB
tp814
a(Vhave
VVBP
tp815
a(Vto
VTO
tp816
a(Vdo
VVB
tp817
a(Vsomething
VNN
tp818
a(Vabout
VIN
tp819
a(Vthe
VDT
tp820
a(Vway
VNN
tp821
a(Vthe
VDT
tp822
a(VEuropean
VJJ
tp823
a(VArrest
VNN
tp824
a(VWarrant
VNN
tp825
a(Vsystem
VNN
tp826
a(Voperates
VVBZ
tp827
a(V.
V.
tp828
aa(lp829
(VThat
VDT
tp830
a(Vis
VVBZ
tp831
a(Vnot
VRB
tp832
a(Vhow
VWRB
tp833
a(Vit
VPRP
tp834
a(Vworks
VVBZ
tp835
a(V!
V.
tp836
aa(lp837
(VThis
VDT
tp838
a(Vhas
VVBZ
tp839
a(Vhad
VVBD
tp840
a(Vthe
VDT
tp841
a(Vsupport
VNN
tp842
a(Vof
VIN
tp843
a(Vvirtually
VRB
tp844
a(Vevery
VDT
tp845
a(VMember
VNNP
tp846
a(VState
VNNP
tp847
a(V.
V.
tp848
aa(lp849
(VI
VPRP
tp850
a(Vknow
VVBP
tp851
a(Vthat
VIN
tp852
a(VPoland
VNNP
tp853
a(Vhas
VVBZ
tp854
a(Va
VDT
tp855
a(Vpain
VNN
tp856
a(Vthreshold
VNN
tp857
a(V.
V.
tp858
aa(lp859
(VA
VDT
tp860
a(Vnew
VJJ
tp861
a(Vworld
VNN
tp862
a(Vorder
VNN
tp863
a(Vis
VVBZ
tp864
a(Vcoming
VVBG
tp865
a(Vinto
VIN
tp866
a(Vbeing
VVBG
tp867
a(V,
V,
tp868
a(Vnot
VRB
tp869
a(Vin
VIN
tp870
a(Vten
VCD
tp871
a(Vyears
VNNS
tp872
a(V\u2019
VJJ
tp873
a(Vtime
VNN
tp874
a(V,
V,
tp875
a(Vbut
VCC
tp876
a(Vtoday
VNN
tp877
a(V.
V.
tp878
aa(lp879
(VParliament
VNNP
tp880
a(Vis
VVBZ
tp881
a(Vbeing
VVBG
tp882
a(Vconsulted
VVBN
tp883
a(Va
VDT
tp884
a(Vsecond
VJJ
tp885
a(Vtime
VNN
tp886
a(V,
V,
tp887
a(Vnow
VRB
tp888
a(Vthat
VIN
tp889
a(Vthe
VDT
tp890
a(VCouncil
VNNP
tp891
a(Vhas
VVBZ
tp892
a(Vfinally
VRB
tp893
a(Vreached
VVBN
tp894
a(Vagreement
VNN
tp895
a(V,
V,
tp896
a(Vfollowing
VVBG
tp897
a(Vtwo
VCD
tp898
a(Vyears
VNNS
tp899
a(Vof
VIN
tp900
a(Vnegotiations
VNNS
tp901
a(V.
V.
tp902
aa(lp903
(VWe
VPRP
tp904
a(Vwelcome
VVBP
tp905
a(Vthe
VDT
tp906
a(Vfact
VNN
tp907
a(Vthat
VIN
tp908
a(Vthe
VDT
tp909
a(Vassessment
VNN
tp910
a(Vby
VIN
tp911
a(Vthis
VDT
tp912
a(VParliament
VNNP
tp913
a(Vhas
VVBZ
tp914
a(Valso
VRB
tp915
a(Vled
VVBN
tp916
a(Vto
VTO
tp917
a(Vsimilar
VJJ
tp918
a(Vconclusions
VNNS
tp919
a(V.
V.
tp920
aa(lp921
(VIn
VIN
tp922
a(Vthis
VDT
tp923
a(VI
VPRP
tp924
a(Vmust
VMD
tp925
a(Vagree
VVB
tp926
a(Vwith
VIN
tp927
a(Vsome
VDT
tp928
a(Vof
VIN
tp929
a(Vthe
VDT
tp930
a(Vspeakers
VNNS
tp931
a(V.
V.
tp932
aa(lp933
(VI
VPRP
tp934
a(Vcome
VVBP
tp935
a(Vfrom
VIN
tp936
a(Vthe
VDT
tp937
a(VVosges
VNNP
tp938
a(V,
V,
tp939
a(Va
VDT
tp940
a(Vrural
VJJ
tp941
a(Vnot
VRB
tp942
a(Vfar
VRB
tp943
a(Vfrom
VIN
tp944
a(Vhere
VRB
tp945
a(V.
V.
tp946
aa(lp947
(VIn
VIN
tp948
a(Vthose
VDT
tp949
a(Vplaces
VNNS
tp950
a(Vwhere
VWRB
tp951
a(Vpeople
VNNS
tp952
a(Vare
VVBP
tp953
a(Vcondemned
VVBN
tp954
a(Vto
VTO
tp955
a(Vlive
VVB
tp956
a(Vin
VIN
tp957
a(Vpoverty
VNN
tp958
a(V,
V,
tp959
a(Vhuman
VJJ
tp960
a(Vrights
VNNS
tp961
a(Vare
VVBP
tp962
a(Vbeing
VVBG
tp963
a(Vviolated
VVBN
tp964
a(V.
V.
tp965
aa(lp966
(VThis
VDT
tp967
a(Vmay
VMD
tp968
a(Vsound
VVB
tp969
a(Vharsh
VJJ
tp970
a(V,
V,
tp971
a(Vbut
VCC
tp972
a(Vit
VPRP
tp973
a(Vis
VVBZ
tp974
a(Vtrue
VJJ
tp975
a(V.
V.
tp976
aa(lp977
(VI
VPRP
tp978
a(Vwould
VMD
tp979
a(Vadvise
VVB
tp980
a(Vyou
VPRP
tp981
a(Vto
VTO
tp982
a(Vgive
VVB
tp983
a(Vthis
VDT
tp984
a(Vsome
VDT
tp985
a(Vthought
VNN
tp986
a(V.
V.
tp987
aa(lp988
(VToday
VNN
tp989
a(V,
V,
tp990
a(Vthe
VDT
tp991
a(Vball
VNN
tp992
a(Vis
VVBZ
tp993
a(Vin
VIN
tp994
a(Vthe
VDT
tp995
a(VIsraeli
VJJ
tp996
a(Vcourt
VNN
tp997
a(V,
V,
tp998
a(Vbut
VCC
tp999
a(Vwill
VMD
tp1000
a(Vthe
VDT
tp1001
a(Vhawks
VNNS
tp1002
a(Vin
VIN
tp1003
a(Veach
VDT
tp1004
a(Vcamp
VNN
tp1005
a(Vaccept
VVB
tp1006
a(Vthis
VDT
tp1007
a(Vtruce
VNN
tp1008
a(Vof
VIN
tp1009
a(VGod
VNNP
tp1010
a(Vthat
VIN
tp1011
a(Vthe
VDT
tp1012
a(Vtwo
VCD
tp1013
a(Vsides
VNNS
tp1014
a(Vdemand
VNN
tp1015
a(Vwithout
VIN
tp1016
a(Vproviding
VVBG
tp1017
a(Vthemselves
VPRP
tp1018
a(Vwith
VIN
tp1019
a(Vthe
VDT
tp1020
a(Vresources
VNNS
tp1021
a(V?
V.
tp1022
aa(lp1023
(VAn
VDT
tp1024
a(Vexquisite
VJJ
tp1025
a(Vtable
VNN
tp1026
a(V,
V,
tp1027
a(Vmagnificent
VJJ
tp1028
a(Vchairs
VNNS
tp1029
a(V,
V,
tp1030
a(Va
VDT
tp1031
a(Vcongenial
VJJ
tp1032
a(Vatmosphere
VNN
tp1033
a(V,
V,
tp1034
a(Vas
VIN
tp1035
a(Valways
VRB
tp1036
a(V.
V.
tp1037
aa(lp1038
(VBut
VCC
tp1039
a(Vthere
VEX
tp1040
a(Vis
VVBZ
tp1041
a(Van
VDT
tp1042
a(Vincreasing
VVBG
tp1043
a(Vnumber
VNN
tp1044
a(Vof
VIN
tp1045
a(Vcases
VNNS
tp1046
a(Vfrom
VIN
tp1047
a(Vnew
VJJ
tp1048
a(VMember
VNNP
tp1049
a(VStates
VNNPS
tp1050
a(Vof
VIN
tp1051
a(Vthe
VDT
tp1052
a(VEuropean
VNNP
tp1053
a(VUnion
VNNP
tp1054
a(Vsuch
VJJ
tp1055
a(Vas
VIN
tp1056
a(VRomania
VNNP
tp1057
a(Vor
VCC
tp1058
a(VPoland
VNNP
tp1059
a(V.
V.
tp1060
aa(lp1061
(VIn
VIN
tp1062
a(VOctober
VNNP
tp1063
a(Vautonomy
VNN
tp1064
a(Vwas
VVBD
tp1065
a(Vratified
VVBN
tp1066
a(Vin
VIN
tp1067
a(Vthe
VDT
tp1068
a(VIndonesian
VJJ
tp1069
a(Vparliament
VNN
tp1070
a(Vand
VCC
tp1071
a(Vafter
VIN
tp1072
a(Va
VDT
tp1073
a(Vdinner
VNN
tp1074
a(Vwith
VIN
tp1075
a(Vthe
VDT
tp1076
a(Vregional
VJJ
tp1077
a(Vmilitary
VJJ
tp1078
a(Vstaff
VNN
tp1079
a(Vhe
VPRP
tp1080
a(Vwas
VVBD
tp1081
a(Vmurdered
VVBN
tp1082
a(Von
VIN
tp1083
a(Vthe
VDT
tp1084
a(Vevening
VNN
tp1085
a(Vof
VIN
tp1086
a(V10
VCD
tp1087
a(VNovember
VNNP
tp1088
a(V.
V.
tp1089
aa(lp1090
(VBut
VCC
tp1091
a(Vthis
VDT
tp1092
a(Vargument
VNN
tp1093
a(Vcompletely
VRB
tp1094
a(Vignores
VVBZ
tp1095
a(Vthe
VDT
tp1096
a(Vstudy
VNN
tp1097
a(Vcarried
VVBD
tp1098
a(Vout
VRP
tp1099
a(Vby
VIN
tp1100
a(Vthe
VDT
tp1101
a(VIFREMER
VNNP
tp1102
a(V,
V,
tp1103
a(Vwhich
VWDT
tp1104
a(Vcovered
VVBD
tp1105
a(Vtwo
VCD
tp1106
a(Vseasons
VNNS
tp1107
a(Vand
VCC
tp1108
a(Vincluded
VVBD
tp1109
a(Vobservers
VNNS
tp1110
a(Vfrom
VIN
tp1111
a(Vfive
VCD
tp1112
a(Vcountries
VNNS
tp1113
a(V.
V.
tp1114
aa(lp1115
(VThe
VDT
tp1116
a(Vleast
VJJS
tp1117
a(Vpositive
VJJ
tp1118
a(Vexperience
VNN
tp1119
a(Vhas
VVBZ
tp1120
a(Vbeen
VVBN
tp1121
a(Vwith
VIN
tp1122
a(Vthe
VDT
tp1123
a(VMeijer
VNNP
tp1124
a(Vreport
VNN
tp1125
a(V.
V.
tp1126
aa(lp1127
(VAs
VIN
tp1128
a(Van
VDT
tp1129
a(Vexample
VNN
tp1130
a(V,
V,
tp1131
a(Vlet
VVB
tp1132
a(Vus
VPRP
tp1133
a(Vtake
VVB
tp1134
a(Vglobal
VJJ
tp1135
a(Vshipping
VNN
tp1136
a(V.
V.
tp1137
aa(lp1138
(VThe
VDT
tp1139
a(Vfuture
VNN
tp1140
a(Vof
VIN
tp1141
a(Vthis
VDT
tp1142
a(Vcomplex
VNN
tp1143
a(Vundertaking
VNN
tp1144
a(Vis
VVBZ
tp1145
a(Vby
VIN
tp1146
a(Vno
VDT
tp1147
a(Vmeans
VNNS
tp1148
a(Vclear
VJJ
tp1149
a(V.
V.
tp1150
aa(lp1151
(VI
VPRP
tp1152
a(Vrecommend
VVBP
tp1153
a(Vgreat
VJJ
tp1154
a(Vcaution
VNN
tp1155
a(V.
V.
tp1156
aa(lp1157
(VHowever
VRB
tp1158
a(V,
V,
tp1159
a(Vthe
VDT
tp1160
a(Vpath
VNN
tp1161
a(Vto
VTO
tp1162
a(Vincreased
VVBN
tp1163
a(Vintegration
VNN
tp1164
a(Vhas
VVBZ
tp1165
a(Vnot
VRB
tp1166
a(Vbeen
VVBN
tp1167
a(Vand
VCC
tp1168
a(Vis
VVBZ
tp1169
a(Vnot
VRB
tp1170
a(Valways
VRB
tp1171
a(Vgoing
VVBG
tp1172
a(Vto
VTO
tp1173
a(Vbe
VVB
tp1174
a(Vtotally
VRB
tp1175
a(Vstraight
VRB
tp1176
a(V.
V.
tp1177
aa(lp1178
(VParliament
VNNP
tp1179
a(Vhas
VVBZ
tp1180
a(Vdone
VVBN
tp1181
a(Vsome
VDT
tp1182
a(Vgood
VJJ
tp1183
a(Vwork
VNN
tp1184
a(Vto
VTO
tp1185
a(Vincrease
VVB
tp1186
a(Vthe
VDT
tp1187
a(Vnumber
VNN
tp1188
a(Vof
VIN
tp1189
a(Vacts
VNNS
tp1190
a(Vthat
VWDT
tp1191
a(Vsupport
VVBP
tp1192
a(Vsustainable
VJJ
tp1193
a(Vdevelopment
VNN
tp1194
a(Vin
VIN
tp1195
a(Vlegislation
VNN
tp1196
a(Vregulating
VVBG
tp1197
a(Vproduction
VNN
tp1198
a(V.
V.
tp1199
aa(lp1200
(VThe
VDT
tp1201
a(VReformation
VNN
tp1202
a(Vstarted
VVBD
tp1203
a(Vbecause
VIN
tp1204
a(Vthey
VPRP
tp1205
a(Vdid
VVBD
tp1206
a(Vnot
VRB
tp1207
a(Vsucceed
VVB
tp1208
a(V.
V.
tp1209
aa(lp1210
(VThank
VVB
tp1211
a(Vyou
VPRP
tp1212
a(V,
V,
tp1213
a(VMr
VNNP
tp1214
a(VMiller
VNNP
tp1215
a(V.
V.
tp1216
aa(lp1217
(VWe
VPRP
tp1218
a(Vare
VVBP
tp1219
a(Vamazed
VVBN
tp1220
a(Vthat
VIN
tp1221
a(Vthose
VDT
tp1222
a(Vwho
VWP
tp1223
a(Vcomplain
VVBP
tp1224
a(Vthat
VIN
tp1225
a(Velected
VVBN
tp1226
a(Vrepresentatives
VNNS
tp1227
a(Vare
VVBP
tp1228
a(Vcut
VVBN
tp1229
a(Voff
VRP
tp1230
a(Vfrom
VIN
tp1231
a(Vthe
VDT
tp1232
a(Vrest
VNN
tp1233
a(Vof
VIN
tp1234
a(Vthe
VDT
tp1235
a(Vpopulation
VNN
tp1236
a(Vhave
VVBP
tp1237
a(Vnot
VRB
tp1238
a(Vthought
VVBN
tp1239
a(Vof
VIN
tp1240
a(Vusing
VVBG
tp1241
a(Vthis
VDT
tp1242
a(Videa
VNN
tp1243
a(V,
V,
tp1244
a(Vwhich
VWDT
tp1245
a(Vwould
VMD
tp1246
a(Vcertainly
VRB
tp1247
a(Vbe
VVB
tp1248
a(Vappreciated
VVBN
tp1249
a(Vby
VIN
tp1250
a(Vthe
VDT
tp1251
a(Vgeneral
VJJ
tp1252
a(Vpublic
VNN
tp1253
a(V.
V.
tp1254
aa(lp1255
(VThis
VDT
tp1256
a(Vyear
VNN
tp1257
a(V,
V,
tp1258
a(Vonly
VRB
tp1259
a(V11
VCD
tp1260
a(V%
VNN
tp1261
a(Vof
VIN
tp1262
a(Vthe
VDT
tp1263
a(V500
VCD
tp1264
a(Vmillion
VCD
tp1265
a(Veuros
VNNS
tp1266
a(Vavailable
VJJ
tp1267
a(Vhas
VVBZ
tp1268
a(Vbeen
VVBN
tp1269
a(Vrequested
VVBN
tp1270
a(V.
V.
tp1271
aa(lp1272
(VThis
VDT
tp1273
a(Vsituation
VNN
tp1274
a(Vis
VVBZ
tp1275
a(Vcomparable
VJJ
tp1276
a(Vto
VTO
tp1277
a(Vthat
VDT
tp1278
a(Vof
VIN
tp1279
a(Van
VDT
tp1280
a(Vunsatisfied
VJJ
tp1281
a(Vcustomer
VNN
tp1282
a(Vwho
VWP
tp1283
a(Vgoes
VVBZ
tp1284
a(Vback
VRB
tp1285
a(Vto
VTO
tp1286
a(Vthe
VDT
tp1287
a(Vbicycle
VNN
tp1288
a(Vshop
VNN
tp1289
a(Vand
VCC
tp1290
a(Vsays
VVBZ
tp1291
a(V&apos;
VRB
tp1292
a(Vfine
VJJ
tp1293
a(V,
V,
tp1294
a(Vyou
VPRP
tp1295
a(Vcan
VMD
tp1296
a(Vswap
VVB
tp1297
a(Vthe
VDT
tp1298
a(Vbike
VNN
tp1299
a(V,
V,
tp1300
a(Vbut
VCC
tp1301
a(Vonly
VRB
tp1302
a(Vfor
VIN
tp1303
a(Va
VDT
tp1304
a(Vscooter
VNN
tp1305
a(V&apos;
VNN
tp1306
a(V.
V.
tp1307
aa(lp1308
(VLast
VJJ
tp1309
a(Vbut
VCC
tp1310
a(Vnot
VRB
tp1311
a(Vleast
VJJS
tp1312
a(V,
V,
tp1313
a(Vthe
VDT
tp1314
a(Vprotection
VNN
tp1315
a(Vof
VIN
tp1316
a(Vrights
VNNS
tp1317
a(V,
V,
tp1318
a(Vdignity
VNN
tp1319
a(Vand
VCC
tp1320
a(Vspecial
VJJ
tp1321
a(Vneeds
VNNS
tp1322
a(Vof
VIN
tp1323
a(Vsocial
VJJ
tp1324
a(Vservices
VNNS
tp1325
a(Vusers
VNNS
tp1326
a(Vis
VVBZ
tp1327
a(Vemphasised
VVBN
tp1328
a(V.
V.
tp1329
aa(lp1330
(VI
VPRP
tp1331
a(Vneed
VVBP
tp1332
a(Vyour
VPRP$
tp1333
a(Vsupport
VNN
tp1334
a(Vbecause
VIN
tp1335
a(VEurope
VNNP
tp1336
a(Vneeds
VVBZ
tp1337
a(Va
VDT
tp1338
a(Vstrong
VJJ
tp1339
a(V,
V,
tp1340
a(Vcredible
VJJ
tp1341
a(Vand
VCC
tp1342
a(Vindependent
VJJ
tp1343
a(VCommission
VNN
tp1344
a(V.
V.
tp1345
aa(lp1346
(VAnd
VCC
tp1347
a(Vthose
VDT
tp1348
a(Vparents
VNNS
tp1349
a(Vmay
VMD
tp1350
a(Vhave
VVB
tp1351
a(Vbeen
VVBN
tp1352
a(Vimprisoned
VVBN
tp1353
a(Vfor
VIN
tp1354
a(Vany
VDT
tp1355
a(Vreason
VNN
tp1356
a(V.
V.
tp1357
aa(lp1358
(VNo
VDT
tp1359
a(Vexemptions
VNNS
tp1360
a(Vshould
VMD
tp1361
a(Vbe
VVB
tp1362
a(Vallowed
VVBN
tp1363
a(Vto
VTO
tp1364
a(Vbe
VVB
tp1365
a(Vmade
VVBN
tp1366
a(Vunder
VIN
tp1367
a(Vthe
VDT
tp1368
a(Vpublic
VJJ
tp1369
a(Vprocurement
VNN
tp1370
a(Vlaw
VNN
tp1371
a(V,
V,
tp1372
a(Vwhich
VWDT
tp1373
a(Vwas
VVBD
tp1374
a(Vadopted
VVBN
tp1375
a(Vearlier
VRBR
tp1376
a(Vthis
VDT
tp1377
a(Vyear
VNN
tp1378
a(V-
V:
tp1379
a(Vnot
VRB
tp1380
a(Veven
VRB
tp1381
a(Vfor
VIN
tp1382
a(Vthe
VDT
tp1383
a(VEuropean
VJJ
tp1384
a(Vfootball
VNN
tp1385
a(Vchampionship
VNN
tp1386
a(V.
V.
tp1387
aa(lp1388
(VMr
VNNP
tp1389
a(VPresident
VNNP
tp1390
a(V,
V,
tp1391
a(Va
VDT
tp1392
a(Vfew
VJJ
tp1393
a(Vmonths
VNNS
tp1394
a(Vago
VRB
tp1395
a(V,
V,
tp1396
a(Vin
VIN
tp1397
a(Vthis
VDT
tp1398
a(Vvery
VRB
tp1399
a(VChamber
VNNP
tp1400
a(V,
V,
tp1401
a(Vwe
VPRP
tp1402
a(Vdebated
VVBD
tp1403
a(Vthe
VDT
tp1404
a(Vneed
VNN
tp1405
a(Vto
VTO
tp1406
a(Vassist
VVB
tp1407
a(Vthe
VDT
tp1408
a(VSaharawi
VJJ
tp1409
a(Vpeople
VNNS
tp1410
a(Vby
VIN
tp1411
a(Vmeans
VNNS
tp1412
a(Vof
VIN
tp1413
a(Vhumanitarian
VJJ
tp1414
a(Vaid
VNN
tp1415
a(V.
V.
tp1416
aa(lp1417
(VAction
VNNP
tp1418
a(Vplan
VNN
tp1419
a(Vfor
VIN
tp1420
a(VRussia
VNNP
tp1421
aa(lp1422
(VThat
VDT
tp1423
a(Vis
VVBZ
tp1424
a(Vdestroying
VVBG
tp1425
a(Vpeople
VNNS
tp1426
a(V&apos;s
VNNS
tp1427
a(Vtrust
VNN
tp1428
a(Vin
VIN
tp1429
a(Vthe
VDT
tp1430
a(Veconomic
VJJ
tp1431
a(Vsystem
VNN
tp1432
a(V.
V.
tp1433
aa(lp1434
(VThey
VPRP
tp1435
a(Vshould
VMD
tp1436
a(Vnot
VRB
tp1437
a(V,
V,
tp1438
a(Vhowever
VRB
tp1439
a(V,
V,
tp1440
a(Vforget
VVB
tp1441
a(Vthe
VDT
tp1442
a(Vmassacres
VNNS
tp1443
a(Vwhich
VWDT
tp1444
a(Valready
VRB
tp1445
a(Vresulted
VVBD
tp1446
a(Vfrom
VIN
tp1447
a(Vthat
VDT
tp1448
a(Vstruggle
VNN
tp1449
a(Vin
VIN
tp1450
a(Vthe
VDT
tp1451
a(Varea
VNN
tp1452
a(Vin
VIN
tp1453
a(Vquestion
VNN
tp1454
a(V,
V,
tp1455
a(Vin
VIN
tp1456
a(VIndonesia
VNNP
tp1457
a(V,
V,
tp1458
a(Vfor
VIN
tp1459
a(Vexample
VNN
tp1460
a(V,
V,
tp1461
a(Veven
VRB
tp1462
a(Vbefore
VIN
tp1463
a(VASEAN
VNNP
tp1464
a(Vexisted
VVBD
tp1465
a(V.
V.
tp1466
aa(lp1467
(VI
VPRP
tp1468
a(Vshall
VMD
tp1469
a(Vtouch
VVB
tp1470
a(Vbriefly
VNN
tp1471
a(Vupon
VIN
tp1472
a(Vtwo
VCD
tp1473
a(Vother
VJJ
tp1474
a(Vpoints
VNNS
tp1475
a(V.
V.
tp1476
aa(lp1477
(VIf
VIN
tp1478
a(Voverall
VJJ
tp1479
a(Vstandards
VNNS
tp1480
a(Vare
VVBP
tp1481
a(Vraised
VVBN
tp1482
a(V,
V,
tp1483
a(Vthe
VDT
tp1484
a(Vconsequence
VNN
tp1485
a(Vwill
VMD
tp1486
a(Vbe
VVB
tp1487
a(Vcost
VNN
tp1488
a(Vincreases
VNNS
tp1489
a(V.
V.
tp1490
aa(lp1491
(VA
VDT
tp1492
a(Vclear
VJJ
tp1493
a(Vdistinction
VNN
tp1494
a(Vmust
VMD
tp1495
a(Vbe
VVB
tp1496
a(Vmade
VVBN
tp1497
a(Vhere
VRB
tp1498
a(V:
V:
tp1499
a(Vthese
VDT
tp1500
a(Vwere
VVBD
tp1501
a(Vfurther
VJJ
tp1502
a(Vtraining
VNN
tp1503
a(Vmeasures
VNNS
tp1504
a(Vfor
VIN
tp1505
a(VMcDonald
VNNP
tp1506
a(V&apos;s
VVBZ
tp1507
a(Vworkers
VNNS
tp1508
a(Vin
VIN
tp1509
a(Vorder
VNN
tp1510
a(Vto
VTO
tp1511
a(Vmake
VVB
tp1512
a(Vthem
VPRP
tp1513
a(Vbetter
VJJR
tp1514
a(Vqualified
VVBN
tp1515
a(Von
VIN
tp1516
a(Vthe
VDT
tp1517
a(Vjobs
VNNS
tp1518
a(Vmarket
VNN
tp1519
a(Vand
VCC
tp1520
a(Vin
VIN
tp1521
a(Vthe
VDT
tp1522
a(Vworld
VNN
tp1523
a(Vof
VIN
tp1524
a(Vwork
VNN
tp1525
a(V.
V.
tp1526
aa(lp1527
(VThe
VDT
tp1528
a(VTreaty
VNNP
tp1529
a(Vof
VIN
tp1530
a(VLisbon
VNNP
tp1531
a(Vis
VVBZ
tp1532
a(Vbringing
VVBG
tp1533
a(Vthe
VDT
tp1534
a(VEU
VNNP
tp1535
a(Vout
VIN
tp1536
a(Vof
VIN
tp1537
a(Vits
VPRP$
tp1538
a(Vdownward
VJJ
tp1539
a(Vspiral
VNN
tp1540
a(V.
V.
tp1541
aa(lp1542
(VFirstly
VRB
tp1543
a(V,
V,
tp1544
a(Vit
VPRP
tp1545
a(Vwill
VMD
tp1546
a(Vaim
VVB
tp1547
a(Vto
VTO
tp1548
a(Vincrease
VVB
tp1549
a(Vawareness
VNN
tp1550
a(Vof
VIN
tp1551
a(Vthis
VDT
tp1552
a(Vproblem
VNN
tp1553
a(V,
V,
tp1554
a(Vwhich
VWDT
tp1555
a(Vis
VVBZ
tp1556
a(Va
VDT
tp1557
a(Vbig
VJJ
tp1558
a(Vone
VNN
tp1559
a(V.
V.
tp1560
aa(lp1561
(VIt
VPRP
tp1562
a(Vwas
VVBD
tp1563
a(Vnot
VRB
tp1564
a(Vexpected
VVBN
tp1565
a(Vthat
VIN
tp1566
a(Vthings
VNNS
tp1567
a(Vwould
VMD
tp1568
a(Vbe
VVB
tp1569
a(Vput
VVBN
tp1570
a(Vright
VRB
tp1571
a(Vuntil
VIN
tp1572
a(V2014
VCD
tp1573
a(V.
V.
tp1574
aa(lp1575
(VIn
VIN
tp1576
a(Vmy
VPRP$
tp1577
a(Vview
VNN
tp1578
a(Vno
VDT
tp1579
a(Vone
VNN
tp1580
a(Vunder
VIN
tp1581
a(Vthe
VDT
tp1582
a(Vage
VNN
tp1583
a(Vof
VIN
tp1584
a(V25
VCD
tp1585
a(Vshould
VMD
tp1586
a(Vbe
VVB
tp1587
a(Vunemployed
VJJ
tp1588
a(V.
V.
tp1589
aa(lp1590
(VAs
VIN
tp1591
a(Va
VDT
tp1592
a(Vresult
VNN
tp1593
a(V,
V,
tp1594
a(Vunemployment
VNN
tp1595
a(Vis
VVBZ
tp1596
a(Vexpected
VVBN
tp1597
a(Vto
VTO
tp1598
a(Vincrease
VVB
tp1599
a(Vto
VTO
tp1600
a(V7.8
VCD
tp1601
a(V%
VNN
tp1602
a(Vin
VIN
tp1603
a(Vthe
VDT
tp1604
a(VEU
VNNP
tp1605
a(Vin
VIN
tp1606
a(V2009
VCD
tp1607
a(V,
V,
tp1608
a(Vwith
VIN
tp1609
a(Va
VDT
tp1610
a(Vfurther
VJJ
tp1611
a(Vincrease
VNN
tp1612
a(Vprojected
VVBN
tp1613
a(Vfor
VIN
tp1614
a(V2010
VCD
tp1615
a(V.
V.
tp1616
aa(lp1617
(VAnd
VCC
tp1618
a(Vwhen
VWRB
tp1619
a(Vit
VPRP
tp1620
a(Vcomes
VVBZ
tp1621
a(Vto
VTO
tp1622
a(Vcooking
VNN
tp1623
a(V,
V,
tp1624
a(Vthe
VDT
tp1625
a(Vfish
VNN
tp1626
a(Vare
VVBP
tp1627
a(Valready
VRB
tp1628
a(Vcooked
VVBN
tp1629
a(V.
V.
tp1630
aa(lp1631
(VSexual
VJJ
tp1632
a(Vmutilations
VNNS
tp1633
a(Vin
VIN
tp1634
a(VEgypt
VNNP
tp1635
aa(lp1636
(VThere
VEX
tp1637
a(Vare
VVBP
tp1638
a(Vongoing
VJJ
tp1639
a(Vreports
VNNS
tp1640
a(Vof
VIN
tp1641
a(Vthe
VDT
tp1642
a(Vtreatment
VNN
tp1643
a(Vof
VIN
tp1644
a(VBurmese
VJJ
tp1645
a(Vrefugees
VNNS
tp1646
a(Vwho
VWP
tp1647
a(Venter
VVBP
tp1648
a(VMalaysia
VNNP
tp1649
a(V.
V.
tp1650
aa(lp1651
(VAn
VDT
tp1652
a(Vinteresting
VJJ
tp1653
a(Vbut
VCC
tp1654
a(Vdifficult
VJJ
tp1655
a(Vprofession
VNN
tp1656
a(V,
V,
tp1657
a(Vyoung
VJJ
tp1658
a(Vpeople
VNNS
tp1659
a(Vare
VVBP
tp1660
a(Vnot
VRB
tp1661
a(Vprepared
VVBN
tp1662
a(Vto
VTO
tp1663
a(Vmake
VVB
tp1664
a(Vit
VPRP
tp1665
a(Vtheir
VPRP$
tp1666
a(Vown
VJJ
tp1667
a(V.
V.
tp1668
aa(lp1669
(VThere
VEX
tp1670
a(Vis
VVBZ
tp1671
a(Vanother
VDT
tp1672
a(Vpoint
VNN
tp1673
a(V,
V,
tp1674
a(Vhowever
VRB
tp1675
a(V,
V,
tp1676
a(Vwhich
VWDT
tp1677
a(Vstrikes
VVBZ
tp1678
a(Vme
VPRP
tp1679
a(V.
V.
tp1680
aa(lp1681
(VHigh
VJJ
tp1682
a(Vflooding
VNN
tp1683
a(Vhas
VVBZ
tp1684
a(Vscourged
VVBN
tp1685
a(Vsouth-east
VJJ
tp1686
a(VChina
VNNP
tp1687
a(Vand
VCC
tp1688
a(Vthe
VDT
tp1689
a(Vwestern
VJJ
tp1690
a(Vcoasts
VNNS
tp1691
a(Vof
VIN
tp1692
a(VMexico
VNNP
tp1693
a(Vand
VCC
tp1694
a(VCalifornia
VNNP
tp1695
a(Vfurther
VRB
tp1696
a(Vnorth
VRB
tp1697
a(V.
V.
tp1698
aa(lp1699
(VYou
VPRP
tp1700
a(Vare
VVBP
tp1701
a(Vvery
VRB
tp1702
a(Vwelcome
VJJ
tp1703
a(V,
V,
tp1704
a(VVladimir
VNNP
tp1705
a(V.
V.
tp1706
aa(lp1707
(VThe
VDT
tp1708
a(VPresident
VNNP
tp1709
a(Vruns
VVBZ
tp1710
a(Vthe
VDT
tp1711
a(Vcountry
VNN
tp1712
a(Vas
VIN
tp1713
a(Vhis
VPRP$
tp1714
a(Vprivate
VJJ
tp1715
a(Vproperty
VNN
tp1716
a(V.
V.
tp1717
aa.