(lp1
(lp2
(VThat
VDT
tp3
a(Vcannot
VNN
tp4
a(Vbe
VVB
tp5
a(Vallowed
VVBN
tp6
a(Vto
VTO
tp7
a(Vhappen
VVB
tp8
a(V.
V.
tp9
aa(lp10
(VPractical
VNNP
tp11
a(Vproject
VNN
tp12
a(Vactivities
VNNS
tp13
a(Vhave
VVBP
tp14
a(Vnow
VRB
tp15
a(Vbegun
VVBN
tp16
a(V.
V.
tp17
aa(lp18
(VThe
VDT
tp19
a(Vnational
VJJ
tp20
a(V,
V,
tp21
a(Veconomic
VJJ
tp22
a(Vand
VCC
tp23
a(Vpolitical
VJJ
tp24
a(Velite
VNN
tp25
a(Vis
VVBZ
tp26
a(Vmostly
VRB
tp27
a(Vresponsible
VJJ
tp28
a(Vfor
VIN
tp29
a(Vthe
VDT
tp30
a(Vcurrent
VJJ
tp31
a(Vsocial
VJJ
tp32
a(Vdisintegration
VNN
tp33
a(Vin
VIN
tp34
a(Vtheir
VPRP$
tp35
a(Vcountries
VNNS
tp36
a(V.
V.
tp37
aa(lp38
(VExamine
VVB
tp39
a(Vthe
VDT
tp40
a(Vpossibility
VNN
tp41
a(Vof
VIN
tp42
a(Vcreating
VVBG
tp43
a(Van
VDT
tp44
a(Vagricultural
VJJ
tp45
a(Vdisaster
VNN
tp46
a(Vfund
VNN
tp47
a(V;
V:
tp48
aa(lp49
(VI
VPRP
tp50
a(Vapologise
VVBP
tp51
a(Vfor
VIN
tp52
a(Vappearing
VVBG
tp53
a(Vpositive
VJJ
tp54
a(Vevery
VDT
tp55
a(Vnow
VRB
tp56
a(Vand
VCC
tp57
a(Vthen
VRB
tp58
a(V.
V.
tp59
aa(lp60
(VWith
VIN
tp61
a(Vsuch
VJJ
tp62
a(Vmeasures
VNNS
tp63
a(V,
V,
tp64
a(Vone
VCD
tp65
a(Vstrikes
VNNS
tp66
a(Vvery
VRB
tp67
a(Vclose
VRB
tp68
a(Vto
VTO
tp69
a(Vthe
VDT
tp70
a(Vsovereignty
VNN
tp71
a(Vof
VIN
tp72
a(Vthe
VDT
tp73
a(Vstates
VNNS
tp74
a(V.
V.
tp75
aa(lp76
(VIn
VIN
tp77
a(Vhealth
VNN
tp78
a(V,
V,
tp79
a(Vthe
VDT
tp80
a(Vyear
VNN
tp81
a(V2000
VCD
tp82
a(Vsaw
VNN
tp83
a(V,
V,
tp84
a(Vas
VIN
tp85
a(Vwe
VPRP
tp86
a(Vknow
VVBP
tp87
a(V,
V,
tp88
a(Vthree
VCD
tp89
a(Vmillion
VCD
tp90
a(Vdie
VNN
tp91
a(Vfrom
VIN
tp92
a(VAIDS
VNNP
tp93
a(V.
V.
tp94
aa(lp95
(VYou
VPRP
tp96
a(Vmay
VMD
tp97
a(Vbe
VVB
tp98
a(Vaware
VJJ
tp99
a(Vthat
VIN
tp100
a(VI
VPRP
tp101
a(Vrepresent
VVBP
tp102
a(VLondon
VNNP
tp103
a(V,
V,
tp104
a(Vthe
VDT
tp105
a(Vgreatest
VJJS
tp106
a(Vcity
VNN
tp107
a(Vin
VIN
tp108
a(Vthe
VDT
tp109
a(Vworld
VNN
tp110
a(V,
V,
tp111
a(Vcapital
VNN
tp112
a(Vof
VIN
tp113
a(Vthe
VDT
tp114
a(Vgreatest
VJJS
tp115
a(Vcountry
VNN
tp116
a(Vin
VIN
tp117
a(Vthe
VDT
tp118
a(Vworld
VNN
tp119
a(V.
V.
tp120
aa(lp121
(VIncluded
VVBN
tp122
a(Vin
VIN
tp123
a(Vthat
VDT
tp124
a(Vis
VVBZ
tp125
a(Vthat
VDT
tp126
a(Vdamage
VNN
tp127
a(Vhas
VVBZ
tp128
a(Vto
VTO
tp129
a(Vbe
VVB
tp130
a(Vshown
VVBN
tp131
a(V.
V.
tp132
aa(lp133
(VPilgrim
VNNP
tp134
a(Vroute
VNN
tp135
a(Vto
VTO
tp136
a(VSantiago
VNNP
tp137
aa(lp138
(VIt
VPRP
tp139
a(Vis
VVBZ
tp140
a(Vunderstandable
VJJ
tp141
a(V.
V.
tp142
aa(lp143
(VAt
VIN
tp144
a(Vthe
VDT
tp145
a(Vsame
VJJ
tp146
a(Vtime
VNN
tp147
a(V,
V,
tp148
a(Vit
VPRP
tp149
a(Vbecame
VVBD
tp150
a(Vclear
VJJ
tp151
a(Vthat
VIN
tp152
a(Vexisting
VVBG
tp153
a(Vinitiatives
VNNS
tp154
a(Vcan
VMD
tp155
a(Vbe
VVB
tp156
a(Vused
VVBN
tp157
a(Vas
VIN
tp158
a(Va
VDT
tp159
a(Vbasis
VNN
tp160
a(Vfor
VIN
tp161
a(Vmany
VJJ
tp162
a(Vthings
VNNS
tp163
a(V.
V.
tp164
aa(lp165
(VThis
VDT
tp166
a(Vis
VVBZ
tp167
a(Va
VDT
tp168
a(Vvision
VNN
tp169
a(Vand
VCC
tp170
a(Vthe
VDT
tp171
a(Vpossible
VJJ
tp172
a(Vshape
VNN
tp173
a(Vof
VIN
tp174
a(Vthings
VNNS
tp175
a(Vto
VTO
tp176
a(Vcome
VVB
tp177
a(V.
V.
tp178
aa(lp179
(VWe
VPRP
tp180
a(Vhear
VVBP
tp181
a(Va
VDT
tp182
a(Vlot
VNN
tp183
a(Vabout
VIN
tp184
a(Venvironmental
VJJ
tp185
a(Vimpact
VNN
tp186
a(V,
V,
tp187
a(Vand
VCC
tp188
a(Vthat
VDT
tp189
a(Vis
VVBZ
tp190
a(Vfine
VJJ
tp191
a(V.
V.
tp192
aa(lp193
(VI
VPRP
tp194
a(Vwould
VMD
tp195
a(Valso
VRB
tp196
a(Vjust
VRB
tp197
a(Vmention
VVB
tp198
a(Vthat
VIN
tp199
a(V,
V,
tp200
a(Vpersonally
VRB
tp201
a(V,
V,
tp202
a(VI
VPRP
tp203
a(Vfind
VVBP
tp204
a(Vit
VPRP
tp205
a(Va
VDT
tp206
a(Vchallenging
VJJ
tp207
a(Vexperience
VNN
tp208
a(Vto
VTO
tp209
a(Vanswer
VVB
tp210
a(Vthese
VDT
tp211
a(Vquestions
VNNS
tp212
a(V.
V.
tp213
aa(lp214
(VMore
VJJR
tp215
a(Vthan
VIN
tp216
a(Vever
VRB
tp217
a(V,
V,
tp218
a(Vwe
VPRP
tp219
a(Vneed
VVBP
tp220
a(Vthe
VDT
tp221
a(Vfamily
VNN
tp222
a(Vand
VCC
tp223
a(Vthe
VDT
tp224
a(Vappreciation
VNN
tp225
a(Vof
VIN
tp226
a(Vits
VPRP$
tp227
a(Vimportance
VNN
tp228
a(V.
V.
tp229
aa(lp230
(VHowever
VRB
tp231
a(V,
V,
tp232
a(Vcaution
VNN
tp233
a(Vis
VVBZ
tp234
a(Vadvised
VVBN
tp235
a(V.
V.
tp236
aa(lp237
(VI
VPRP
tp238
a(Vhave
VVBP
tp239
a(Vnever
VRB
tp240
a(Vseen
VVBN
tp241
a(Vsuch
VJJ
tp242
a(Vhypocrisy
VNN
tp243
a(Vin
VIN
tp244
a(Vmy
VPRP$
tp245
a(Vlife
VNN
tp246
a(Vand
VCC
tp247
a(Vit
VPRP
tp248
a(Vwas
VVBD
tp249
a(Vvery
VRB
tp250
a(Vdistasteful
VJJ
tp251
a(V.
V.
tp252
aa(lp253
(VIn
VIN
tp254
a(V1980
VCD
tp255
a(V,
V,
tp256
a(Vhe
VPRP
tp257
a(Vdeclared
VVBD
tp258
a(Vwar
VNN
tp259
a(Von
VIN
tp260
a(VIran
VNNP
tp261
a(V,
V,
tp262
a(Vand
VCC
tp263
a(Vin
VIN
tp264
a(V1990
VCD
tp265
a(Vhe
VPRP
tp266
a(Vinvaded
VVBD
tp267
a(VKuwait
VNNP
tp268
a(V.
V.
tp269
aa(lp270
(VThat
VDT
tp271
a(Vis
VVBZ
tp272
a(Vthe
VDT
tp273
a(Vquestion
VNN
tp274
a(VI
VPRP
tp275
a(Vam
VVBP
tp276
a(Vgoing
VVBG
tp277
a(Vto
VTO
tp278
a(Vask
VVB
tp279
a(Von
VIN
tp280
a(VThursday
VNNP
tp281
a(Vmorning
VNN
tp282
a(V.
V.
tp283
aa(lp284
(VAmerican
VJJ
tp285
a(Vaction
VNN
tp286
a(Vwas
VVBD
tp287
a(Vdecisive
VJJ
tp288
a(Vin
VIN
tp289
a(Vthe
VDT
tp290
a(Vreconstruction
VNN
tp291
a(Vof
VIN
tp292
a(Vour
VPRP$
tp293
a(Vcountry
VNN
tp294
a(Vand
VCC
tp295
a(Vthe
VDT
tp296
a(Vrecovery
VNN
tp297
a(Vof
VIN
tp298
a(Vour
VPRP$
tp299
a(Vunity
VNN
tp300
a(V.
V.
tp301
aa(lp302
(VFor
VIN
tp303
a(Vexample
VNN
tp304
a(V,
V,
tp305
a(Vwe
VPRP
tp306
a(Vcould
VMD
tp307
a(Vsay
VVB
tp308
a(Vthat
VIN
tp309
a(VParma
VNNP
tp310
a(Vham
VNN
tp311
a(Vcan
VMD
tp312
a(Vbe
VVB
tp313
a(Vcompared
VVBN
tp314
a(Vwith
VIN
tp315
a(VParma
VNNP
tp316
a(Vham
VNN
tp317
a(V,
V,
tp318
a(Vbut
VCC
tp319
a(Vnot
VRB
tp320
a(Vwith
VIN
tp321
a(VViareggio
VNNP
tp322
a(Vsausage
VNN
tp323
a(V.
V.
tp324
aa(lp325
(VSports
VNNPS
tp326
a(Vfans
VNNS
tp327
a(Vare
VVBP
tp328
a(Vgetting
VVBG
tp329
a(Van
VDT
tp330
a(Vincreasingly
VRB
tp331
a(Vraw
VJJ
tp332
a(Vdeal
VNN
tp333
a(Vwhen
VWRB
tp334
a(Vit
VPRP
tp335
a(Vcomes
VVBZ
tp336
a(Vto
VTO
tp337
a(Vwatching
VVBG
tp338
a(Vmajor
VJJ
tp339
a(Vsports
VNNS
tp340
a(Vevents
VNNS
tp341
a(Von
VIN
tp342
a(Vtelevision
VNN
tp343
a(V.
V.
tp344
aa(lp345
(VWe
VPRP
tp346
a(Vhave
VVBP
tp347
a(Vdrawn
VVBN
tp348
a(Venough
VRB
tp349
a(Vlessons
VNNS
tp350
a(Vfrom
VIN
tp351
a(Vthe
VDT
tp352
a(Vmilitary
VJJ
tp353
a(Vadventures
VNNS
tp354
a(Vwe
VPRP
tp355
a(Vhave
VVBP
tp356
a(Vwitnessed
VVBN
tp357
a(V,
V,
tp358
a(Vfrom
VIN
tp359
a(Vthe
VDT
tp360
a(VNear
VIN
tp361
a(Vand
VCC
tp362
a(VMiddle
VNNP
tp363
a(VEast
VNNP
tp364
a(Vto
VTO
tp365
a(VAfghanistan
VNNP
tp366
a(Vand
VCC
tp367
a(Va
VDT
tp368
a(Vfew
VJJ
tp369
a(Vother
VJJ
tp370
a(Vplaces
VNNS
tp371
a(V.
V.
tp372
aa(lp373
(VWe
VPRP
tp374
a(Vbuilt
VVBD
tp375
a(Vit
VPRP
tp376
a(Vin
VIN
tp377
a(Vthree
VCD
tp378
a(Vstages
VNNS
tp379
a(V,
V,
tp380
a(Vbut
VCC
tp381
a(Vin
VIN
tp382
a(Vless
VJJR
tp383
a(Vthan
VIN
tp384
a(V10
VCD
tp385
a(Vyears
VNNS
tp386
a(V.
V.
tp387
aa(lp388
(VThis
VDT
tp389
a(Vis
VVBZ
tp390
a(Vnot
VRB
tp391
a(Vonly
VRB
tp392
a(Vin
VIN
tp393
a(Vthe
VDT
tp394
a(Vvital
VJJ
tp395
a(Vinterest
VNN
tp396
a(Vof
VIN
tp397
a(Vcitizens
VNNS
tp398
a(Vfrom
VIN
tp399
a(Vnew
VJJ
tp400
a(VMember
VNNP
tp401
a(VStates
VNNPS
tp402
a(V,
V,
tp403
a(Vbut
VCC
tp404
a(Valso
VRB
tp405
a(Vin
VIN
tp406
a(Vthe
VDT
tp407
a(Vinterest
VNN
tp408
a(Vof
VIN
tp409
a(Vthose
VDT
tp410
a(Vfrom
VIN
tp411
a(Vexisting
VVBG
tp412
a(Vmembers
VNNS
tp413
a(V.
V.
tp414
aa(lp415
(VMigration
VNN
tp416
a(V.
V.
tp417
aa(lp418
(VI
VPRP
tp419
a(Vdo
VVBP
tp420
a(Vnot
VRB
tp421
a(Vside
VJJ
tp422
a(Vwith
VIN
tp423
a(Veither
VDT
tp424
a(Vof
VIN
tp425
a(Vthe
VDT
tp426
a(Vtwo
VCD
tp427
a(Vcontenders
VNNS
tp428
a(V.
V.
tp429
aa(lp430
(VHowever
VRB
tp431
a(V,
V,
tp432
a(VI
VPRP
tp433
a(Vdecided
VVBD
tp434
a(Vto
VTO
tp435
a(Vcompare
VVB
tp436
a(Vthe
VDT
tp437
a(Vreport
VNN
tp438
a(Vwith
VIN
tp439
a(Vthe
VDT
tp440
a(VBeijing
VNNP
tp441
a(VDeclaration
VNN
tp442
a(V.
V.
tp443
aa(lp444
(VAnd
VCC
tp445
a(Vwe
VPRP
tp446
a(Vshould
VMD
tp447
a(Vbe
VVB
tp448
a(Vreminding
VVBG
tp449
a(Vvoters
VNNS
tp450
a(Vof
VIN
tp451
a(Vthat
VDT
tp452
a(Vwhen
VWRB
tp453
a(Vthe
VDT
tp454
a(Velections
VNNS
tp455
a(Vtake
VVBP
tp456
a(Vplace
VNN
tp457
a(Vin
VIN
tp458
a(VJune
VNNP
tp459
a(V.
V.
tp460
aa(lp461
(VWhat
VWDT
tp462
a(Vhad
VVBD
tp463
a(Vthey
VPRP
tp464
a(Vbeen
VVBN
tp465
a(Vvoting
VVBG
tp466
a(Vagainst
VIN
tp467
a(V?
V.
tp468
a(Vshe
VPRP
tp469
a(Vasked
VVBD
tp470
a(V.
V.
tp471
aa(lp472
(VThis
VDT
tp473
a(Vwould
VMD
tp474
a(Vhave
VVB
tp475
a(Vclearly
VRB
tp476
a(Vshown
VVBN
tp477
a(Vthat
VIN
tp478
a(Vthe
VDT
tp479
a(VGermans
VNNPS
tp480
a(Vwere
VVBD
tp481
a(Vopposed
VVBN
tp482
a(Vto
VTO
tp483
a(Vit
VPRP
tp484
a(V.
V.
tp485
aa(lp486
(VIt
VPRP
tp487
a(Vis
VVBZ
tp488
a(Vunfortunate
VJJ
tp489
a(Vthat
VIN
tp490
a(Vwaste
VNN
tp491
a(Vprocessing
VNN
tp492
a(Vis
VVBZ
tp493
a(Vstill
VRB
tp494
a(Va
VDT
tp495
a(Vsector
VNN
tp496
a(Vthat
VWDT
tp497
a(Vis
VVBZ
tp498
a(V,
V,
tp499
a(Vright
VJJ
tp500
a(Vor
VCC
tp501
a(Vwrongly
VRB
tp502
a(V,
V,
tp503
a(Vknown
VVBN
tp504
a(Vfor
VIN
tp505
a(Vits
VPRP$
tp506
a(Villegal
VJJ
tp507
a(Vpractices
VNNS
tp508
a(V.
V.
tp509
aa(lp510
(VAfter
VIN
tp511
a(Vall
VDT
tp512
a(V,
V,
tp513
a(Vfor
VIN
tp514
a(Vexample
VNN
tp515
a(V,
V,
tp516
a(Vmy
VPRP$
tp517
a(Vown
VJJ
tp518
a(Vbody
VNN
tp519
a(Vcontains
VVBZ
tp520
a(Va
VDT
tp521
a(Vcertain
VJJ
tp522
a(Vamount
VNN
tp523
a(Vof
VIN
tp524
a(Vsulphur
VNN
tp525
a(V.
V.
tp526
aa(lp527
(VI
VPRP
tp528
a(Vutterly
VRB
tp529
a(Vrepudiate
VVB
tp530
a(Vthis
VDT
tp531
a(V.
V.
tp532
aa(lp533
(VLifelong
VJJ
tp534
a(Vlearning
VNN
tp535
aa(lp536
(VIn
VIN
tp537
a(Vthat
VDT
tp538
a(Vcase
VNN
tp539
a(Vthere
VEX
tp540
a(Vis
VVBZ
tp541
a(Vno
VDT
tp542
a(Vproblem
VNN
tp543
a(V.
V.
tp544
aa(lp545
(VA
VDT
tp546
a(Vhundred
VCD
tp547
a(Vand
VCC
tp548
a(Vtwenty-five
VCD
tp549
a(Vmillion
VCD
tp550
a(Vchildren
VNNS
tp551
a(V,
V,
tp552
a(Vmainly
VRB
tp553
a(Vgirls
VNNS
tp554
a(V,
V,
tp555
a(Vdo
VVBP
tp556
a(Vnot
VRB
tp557
a(Vreceive
VVB
tp558
a(Vany
VDT
tp559
a(Veducation
VNN
tp560
a(V.
V.
tp561
aa(lp562
(VOh
VUH
tp563
a(V,
V,
tp564
a(Vhe
VPRP
tp565
a(Vhas
VVBZ
tp566
a(Vjust
VRB
tp567
a(Vcome
VVBN
tp568
a(Vin
VIN
tp569
a(V!
V.
tp570
aa(lp571
(VFirstly
VRB
tp572
a(V,
V,
tp573
a(Vall
VPDT
tp574
a(Vthe
VDT
tp575
a(Vrequirements
VNNS
tp576
a(Vissued
VVBN
tp577
a(Vby
VIN
tp578
a(Vthe
VDT
tp579
a(VOrganization
VNNP
tp580
a(Vof
VIN
tp581
a(VAmerican
VNNP
tp582
a(VStates
VNNPS
tp583
a(Vmust
VMD
tp584
a(Vbe
VVB
tp585
a(Vmet
VVBN
tp586
a(V.
V.
tp587
aa(lp588
(VApparently
VRB
tp589
a(V,
V,
tp590
a(Vthe
VDT
tp591
a(Vworld
VNN
tp592
a(Vfinancial
VJJ
tp593
a(Vcrisis
VNN
tp594
a(Vtook
VVBD
tp595
a(Veveryone
VNN
tp596
a(Vby
VIN
tp597
a(Vsurprise
VNN
tp598
a(V.
V.
tp599
aa(lp600
(Vin
VIN
tp601
a(Vwriting
VVBG
tp602
a(V.
V.
tp603
a(V-
V:
tp604
a(V(
VCD
tp605
a(VEL
VNN
tp606
a(V)
VCD
tp607
a(VThe
VDT
tp608
a(V\u0395U
VNN
tp609
a(Vis
VVBZ
tp610
a(Vdeliberately
VRB
tp611
a(Vconcealing
VVBG
tp612
a(Vthe
VDT
tp613
a(Vclass-based
VJJ
tp614
a(Vcauses
VNNS
tp615
a(Vof
VIN
tp616
a(Vthe
VDT
tp617
a(Vproblems
VNNS
tp618
a(Vof
VIN
tp619
a(Vpeople
VNNS
tp620
a(Vwith
VIN
tp621
a(Vdisabilities
VNNS
tp622
a(V.
V.
tp623
aa(lp624
(VThank
VVB
tp625
a(Vyou
VPRP
tp626
a(Vin
VIN
tp627
a(Vadvance
VNN
tp628
a(V.
V.
tp629
aa(lp630
(VWell
VRB
tp631
a(V,
V,
tp632
a(Vlook
VVBP
tp633
a(Varound
VIN
tp634
a(Vyou
VPRP
tp635
a(V.
V.
tp636
aa(lp637
(VI
VPRP
tp638
a(Vfully
VRB
tp639
a(Vshare
VVBP
tp640
a(Vmuch
VJJ
tp641
a(Vof
VIN
tp642
a(Vwhat
VWP
tp643
a(Vshe
VPRP
tp644
a(Vsays
VVBZ
tp645
a(V.
V.
tp646
aa(lp647
(VThey
VPRP
tp648
a(Vmay
VMD
tp649
a(Vtake
VVB
tp650
a(Vit
VPRP
tp651
a(Vup
VRP
tp652
a(Vbecause
VIN
tp653
a(Vof
VIN
tp654
a(Vpeer
VVB
tp655
a(Vpressure
VNN
tp656
a(Vin
VIN
tp657
a(Vthe
VDT
tp658
a(Vplayground
VNN
tp659
a(V,
V,
tp660
a(Vchildren
VNNS
tp661
a(Vof
VIN
tp662
a(Vparents
VNNS
tp663
a(Vwho
VWP
tp664
a(Vsmoke
VVBP
tp665
a(Vtake
VVB
tp666
a(Vup
VRP
tp667
a(Vsmoking
VNN
tp668
a(V,
V,
tp669
a(Vand
VCC
tp670
a(Vpeople
VNNS
tp671
a(Vtake
VVBP
tp672
a(Vup
VRP
tp673
a(Vsmoking
VNN
tp674
a(Vbecause
VIN
tp675
a(Vthey
VPRP
tp676
a(Vassociate
VVBP
tp677
a(Vit
VPRP
tp678
a(Vwith
VIN
tp679
a(Va
VDT
tp680
a(Vcertain
VJJ
tp681
a(Vimage
VNN
tp682
a(V.
V.
tp683
aa(lp684
(VThe
VDT
tp685
a(VCopenhagen
VNNP
tp686
a(Vagenda
VNN
tp687
a(Vis
VVBZ
tp688
a(Vnot
VRB
tp689
a(Vjust
VRB
tp690
a(Vabout
VIN
tp691
a(Vclimate
VNN
tp692
a(Vchange
VNN
tp693
a(V.
V.
tp694
aa(lp695
(VThat
VDT
tp696
a(Vwould
VMD
tp697
a(Vbe
VVB
tp698
a(Va
VDT
tp699
a(Vsimilar
VJJ
tp700
a(Vsituation
VNN
tp701
a(V.
V.
tp702
aa(lp703
(VYes
VUH
tp704
a(V,
V,
tp705
a(Vof
VIN
tp706
a(Vcourse
VNN
tp707
a(V.
V.
tp708
aa(lp709
(VWe
VPRP
tp710
a(Vall
VDT
tp711
a(Vhad
VVBD
tp712
a(Va
VDT
tp713
a(Vchance
VNN
tp714
a(Vto
VTO
tp715
a(Vread
VVB
tp716
a(Vthat
VIN
tp717
a(Vyesterday
VNN
tp718
a(Vevening
VNN
tp719
a(V,
V,
tp720
a(Vof
VIN
tp721
a(Vcourse
VNN
tp722
a(V.
V.
tp723
aa(lp724
(VThey
VPRP
tp725
a(V,
V,
tp726
a(Vafter
VIN
tp727
a(Vall
VDT
tp728
a(V,
V,
tp729
a(Vwith
VIN
tp730
a(Vcourage
VNN
tp731
a(V,
V,
tp732
a(Vtook
VVBD
tp733
a(Vthe
VDT
tp734
a(Vpath
VNN
tp735
a(Vto
VTO
tp736
a(Vdemocracy
VNN
tp737
a(V.
V.
tp738
aa(lp739
(VThis
VDT
tp740
a(Vis
VVBZ
tp741
a(Vobviously
VRB
tp742
a(Vcontrary
VJJ
tp743
a(Vto
VTO
tp744
a(Vthe
VDT
tp745
a(Vmanner
VNN
tp746
a(Vin
VIN
tp747
a(Vwhich
VWDT
tp748
a(Vthe
VDT
tp749
a(VRussian
VJJ
tp750
a(Vauthorities
VNNS
tp751
a(Vacted
VVBD
tp752
a(Vrecently
VRB
tp753
a(Vagainst
VIN
tp754
a(Vdemonstrators
VNNS
tp755
a(Vin
VIN
tp756
a(VMoscow
VNNP
tp757
a(V,
V,
tp758
a(VSt.
VNNP
tp759
a(VPetersburg
VNNP
tp760
a(Vand
VCC
tp761
a(VNizhny
VNNP
tp762
a(VNovgorod
VNNP
tp763
a(V.
V.
tp764
aa(lp765
(VHe
VPRP
tp766
a(Vcalled
VVBD
tp767
a(Vthe
VDT
tp768
a(Vgas
VNN
tp769
a(Vchambers
VNNS
tp770
a(Va
VDT
tp771
a(Vdetail
VNN
tp772
a(Vof
VIN
tp773
a(Vhistory
VNN
tp774
a(V.
V.
tp775
a(VThat
VDT
tp776
a(Vis
VVBZ
tp777
a(Va
VDT
tp778
a(Vcrime
VNN
tp779
a(Vunder
VIN
tp780
a(VGerman
VJJ
tp781
a(Vlaw
VNN
tp782
a(V.
V.
tp783
aa(lp784
(VAnother
VDT
tp785
a(Vimportant
VJJ
tp786
a(Vpoint
VNN
tp787
a(Vis
VVBZ
tp788
a(Vpartnership
VNN
tp789
a(V.
V.
tp790
aa(lp791
(VEvery
VDT
tp792
a(Vday
VNN
tp793
a(V,
V,
tp794
a(Vthe
VDT
tp795
a(VMediterranean
VNNP
tp796
a(Vis
VVBZ
tp797
a(Vthe
VDT
tp798
a(Vtarget
VNN
tp799
a(Vof
VIN
tp800
a(Vmaritime
VNN
tp801
a(Vhooligans
VNNS
tp802
a(Vwho
VWP
tp803
a(Vsee
VVBP
tp804
a(Vit
VPRP
tp805
a(Vas
VIN
tp806
a(Va
VDT
tp807
a(Vdustbin
VNN
tp808
a(V.
V.
tp809
aa(lp810
(VWe
VPRP
tp811
a(Vcannot
VVBP
tp812
a(Vignore
VVB
tp813
a(Vthe
VDT
tp814
a(Valarming
VJJ
tp815
a(Vgulf
VNN
tp816
a(Vbetween
VIN
tp817
a(Vrich
VJJ
tp818
a(Vand
VCC
tp819
a(Vpoor
VJJ
tp820
a(V.
V.
tp821
aa(lp822
(VThe
VDT
tp823
a(Vaverage
VJJ
tp824
a(Vcitizen
VNN
tp825
a(Vwill
VMD
tp826
a(Vnot
VRB
tp827
a(Vventure
VVB
tp828
a(Vinto
VIN
tp829
a(Vcertain
VJJ
tp830
a(Vareas
VNNS
tp831
a(Vof
VIN
tp832
a(Vour
VPRP$
tp833
a(Vbig
VJJ
tp834
a(Vcities
VNNS
tp835
a(Vafter
VIN
tp836
a(Vdusk
VNN
tp837
a(V.
V.
tp838
aa(lp839
(VThe
VDT
tp840
a(VECJ
VNNP
tp841
a(Vhas
VVBZ
tp842
a(Vreally
VRB
tp843
a(Vdone
VVBN
tp844
a(Vus
VPRP
tp845
a(Va
VDT
tp846
a(Vdisservice
VNN
tp847
a(Von
VIN
tp848
a(Vthis
VDT
tp849
a(V,
V,
tp850
a(Vand
VCC
tp851
a(Vin
VIN
tp852
a(Vthe
VDT
tp853
a(Vprocess
VNN
tp854
a(Vhas
VVBZ
tp855
a(Vharmed
VVBN
tp856
a(Vsocial
VJJ
tp857
a(VEurope
VNNP
tp858
a(V.
V.
tp859
aa(lp860
(VThat
VDT
tp861
a(Vis
VVBZ
tp862
a(Vsomething
VNN
tp863
a(Vquite
VRB
tp864
a(Vdifferent
VJJ
tp865
a(Vfrom
VIN
tp866
a(Vthis
VDT
tp867
a(Vbuyers
VNNS
tp868
a(V\u2019
VVBP
tp869
a(Vand
VCC
tp870
a(Vsellers
VNNS
tp871
a(V\u2019
VCD
tp872
a(Vmarket
VNN
tp873
a(V.
V.
tp874
aa(lp875
(VHowever
VRB
tp876
a(V,
V,
tp877
a(Vfor
VIN
tp878
a(Vthat
VDT
tp879
a(Vto
VTO
tp880
a(Vhappen
VVB
tp881
a(V,
V,
tp882
a(Va
VDT
tp883
a(Vbetter
VJJR
tp884
a(Vfoundation
VNN
tp885
a(Vis
VVBZ
tp886
a(Vrequired
VVBN
tp887
a(Vat
VIN
tp888
a(Vthis
VDT
tp889
a(Vside
VNN
tp890
a(Vof
VIN
tp891
a(Vthe
VDT
tp892
a(Vocean
VNN
tp893
a(V.
V.
tp894
aa(lp895
(VThe
VDT
tp896
a(VChinese
VNNPS
tp897
a(Vsaid
VVBD
tp898
a(Vthat
VIN
tp899
a(Vhe
VPRP
tp900
a(Vhad
VVBD
tp901
a(Vtwo
VCD
tp902
a(Vlawyers
VNNS
tp903
a(V.
V.
tp904
aa(lp905
(VThe
VDT
tp906
a(Vproblem
VNN
tp907
a(Vis
VVBZ
tp908
a(Vthat
VIN
tp909
a(Vpoverty
VNN
tp910
a(Vas
VRB
tp911
a(Vwell
VRB
tp912
a(Vas
VIN
tp913
a(Vsocial
VJJ
tp914
a(Vexclusion
VNN
tp915
a(Vare
VVBP
tp916
a(Vinherited
VVBN
tp917
a(V.
V.
tp918
aa(lp919
(VAs
VIN
tp920
a(Va
VDT
tp921
a(Vresult
VNN
tp922
a(Vof
VIN
tp923
a(Vthis
VDT
tp924
a(Vagreement
VNN
tp925
a(V,
V,
tp926
a(Vintensive
VJJ
tp927
a(Vmeetings
VNNS
tp928
a(Vwill
VMD
tp929
a(Vbe
VVB
tp930
a(Vheld
VVBN
tp931
a(Vover
VIN
tp932
a(Vthe
VDT
tp933
a(Vcoming
VJJ
tp934
a(Vdays
VNNS
tp935
a(V.
V.
tp936
aa(lp937
(VYou
VPRP
tp938
a(Vhover
VVBP
tp939
a(Varound
VIN
tp940
a(Vthem
VPRP
tp941
a(Vand
VCC
tp942
a(Vsuddenly
VRB
tp943
a(Vyou
VPRP
tp944
a(Vare
VVBP
tp945
a(Vsucked
VVBN
tp946
a(Vin
VIN
tp947
a(Vand
VCC
tp948
a(Vfind
VVB
tp949
a(Venormous
VJJ
tp950
a(Vdifficulties
VNNS
tp951
a(V.
V.
tp952
aa(lp953
(VPerhaps
VRB
tp954
a(Vthere
VEX
tp955
a(Vhas
VVBZ
tp956
a(Vbeen
VVBN
tp957
a(Va
VDT
tp958
a(Vmisunderstanding
VNN
tp959
a(V.
V.
tp960
aa(lp961
(VIt
VPRP
tp962
a(Vhas
VVBZ
tp963
a(Vno
VDT
tp964
a(Vhesitation
VNN
tp965
a(Vabout
VIN
tp966
a(Vpresenting
VVBG
tp967
a(Vits
VPRP$
tp968
a(Vown
VJJ
tp969
a(Vstance
VNN
tp970
a(Vthat
VWDT
tp971
a(Vis
VVBZ
tp972
a(Vnot
VRB
tp973
a(Valways
VRB
tp974
a(Vin
VIN
tp975
a(Vline
VNN
tp976
a(Vwith
VIN
tp977
a(Vthat
VDT
tp978
a(Vof
VIN
tp979
a(Vthe
VDT
tp980
a(VUnited
VNNP
tp981
a(VStates
VNNPS
tp982
a(V.
V.
tp983
aa(lp984
(VIn
VIN
tp985
a(Vthe
VDT
tp986
a(VNetherlands
VNNP
tp987
a(Vthis
VDT
tp988
a(Vis
VVBZ
tp989
a(Vused
VVBN
tp990
a(Vto
VTO
tp991
a(Vbuy
VVB
tp992
a(Vnature
VNN
tp993
a(Vareas
VNNS
tp994
a(V.
V.
tp995
aa(lp996
(VThis
VDT
tp997
a(VParliament
VNNP
tp998
a(Vsaw
VVBD
tp999
a(Vto
VTO
tp1000
a(Vit
VPRP
tp1001
a(Vthat
VIN
tp1002
a(Vthe
VDT
tp1003
a(VCommittee
VNNP
tp1004
a(Vof
VIN
tp1005
a(VEnquiry
VNNP
tp1006
a(Vwas
VVBD
tp1007
a(Vset
VVBN
tp1008
a(Vup
VRP
tp1009
a(V.
V.
tp1010
aa(lp1011
(VLet
VVB
tp1012
a(Vus
VPRP
tp1013
a(Vbe
VVB
tp1014
a(Vunder
VIN
tp1015
a(Vno
VDT
tp1016
a(Villusions
VNNS
tp1017
a(Vthat
VIN
tp1018
a(Vit
VPRP
tp1019
a(Vwill
VMD
tp1020
a(Vbe
VVB
tp1021
a(Veasy
VJJ
tp1022
a(V.
V.
tp1023
aa(lp1024
(VHe
VPRP
tp1025
a(Vsaid
VVBD
tp1026
a(V&apos;
VNN
tp1027
aa(lp1028
(VThe
VDT
tp1029
a(Vsecond
VJJ
tp1030
a(Vbig
VJJ
tp1031
a(Vmistake
VNN
tp1032
a(Vwas
VVBD
tp1033
a(Vthe
VDT
tp1034
a(Vway
VNN
tp1035
a(Vin
VIN
tp1036
a(Vwhich
VWDT
tp1037
a(Vthe
VDT
tp1038
a(Vnegotiations
VNNS
tp1039
a(Vwere
VVBD
tp1040
a(Vconducted
VVBN
tp1041
a(V.
V.
tp1042
aa(lp1043
(VNext
VRB
tp1044
a(V,
V,
tp1045
a(Vthe
VDT
tp1046
a(Vdisabled
VJJ
tp1047
a(V.
V.
tp1048
aa(lp1049
(VTherefore
VRB
tp1050
a(Vit
VPRP
tp1051
a(Vis
VVBZ
tp1052
a(Vimportant
VJJ
tp1053
a(Vthat
VIN
tp1054
a(Vthe
VDT
tp1055
a(Vceasefire
VNN
tp1056
a(Vbetween
VIN
tp1057
a(VIsrael
VNNP
tp1058
a(Vand
VCC
tp1059
a(Vthe
VDT
tp1060
a(VPalestinians
VNNPS
tp1061
a(Vbe
VVB
tp1062
a(Vrestored
VVBN
tp1063
a(Vand
VCC
tp1064
a(Vextended
VVBN
tp1065
a(Vto
VTO
tp1066
a(Vthe
VDT
tp1067
a(VWest
VNNP
tp1068
a(VBank
VNNP
tp1069
a(V.
V.
tp1070
aa(lp1071
(VThis
VDT
tp1072
a(Vwill
VMD
tp1073
a(Vprobably
VRB
tp1074
a(Vbe
VVB
tp1075
a(Vbecause
VIN
tp1076
a(Vthey
VPRP
tp1077
a(Vhave
VVBP
tp1078
a(Vcome
VVBN
tp1079
a(Vto
VTO
tp1080
a(Vrealise
VVB
tp1081
a(Vthat
VIN
tp1082
a(Vthey
VPRP
tp1083
a(Vcannot
VVBP
tp1084
a(Vcount
VNN
tp1085
a(Von
VIN
tp1086
a(Vthe
VDT
tp1087
a(Vsupport
VNN
tp1088
a(Vof
VIN
tp1089
a(Vat
VIN
tp1090
a(Vleast
VJJS
tp1091
a(V32
VCD
tp1092
a(Vdelegates
VNNS
tp1093
a(V.
V.
tp1094
aa(lp1095
(VThe
VDT
tp1096
a(Vbuses
VNNS
tp1097
a(Vcould
VMD
tp1098
a(Valso
VRB
tp1099
a(Vbe
VVB
tp1100
a(Vwatched
VVBN
tp1101
a(V.
V.
tp1102
aa(lp1103
(VSo
VIN
tp1104
a(Vwe
VPRP
tp1105
a(Vneed
VVBP
tp1106
a(Vnow
VRB
tp1107
a(Vto
VTO
tp1108
a(Vcondemn
VVB
tp1109
a(Vwhat
VWP
tp1110
a(Vhas
VVBZ
tp1111
a(Vgone
VVBN
tp1112
a(Von
VIN
tp1113
a(Vin
VIN
tp1114
a(Vthe
VDT
tp1115
a(Vpast
VNN
tp1116
a(Vbut
VCC
tp1117
a(Vat
VIN
tp1118
a(Vthe
VDT
tp1119
a(Vsame
VJJ
tp1120
a(Vtime
VNN
tp1121
a(Vto
VTO
tp1122
a(Vmove
VVB
tp1123
a(Vforward
VRB
tp1124
a(V.
V.
tp1125
aa(lp1126
(VFor
VIN
tp1127
a(Vinstance
VNN
tp1128
a(V,
V,
tp1129
a(Vit
VPRP
tp1130
a(Vfailed
VVBD
tp1131
a(Vto
VTO
tp1132
a(Vreach
VVB
tp1133
a(Vyoung
VJJ
tp1134
a(Vpeople
VNNS
tp1135
a(Vliving
VVBG
tp1136
a(Vin
VIN
tp1137
a(Vrural
VJJ
tp1138
a(Vareas
VNNS
tp1139
a(V.
V.
tp1140
aa(lp1141
(VIt
VPRP
tp1142
a(Vis
VVBZ
tp1143
a(Vimperative
VJJ
tp1144
a(Vthat
VIN
tp1145
a(Vthe
VDT
tp1146
a(Vchildren
VNNS
tp1147
a(V&apos;s
VNNS
tp1148
a(Vact
VVBP
tp1149
a(Vis
VVBZ
tp1150
a(Vnot
VRB
tp1151
a(Vhurried
VVBN
tp1152
a(V.
V.
tp1153
aa(lp1154
(VHowever
VRB
tp1155
a(V,
V,
tp1156
a(Van
VDT
tp1157
a(Vimmigration
VNN
tp1158
a(Vpolicy
VNN
tp1159
a(Vcreates
VVBZ
tp1160
a(Vboth
VCC
tp1161
a(Vduties
VNNS
tp1162
a(Vand
VCC
tp1163
a(Vrights
VNNS
tp1164
a(V.
V.
tp1165
aa(lp1166
(VFrontex
VNNP
tp1167
a(Vnow
VRB
tp1168
a(Vhas
VVBZ
tp1169
a(Va
VDT
tp1170
a(Vbudget
VNN
tp1171
a(Vof
VIN
tp1172
a(V35
VCD
tp1173
a(Vmillion
VCD
tp1174
a(Veuros
VNNS
tp1175
a(V.
V.
tp1176
aa(lp1177
(VParmalat
VNNP
tp1178
a(V,
V,
tp1179
a(Vonce
VRB
tp1180
a(Va
VDT
tp1181
a(Vsmall
VJJ
tp1182
a(Vfamily
VNN
tp1183
a(Vpasteurised
VVBN
tp1184
a(Vmilk
VNN
tp1185
a(Vcompany
VNN
tp1186
a(V,
V,
tp1187
a(Vwas
VVBD
tp1188
a(Vdeveloped
VVBN
tp1189
a(Vpartly
VRB
tp1190
a(Vthanks
VNNS
tp1191
a(Vto
VTO
tp1192
a(VEuropean
VNNP
tp1193
a(VUnion
VNNP
tp1194
a(Vsubsidies
VNNS
tp1195
a(V.
V.
tp1196
aa(lp1197
(VIt
VPRP
tp1198
a(Vis
VVBZ
tp1199
a(Vjust
VRB
tp1200
a(Va
VDT
tp1201
a(Vquestion
VNN
tp1202
a(Vof
VIN
tp1203
a(Vattitudes
VNNS
tp1204
a(V.
V.
tp1205
aa(lp1206
(VThe
VDT
tp1207
a(VMembers
VNNS
tp1208
a(Vof
VIN
tp1209
a(Vthe
VDT
tp1210
a(VGroup
VNN
tp1211
a(Vof
VIN
tp1212
a(Vthe
VDT
tp1213
a(VEuropean
VJJ
tp1214
a(VPeople
VNNS
tp1215
a(V&apos;s
VNNS
tp1216
a(VParty
VNNP
tp1217
a(Vhave
VVBP
tp1218
a(Vrightly
VRB
tp1219
a(Vpointed
VVBN
tp1220
a(Vout
VRP
tp1221
a(Vto
VTO
tp1222
a(Vme
VPRP
tp1223
a(Vthat
VIN
tp1224
a(Vit
VPRP
tp1225
a(Vshould
VMD
tp1226
a(Vnot
VRB
tp1227
a(Vread
VVB
tp1228
a(VMacedonia
VNNP
tp1229
a(V,
V,
tp1230
a(Vbut
VCC
tp1231
a(VFYROM
VNNP
tp1232
a(V,
V,
tp1233
a(VFormer
VNNP
tp1234
a(VYugoslav
VNNP
tp1235
a(VRepublic
VNNP
tp1236
a(Vof
VIN
tp1237
a(VMacedonia
VNNP
tp1238
a(V.
V.
tp1239
aa(lp1240
(VIndeed
VRB
tp1241
a(V,
V,
tp1242
a(Vyield
VNN
tp1243
a(Vlast
VJJ
tp1244
a(Vseason
VNN
tp1245
a(Vwas
VVBD
tp1246
a(Vthe
VDT
tp1247
a(Vlowest
VJJS
tp1248
a(Vof
VIN
tp1249
a(Vthe
VDT
tp1250
a(Vlast
VJJ
tp1251
a(V15
VCD
tp1252
a(Vyears
VNNS
tp1253
a(V.
V.
tp1254
aa(lp1255
(VNumerous
VJJ
tp1256
a(Vparagraphs
VNNS
tp1257
a(Vare
VVBP
tp1258
a(Vcontradictory
VJJ
tp1259
a(V.
V.
tp1260
aa(lp1261
(VWe
VPRP
tp1262
a(Vshould
VMD
tp1263
a(Vfight
VVB
tp1264
a(Vagainst
VIN
tp1265
a(Vthis
VDT
tp1266
a(Vand
VCC
tp1267
a(Vshould
VMD
tp1268
a(Vsupport
VVB
tp1269
a(Vthose
VDT
tp1270
a(Vwho
VWP
tp1271
a(Vare
VVBP
tp1272
a(Vpunished
VVBN
tp1273
a(Vin
VIN
tp1274
a(Vthis
VDT
tp1275
a(Vway
VNN
tp1276
a(V.
V.
tp1277
aa(lp1278
(VYes
VUH
tp1279
a(V,
V,
tp1280
a(Vit
VPRP
tp1281
a(Vcertainly
VRB
tp1282
a(Vneeds
VVBZ
tp1283
a(Vto
VTO
tp1284
a(Vbe
VVB
tp1285
a(Vsaid
VVBN
tp1286
a(Vthat
VIN
tp1287
a(Vthese
VDT
tp1288
a(Vproposal
VNN
tp1289
a(Vmeasures
VNNS
tp1290
a(Vare
VVBP
tp1291
a(Vparticularly
VRB
tp1292
a(Vtimid
VJJ
tp1293
a(V.
V.
tp1294
aa(lp1295
(VThis
VDT
tp1296
a(Vview
VNN
tp1297
a(Vwas
VVBD
tp1298
a(V,
V,
tp1299
a(Vby
VIN
tp1300
a(Vthe
VDT
tp1301
a(Vway
VNN
tp1302
a(V,
V,
tp1303
a(Vreiterated
VVBD
tp1304
a(Vlast
VJJ
tp1305
a(Vweek
VNN
tp1306
a(Vin
VIN
tp1307
a(VMexico
VNNP
tp1308
a(VCity
VNNP
tp1309
a(V.
V.
tp1310
aa(lp1311
(VAriane
VNNP
tp1312
aa(lp1313
(VAssistance
VNN
tp1314
a(Vgiven
VVBN
tp1315
a(Vand
VCC
tp1316
a(Vinvestment
VNN
tp1317
a(Vmade
VVBN
tp1318
a(Vin
VIN
tp1319
a(VAfrica
VNNP
tp1320
a(Vwill
VMD
tp1321
a(Vmean
VVB
tp1322
a(Vthat
VIN
tp1323
a(Vfewer
VJJR
tp1324
a(Vpeople
VNNS
tp1325
a(Vfrom
VIN
tp1326
a(Vthat
VDT
tp1327
a(Vcontinent
VNN
tp1328
a(Vwill
VMD
tp1329
a(Vbe
VVB
tp1330
a(Vforced
VVBN
tp1331
a(Vto
VTO
tp1332
a(Vleave
VVB
tp1333
a(Vtheir
VPRP$
tp1334
a(Vcountry
VNN
tp1335
a(Vfor
VIN
tp1336
a(Va
VDT
tp1337
a(Vbetter
VJJR
tp1338
a(Vlife
VNN
tp1339
a(V.
V.
tp1340
aa(lp1341
(VHowever
VRB
tp1342
a(V,
V,
tp1343
a(Vno
VDT
tp1344
a(Vresults
VNNS
tp1345
a(Vhave
VVBP
tp1346
a(Vyet
VRB
tp1347
a(Vbeen
VVBN
tp1348
a(Vannounced
VVBN
tp1349
a(V.
V.
tp1350
aa(lp1351
(VThere
VEX
tp1352
a(Vare
VVBP
tp1353
a(Vonly
VRB
tp1354
a(Va
VDT
tp1355
a(Vhandful
VNN
tp1356
a(Vof
VIN
tp1357
a(VEuropean
VJJ
tp1358
a(Vcountries
VNNS
tp1359
a(Vwhich
VWDT
tp1360
a(Vcan
VMD
tp1361
a(Vreally
VRB
tp1362
a(Vhave
VVB
tp1363
a(Va
VDT
tp1364
a(Vpresence
VNN
tp1365
a(Vin
VIN
tp1366
a(Vspace
VNN
tp1367
a(V.
V.
tp1368
aa(lp1369
(VThe
VDT
tp1370
a(Vmost
VRBS
tp1371
a(Veffective
VJJ
tp1372
a(Vteaching
VNN
tp1373
a(Vmethod
VNN
tp1374
a(Vis
VVBZ
tp1375
a(Vby
VIN
tp1376
a(Vgood
VJJ
tp1377
a(Vexample
VNN
tp1378
a(V.
V.
tp1379
aa(lp1380
(VThe
VDT
tp1381
a(Vaim
VNN
tp1382
a(Vtoo
VRB
tp1383
a(Vis
VVBZ
tp1384
a(Vto
VTO
tp1385
a(Vprevent
VVB
tp1386
a(Vthe
VDT
tp1387
a(Villegal
VJJ
tp1388
a(Vmanufacture
VNN
tp1389
a(Vof
VIN
tp1390
a(V,
V,
tp1391
a(Vand
VCC
tp1392
a(Vtrade
VNN
tp1393
a(Vin
VIN
tp1394
a(V,
V,
tp1395
a(Varms
VNNS
tp1396
a(V.
V.
tp1397
aa(lp1398
(VIt
VPRP
tp1399
a(Vhas
VVBZ
tp1400
a(Vtherefore
VRB
tp1401
a(Vlaunched
VVBN
tp1402
a(Van
VDT
tp1403
a(Vappeal
VNN
tp1404
a(Vfor
VIN
tp1405
a(Va
VDT
tp1406
a(Vpolitical
VJJ
tp1407
a(V-
V:
tp1408
a(VI
VPRP
tp1409
a(Vrepeat
VVBP
tp1410
a(Vpolitical
VJJ
tp1411
a(V-
V:
tp1412
a(Vsolution
VNN
tp1413
a(Vto
VTO
tp1414
a(Vbe
VVB
tp1415
a(Vfound
VVBN
tp1416
a(V.
V.
tp1417
aa(lp1418
(VEthnic
VJJ
tp1419
a(Vminority
VNN
tp1420
a(Vrepresentatives
VNNS
tp1421
a(Vwere
VVBD
tp1422
a(Vnot
VRB
tp1423
a(Vinvolved
VVBN
tp1424
a(Vin
VIN
tp1425
a(Vdrafting
VVBG
tp1426
a(Vthe
VDT
tp1427
a(Vamendment
VNN
tp1428
a(V.
V.
tp1429
aa(lp1430
(VI
VPRP
tp1431
a(Vthink
VVBP
tp1432
a(Vit
VPRP
tp1433
a(Vis
VVBZ
tp1434
a(Vthe
VDT
tp1435
a(Vclassic
VJJ
tp1436
a(Vlaw
VNN
tp1437
a(Vof
VIN
tp1438
a(Vunintended
VJJ
tp1439
a(Vconsequence
VNN
tp1440
a(V.
V.
tp1441
aa(lp1442
(VThese
VDT
tp1443
a(Vprinciples
VNNS
tp1444
a(V,
V,
tp1445
a(Vwhich
VWDT
tp1446
a(Vhave
VVBP
tp1447
a(Vbeen
VVBN
tp1448
a(Vrepeated
VVBN
tp1449
a(Von
VIN
tp1450
a(Vother
VJJ
tp1451
a(Voccasions
VNNS
tp1452
a(V,
V,
tp1453
a(Vare
VVBP
tp1454
a(Vequality
VNN
tp1455
a(Vand
VCC
tp1456
a(Vsecurity
VNN
tp1457
a(V.
V.
tp1458
aa(lp1459
(VThe
VDT
tp1460
a(Vdefence
VNN
tp1461
a(Vof
VIN
tp1462
a(Vhuman
VJJ
tp1463
a(Vrights
VNNS
tp1464
a(Vis
VVBZ
tp1465
a(Vat
VIN
tp1466
a(Vthe
VDT
tp1467
a(Vvery
VJJ
tp1468
a(Vheart
VNN
tp1469
a(Vof
VIN
tp1470
a(Vour
VPRP$
tp1471
a(VUnion
VNNP
tp1472
a(V.
V.
tp1473
aa(lp1474
(VThey
VPRP
tp1475
a(Vgive
VVBP
tp1476
a(Vthe
VDT
tp1477
a(Vprotection
VNN
tp1478
a(Vof
VIN
tp1479
a(Vnature
VNN
tp1480
a(Vand
VCC
tp1481
a(Vthe
VDT
tp1482
a(Venvironment
VNN
tp1483
a(Van
VDT
tp1484
a(Venormous
VJJ
tp1485
a(Vboost
VNN
tp1486
a(V.
V.
tp1487
aa.