(lp1
(lp2
(VThese
VDT
tp3
a(Vwords
VNNS
tp4
a(Vabout
VIN
tp5
a(V&apos;
VJJ
tp6
a(Vrestraint
VNN
tp7
a(Vin
VIN
tp8
a(Vthe
VDT
tp9
a(Vuse
VNN
tp10
a(Vof
VIN
tp11
a(Vforce
VNN
tp12
a(V&apos;
VNN
tp13
a(Vstuck
VVBD
tp14
a(Vin
VIN
tp15
a(Vmy
VPRP$
tp16
a(Vthroat
VNN
tp17
a(V.
V.
tp18
aa(lp19
(VAs
VIN
tp20
a(Vpart
VNN
tp21
a(Vof
VIN
tp22
a(Vthe
VDT
tp23
a(Vmechanism
VNN
tp24
a(Vfor
VIN
tp25
a(Vcooperation
VNN
tp26
a(Vin
VIN
tp27
a(Vthe
VDT
tp28
a(Varea
VNN
tp29
a(Vof
VIN
tp30
a(Vnuclear
VJJ
tp31
a(Vsafety
VNN
tp32
a(V,
V,
tp33
a(Vwe
VPRP
tp34
a(Vare
VVBP
tp35
a(Vconsidering
VVBG
tp36
a(Va
VDT
tp37
a(Vproject
VNN
tp38
a(Vaimed
VVBN
tp39
a(Vat
VIN
tp40
a(Vhelping
VVBG
tp41
a(Vthe
VDT
tp42
a(Vmost
VRBS
tp43
a(Vsignificantly
VRB
tp44
a(Vaffected
VVBN
tp45
a(Vpopulation
VNN
tp46
a(Vgroups
VNNS
tp47
a(Varound
VIN
tp48
a(Vthe
VDT
tp49
a(VChernobyl
VNNP
tp50
a(Vexclusion
VNN
tp51
a(Vzone
VNN
tp52
a(V.
V.
tp53
aa(lp54
(VShe
VPRP
tp55
a(Vhas
VVBZ
tp56
a(Vspent
VVBN
tp57
a(Vthe
VDT
tp58
a(Vlast
VJJ
tp59
a(V19
VCD
tp60
a(Vyears
VNNS
tp61
a(Vin
VIN
tp62
a(Vprison
VNN
tp63
a(V,
V,
tp64
a(Vsince
VIN
tp65
a(VJuly
VNNP
tp66
a(V1989
VCD
tp67
a(V.
V.
tp68
aa(lp69
(VI
VPRP
tp70
a(Vheld
VVBD
tp71
a(Vin
VIN
tp72
a(Vmy
VPRP$
tp73
a(Vhands
VNNS
tp74
a(V20
VCD
tp75
a(Vkilos
VNNS
tp76
a(Vof
VIN
tp77
a(Vgold
VNN
tp78
a(Vproduced
VVBN
tp79
a(Vfrom
VIN
tp80
a(Vmobile
VJJ
tp81
a(Vphones
VNNS
tp82
a(V.
V.
tp83
aa(lp84
(VLet
VVB
tp85
a(Vme
VPRP
tp86
a(Vnot
VRB
tp87
a(Vbeat
VVB
tp88
a(Vabout
VIN
tp89
a(Vthe
VDT
tp90
a(Vbush
VNN
tp91
a(V.
V.
tp92
aa(lp93
(VBy
VIN
tp94
a(Vany
VDT
tp95
a(Vobjective
VJJ
tp96
a(Vstandards
VNNS
tp97
a(Vour
VPRP$
tp98
a(VUnion
VNNP
tp99
a(Vis
VVBZ
tp100
a(Va
VDT
tp101
a(Vgreat
VJJ
tp102
a(Vsuccess
VNN
tp103
a(V.
V.
tp104
aa(lp105
(VIt
VPRP
tp106
a(Valso
VRB
tp107
a(Vunderlined
VVBD
tp108
a(Vits
VPRP$
tp109
a(Vwillingness
VNN
tp110
a(Vto
VTO
tp111
a(Vsupport
VVB
tp112
a(Vthe
VDT
tp113
a(Vtransition
VNN
tp114
a(Vprocess
VNN
tp115
a(V.
V.
tp116
aa(lp117
(VNetanyahu
VNNP
tp118
a(Vis
VVBZ
tp119
a(Vunder
VIN
tp120
a(Van
VDT
tp121
a(Venormous
VJJ
tp122
a(Vamount
VNN
tp123
a(Vof
VIN
tp124
a(Vpressure
VNN
tp125
a(Vfrom
VIN
tp126
a(Vhis
VPRP$
tp127
a(Vown
VJJ
tp128
a(Vsupporters
VNNS
tp129
a(V.
V.
tp130
aa(lp131
(VMadam
VNNP
tp132
a(VPresident
VNNP
tp133
a(V,
V,
tp134
a(Vit
VPRP
tp135
a(Vis
VVBZ
tp136
a(Vgood
VJJ
tp137
a(Vpractice
VNN
tp138
a(Vin
VIN
tp139
a(Vthis
VDT
tp140
a(VHouse
VNNP
tp141
a(Vnot
VRB
tp142
a(Vto
VTO
tp143
a(Vask
VVB
tp144
a(Vquestions
VNNS
tp145
a(Vwhile
VIN
tp146
a(Va
VDT
tp147
a(Vreport
VNN
tp148
a(Vis
VVBZ
tp149
a(Vin
VIN
tp150
a(Vpreparation
VNN
tp151
a(V.
V.
tp152
aa(lp153
(VThis
VDT
tp154
a(Vdeclaration
VNN
tp155
a(Vis
VVBZ
tp156
a(Vthe
VDT
tp157
a(Vminimum
VJJ
tp158
a(Vnecessary
VJJ
tp159
a(Vif
VIN
tp160
a(Va
VDT
tp161
a(VTreaty
VNNP
tp162
a(Vcannot
VNN
tp163
a(Vbe
VVB
tp164
a(Vconcluded
VVBN
tp165
a(Vby
VIN
tp166
a(Vthe
VDT
tp167
a(Vdate
VNN
tp168
a(Vof
VIN
tp169
a(Vthe
VDT
tp170
a(Velection
VNN
tp171
a(V.
V.
tp172
aa(lp173
(VWe
VPRP
tp174
a(Vhave
VVBP
tp175
a(Vaddressed
VVBN
tp176
a(Vthe
VDT
tp177
a(Vsubject
VNN
tp178
a(Vof
VIN
tp179
a(VLatin
VNNP
tp180
a(VAmerica
VNNP
tp181
a(V.
V.
tp182
aa(lp183
(VI
VPRP
tp184
a(Vmight
VMD
tp185
a(Vnever
VRB
tp186
a(Vhave
VVB
tp187
a(Vstudied
VVBN
tp188
a(Votherwise
VRB
tp189
a(V.
V.
tp190
aa(lp191
(VThe
VDT
tp192
a(VPresident
VNNP
tp193
a(Vof
VIN
tp194
a(Vthe
VDT
tp195
a(VCouncil
VNNP
tp196
a(Vhas
VVBZ
tp197
a(Vstated
VVBN
tp198
a(Vtoday
VNN
tp199
a(Vthat
VWDT
tp200
a(VEuropeans
VNNPS
tp201
a(Vdo
VVBP
tp202
a(Vnot
VRB
tp203
a(Vtake
VVB
tp204
a(Vthe
VDT
tp205
a(Vtrouble
VNN
tp206
a(Vto
VTO
tp207
a(Vread
VVB
tp208
a(Vthe
VDT
tp209
a(VStrategy
VNNP
tp210
a(V,
V,
tp211
a(Vand
VCC
tp212
a(Vthat
VIN
tp213
a(Vthey
VPRP
tp214
a(Vdo
VVBP
tp215
a(Vnot
VRB
tp216
a(Vlike
VVB
tp217
a(Vit
VPRP
tp218
a(V,
V,
tp219
a(Vbut
VCC
tp220
a(Vthat
VDT
tp221
a(Vis
VVBZ
tp222
a(Vnot
VRB
tp223
a(Vtheir
VPRP$
tp224
a(Vfault
VNN
tp225
a(V.
V.
tp226
aa(lp227
(VIndeed
VRB
tp228
a(V,
V,
tp229
a(Vthe
VDT
tp230
a(VUnion
VNNP
tp231
a(V\u2019
VNN
tp232
a(Vs
VVBZ
tp233
a(Vefforts
VNNS
tp234
a(Vare
VVBP
tp235
a(Vabsolutely
VRB
tp236
a(Vessential
VJJ
tp237
a(Vto
VTO
tp238
a(Venhance
VVB
tp239
a(Vthe
VDT
tp240
a(VDoha
VNNP
tp241
a(Vdevelopment
VNN
tp242
a(Vagenda
VNN
tp243
a(V.
V.
tp244
aa(lp245
(VAt
VIN
tp246
a(Vthe
VDT
tp247
a(Vsame
VJJ
tp248
a(Vtime
VNN
tp249
a(V,
V,
tp250
a(Vit
VPRP
tp251
a(Vshould
VMD
tp252
a(Vbe
VVB
tp253
a(Vstressed
VVBN
tp254
a(Vthat
VIN
tp255
a(Vwe
VPRP
tp256
a(Vdo
VVBP
tp257
a(Vnot
VRB
tp258
a(Vneed
VVB
tp259
a(Vprophets
VNNS
tp260
a(Vof
VIN
tp261
a(Vdoom
VNN
tp262
a(V.
V.
tp263
aa(lp264
(VThey
VPRP
tp265
a(Vare
VVBP
tp266
a(V,
V,
tp267
a(Vhowever
VRB
tp268
a(V,
V,
tp269
a(Vadmissible
VJJ
tp270
a(Vfor
VIN
tp271
a(Vthe
VDT
tp272
a(Vfinal
VJJ
tp273
a(Vreport
VNN
tp274
a(V.
V.
tp275
aa(lp276
(VI
VPRP
tp277
a(Vunderstand
VVBP
tp278
a(Vthat
VIN
tp279
a(Vhe
VPRP
tp280
a(Vhas
VVBZ
tp281
a(Vhad
VVBD
tp282
a(Van
VDT
tp283
a(Vaccident
VNN
tp284
a(Von
VIN
tp285
a(Vthe
VDT
tp286
a(Vice
VNN
tp287
a(Voutside
VIN
tp288
a(Vthis
VDT
tp289
a(Vbuilding
VNN
tp290
a(Vand
VCC
tp291
a(Vhas
VVBZ
tp292
a(Vbeen
VVBN
tp293
a(Vtaken
VVBN
tp294
a(Vto
VTO
tp295
a(Vhospital
VNN
tp296
a(Vwith
VIN
tp297
a(Va
VDT
tp298
a(Vhead
VNN
tp299
a(Vinjury
VNN
tp300
a(V,
V,
tp301
a(Vwhich
VWDT
tp302
a(VI
VPRP
tp303
a(Vhope
VVBP
tp304
a(Vis
VVBZ
tp305
a(Vminor
VJJ
tp306
a(V.
V.
tp307
aa(lp308
(VParliament
VNNP
tp309
a(Vfor
VIN
tp310
a(Vits
VPRP$
tp311
a(Vown
VJJ
tp312
a(Vpart
VNN
tp313
a(Vpromises
VVBZ
tp314
a(Vto
VTO
tp315
a(Venforce
VVB
tp316
a(Vthis
VDT
tp317
a(Vdeclaration
VNN
tp318
a(V.
V.
tp319
aa(lp320
(VWe
VPRP
tp321
a(Valso
VRB
tp322
a(Vknow
VVBP
tp323
a(Vthat
VIN
tp324
a(Vany
VDT
tp325
a(Vopposition
VNN
tp326
a(Vis
VVBZ
tp327
a(Vseverely
VRB
tp328
a(Vrepressed
VVBN
tp329
a(Vand
VCC
tp330
a(Vthat
VIN
tp331
a(Vrepression
VNN
tp332
a(Vis
VVBZ
tp333
a(Vparticularly
VRB
tp334
a(Vsevere
VJJ
tp335
a(Vin
VIN
tp336
a(Vrelation
VNN
tp337
a(Vto
VTO
tp338
a(Vthe
VDT
tp339
a(Vethnic
VJJ
tp340
a(Vminorities
VNNS
tp341
a(V.
V.
tp342
aa(lp343
(V(
VRB
tp344
a(VIT
VPRP
tp345
a(V)
VVBD
tp346
a(VTaxation
VNNP
tp347
a(Von
VIN
tp348
a(Vsavings
VNNS
tp349
a(Vhas
VVBZ
tp350
a(Valways
VRB
tp351
a(Vbeen
VVBN
tp352
a(Va
VDT
tp353
a(Vhotly
VRB
tp354
a(Vdebated
VVBN
tp355
a(Vissue
VNN
tp356
a(V.
V.
tp357
aa(lp358
(VI
VPRP
tp359
a(Vmake
VVBP
tp360
a(Vthis
VDT
tp361
a(Vcommitment
VNN
tp362
a(Vwithout
VIN
tp363
a(Vexpecting
VVBG
tp364
a(Vanything
VNN
tp365
a(Vin
VIN
tp366
a(Vreturn
VNN
tp367
a(V.
V.
tp368
aa(lp369
(VHowever
VRB
tp370
a(V,
V,
tp371
a(Vthis
VDT
tp372
a(Vis
VVBZ
tp373
a(Vno
VRB
tp374
a(Vlonger
VRB
tp375
a(V1967
VCD
tp376
a(V.
V.
tp377
aa(lp378
(VThis
VDT
tp379
a(Vterm
VNN
tp380
a(Vis
VVBZ
tp381
a(Vrepresented
VVBN
tp382
a(Vdifferently
VRB
tp383
a(Vin
VIN
tp384
a(Veach
VDT
tp385
a(Vlanguage
VNN
tp386
a(V.
V.
tp387
aa(lp388
(VThe
VDT
tp389
a(VCommission
VNNP
tp390
a(Vrepresentative
VNN
tp391
a(Vwho
VWP
tp392
a(Vattended
VVBD
tp393
a(Vthe
VDT
tp394
a(Vmeeting
VNN
tp395
a(Vof
VIN
tp396
a(Vthe
VDT
tp397
a(VCommittee
VNNP
tp398
a(Von
VIN
tp399
a(VCivil
VJJ
tp400
a(VLiberties
VNNPS
tp401
a(V,
V,
tp402
a(VJustice
VNNP
tp403
a(Vand
VCC
tp404
a(VHome
VNNP
tp405
a(VAffairs
VNNP
tp406
a(Vstated
VVBD
tp407
a(Von
VIN
tp408
a(V19
VCD
tp409
a(VApril
VNNP
tp410
a(V2011
VCD
tp411
a(Vthat
VIN
tp412
a(Vthe
VDT
tp413
a(VCommission
VNNP
tp414
a(Vwas
VVBD
tp415
a(Vpreparing
VVBG
tp416
a(Vto
VTO
tp417
a(Vrevise
VVB
tp418
a(Vand
VCC
tp419
a(Vimprove
VVB
tp420
a(Vthe
VDT
tp421
a(Vregulation
VNN
tp422
a(V.
V.
tp423
aa(lp424
(VThe
VDT
tp425
a(Vother
VJJ
tp426
a(V99
VCD
tp427
a(V%
VNN
tp428
a(Vcomes
VVBZ
tp429
a(Vfrom
VIN
tp430
a(Villegal
VJJ
tp431
a(Vchannels
VNNS
tp432
a(Vand
VCC
tp433
a(Vthe
VDT
tp434
a(Vblack
VJJ
tp435
a(Vmarket
VNN
tp436
a(V.
V.
tp437
aa(lp438
(VYears
VNNS
tp439
a(Vago
VIN
tp440
a(Vin
VIN
tp441
a(VCairo
VNNP
tp442
a(V,
V,
tp443
a(Van
VDT
tp444
a(Vold
VJJ
tp445
a(Vman
VNN
tp446
a(Vfrom
VIN
tp447
a(Vthe
VDT
tp448
a(Vcountryside
VNN
tp449
a(Vwho
VWP
tp450
a(Vdelivered
VVBD
tp451
a(Vmilk
VNN
tp452
a(Vto
VTO
tp453
a(Vour
VPRP$
tp454
a(Vhouse
VNN
tp455
a(Vthree
VCD
tp456
a(Vtimes
VNNS
tp457
a(Va
VDT
tp458
a(Vweek
VNN
tp459
a(Vstood
VVBD
tp460
a(Vat
VIN
tp461
a(Vour
VPRP$
tp462
a(Vdoor
VNN
tp463
a(Vcrying
VVBG
tp464
a(V.
V.
tp465
aa(lp466
(VThe
VDT
tp467
a(Vproposals
VNNS
tp468
a(Vhe
VPRP
tp469
a(Vbrings
VVBZ
tp470
a(Vforward
VRB
tp471
a(Von
VIN
tp472
a(V11
VCD
tp473
a(VMarch
VNNP
tp474
a(Vwill
VMD
tp475
a(Vreflect
VVB
tp476
a(Vthat
VIN
tp477
a(Vawareness
VNN
tp478
a(Vof
VIN
tp479
a(Vhis
VPRP$
tp480
a(V.
V.
tp481
aa(lp482
(VMadam
VNNP
tp483
a(VPresident
VNNP
tp484
a(V,
V,
tp485
a(Vwe
VPRP
tp486
a(Vhave
VVBP
tp487
a(Vall
VDT
tp488
a(Vseen
VVBN
tp489
a(Vthe
VDT
tp490
a(Vpictures
VNNS
tp491
a(Vfrom
VIN
tp492
a(Vthe
VDT
tp493
a(Vbase
VNN
tp494
a(Vat
VIN
tp495
a(VGuantanamo
VNNP
tp496
a(VBay
VNNP
tp497
a(Vof
VIN
tp498
a(Vthe
VDT
tp499
a(Vprisoners
VNNS
tp500
a(Vwith
VIN
tp501
a(Vtheir
VPRP$
tp502
a(Vorange-coloured
VJJ
tp503
a(Voveralls
VNNS
tp504
a(V.
V.
tp505
aa(lp506
(VMarket
VNN
tp507
a(Vregulations
VNNS
tp508
a(Vshould
VMD
tp509
a(Vnot
VRB
tp510
a(Vreplace
VVB
tp511
a(Vthe
VDT
tp512
a(Vrequirements
VNNS
tp513
a(Vof
VIN
tp514
a(Vthe
VDT
tp515
a(Vlaw
VNN
tp516
a(V-
V:
tp517
a(Vand
VCC
tp518
a(Vtherefore
VRB
tp519
a(Vthe
VDT
tp520
a(Vduties
VNNS
tp521
a(V-
V:
tp522
a(Vwhich
VWDT
tp523
a(Vapply
VVBP
tp524
a(Vto
VTO
tp525
a(Veveryone
VNN
tp526
a(V.
V.
tp527
aa(lp528
(VWhat
VWP
tp529
a(Vwe
VPRP
tp530
a(Vare
VVBP
tp531
a(Vcurrently
VRB
tp532
a(Vlearning
VVBG
tp533
a(V-
V:
tp534
a(Vand
VCC
tp535
a(Vit
VPRP
tp536
a(Vis
VVBZ
tp537
a(Va
VDT
tp538
a(Vmatter
VNN
tp539
a(Vof
VIN
tp540
a(Vconsiderable
VJJ
tp541
a(Vinterest
VNN
tp542
a(V-
V:
tp543
a(Vis
VVBZ
tp544
a(Vthat
VIN
tp545
a(V&apos;
VIN
tp546
a(Vlearning
VVBG
tp547
a(Vby
VIN
tp548
a(Vdoing
VVBG
tp549
a(V&apos;
VNN
tp550
a(Vis
VVBZ
tp551
a(Vstill
VRB
tp552
a(Vthe
VDT
tp553
a(Vbest
VJJS
tp554
a(Vway
VNN
tp555
a(Vto
VTO
tp556
a(Vgo
VVB
tp557
a(Vabout
VIN
tp558
a(Vit
VPRP
tp559
a(V.
V.
tp560
aa(lp561
(VIn
VIN
tp562
a(VBrussels
VNNP
tp563
a(V,
V,
tp564
a(Vyou
VPRP
tp565
a(Vare
VVBP
tp566
a(Vthe
VDT
tp567
a(VCommission
VNNP
tp568
a(V&apos;s
VNNS
tp569
a(Vman
VNN
tp570
a(V.
V.
tp571
aa(lp572
(VWith
VIN
tp573
a(Vits
VPRP$
tp574
a(Vinterruption
VNN
tp575
a(Vto
VTO
tp576
a(Vthe
VDT
tp577
a(Vgas
VNN
tp578
a(Vsupply
VNN
tp579
a(Vin
VIN
tp580
a(Vthe
VDT
tp581
a(Vvery
VRB
tp582
a(Vmiddle
VJJ
tp583
a(Vof
VIN
tp584
a(Vwinter
VNN
tp585
a(V,
V,
tp586
a(VRussia
VNNP
tp587
a(Vreminded
VVBD
tp588
a(Vnot
VRB
tp589
a(Vonly
VRB
tp590
a(VUkraine
VNNP
tp591
a(Vbut
VCC
tp592
a(Valso
VRB
tp593
a(Vthe
VDT
tp594
a(Vworld
VNN
tp595
a(V\u2019
VNN
tp596
a(Vs
VVBZ
tp597
a(Venergy
VNN
tp598
a(Vmarkets
VNNS
tp599
a(V,
V,
tp600
a(Vthat
VIN
tp601
a(Vpower
VNN
tp602
a(Vcurrently
VRB
tp603
a(Vlies
VVBZ
tp604
a(Vwith
VIN
tp605
a(Venergy
VNN
tp606
a(Vsuppliers
VNNS
tp607
a(V.
V.
tp608
aa(lp609
(VAn
VDT
tp610
a(Vimmediate
VJJ
tp611
a(Vceasefire
VNN
tp612
a(Vis
VVBZ
tp613
a(Vonly
VRB
tp614
a(Va
VDT
tp615
a(Vnecessary
VJJ
tp616
a(Vstart
VNN
tp617
a(V.
V.
tp618
aa(lp619
(VWhere
VWRB
tp620
a(Vchildren
VNNS
tp621
a(Vup
VIN
tp622
a(Vto
VTO
tp623
a(Vthe
VDT
tp624
a(Vage
VNN
tp625
a(Vof
VIN
tp626
a(V14
VCD
tp627
a(Vcan
VMD
tp628
a(Vtravel
VVB
tp629
a(Vby
VIN
tp630
a(Vtrain
VNN
tp631
a(Vfor
VIN
tp632
a(Vfree
VJJ
tp633
a(V,
V,
tp634
a(Vit
VPRP
tp635
a(Vis
VVBZ
tp636
a(Valso
VRB
tp637
a(Vthe
VDT
tp638
a(Vother
VJJ
tp639
a(Vpassengers
VNNS
tp640
a(Vwho
VWP
tp641
a(Vcontribute
VVBP
tp642
a(Vto
VTO
tp643
a(Vthat
VDT
tp644
a(Vcost
VNN
tp645
a(V.
V.
tp646
aa(lp647
(VA
VDT
tp648
a(Vperson
VNN
tp649
a(Vsuffering
VVBG
tp650
a(Vfrom
VIN
tp651
a(VAlzheimer
VNN
tp652
a(V&apos;s
VNNS
tp653
a(Vcannot
VVBP
tp654
a(Vgo
VVB
tp655
a(Vone
VCD
tp656
a(Vhour
VNN
tp657
a(Vunaccompanied
VJJ
tp658
a(V.
V.
tp659
aa(lp660
(VIn
VIN
tp661
a(Vspite
VNN
tp662
a(Vof
VIN
tp663
a(Vthis
VDT
tp664
a(V,
V,
tp665
a(VI
VPRP
tp666
a(Vwould
VMD
tp667
a(Vlike
VVB
tp668
a(Vto
VTO
tp669
a(Vmake
VVB
tp670
a(Van
VDT
tp671
a(Vappeal
VNN
tp672
a(Vto
VTO
tp673
a(Vthe
VDT
tp674
a(Veffect
VNN
tp675
a(Vthat
VIN
tp676
a(Vwe
VPRP
tp677
a(Vdo
VVBP
tp678
a(Vnot
VRB
tp679
a(Vrestrict
VVB
tp680
a(Vourselves
VPRP
tp681
a(Vto
VTO
tp682
a(Vthis
VDT
tp683
a(V-
V:
tp684
a(Vnot
VRB
tp685
a(Vto
VTO
tp686
a(Vthe
VDT
tp687
a(Vfact
VNN
tp688
a(Vthat
VIN
tp689
a(Vthey
VPRP
tp690
a(Vcome
VVBP
tp691
a(Vfrom
VIN
tp692
a(VChina
VNNP
tp693
a(V,
V,
tp694
a(Vbecause
VIN
tp695
a(Vunsafe
VJJ
tp696
a(Vgoods
VNNS
tp697
a(Venter
VVBP
tp698
a(Vthe
VDT
tp699
a(Vmarket
VNN
tp700
a(Vfrom
VIN
tp701
a(Vother
VJJ
tp702
a(Vcountries
VNNS
tp703
a(Vtoo
VRB
tp704
a(V.
V.
tp705
aa(lp706
(VWe
VPRP
tp707
a(Vknow
VVBP
tp708
a(Vthe
VDT
tp709
a(Vemotional
VJJ
tp710
a(Vpain
VNN
tp711
a(Vand
VCC
tp712
a(Vhuman
VJJ
tp713
a(Vtragedy
VNN
tp714
a(Vthat
VWDT
tp715
a(Vresulted
VVBD
tp716
a(V,
V,
tp717
a(Vlargely
VRB
tp718
a(Vbecause
VIN
tp719
a(Vof
VIN
tp720
a(Vthe
VDT
tp721
a(Vcontroversy
VNN
tp722
a(Vabout
VIN
tp723
a(Vvaccination
VNN
tp724
a(V.
V.
tp725
aa(lp726
(VSome
VDT
tp727
a(Vsee
VVBP
tp728
a(Vit
VPRP
tp729
a(Vas
VIN
tp730
a(Va
VDT
tp731
a(Vreal
VJJ
tp732
a(Vgem
VNN
tp733
a(V,
V,
tp734
a(Vafter
VIN
tp735
a(Vachieving
VVBG
tp736
a(Vthe
VDT
tp737
a(Vhighest
VJJS
tp738
a(Vlevel
VNN
tp739
a(Vof
VIN
tp740
a(Vwell-being
VNN
tp741
a(Vand
VCC
tp742
a(Vdevelopment
VNN
tp743
a(Von
VIN
tp744
a(Vits
VPRP$
tp745
a(Vbanks
VNNS
tp746
a(V.
V.
tp747
aa(lp748
(VEurope
VNNP
tp749
a(Vhas
VVBZ
tp750
a(Va
VDT
tp751
a(Vsoul
VNN
tp752
a(V.
V.
tp753
aa(lp754
(VThis
VDT
tp755
a(Vthen
VRB
tp756
a(Vresulted
VVBD
tp757
a(Vin
VIN
tp758
a(Va
VDT
tp759
a(Vcomplaint
VNN
tp760
a(V.
V.
tp761
aa(lp762
(VLet
VVB
tp763
a(Vus
VPRP
tp764
a(Vgrasp
VVB
tp765
a(Vthis
VDT
tp766
a(Vopportunity
VNN
tp767
a(Vand
VCC
tp768
a(Vpresent
VJJ
tp769
a(Videas
VNNS
tp770
a(Vfor
VIN
tp771
a(Van
VDT
tp772
a(Vagenda
VNN
tp773
a(Vto
VTO
tp774
a(Vdeal
VVB
tp775
a(Vwith
VIN
tp776
a(Vglobalisation
VNN
tp777
a(V.
V.
tp778
aa(lp779
(VNot
VRB
tp780
a(Veveryone
VNN
tp781
a(Vreads
VVBZ
tp782
a(Vthe
VDT
tp783
a(VCommission
VNNP
tp784
a(V&apos;s
VNNS
tp785
a(Vcommunications
VNNS
tp786
a(V.
V.
tp787
aa(lp788
(VDo
VVB
tp789
a(Vthese
VDT
tp790
a(Vsocial
VJJ
tp791
a(Vdevelopments
VNNS
tp792
a(Vworry
VVBP
tp793
a(Vyou
VPRP
tp794
a(V?
V.
tp795
aa(lp796
(VIndeed
VRB
tp797
a(Vit
VPRP
tp798
a(Vdid
VVBD
tp799
a(V,
V,
tp800
a(Vbut
VCC
tp801
a(Vit
VPRP
tp802
a(Vtook
VVBD
tp803
a(Vanother
VDT
tp804
a(Vtwo-and-a-half
VCD
tp805
a(Vor
VCC
tp806
a(Vthree
VCD
tp807
a(Vyears
VNNS
tp808
a(Vfor
VIN
tp809
a(Vthe
VDT
tp810
a(Vlegislation
VNN
tp811
a(Vto
VTO
tp812
a(Vbe
VVB
tp813
a(Vtabled
VVBN
tp814
a(V.
V.
tp815
aa(lp816
(VIn
VIN
tp817
a(Vaccordance
VNN
tp818
a(Vwith
VIN
tp819
a(VRule
VNN
tp820
a(V163
VCD
tp821
a(Vof
VIN
tp822
a(Vthe
VDT
tp823
a(VRules
VNNS
tp824
a(Vof
VIN
tp825
a(VProcedure
VNNP
tp826
a(V,
V,
tp827
a(V\u2026
VCD
tp828
aa(lp829
(VSome
VDT
tp830
a(Vof
VIN
tp831
a(Vthose
VDT
tp832
a(Vwho
VWP
tp833
a(Vhave
VVBP
tp834
a(Vbenefited
VVBN
tp835
a(Vfrom
VIN
tp836
a(Vthis
VDT
tp837
a(Vliberalisation
VNN
tp838
a(Vare
VVBP
tp839
a(Vthe
VDT
tp840
a(Vsame
VJJ
tp841
a(Vpeople
VNNS
tp842
a(Vwho
VWP
tp843
a(Vhave
VVBP
tp844
a(Valways
VRB
tp845
a(Vbeen
VVBN
tp846
a(Vopposed
VVBN
tp847
a(Vto
VTO
tp848
a(Vorigin
VNN
tp849
a(Vmarking
VVBG
tp850
a(V:
V:
tp851
a(VEurope
VNNP
tp852
a(V&apos;s
VVBZ
tp853
a(Vlarge
VJJ
tp854
a(Vimporters
VNNS
tp855
a(Vand
VCC
tp856
a(Vdistributors
VNNS
tp857
a(V.
V.
tp858
aa(lp859
(VLadies
VNNP
tp860
a(Vand
VCC
tp861
a(Vgentlemen
VNNS
tp862
a(V,
V,
tp863
a(Vplease
VVB
tp864
a(Vdo
VVBP
tp865
a(Vnot
VRB
tp866
a(Vsubrogate
VVB
tp867
a(Vto
VTO
tp868
a(Vthis
VDT
tp869
a(Vnation
VNN
tp870
a(Vby
VIN
tp871
a(Vspeaking
VVBG
tp872
a(Von
VIN
tp873
a(Vits
VPRP$
tp874
a(Vbehalf
VNN
tp875
a(V.
V.
tp876
aa(lp877
(VBut
VCC
tp878
a(Vrightly
VRB
tp879
a(Vor
VCC
tp880
a(Vwrongly
VRB
tp881
a(V,
V,
tp882
a(Vthis
VDT
tp883
a(Vlies
VVBZ
tp884
a(Vwithin
VIN
tp885
a(Vthe
VDT
tp886
a(Vcompetence
VNN
tp887
a(Vof
VIN
tp888
a(Vthe
VDT
tp889
a(VMember
VNNP
tp890
a(VStates
VNNPS
tp891
a(V.
V.
tp892
aa(lp893
(VMr
VNNP
tp894
a(VPresident
VNNP
tp895
a(V,
V,
tp896
a(VMr
VNNP
tp897
a(VTitley
VNNP
tp898
a(Vhas
VVBZ
tp899
a(Vwritten
VVBN
tp900
a(Van
VDT
tp901
a(Vimportant
VJJ
tp902
a(Vreport
VNN
tp903
a(V.
V.
tp904
aa(lp905
(VWe
VPRP
tp906
a(Vshould
VMD
tp907
a(Vbe
VVB
tp908
a(Vcareful
VJJ
tp909
a(V.
V.
tp910
aa(lp911
(VLet
VVB
tp912
a(Vme
VPRP
tp913
a(Vend
VVB
tp914
a(Vwhere
VWRB
tp915
a(VI
VPRP
tp916
a(Vstarted
VVBD
tp917
a(V.
V.
tp918
aa(lp919
(VFinancial
VJJ
tp920
a(Vsupport
VNN
tp921
a(Vfrom
VIN
tp922
a(Vthe
VDT
tp923
a(VWest
VNNP
tp924
a(Vhardly
VRB
tp925
a(Vreached
VVBD
tp926
a(Vthe
VDT
tp927
a(Vunemployed
VJJ
tp928
a(VBulgarians
VNNPS
tp929
a(Vand
VCC
tp930
a(Vthe
VDT
tp931
a(Vvictimised
VVBN
tp932
a(VRoma
VNNP
tp933
a(V.
V.
tp934
aa(lp935
(VFor
VIN
tp936
a(Vthe
VDT
tp937
a(Vmost
VJJS
tp938
a(Vpart
VNN
tp939
a(V,
V,
tp940
a(Vthey
VPRP
tp941
a(Vare
VVBP
tp942
a(Vpart
VNN
tp943
a(Vof
VIN
tp944
a(Vthe
VDT
tp945
a(Vsolution
VNN
tp946
a(V.
V.
tp947
aa(lp948
(VWe
VPRP
tp949
a(Vwill
VMD
tp950
a(Vfollow
VVB
tp951
a(Vthe
VDT
tp952
a(Vorder
VNN
tp953
a(VI
VPRP
tp954
a(Vsuggested
VVBD
tp955
a(V.
V.
tp956
aa(lp957
(VIt
VPRP
tp958
a(Vis
VVBZ
tp959
a(Vnot
VRB
tp960
a(Vgrowing
VVBG
tp961
a(V.
V.
tp962
aa(lp963
(VThis
VDT
tp964
a(Varea
VNN
tp965
a(Vof
VIN
tp966
a(VFrance
VNNP
tp967
a(V,
V,
tp968
a(Vwhich
VWDT
tp969
a(Vis
VVBZ
tp970
a(Valready
VRB
tp971
a(Vbadly
VRB
tp972
a(Vaffected
VVBN
tp973
a(Vby
VIN
tp974
a(Veconomic
VJJ
tp975
a(Vand
VCC
tp976
a(Vsocial
VJJ
tp977
a(Vproblems
VNNS
tp978
a(V,
V,
tp979
a(Vhas
VVBZ
tp980
a(Vbeen
VVBN
tp981
a(Vdevastated
VVBN
tp982
a(V.
V.
tp983
aa(lp984
(VI
VPRP
tp985
a(Vgladly
VRB
tp986
a(Vpromise
VVBP
tp987
a(VMrs
VNNP
tp988
a(VMann
VNNP
tp989
a(V,
V,
tp990
a(VI
VPRP
tp991
a(Vwill
VMD
tp992
a(Vbe
VVB
tp993
a(Vorganising
VVBG
tp994
a(Va
VDT
tp995
a(Vmeeting
VNN
tp996
a(Vwith
VIN
tp997
a(Vthe
VDT
tp998
a(VMembers
VNNS
tp999
a(Vof
VIN
tp1000
a(VParliament
VNNP
tp1001
a(Vin
VIN
tp1002
a(VDoha
VNNP
tp1003
a(V.
V.
tp1004
aa(lp1005
(VWe
VPRP
tp1006
a(Vneed
VVBP
tp1007
a(Vto
VTO
tp1008
a(Vcreate
VVB
tp1009
a(Va
VDT
tp1010
a(VEuropean
VNNP
tp1011
a(VUnion
VNNP
tp1012
a(Vspace
VNN
tp1013
a(Vbody
VNN
tp1014
a(Vwhich
VWDT
tp1015
a(Vis
VVBZ
tp1016
a(Vseparate
VJJ
tp1017
a(Vfrom
VIN
tp1018
a(Vthe
VDT
tp1019
a(VESA
VNNP
tp1020
a(V:
V:
tp1021
a(Vthe
VDT
tp1022
a(VESA
VNNP
tp1023
a(Vis
VVBZ
tp1024
a(Vsomething
VNN
tp1025
a(Vdifferent
VJJ
tp1026
a(V.
V.
tp1027
aa(lp1028
(VNor
VCC
tp1029
a(Vwould
VMD
tp1030
a(Vsuch
VPDT
tp1031
a(Van
VDT
tp1032
a(Vabundance
VNN
tp1033
a(Vof
VIN
tp1034
a(Vinformation
VNN
tp1035
a(Voffer
VNN
tp1036
a(Vmore
VRBR
tp1037
a(Vprotection
VNN
tp1038
a(V;
V:
tp1039
a(Vin
VIN
tp1040
a(Vfact
VNN
tp1041
a(Vit
VPRP
tp1042
a(Vis
VVBZ
tp1043
a(Vmore
VRBR
tp1044
a(Vlikely
VJJ
tp1045
a(Vto
VTO
tp1046
a(Vdo
VVB
tp1047
a(Vthe
VDT
tp1048
a(Vopposite
VJJ
tp1049
a(Vbecause
VIN
tp1050
a(Vit
VPRP
tp1051
a(Vis
VVBZ
tp1052
a(Vconfusing
VVBG
tp1053
a(V.
V.
tp1054
aa(lp1055
(VWe
VPRP
tp1056
a(Vfound
VVBD
tp1057
a(Vthis
VDT
tp1058
a(Vcommon
VJJ
tp1059
a(Vground
VNN
tp1060
a(Vin
VIN
tp1061
a(Vthe
VDT
tp1062
a(Vdecision
VNN
tp1063
a(Von
VIN
tp1064
a(VEULEX
VNNP
tp1065
a(V,
V,
tp1066
a(Vwhich
VWDT
tp1067
a(Vstipulated
VVBD
tp1068
a(Vthat
VIN
tp1069
a(Vthe
VDT
tp1070
a(Vmission
VNN
tp1071
a(Vwould
VMD
tp1072
a(Vbe
VVB
tp1073
a(Vneutral
VJJ
tp1074
a(Von
VIN
tp1075
a(Vthe
VDT
tp1076
a(Vquestion
VNN
tp1077
a(Vof
VIN
tp1078
a(Vthe
VDT
tp1079
a(Vregime
VNN
tp1080
a(V.
V.
tp1081
aa(lp1082
(VThe
VDT
tp1083
a(Vsystem
VNN
tp1084
a(Vspecifies
VVBZ
tp1085
a(Vlimits
VNNS
tp1086
a(Vand
VCC
tp1087
a(Vreduces
VVBZ
tp1088
a(Vthe
VDT
tp1089
a(Vpossibility
VNN
tp1090
a(Vof
VIN
tp1091
a(Vfalse
VJJ
tp1092
a(Vmarketing
VNN
tp1093
a(V.
V.
tp1094
aa(lp1095
(VIn
VIN
tp1096
a(Vpreparation
VNN
tp1097
a(Vfor
VIN
tp1098
a(Vthis
VDT
tp1099
a(Vsummit
VNN
tp1100
a(Va
VDT
tp1101
a(Vnumber
VNN
tp1102
a(Vof
VIN
tp1103
a(Videas
VNNS
tp1104
a(Vhave
VVBP
tp1105
a(Vbeen
VVBN
tp1106
a(Vfloated
VVBN
tp1107
a(V.
V.
tp1108
aa(lp1109
(VEven
VRB
tp1110
a(Vthe
VDT
tp1111
a(VCommissioner
VNNP
tp1112
a(Vfor
VIN
tp1113
a(VEmployment
VNNP
tp1114
a(Vdeclared
VVBD
tp1115
a(Vsome
VDT
tp1116
a(Vtime
VNN
tp1117
a(Vago
VIN
tp1118
a(V:
V:
tp1119
a(V&apos;
VVB
tp1120
a(VThe
VDT
tp1121
a(Vright
VNN
tp1122
a(Vto
VTO
tp1123
a(Vwork
VVB
tp1124
a(Vin
VIN
tp1125
a(Vanother
VDT
tp1126
a(Vcountry
VNN
tp1127
a(Vis
VVBZ
tp1128
a(Va
VDT
tp1129
a(Vfundamental
VJJ
tp1130
a(Vfreedom
VNN
tp1131
a(Vfor
VIN
tp1132
a(Vpeople
VNNS
tp1133
a(Vin
VIN
tp1134
a(Vthe
VDT
tp1135
a(VEU
VNNP
tp1136
a(V&apos;
VNN
tp1137
a(V.
V.
tp1138
aa(lp1139
(VAll
VPDT
tp1140
a(Vthe
VDT
tp1141
a(Vreports
VNNS
tp1142
a(Vwe
VPRP
tp1143
a(Vwere
VVBD
tp1144
a(Vasked
VVBN
tp1145
a(Vto
VTO
tp1146
a(Vvote
VVB
tp1147
a(Vfor
VIN
tp1148
a(Vas
VIN
tp1149
a(Vpart
VNN
tp1150
a(Vof
VIN
tp1151
a(Vthe
VDT
tp1152
a(V&apos;
VJJ
tp1153
a(Vsupervision
VNN
tp1154
a(V&apos;
VNN
tp1155
a(Vpackage
VNN
tp1156
a(Vhave
VVBP
tp1157
a(Vthe
VDT
tp1158
a(Vsame
VJJ
tp1159
a(Vfault
VNN
tp1160
a(V.
V.
tp1161
aa(lp1162
(VClearly
VRB
tp1163
a(V,
V,
tp1164
a(Vthere
VEX
tp1165
a(Vare
VVBP
tp1166
a(Vcertain
VJJ
tp1167
a(Vparts
VNNS
tp1168
a(Vof
VIN
tp1169
a(Vthe
VDT
tp1170
a(VEU
VNNP
tp1171
a(Vwhere
VWRB
tp1172
a(Vit
VPRP
tp1173
a(Vis
VVBZ
tp1174
a(Vnot
VRB
tp1175
a(Vpossible
VJJ
tp1176
a(Vto
VTO
tp1177
a(Vintroduce
VVB
tp1178
a(Va
VDT
tp1179
a(Vsystem
VNN
tp1180
a(Vof
VIN
tp1181
a(Velectronic
VJJ
tp1182
a(Vtagging
VNN
tp1183
a(V.
V.
tp1184
aa(lp1185
(VThis
VDT
tp1186
a(Vwill
VMD
tp1187
a(Vmake
VVB
tp1188
a(Vit
VPRP
tp1189
a(Vpossible
VJJ
tp1190
a(Vfor
VIN
tp1191
a(Vanyone
VNN
tp1192
a(Vin
VIN
tp1193
a(Vpossession
VNN
tp1194
a(Vof
VIN
tp1195
a(Va
VDT
tp1196
a(Vdocument
VNN
tp1197
a(Vshowing
VVBG
tp1198
a(Vthat
VIN
tp1199
a(Vhe
VPRP
tp1200
a(Vis
VVBZ
tp1201
a(Vlegally
VRB
tp1202
a(Vresident
VJJ
tp1203
a(Vin
VIN
tp1204
a(Va
VDT
tp1205
a(VMember
VNNP
tp1206
a(VState
VNNP
tp1207
a(Vto
VTO
tp1208
a(Vmove
VVB
tp1209
a(Vfreely
VRB
tp1210
a(Vin
VIN
tp1211
a(Vthe
VDT
tp1212
a(VSchengen
VNNP
tp1213
a(Varea
VNN
tp1214
a(Vfor
VIN
tp1215
a(Vshort
VJJ
tp1216
a(Vperiods
VNNS
tp1217
a(Vof
VIN
tp1218
a(Vno
VDT
tp1219
a(Vmore
VJJR
tp1220
a(Vthan
VIN
tp1221
a(Vthree
VCD
tp1222
a(Vmonths
VNNS
tp1223
a(Vin
VIN
tp1224
a(Vany
VDT
tp1225
a(Vhalf
VNN
tp1226
a(Vyear
VNN
tp1227
a(V.
V.
tp1228
aa(lp1229
(VThat
VDT
tp1230
a(Vis
VVBZ
tp1231
a(Vwrong
VJJ
tp1232
a(V;
V:
tp1233
a(Vthey
VPRP
tp1234
a(Vvoted
VVBD
tp1235
a(Vin
VIN
tp1236
a(Vfavour
VNN
tp1237
a(V.
V.
tp1238
aa(lp1239
(VIt
VPRP
tp1240
a(Vis
VVBZ
tp1241
a(V,
V,
tp1242
a(Vby
VIN
tp1243
a(Vfar
VRB
tp1244
a(V,
V,
tp1245
a(Vthe
VDT
tp1246
a(Vbiggest
VJJS
tp1247
a(Vdonor
VNN
tp1248
a(Vto
VTO
tp1249
a(VAfrica
VNNP
tp1250
a(V.
V.
tp1251
aa(lp1252
(VFewer
VJJR
tp1253
a(Vcases
VNNS
tp1254
a(Vhave
VVBP
tp1255
a(Vbeen
VVBN
tp1256
a(Vresolved
VVBN
tp1257
a(Vby
VIN
tp1258
a(Vfriendly
VJJ
tp1259
a(Vsettlement
VNN
tp1260
a(V.
V.
tp1261
aa(lp1262
(VThis
VDT
tp1263
a(Vis
VVBZ
tp1264
a(Va
VDT
tp1265
a(Vman
VNN
tp1266
a(Vwho
VWP
tp1267
a(Vis
VVBZ
tp1268
a(Valready
VRB
tp1269
a(Vin
VIN
tp1270
a(Vprison
VNN
tp1271
a(Vfor
VIN
tp1272
a(Vlife
VNN
tp1273
a(V.
V.
tp1274
aa(lp1275
(VBut
VCC
tp1276
a(Vnevertheless
VRB
tp1277
a(V,
V,
tp1278
a(Vhe
VPRP
tp1279
a(Vstates
VVBZ
tp1280
a(Vit
VPRP
tp1281
a(Vis
VVBZ
tp1282
a(Va
VDT
tp1283
a(Vnecessity
VNN
tp1284
a(Vif
VIN
tp1285
a(Vthe
VDT
tp1286
a(Vcountries
VNNS
tp1287
a(Vwant
VVBP
tp1288
a(Vto
VTO
tp1289
a(Vbe
VVB
tp1290
a(Vable
VJJ
tp1291
a(Vto
VTO
tp1292
a(Vcompete
VVB
tp1293
a(V.
V.
tp1294
aa(lp1295
(VFor
VIN
tp1296
a(Vinstance
VNN
tp1297
a(V,
V,
tp1298
a(Vmonitoring
VVBG
tp1299
a(Vconcentration
VNN
tp1300
a(Vof
VIN
tp1301
a(Vownership
VNN
tp1302
a(Vand
VCC
tp1303
a(Vdominant
VJJ
tp1304
a(Vpositions
VNNS
tp1305
a(Vwill
VMD
tp1306
a(Vbecome
VVB
tp1307
a(Vincreasingly
VRB
tp1308
a(Vimportant
VJJ
tp1309
a(Vin
VIN
tp1310
a(Vview
VNN
tp1311
a(Vof
VIN
tp1312
a(Vglobalisation
VNN
tp1313
a(Vand
VCC
tp1314
a(Vthe
VDT
tp1315
a(Vdevelopment
VNN
tp1316
a(Vof
VIN
tp1317
a(Vnew
VJJ
tp1318
a(Vtechnologies
VNNS
tp1319
a(V.
V.
tp1320
aa(lp1321
(VA
VDT
tp1322
a(Vbattle
VNN
tp1323
a(Vover
VIN
tp1324
a(Vpowers
VNNS
tp1325
a(Vwill
VMD
tp1326
a(Vonly
VRB
tp1327
a(Vhave
VVB
tp1328
a(Va
VDT
tp1329
a(Vdelaying
VNN
tp1330
a(Veffect
VNN
tp1331
a(V.
V.
tp1332
aa(lp1333
(VThey
VPRP
tp1334
a(Varrested
VVBD
tp1335
a(VMs
VNNP
tp1336
a(VPetrova
VNNP
tp1337
a(Vat
VIN
tp1338
a(Vher
VPRP$
tp1339
a(Vhome
VNN
tp1340
a(Vin
VIN
tp1341
a(Vfront
VNN
tp1342
a(Vof
VIN
tp1343
a(Vher
VPRP$
tp1344
a(Vparents
VNNS
tp1345
a(Vand
VCC
tp1346
a(Vtwo
VCD
tp1347
a(Vsmall
VJJ
tp1348
a(Vchildren
VNNS
tp1349
a(V.
V.
tp1350
aa(lp1351
(VI
VPRP
tp1352
a(Vunderstand
VVBP
tp1353
a(Vthat
VDT
tp1354
a(Vwas
VVBD
tp1355
a(Vwhat
VWP
tp1356
a(Vthe
VDT
tp1357
a(Vmoney
VNN
tp1358
a(Vwas
VVBD
tp1359
a(Vactually
VRB
tp1360
a(Vused
VVBN
tp1361
a(Vfor
VIN
tp1362
a(V.
V.
tp1363
aa(lp1364
(VI
VPRP
tp1365
a(Vthink
VVBP
tp1366
a(Veveryone
VNN
tp1367
a(Vwill
VMD
tp1368
a(Vagree
VVB
tp1369
a(Vwith
VIN
tp1370
a(Vwhat
VWP
tp1371
a(Vhas
VVBZ
tp1372
a(Vbeen
VVBN
tp1373
a(Vsaid
VVBN
tp1374
a(V.
V.
tp1375
aa(lp1376
(VYou
VPRP
tp1377
a(Vcan
VMD
tp1378
a(Vunderstand
VVB
tp1379
a(Vthat
VIN
tp1380
a(Vthe
VDT
tp1381
a(Vdifference
VNN
tp1382
a(Vis
VVBZ
tp1383
a(Va
VDT
tp1384
a(Vvery
VRB
tp1385
a(Vsubstantial
VJJ
tp1386
a(Vone
VCD
tp1387
a(V.
V.
tp1388
aa(lp1389
(VHalf
VNN
tp1390
a(Vof
VIN
tp1391
a(Vall
VDT
tp1392
a(Vnew
VJJ
tp1393
a(VHIV
VNN
tp1394
a(Vinfections
VNNS
tp1395
a(Vare
VVBP
tp1396
a(Vin
VIN
tp1397
a(Vpeople
VNNS
tp1398
a(Vunder
VIN
tp1399
a(Vthe
VDT
tp1400
a(Vage
VNN
tp1401
a(Vof
VIN
tp1402
a(V25
VCD
tp1403
a(V.
V.
tp1404
aa(lp1405
(VThere
VEX
tp1406
a(Vyou
VPRP
tp1407
a(Vhave
VVBP
tp1408
a(Vit
VPRP
tp1409
a(V.
V.
tp1410
aa(lp1411
(VA
VDT
tp1412
a(Vrecent
VJJ
tp1413
a(Vstudy
VNN
tp1414
a(Vby
VIN
tp1415
a(VErnst
VNNP
tp1416
a(Vand
VCC
tp1417
a(VYoung
VNNP
tp1418
a(Vhighlights
VVBZ
tp1419
a(Vthis
VDT
tp1420
a(Vconclusion
VNN
tp1421
a(V.
V.
tp1422
aa(lp1423
(VSeveral
VJJ
tp1424
a(Vpeople
VNNS
tp1425
a(Vhave
VVBP
tp1426
a(Vbeen
VVBN
tp1427
a(Vkilled
VVBN
tp1428
a(V.
V.
tp1429
aa(lp1430
(VAccording
VVBG
tp1431
a(Vto
VTO
tp1432
a(Vdata
VNNS
tp1433
a(Vfrom
VIN
tp1434
a(Vthe
VDT
tp1435
a(VWorld
VNNP
tp1436
a(VHealth
VNNP
tp1437
a(VOrganisation
VNNP
tp1438
a(V,
V,
tp1439
a(Varound
VIN
tp1440
a(V2
VCD
tp1441
a(Vmillion
VCD
tp1442
a(VEuropean
VJJ
tp1443
a(Vcitizens
VNNS
tp1444
a(Vdie
VVB
tp1445
a(Vevery
VDT
tp1446
a(Vyear
VNN
tp1447
a(Vfrom
VIN
tp1448
a(Va
VDT
tp1449
a(Vtumour
VNN
tp1450
a(Vand
VCC
tp1451
a(Vin
VIN
tp1452
a(Varound
VIN
tp1453
a(V10
VCD
tp1454
a(V%
VNN
tp1455
a(Vof
VIN
tp1456
a(Vthe
VDT
tp1457
a(Vcases
VNNS
tp1458
a(Vit
VPRP
tp1459
a(Vwas
VVBD
tp1460
a(Vcaused
VVBN
tp1461
a(Vby
VIN
tp1462
a(Vbeing
VVBG
tp1463
a(Vexposed
VVBN
tp1464
a(Vto
VTO
tp1465
a(Vcarcinogenic
VJJ
tp1466
a(Vsubstances
VNNS
tp1467
a(Vat
VIN
tp1468
a(Vwork
VNN
tp1469
a(V.
V.
tp1470
aa(lp1471
(VThe
VDT
tp1472
a(Vsigns
VNNS
tp1473
a(Vwere
VVBD
tp1474
a(Vthere
VRB
tp1475
a(V.
V.
tp1476
aa(lp1477
(VThanks
VNNS
tp1478
a(Vto
VTO
tp1479
a(Van
VDT
tp1480
a(Vunprecedented
VJJ
tp1481
a(Vincrease
VNN
tp1482
a(Vin
VIN
tp1483
a(Vinternational
VJJ
tp1484
a(Vfunding
VNN
tp1485
a(Vin
VIN
tp1486
a(Vthese
VDT
tp1487
a(Vcountries
VNNS
tp1488
a(V,
V,
tp1489
a(Vthe
VDT
tp1490
a(Vnumber
VNN
tp1491
a(Vof
VIN
tp1492
a(Vpeople
VNNS
tp1493
a(Vreceiving
VVBG
tp1494
a(Vtreatment
VNN
tp1495
a(Vhas
VVBZ
tp1496
a(Vconsiderably
VRB
tp1497
a(Vincreased
VVBN
tp1498
a(V,
V,
tp1499
a(Vfrom
VIN
tp1500
a(V100
VCD
tp1501
a(V000
VCD
tp1502
a(Vin
VIN
tp1503
a(V2001
VCD
tp1504
a(Vto
VTO
tp1505
a(V2.5
VCD
tp1506
a(Vmillion
VCD
tp1507
a(Vpeople
VNNS
tp1508
a(Vin
VIN
tp1509
a(V2007
VCD
tp1510
a(V.
V.
tp1511
aa(lp1512
(VIn
VIN
tp1513
a(Vaddition
VNN
tp1514
a(V,
V,
tp1515
a(Vstudents
VNNS
tp1516
a(Vlearn
VVBP
tp1517
a(Vabout
VIN
tp1518
a(Vhistory
VNN
tp1519
a(V.
V.
tp1520
aa(lp1521
(VIf
VIN
tp1522
a(Vpeople
VNNS
tp1523
a(Vare
VVBP
tp1524
a(Vin
VIN
tp1525
a(Vsuch
VJJ
tp1526
a(Vdire
VJJ
tp1527
a(Vstraits
VNNS
tp1528
a(Vas
VIN
tp1529
a(Vto
VTO
tp1530
a(Vthink
VVB
tp1531
a(Vit
VPRP
tp1532
a(Vworth
VJJ
tp1533
a(Vrisking
VVBG
tp1534
a(Vdeath
VNN
tp1535
a(V,
V,
tp1536
a(Vthen
VRB
tp1537
a(Vour
VPRP$
tp1538
a(Vbest
VJJS
tp1539
a(Vefforts
VNNS
tp1540
a(Vwill
VMD
tp1541
a(Vavail
VNN
tp1542
a(Vnothing
VNN
tp1543
a(Vunless
VIN
tp1544
a(Vthe
VDT
tp1545
a(Vcauses
VNNS
tp1546
a(Vare
VVBP
tp1547
a(Vremoved
VVBN
tp1548
a(V.
V.
tp1549
aa(lp1550
(VFree
VNNP
tp1551
a(Vcitizens
VNNS
tp1552
a(Vchoose
VVB
tp1553
a(Vtheir
VPRP$
tp1554
a(Vlifestyles
VNNS
tp1555
a(Vfor
VIN
tp1556
a(Vthemselves
VPRP
tp1557
a(V.
V.
tp1558
aa(lp1559
(VBut
VCC
tp1560
a(Vwe
VPRP
tp1561
a(Vwant
VVBP
tp1562
a(Vto
VTO
tp1563
a(Vsee
VVB
tp1564
a(Vaction
VNN
tp1565
a(V!
V.
tp1566
aa(lp1567
(VOr
VCC
tp1568
a(VIndia
VNNP
tp1569
a(V?
V.
tp1570
aa(lp1571
(VRussia
VNNP
tp1572
a(Vis
VVBZ
tp1573
a(Vstill
VRB
tp1574
a(Va
VDT
tp1575
a(Vcountry
VNN
tp1576
a(Vwhere
VWRB
tp1577
a(Vfreedom
VNN
tp1578
a(Vof
VIN
tp1579
a(Vexpression
VNN
tp1580
a(Vis
VVBZ
tp1581
a(Va
VDT
tp1582
a(Vmyth
VNN
tp1583
a(V.
V.
tp1584
aa(lp1585
(VThe
VDT
tp1586
a(VIsraeli
VJJ
tp1587
a(Vparties
VNNS
tp1588
a(Vtoo
VRB
tp1589
a(Vare
VVBP
tp1590
a(Vlike
VIN
tp1591
a(Vyours
VPRP$
tp1592
a(V;
V:
tp1593
a(Vthey
VPRP
tp1594
a(Vare
VVBP
tp1595
a(VEuropean
VJJ
tp1596
a(V.
V.
tp1597
aa(lp1598
(VIts
VPRP$
tp1599
a(VDirectorGeneral
VNNP
tp1600
a(V,
V,
tp1601
a(VMr
VNNP
tp1602
a(VRuggieri
VNNP
tp1603
a(V,
V,
tp1604
a(Vhas
VVBZ
tp1605
a(Vsaid
VVBN
tp1606
a(Vhimself
VPRP
tp1607
a(Vthat
VIN
tp1608
a(Vthere
VEX
tp1609
a(Vcannot
VFW
tp1610
a(Vbe
VVB
tp1611
a(Vseveral
VJJ
tp1612
a(Voverlapping
VVBG
tp1613
a(Vmodes
VNNS
tp1614
a(Vof
VIN
tp1615
a(Vdispute
VNN
tp1616
a(Vsettlement
VNN
tp1617
a(V.
V.
tp1618
aa(lp1619
(VEvery
VDT
tp1620
a(Vinvestment
VNN
tp1621
a(Vmade
VVBN
tp1622
a(Vin
VIN
tp1623
a(Veducation
VNN
tp1624
a(Vhelps
VVBZ
tp1625
a(Vto
VTO
tp1626
a(Vensure
VVB
tp1627
a(Va
VDT
tp1628
a(Vbetter
VJJR
tp1629
a(Vfuture
VNN
tp1630
a(Vfor
VIN
tp1631
a(Vyoung
VJJ
tp1632
a(Vpeople
VNNS
tp1633
a(V.
V.
tp1634
aa(lp1635
(VThey
VPRP
tp1636
a(Vwould
VMD
tp1637
a(Vbe
VVB
tp1638
a(Vvery
VRB
tp1639
a(Vhappy
VJJ
tp1640
a(Vfor
VIN
tp1641
a(Vyou
VPRP
tp1642
a(Vto
VTO
tp1643
a(Vvisit
VVB
tp1644
a(Vus
VPRP
tp1645
a(Vin
VIN
tp1646
a(Vthe
VDT
tp1647
a(Vnorth-west
VNN
tp1648
a(V.
V.
tp1649
aa(lp1650
(VYou
VPRP
tp1651
a(Vcannot
VVBP
tp1652
a(Vmake
VVB
tp1653
a(Vpeace
VNN
tp1654
a(Vwithout
VIN
tp1655
a(Vtalking
VVBG
tp1656
a(Vto
VTO
tp1657
a(Vyour
VPRP$
tp1658
a(Venemies
VNNS
tp1659
a(V,
V,
tp1660
a(Vyet
VRB
tp1661
a(Vwe
VPRP
tp1662
a(Vrefuse
VVBP
tp1663
a(Vto
VTO
tp1664
a(Vtalk
VVB
tp1665
a(Vto
VTO
tp1666
a(Vthe
VDT
tp1667
a(Velected
VVBN
tp1668
a(Vrepresentatives
VNNS
tp1669
a(Vof
VIN
tp1670
a(Vthe
VDT
tp1671
a(VPalestinian
VJJ
tp1672
a(Vpeople
VNNS
tp1673
a(V.
V.
tp1674
aa(lp1675
(VIn
VIN
tp1676
a(Va
VDT
tp1677
a(Vcompetitive
VJJ
tp1678
a(Vmarket
VNN
tp1679
a(Vthe
VDT
tp1680
a(Ventrepreneur
VNN
tp1681
a(Vknows
VVBZ
tp1682
a(Vthat
VIN
tp1683
a(Vhe
VPRP
tp1684
a(Vrisks
VVBZ
tp1685
a(Vlosing
VVBG
tp1686
a(Vhis
VPRP$
tp1687
a(Vmarket
VNN
tp1688
a(Vposition
VNN
tp1689
a(V,
V,
tp1690
a(Vand
VCC
tp1691
a(Vwith
VIN
tp1692
a(Vit
VPRP
tp1693
a(Vhis
VPRP$
tp1694
a(Vprofits
VNNS
tp1695
a(Vand
VCC
tp1696
a(Vprospects
VNNS
tp1697
a(Vof
VIN
tp1698
a(Vfurther
VJJ
tp1699
a(Vdevelopment
VNN
tp1700
a(V.
V.
tp1701
aa(lp1702
(VIt
VPRP
tp1703
a(Vmay
VMD
tp1704
a(Vsound
VVB
tp1705
a(Va
VDT
tp1706
a(Vlot
VNN
tp1707
a(V,
V,
tp1708
a(Vbut
VCC
tp1709
a(Vit
VPRP
tp1710
a(Vis
VVBZ
tp1711
a(Vactually
VRB
tp1712
a(Vinsufficient
VJJ
tp1713
a(V.
V.
tp1714
aa(lp1715
(VCurrently
VRB
tp1716
a(V,
V,
tp1717
a(Vwe
VPRP
tp1718
a(Vhave
VVBP
tp1719
a(Van
VDT
tp1720
a(Vissuer-pays
VJJ
tp1721
a(Vmodel
VNN
tp1722
a(V.
V.
tp1723
aa(lp1724
(VDespite
VIN
tp1725
a(VMugabe
VNNP
tp1726
a(V&apos;s
VVBZ
tp1727
a(Vtactical
VJJ
tp1728
a(Vvictory
VNN
tp1729
a(Vat
VIN
tp1730
a(Vthe
VDT
tp1731
a(Vcentral
VJJ
tp1732
a(Vcommittee
VNN
tp1733
a(Vmeeting
VNN
tp1734
a(Von
VIN
tp1735
a(V30
VCD
tp1736
a(VMarch
VNNP
tp1737
a(V,
V,
tp1738
a(Vwhich
VWDT
tp1739
a(Vgave
VVBD
tp1740
a(Vhim
VPRP
tp1741
a(Vthe
VDT
tp1742
a(Vnomination
VNN
tp1743
a(Vas
VIN
tp1744
a(Va
VDT
tp1745
a(VPresidential
VJJ
tp1746
a(Vcandidate
VNN
tp1747
a(Vin
VIN
tp1748
a(V2008
VCD
tp1749
a(Vand
VCC
tp1750
a(Vthereby
VRB
tp1751
a(Vweakened
VVBD
tp1752
a(Vthe
VDT
tp1753
a(Vposition
VNN
tp1754
a(Vof
VIN
tp1755
a(Vhis
VPRP$
tp1756
a(Vcritics
VNNS
tp1757
a(Vwithin
VIN
tp1758
a(Vthe
VDT
tp1759
a(Vparty
VNN
tp1760
a(V,
V,
tp1761
a(Vthe
VDT
tp1762
a(Vfeeling
VNN
tp1763
a(Vin
VIN
tp1764
a(VZimbabwe
VNNP
tp1765
a(Vis
VVBZ
tp1766
a(Vthat
VIN
tp1767
a(Va
VDT
tp1768
a(Vsort
VNN
tp1769
a(Vof
VIN
tp1770
a(Vapocalyptic
VJJ
tp1771
a(Vmood
VNN
tp1772
a(Vseems
VVBZ
tp1773
a(Vto
VTO
tp1774
a(Vbe
VVB
tp1775
a(Vholding
VVBG
tp1776
a(Vsway
VVB
tp1777
a(V.
V.
tp1778
aa(lp1779
(VThis
VDT
tp1780
a(Vwill
VMD
tp1781
a(Vbe
VVB
tp1782
a(Va
VDT
tp1783
a(Vgood
VJJ
tp1784
a(Vbreakthrough
VNN
tp1785
a(V,
V,
tp1786
a(Vespecially
VRB
tp1787
a(Vfor
VIN
tp1788
a(Vthe
VDT
tp1789
a(Vnew
VJJ
tp1790
a(VMember
VNNP
tp1791
a(VStates
VNNPS
tp1792
a(V.
V.
tp1793
aa.