(lp1
(lp2
(VNor
VCC
tp3
a(Vshould
VMD
tp4
a(Vwe
VPRP
tp5
a(Vlabel
VVB
tp6
a(Vmeat
VNN
tp7
a(V,
V,
tp8
a(Veggs
VNNS
tp9
a(Vor
VCC
tp10
a(Vmilk
VNN
tp11
a(Vfrom
VIN
tp12
a(Vanimals
VNNS
tp13
a(Vfed
VVBN
tp14
a(Vwith
VIN
tp15
a(VGM
VNNP
tp16
a(Vfeed
VNN
tp17
a(Vat
VIN
tp18
a(Vany
VDT
tp19
a(Vpoint
VNN
tp20
a(V,
V,
tp21
a(Vbecause
VIN
tp22
a(Vthis
VDT
tp23
a(Vis
VVBZ
tp24
a(Vmisleading
VVBG
tp25
a(Vfor
VIN
tp26
a(Vconsumers
VNNS
tp27
a(V.
V.
tp28
aa(lp29
(VThat
VDT
tp30
a(Vis
VVBZ
tp31
a(Vexactly
VRB
tp32
a(Vwhat
VWP
tp33
a(Vthe
VDT
tp34
a(Vrapporteur
VNN
tp35
a(Vis
VVBZ
tp36
a(Vnow
VRB
tp37
a(Vobserving
VVBG
tp38
a(V.
V.
tp39
aa(lp40
(VWe
VPRP
tp41
a(Vhave
VVBP
tp42
a(Vno
VDT
tp43
a(Vchoice
VNN
tp44
a(V,
V,
tp45
a(Vhowever
VRB
tp46
a(V,
V,
tp47
a(Vbut
VCC
tp48
a(Vto
VTO
tp49
a(Vpoint
VVB
tp50
a(Vout
VRP
tp51
a(Vthat
VIN
tp52
a(Vthe
VDT
tp53
a(Vcompromise
VNN
tp54
a(Vsupported
VVBN
tp55
a(Vby
VIN
tp56
a(Vthe
VDT
tp57
a(Vconservatives
VNNS
tp58
a(Vand
VCC
tp59
a(Vthe
VDT
tp60
a(Vmajority
VNN
tp61
a(Vof
VIN
tp62
a(Vthe
VDT
tp63
a(Vliberals
VNNS
tp64
a(Vdoes
VVBZ
tp65
a(Vnot
VRB
tp66
a(Vbring
VVB
tp67
a(Vany
VDT
tp68
a(Vimprovements
VNNS
tp69
a(Vin
VIN
tp70
a(Vthis
VDT
tp71
a(Varea
VNN
tp72
a(V.
V.
tp73
aa(lp74
(VIt
VPRP
tp75
a(Vis
VVBZ
tp76
a(Vnow
VRB
tp77
a(Van
VDT
tp78
a(Vissue
VNN
tp79
a(Vof
VIN
tp80
a(Vmajor
VJJ
tp81
a(Vglobal
VJJ
tp82
a(Vsignificance
VNN
tp83
a(Vwhich
VWDT
tp84
a(Vneeds
VVBZ
tp85
a(Vto
VTO
tp86
a(Vbe
VVB
tp87
a(Vput
VVBN
tp88
a(Vhigher
VJJR
tp89
a(Vup
VIN
tp90
a(Vthe
VDT
tp91
a(Vinternational
VJJ
tp92
a(Vagenda
VNN
tp93
a(V.
V.
tp94
aa(lp95
(VSecondly
VRB
tp96
a(V,
V,
tp97
a(Vthe
VDT
tp98
a(Vofficials
VNNS
tp99
a(Vare
VVBP
tp100
a(Valso
VRB
tp101
a(Vguilty
VJJ
tp102
a(V-
V:
tp103
a(Vif
VIN
tp104
a(Vthey
VPRP
tp105
a(Vare
VVBP
tp106
a(Vofficials
VNNS
tp107
a(V-
V:
tp108
a(Vwho
VWP
tp109
a(Vare
VVBP
tp110
a(Vresponsible
VJJ
tp111
a(Vfor
VIN
tp112
a(Vthe
VDT
tp113
a(Vapparent
VJJ
tp114
a(Vleak
VNN
tp115
a(V,
V,
tp116
a(Vsince
VIN
tp117
a(Vthis
VDT
tp118
a(Vhas
VVBZ
tp119
a(Vdone
VVBN
tp120
a(Venormous
VJJ
tp121
a(Vdamage
VNN
tp122
a(Vto
VTO
tp123
a(Vthe
VDT
tp124
a(Vadministration
VNN
tp125
a(V.
V.
tp126
aa(lp127
(VFirst
VRB
tp128
a(V,
V,
tp129
a(Vwe
VPRP
tp130
a(Vneed
VVBP
tp131
a(Vto
VTO
tp132
a(Vovercome
VVB
tp133
a(Vthe
VDT
tp134
a(Vimbalances
VNNS
tp135
a(Vresulting
VVBG
tp136
a(Vfrom
VIN
tp137
a(Vthe
VDT
tp138
a(Vincreasing
VVBG
tp139
a(Vdivergence
VNN
tp140
a(Vbetween
VIN
tp141
a(Vlife
VNN
tp142
a(Vexpectancy
VNN
tp143
a(Vand
VCC
tp144
a(Vretirement
VNN
tp145
a(Vages
VNNS
tp146
a(V.
V.
tp147
aa(lp148
(VHowever
VRB
tp149
a(V,
V,
tp150
a(Vhere
VRB
tp151
a(Vwe
VPRP
tp152
a(Vhave
VVBP
tp153
a(Va
VDT
tp154
a(Vsituation
VNN
tp155
a(Vwhere
VWRB
tp156
a(Vthe
VDT
tp157
a(Vburden
VNN
tp158
a(Vof
VIN
tp159
a(Vrecession
VNN
tp160
a(Vis
VVBZ
tp161
a(Vcausing
VVBG
tp162
a(Vunpredictable
VJJ
tp163
a(Veffects
VNNS
tp164
a(Vwith
VIN
tp165
a(Va
VDT
tp166
a(Vmajor
VJJ
tp167
a(Vgeopolitical
VJJ
tp168
a(Vimpact
VNN
tp169
a(V.
V.
tp170
aa(lp171
(VFree
VNNP
tp172
a(VPadania
VNNP
tp173
a(V!
V.
tp174
aa(lp175
(VMy
VPRP$
tp176
a(Vcountry
VNN
tp177
a(V,
V,
tp178
a(VMalta
VNNP
tp179
a(V,
V,
tp180
a(Valso
VRB
tp181
a(Vwent
VVBD
tp182
a(Vthrough
VIN
tp183
a(Va
VDT
tp184
a(Vsimilar
VJJ
tp185
a(Vchange
VNN
tp186
a(V.
V.
tp187
aa(lp188
(VAs
VIN
tp189
a(Vyou
VPRP
tp190
a(Vknow
VVBP
tp191
a(V,
V,
tp192
a(Vthe
VDT
tp193
a(VCommission
VNNP
tp194
a(Vwelcomes
VVBZ
tp195
a(Vall
VDT
tp196
a(Vefforts
VNNS
tp197
a(Vto
VTO
tp198
a(Vcombat
VVB
tp199
a(Vdoping
VNN
tp200
a(V.
V.
tp201
aa(lp202
(VSpeak
VVB
tp203
a(Vto
VTO
tp204
a(Vany
VDT
tp205
a(VArgentine
VJJ
tp206
a(Vpolitician
VNN
tp207
a(V,
V,
tp208
a(Vwhether
VIN
tp209
a(Vfrom
VIN
tp210
a(Vthe
VDT
tp211
a(Vleft
VNN
tp212
a(Vor
VCC
tp213
a(Vthe
VDT
tp214
a(Vright
VNN
tp215
a(V,
V,
tp216
a(Vand
VCC
tp217
a(Vthey
VPRP
tp218
a(Vwill
VMD
tp219
a(Vtell
VVB
tp220
a(Vyou
VPRP
tp221
a(Vexactly
VRB
tp222
a(Vwhat
VWP
tp223
a(Vhavoc
VNN
tp224
a(Vinternational
VJJ
tp225
a(Vfinance
VNN
tp226
a(Vpolicy
VNN
tp227
a(Vcan
VMD
tp228
a(Vwreak
VVB
tp229
a(Vin
VIN
tp230
a(Va
VDT
tp231
a(Vcountry
VNN
tp232
a(V!
V.
tp233
aa(lp234
(VLadies
VNNP
tp235
a(Vand
VCC
tp236
a(Vgentlemen
VNNS
tp237
a(V,
V,
tp238
a(Vunfortunately
VRB
tp239
a(V,
V,
tp240
a(VI
VPRP
tp241
a(Vhave
VVBP
tp242
a(Vto
VTO
tp243
a(Vleave
VVB
tp244
a(Vyou
VPRP
tp245
a(Vnow
VRB
tp246
a(Vfor
VIN
tp247
a(Vthe
VDT
tp248
a(Vreasons
VNNS
tp249
a(VI
VPRP
tp250
a(Vgave
VVBD
tp251
a(Vearlier
VRBR
tp252
a(V,
V,
tp253
a(Vi.e.
VFW
tp254
a(Vto
VTO
tp255
a(Vattend
VVB
tp256
a(Vthe
VDT
tp257
a(Vswearing
VNN
tp258
a(Vin
VIN
tp259
a(Vof
VIN
tp260
a(Vthe
VDT
tp261
a(VCommissioners
VNNS
tp262
a(V.
V.
tp263
aa(lp264
(VWhen
VWRB
tp265
a(Vyou
VPRP
tp266
a(Vstood
VVBD
tp267
a(Vhere
VRB
tp268
a(Vlast
VJJ
tp269
a(V,
V,
tp270
a(Vyou
VPRP
tp271
a(Vspoke
VVBD
tp272
a(Vabout
VIN
tp273
a(Vthe
VDT
tp274
a(Vneed
VNN
tp275
a(Vfor
VIN
tp276
a(Va
VDT
tp277
a(Vreform
VNN
tp278
a(Vof
VIN
tp279
a(Vthe
VDT
tp280
a(Vtrade
VNN
tp281
a(Vprotection
VNN
tp282
a(Vinstruments
VNNS
tp283
a(V.
V.
tp284
aa(lp285
(VOn
VIN
tp286
a(V1
VCD
tp287
a(VOctober
VNNP
tp288
a(Vlast
VJJ
tp289
a(Vyear
VNN
tp290
a(V,
V,
tp291
a(VMumia
VNNP
tp292
a(VAbu-Jamal
VNNP
tp293
a(V&apos;s
VVBZ
tp294
a(Vlawyers
VNNS
tp295
a(Vsubmitted
VVBD
tp296
a(Van
VDT
tp297
a(Vappeal
VNN
tp298
a(Vfor
VIN
tp299
a(Vthe
VDT
tp300
a(Vcase
VNN
tp301
a(Vto
VTO
tp302
a(Vbe
VVB
tp303
a(Vretried
VVBN
tp304
a(Vby
VIN
tp305
a(Vthe
VDT
tp306
a(VSupreme
VNNP
tp307
a(VCourt
VNNP
tp308
a(Vof
VIN
tp309
a(Vthe
VDT
tp310
a(VState
VNN
tp311
a(Vof
VIN
tp312
a(VPennsylvania
VNNP
tp313
a(V.
V.
tp314
aa(lp315
(VWe
VPRP
tp316
a(Vowe
VVBP
tp317
a(Vit
VPRP
tp318
a(Vto
VTO
tp319
a(Vourselves
VPRP
tp320
a(V,
V,
tp321
a(Vbut
VCC
tp322
a(V,
V,
tp323
a(Vmost
VJJS
tp324
a(Vof
VIN
tp325
a(Vall
VDT
tp326
a(V,
V,
tp327
a(Vwe
VPRP
tp328
a(Vowe
VVBP
tp329
a(Vit
VPRP
tp330
a(Vto
VTO
tp331
a(Va
VDT
tp332
a(Vwonderful
VJJ
tp333
a(Vlittle
VJJ
tp334
a(Vboy
VNN
tp335
a(Vfrom
VIN
tp336
a(VKosovo
VNNP
tp337
a(Vcalled
VVBD
tp338
a(VFelt
VNNP
tp339
a(Vwho
VWP
tp340
a(Vsaid
VVBD
tp341
a(Vto
VTO
tp342
a(Vme
VPRP
tp343
a(Vwhile
VIN
tp344
a(Vwe
VPRP
tp345
a(Vwere
VVBD
tp346
a(Veating
VVBG
tp347
a(Van
VDT
tp348
a(Vice-cream
VJJ
tp349
a(Vone
VCD
tp350
a(Vday
VNN
tp351
a(V:
V:
tp352
a(V&apos;
VVB
tp353
a(VThis
VDT
tp354
a(Vwar
VNN
tp355
a(Vhas
VVBZ
tp356
a(Vturned
VVBN
tp357
a(Vus
VPRP
tp358
a(Vall
VDT
tp359
a(Vinto
VIN
tp360
a(Vnastier
VJJR
tp361
a(Vpeople
VNNS
tp362
a(V&apos;
VVBP
tp363
a(V.
V.
tp364
aa(lp365
(VThis
VDT
tp366
a(Vcrisis
VNN
tp367
a(Vextends
VVBZ
tp368
a(Vfar
VRB
tp369
a(Vbeyond
VIN
tp370
a(Vthe
VDT
tp371
a(Vpolitical
VJJ
tp372
a(Vdeadlock
VNN
tp373
a(Vand
VCC
tp374
a(Vthe
VDT
tp375
a(Vbattles
VNNS
tp376
a(Vbetween
VIN
tp377
a(Vkey
VJJ
tp378
a(Vpolitical
VJJ
tp379
a(Vfigures
VNNS
tp380
a(V.
V.
tp381
aa(lp382
(VThere
VEX
tp383
a(Vis
VVBZ
tp384
a(Va
VDT
tp385
a(Vconsiderable
VJJ
tp386
a(Vcoverage
VNN
tp387
a(Vof
VIN
tp388
a(Vthe
VDT
tp389
a(Vcar
VNN
tp390
a(Vor
VCC
tp391
a(Vbus
VNN
tp392
a(Vmarket
VNN
tp393
a(V.
V.
tp394
aa(lp395
(VThis
VDT
tp396
a(Vresolution
VNN
tp397
a(V,
V,
tp398
a(Vfor
VIN
tp399
a(Vwhich
VWDT
tp400
a(VI
VPRP
tp401
a(Vvoted
VVBD
tp402
a(V,
V,
tp403
a(Vacknowledges
VVBZ
tp404
a(Vthat
VIN
tp405
a(Vseveral
VJJ
tp406
a(Vof
VIN
tp407
a(Vthe
VDT
tp408
a(VSBA
VNN
tp409
a(V&apos;s
VNNS
tp410
a(Vinitiatives
VNNS
tp411
a(Vhave
VVBP
tp412
a(Vbeen
VVBN
tp413
a(Vlaunched
VVBN
tp414
a(V.
V.
tp415
aa(lp416
(VOver
VIN
tp417
a(V60
VCD
tp418
a(V%
VNN
tp419
a(Vof
VIN
tp420
a(Vthem
VPRP
tp421
a(Vare
VVBP
tp422
a(Vaged
VVBN
tp423
a(Vover
VIN
tp424
a(V55
VCD
tp425
a(V.
V.
tp426
aa(lp427
(VWe
VPRP
tp428
a(Vare
VVBP
tp429
a(Veating
VVBG
tp430
a(Vtoo
VRB
tp431
a(Vmuch
VJJ
tp432
a(Vfat
VNN
tp433
a(V,
V,
tp434
a(Vsugar
VNN
tp435
a(Vand
VCC
tp436
a(Vsalt
VNN
tp437
a(V,
V,
tp438
a(Vand
VCC
tp439
a(Vit
VPRP
tp440
a(Vis
VVBZ
tp441
a(Vcontributing
VVBG
tp442
a(Vto
VTO
tp443
a(Vheart
VNN
tp444
a(Vdisease
VNN
tp445
a(V,
V,
tp446
a(Vdiabetes
VNN
tp447
a(V,
V,
tp448
a(Vincreased
VVBD
tp449
a(Vrisk
VNN
tp450
a(Vof
VIN
tp451
a(Vcancer
VNN
tp452
a(V,
V,
tp453
a(Vstrokes
VNNS
tp454
a(V,
V,
tp455
a(Vliver
VNN
tp456
a(Vdisease
VNN
tp457
a(Vand
VCC
tp458
a(Veven
VRB
tp459
a(Vdepression
VNN
tp460
a(V.
V.
tp461
aa(lp462
(VWhy
VWRB
tp463
a(Vdo
VVBP
tp464
a(Vthe
VDT
tp465
a(VUnited
VNNP
tp466
a(VNations
VNNPS
tp467
a(Vnot
VRB
tp468
a(Vrecognise
VVB
tp469
a(Vthe
VDT
tp470
a(VIndonesian
VJJ
tp471
a(Voccupation
VNN
tp472
a(V?
V.
tp473
aa(lp474
(VHowever
VRB
tp475
a(V,
V,
tp476
a(Vit
VPRP
tp477
a(Vis
VVBZ
tp478
a(Vhaving
VVBG
tp479
a(Vno
VDT
tp480
a(Vreal
VJJ
tp481
a(Veffect
VNN
tp482
a(V.
V.
tp483
aa(lp484
(VSerbia
VNNP
tp485
a(V,
V,
tp486
a(Vwhich
VWDT
tp487
a(Vformally
VRB
tp488
a(Vowns
VVBZ
tp489
a(VKosovo
VNNP
tp490
a(V,
V,
tp491
a(Vdid
VVBD
tp492
a(Vnot
VRB
tp493
a(Vagree
VVB
tp494
a(Vto
VTO
tp495
a(Vindependence
VNN
tp496
a(Vfor
VIN
tp497
a(Vthe
VDT
tp498
a(Vprovince
VNN
tp499
a(V.
V.
tp500
aa(lp501
(VThe
VDT
tp502
a(Vdoor
VNN
tp503
a(Vhas
VVBZ
tp504
a(Vnot
VRB
tp505
a(Vbeen
VVBN
tp506
a(Vclosed
VVBN
tp507
a(Vto
VTO
tp508
a(VTurkey
VNNP
tp509
a(V-
V:
tp510
a(Vin
VIN
tp511
a(Vfact
VNN
tp512
a(V,
V,
tp513
a(Vquite
VRB
tp514
a(Vthe
VDT
tp515
a(Vopposite
VJJ
tp516
a(V.
V.
tp517
aa(lp518
(VIt
VPRP
tp519
a(Vis
VVBZ
tp520
a(Vnot
VRB
tp521
a(V,
V,
tp522
a(Vtherefore
VRB
tp523
a(V,
V,
tp524
a(Vlogical
VJJ
tp525
a(Vthat
VIN
tp526
a(Va
VDT
tp527
a(Vfund
VNN
tp528
a(Vto
VTO
tp529
a(Vsupport
VVB
tp530
a(Vnature
VNN
tp531
a(Vprotection
VNN
tp532
a(Vactivities
VNNS
tp533
a(Vuses
VVBZ
tp534
a(Vpopulation
VNN
tp535
a(Vdensity
VNN
tp536
a(V,
V,
tp537
a(Vbut
VCC
tp538
a(Vnot
VRB
tp539
a(Vthe
VDT
tp540
a(Vcurrent
VJJ
tp541
a(Vpreservation
VNN
tp542
a(Vstatus
VNN
tp543
a(Vof
VIN
tp544
a(Vnatural
VJJ
tp545
a(Vresources
VNNS
tp546
a(V,
V,
tp547
a(Vas
VIN
tp548
a(Va
VDT
tp549
a(Vcriterion
VNN
tp550
a(Vfor
VIN
tp551
a(Vfunding
VNN
tp552
a(V.
V.
tp553
aa(lp554
(VThe
VDT
tp555
a(Vworld
VNN
tp556
a(Vtoday
VNN
tp557
a(Vdoes
VVBZ
tp558
a(Vlook
VVB
tp559
a(Vvery
VRB
tp560
a(Vdifferent
VJJ
tp561
a(Vto
VTO
tp562
a(Vthe
VDT
tp563
a(Vway
VNN
tp564
a(Vit
VPRP
tp565
a(Vdid
VVBD
tp566
a(Vten
VCD
tp567
a(Vyears
VNNS
tp568
a(Vago
VRB
tp569
a(V.
V.
tp570
aa(lp571
(VIt
VPRP
tp572
a(Vis
VVBZ
tp573
a(Vclosing
VVBG
tp574
a(Vits
VPRP$
tp575
a(Vdoors
VNNS
tp576
a(Vto
VTO
tp577
a(Vus
VPRP
tp578
a(V&apos;
VVBP
tp579
a(V.
V.
tp580
aa(lp581
(VIt
VPRP
tp582
a(Vis
VVBZ
tp583
a(Vthis
VDT
tp584
a(Vthat
VIN
tp585
a(Vgives
VVBZ
tp586
a(Vrise
VNN
tp587
a(Vto
VTO
tp588
a(Vthe
VDT
tp589
a(VEuropean
VJJ
tp590
a(VBanking
VNNP
tp591
a(VAuthority
VNNP
tp592
a(V.
V.
tp593
aa(lp594
(VThemistocles
VNNP
tp595
a(VKoltsidopoulos
VNNP
tp596
a(V,
V,
tp597
a(Va
VDT
tp598
a(VGreek
VJJ
tp599
a(Vnational
VJJ
tp600
a(Vstudying
VVBG
tp601
a(Vat
VIN
tp602
a(Vthe
VDT
tp603
a(VUniversity
VNNP
tp604
a(Vof
VIN
tp605
a(VPiraeus
VNNP
tp606
a(V,
V,
tp607
a(Vwas
VVBD
tp608
a(Vtravelling
VVBG
tp609
a(Vto
VTO
tp610
a(VScotland
VNNP
tp611
a(Von
VIN
tp612
a(Va
VDT
tp613
a(VKLM
VNNP
tp614
a(Vflight
VNN
tp615
a(Vvia
VIN
tp616
a(VAmsterdam
VNNP
tp617
a(V.
V.
tp618
aa(lp619
(VAnd
VCC
tp620
a(Vit
VPRP
tp621
a(Vis
VVBZ
tp622
a(Vto
VTO
tp623
a(VIsrael
VNNP
tp624
a(V&apos;s
VNNS
tp625
a(Vadvantage
VNN
tp626
a(V.
V.
tp627
aa(lp628
(VThe
VDT
tp629
a(VLuxembourg
VNNP
tp630
a(Vpresidency
VNN
tp631
a(Vhas
VVBZ
tp632
a(Vtaken
VVBN
tp633
a(Von
VIN
tp634
a(Va
VDT
tp635
a(Vhuge
VJJ
tp636
a(Vresponsibility
VNN
tp637
a(V.
V.
tp638
aa(lp639
(VPoland
VNNP
tp640
a(Vsurvived
VVBD
tp641
a(Vtwo
VCD
tp642
a(Vtotalitarian
VJJ
tp643
a(Vregimes
VNNS
tp644
a(V,
V,
tp645
a(Vand
VCC
tp646
a(Vthis
VDT
tp647
a(Vis
VVBZ
tp648
a(Vwhy
VWRB
tp649
a(Vit
VPRP
tp650
a(Vhas
VVBZ
tp651
a(Vtaken
VVBN
tp652
a(Vit
VPRP
tp653
a(Vupon
VIN
tp654
a(Vitself
VPRP
tp655
a(Vto
VTO
tp656
a(Vsound
VVB
tp657
a(Va
VDT
tp658
a(Vwarning
VNN
tp659
a(Vagainst
VIN
tp660
a(Vwhat
VWP
tp661
a(Vthe
VDT
tp662
a(VHoly
VNNP
tp663
a(VFather
VNNP
tp664
a(Vhas
VVBZ
tp665
a(Vtermed
VVBN
tp666
a(Vthe
VDT
tp667
a(Vcivilisation
VNN
tp668
a(Vof
VIN
tp669
a(Vdeath
VNN
tp670
a(V.
V.
tp671
aa(lp672
(VThat
VDT
tp673
a(Vwas
VVBD
tp674
a(Vthe
VDT
tp675
a(Vday
VNN
tp676
a(Vbefore
VIN
tp677
a(Vhe
VPRP
tp678
a(Vwas
VVBD
tp679
a(Vto
VTO
tp680
a(Vbe
VVB
tp681
a(Velected
VVBN
tp682
a(Vhere
VRB
tp683
a(Vin
VIN
tp684
a(Vthis
VDT
tp685
a(VHouse
VNNP
tp686
a(V.
V.
tp687
aa(lp688
(VThat
VDT
tp689
a(Vletter
VNN
tp690
a(Varrived
VVBD
tp691
a(Vafter
VIN
tp692
a(VGovernor
VNN
tp693
a(VTaseer
VNNP
tp694
a(V&apos;s
VNNS
tp695
a(Vmurder
VNN
tp696
a(V.
V.
tp697
aa(lp698
(VI
VPRP
tp699
a(Vhave
VVBP
tp700
a(Vanswered
VVBN
tp701
a(Vthat
VIN
tp702
a(Vquestion
VNN
tp703
a(V.
V.
tp704
aa(lp705
(VThe
VDT
tp706
a(Vinstitute
VNN
tp707
a(Vin
VIN
tp708
a(Vquestion
VNN
tp709
a(Vwill
VMD
tp710
a(Vbe
VVB
tp711
a(Vfinanced
VVBN
tp712
a(Vby
VIN
tp713
a(VRussia
VNNP
tp714
a(V.
V.
tp715
aa(lp716
(VThe
VDT
tp717
a(VBarcelona
VNNP
tp718
a(VProcess
VVB
tp719
a(Vis
VVBZ
tp720
a(Vbased
VVBN
tp721
a(Von
VIN
tp722
a(Vthe
VDT
tp723
a(Vprinciple
VNN
tp724
a(Vof
VIN
tp725
a(Vmutual
VJJ
tp726
a(Vbenefit
VNN
tp727
a(V.
V.
tp728
aa(lp729
(VThe
VDT
tp730
a(VMinistry
VNNP
tp731
a(Vof
VIN
tp732
a(VInterior
VNNP
tp733
a(V,
V,
tp734
a(Vtogether
VRB
tp735
a(Vwith
VIN
tp736
a(Vcertain
VJJ
tp737
a(Vprivate
VJJ
tp738
a(Vcompanies
VNNS
tp739
a(V,
V,
tp740
a(Vare
VVBP
tp741
a(Vripping
VVBG
tp742
a(Voff
VRP
tp743
a(VBulgarian
VJJ
tp744
a(Vtaxpayers
VNNS
tp745
a(V,
V,
tp746
a(Vthey
VPRP
tp747
a(Vare
VVBP
tp748
a(Vrobbing
VVBG
tp749
a(Vthem
VPRP
tp750
a(Vsystematically
VRB
tp751
a(V,
V,
tp752
a(Vand
VCC
tp753
a(Vthen
VRB
tp754
a(Von
VIN
tp755
a(Va
VDT
tp756
a(Vhuge
VJJ
tp757
a(Vscale
VNN
tp758
a(V.
V.
tp759
aa(lp760
(VThere
VEX
tp761
a(Vis
VVBZ
tp762
a(Vno
VDT
tp763
a(Vprospect
VNN
tp764
a(Vof
VIN
tp765
a(Vdemocracy
VNN
tp766
a(Vthere
VRB
tp767
a(V.
V.
tp768
aa(lp769
(VBut
VCC
tp770
a(Vwe
VPRP
tp771
a(Vcannot
VVBP
tp772
a(Vsimply
VRB
tp773
a(Vsit
VVB
tp774
a(Vback
VRB
tp775
a(Vand
VCC
tp776
a(Venjoy
VVB
tp777
a(Vwhat
VWP
tp778
a(Vwe
VPRP
tp779
a(Vhave
VVBP
tp780
a(V.
V.
tp781
aa(lp782
(VMine
VNNP
tp783
a(Vclosures
VNNS
tp784
a(Voften
VRB
tp785
a(Vmean
VVBP
tp786
a(Vthe
VDT
tp787
a(Vend
VNN
tp788
a(Vof
VIN
tp789
a(Van
VDT
tp790
a(Varea
VNN
tp791
a(V&apos;s
VNNS
tp792
a(Vmain
VJJ
tp793
a(Vsource
VNN
tp794
a(Vof
VIN
tp795
a(Vlivelihood
VNN
tp796
a(V.
V.
tp797
aa(lp798
(VEurope
VNNP
tp799
a(Vrepresents
VVBZ
tp800
a(Vsocial
VJJ
tp801
a(Vwelfare
VNN
tp802
a(V,
V,
tp803
a(Vyet
VRB
tp804
a(Vwe
VPRP
tp805
a(Vare
VVBP
tp806
a(Vabandoning
VVBG
tp807
a(Vthe
VDT
tp808
a(Vbanana
VNN
tp809
a(Vworkers
VNNS
tp810
a(V,
V,
tp811
a(Vpaid
VVBN
tp812
a(VEUR
V$
tp813
a(V10
VCD
tp814
a(Vper
VIN
tp815
a(Vhour
VNN
tp816
a(V,
V,
tp817
a(Vin
VIN
tp818
a(Vfavour
VNN
tp819
a(Vof
VIN
tp820
a(Vthe
VDT
tp821
a(Vslaves
VNNS
tp822
a(Vof
VIN
tp823
a(Vthe
VDT
tp824
a(Vmultinationals
VNNS
tp825
a(V,
V,
tp826
a(Vpaid
VVBN
tp827
a(VEUR
V$
tp828
a(V2
VCD
tp829
a(Vper
VIN
tp830
a(Vhour
VNN
tp831
a(V.
V.
tp832
aa(lp833
(VI
VPRP
tp834
a(Vbelieve
VVBP
tp835
a(V,
V,
tp836
a(Vhowever
VRB
tp837
a(V,
V,
tp838
a(Vthat
VIN
tp839
a(Vunder
VIN
tp840
a(Vthe
VDT
tp841
a(VPortuguese
VNNP
tp842
a(VPresidency
VNNP
tp843
a(Vwe
VPRP
tp844
a(Vmust
VMD
tp845
a(Vadopt
VVB
tp846
a(Va
VDT
tp847
a(Vvery
VRB
tp848
a(Vdifferent
VJJ
tp849
a(Vapproach
VNN
tp850
a(Vfrom
VIN
tp851
a(Vthe
VDT
tp852
a(Vlargely
VRB
tp853
a(Vunsuccessful
VJJ
tp854
a(Vone
VCD
tp855
a(Vadopted
VVBN
tp856
a(Vunder
VIN
tp857
a(Vthe
VDT
tp858
a(Vexisting
VVBG
tp859
a(VPresidency
VNNP
tp860
a(V,
V,
tp861
a(Vand
VCC
tp862
a(Vproceed
VVB
tp863
a(Vin
VIN
tp864
a(Vthe
VDT
tp865
a(Vway
VNN
tp866
a(VI
VPRP
tp867
a(Vprescribed
VVBD
tp868
a(Vbefore
VRB
tp869
a(V.
V.
tp870
aa(lp871
(VThe
VDT
tp872
a(VNetwork
VNNP
tp873
a(Vcommittee
VNN
tp874
a(Vhas
VVBZ
tp875
a(V,
V,
tp876
a(Vtogether
VRB
tp877
a(Vwith
VIN
tp878
a(Vthe
VDT
tp879
a(VCommission
VNNP
tp880
a(V,
V,
tp881
a(Vdefined
VVBN
tp882
a(Vand
VCC
tp883
a(Vput
VVBN
tp884
a(Vinto
VIN
tp885
a(Voperation
VNN
tp886
a(Van
VDT
tp887
a(Veffective
VJJ
tp888
a(Vsurveillance
VNN
tp889
a(Vsystem
VNN
tp890
a(V.
V.
tp891
aa(lp892
(VThe
VDT
tp893
a(Vpeople
VNNS
tp894
a(Vwill
VMD
tp895
a(Vdemand
VVB
tp896
a(Vit
VPRP
tp897
a(Vand
VCC
tp898
a(Vthey
VPRP
tp899
a(Vwill
VMD
tp900
a(Vnot
VRB
tp901
a(Vunderstand
VVB
tp902
a(Vwhy
VWRB
tp903
a(Vthe
VDT
tp904
a(Vseas
VNNS
tp905
a(Vremain
VVBP
tp906
a(Vin
VIN
tp907
a(Vthis
VDT
tp908
a(Vstate
VNN
tp909
a(V.
V.
tp910
aa(lp911
(VFor
VIN
tp912
a(Vas
VIN
tp913
a(VI
VPRP
tp914
a(Vhave
VVBP
tp915
a(Valready
VRB
tp916
a(Vmentioned
VVBN
tp917
a(V,
V,
tp918
a(Vwe
VPRP
tp919
a(Vare
VVBP
tp920
a(Vthe
VDT
tp921
a(Vtrustees
VNNS
tp922
a(Vof
VIN
tp923
a(Vthese
VDT
tp924
a(Vprivileges
VNNS
tp925
a(Vand
VCC
tp926
a(Vrights
VNNS
tp927
a(V-
V:
tp928
a(Vonly
VRB
tp929
a(Vthe
VDT
tp930
a(Vtrustees
VNNS
tp931
a(V.
V.
tp932
aa(lp933
(VThis
VDT
tp934
a(Vautumn
VNN
tp935
a(Va
VDT
tp936
a(Vsewage
VNN
tp937
a(Vworks
VVBZ
tp938
a(Vsouthwest
VNN
tp939
a(Vof
VIN
tp940
a(VSt
VNNP
tp941
a(VPetersburg
VNNP
tp942
a(Vwill
VMD
tp943
a(Vbe
VVB
tp944
a(Vcompleted
VVBN
tp945
a(V.
V.
tp946
aa(lp947
(VHowever
VRB
tp948
a(V,
V,
tp949
a(Vit
VPRP
tp950
a(Vis
VVBZ
tp951
a(Vencouraging
VVBG
tp952
a(Vthat
VDT
tp953
a(Von
VIN
tp954
a(V6
VCD
tp955
a(VNovember
VNNP
tp956
a(V,
V,
tp957
a(Va
VDT
tp958
a(Vthousand-member
VNN
tp959
a(VSouth
VJJ
tp960
a(VAfrican
VJJ
tp961
a(Vforce
VNN
tp962
a(Vdeployed
VVBN
tp963
a(Vnear
VIN
tp964
a(VGoma
VNNP
tp965
a(Vas
VIN
tp966
a(Vpart
VNN
tp967
a(Vof
VIN
tp968
a(VMONUC
VNNP
tp969
a(V.
V.
tp970
aa(lp971
(VThose
VDT
tp972
a(Vwho
VWP
tp973
a(Vdo
VVBP
tp974
a(Vmore
VJJR
tp975
a(V,
V,
tp976
a(Vthose
VDT
tp977
a(Vwho
VWP
tp978
a(Vshow
VVBP
tp979
a(Vthat
VIN
tp980
a(Vthey
VPRP
tp981
a(Vdeserve
VVBP
tp982
a(Vmore
VRBR
tp983
a(V,
V,
tp984
a(Vwill
VMD
tp985
a(Vreceive
VVB
tp986
a(Vmore
VRBR
tp987
a(V.
V.
tp988
aa(lp989
(VThrough
VIN
tp990
a(Vthis
VDT
tp991
a(Vproject
VNN
tp992
a(V,
V,
tp993
a(Vwhich
VWDT
tp994
a(Vwas
VVBD
tp995
a(Vdirectly
VRB
tp996
a(Vrelated
VJJ
tp997
a(Vto
VTO
tp998
a(Vthe
VDT
tp999
a(VScottish
VJJ
tp1000
a(Vcurriculum
VNN
tp1001
a(V,
V,
tp1002
a(Vthey
VPRP
tp1003
a(Vorganised
VVBD
tp1004
a(Va
VDT
tp1005
a(Vparents
VNNS
tp1006
a(V&apos;
VVBP
tp1007
a(Vsoup
VNN
tp1008
a(Vday
VNN
tp1009
a(Vand
VCC
tp1010
a(V,
V,
tp1011
a(Vwith
VIN
tp1012
a(Vtheir
VPRP$
tp1013
a(Vother
VJJ
tp1014
a(Vpartners
VNNS
tp1015
a(V,
V,
tp1016
a(Vproduced
VVBD
tp1017
a(Va
VDT
tp1018
a(Vbook
VNN
tp1019
a(Vwith
VIN
tp1020
a(V25
VCD
tp1021
a(Vsoup
VNN
tp1022
a(Vrecipes
VNNS
tp1023
a(V.
V.
tp1024
aa(lp1025
(VThis
VDT
tp1026
a(Vlack
VNN
tp1027
a(Vof
VIN
tp1028
a(Vhonesty
VNN
tp1029
a(Vshould
VMD
tp1030
a(Vnot
VRB
tp1031
a(Vbe
VVB
tp1032
a(Vrewarded
VVBN
tp1033
a(V.
V.
tp1034
aa(lp1035
(VWe
VPRP
tp1036
a(Vhave
VVBP
tp1037
a(Vmade
VVBN
tp1038
a(Vcompromises
VNNS
tp1039
a(Vwith
VIN
tp1040
a(Vthe
VDT
tp1041
a(Vconservative
VJJ
tp1042
a(Vside
VNN
tp1043
a(Vof
VIN
tp1044
a(Vthis
VDT
tp1045
a(VHouse
VNNP
tp1046
a(V.
V.
tp1047
aa(lp1048
(VI
VPRP
tp1049
a(Vwelcome
VVBP
tp1050
a(Vthe
VDT
tp1051
a(Vparticipation
VNN
tp1052
a(Vof
VIN
tp1053
a(VMembers
VNNS
tp1054
a(Vof
VIN
tp1055
a(Vthe
VDT
tp1056
a(VEuropean
VNNP
tp1057
a(VParliament
VNNP
tp1058
a(Vat
VIN
tp1059
a(VCOP
VNNP
tp1060
a(V9
VCD
tp1061
a(Vand
VCC
tp1062
a(VMOP
VNN
tp1063
a(V4
VCD
tp1064
a(V,
V,
tp1065
a(Vas
VIN
tp1066
a(Vthey
VPRP
tp1067
a(Vare
VVBP
tp1068
a(Vcalled
VVBN
tp1069
a(Vin
VIN
tp1070
a(Vthe
VDT
tp1071
a(Vlanguage
VNN
tp1072
a(Vwe
VPRP
tp1073
a(Vuse
VVBP
tp1074
a(Vin
VIN
tp1075
a(Vthis
VDT
tp1076
a(Vcontext
VNN
tp1077
a(V.
V.
tp1078
aa(lp1079
(VWe
VPRP
tp1080
a(Vwon
VVBD
tp1081
a(Vthat
VIN
tp1082
a(Vnarrowly
VRB
tp1083
a(V.
V.
tp1084
aa(lp1085
(VMr
VNNP
tp1086
a(VPresident
VNNP
tp1087
a(V,
V,
tp1088
a(Va
VDT
tp1089
a(VHungarian
VJJ
tp1090
a(Vcomputer
VNN
tp1091
a(Vtechnician
VNN
tp1092
a(Vcan
VMD
tp1093
a(Vlegally
VRB
tp1094
a(Vgo
VVB
tp1095
a(Vto
VTO
tp1096
a(Vthe
VDT
tp1097
a(VCzech
VNNP
tp1098
a(VRepublic
VNNP
tp1099
a(Vto
VTO
tp1100
a(Vwork
VVB
tp1101
a(V.
V.
tp1102
aa(lp1103
(VDoes
VVBZ
tp1104
a(Vanyone
VNN
tp1105
a(Vwish
VNN
tp1106
a(Vto
VTO
tp1107
a(Vspeak
VVB
tp1108
a(Vagainst
VIN
tp1109
a(Vthe
VDT
tp1110
a(Vrequest
VNN
tp1111
a(V?
V.
tp1112
aa(lp1113
(VThis
VDT
tp1114
a(Vis
VVBZ
tp1115
a(Vsomething
VNN
tp1116
a(Vto
VTO
tp1117
a(Vwhich
VWDT
tp1118
a(V,
V,
tp1119
a(Vof
VIN
tp1120
a(Vcourse
VNN
tp1121
a(V,
V,
tp1122
a(VEurope
VNNP
tp1123
a(V\u2019
VCD
tp1124
a(Vs
VNNS
tp1125
a(VChristian
VJJ
tp1126
a(VDemocrats
VNNS
tp1127
a(Vsay
VVBP
tp1128
a(Vno
VUH
tp1129
a(V.
V.
tp1130
aa(lp1131
(VIt
VPRP
tp1132
a(Vis
VVBZ
tp1133
a(Vnot
VRB
tp1134
a(Vjust
VRB
tp1135
a(Vthe
VDT
tp1136
a(Vveritable
VJJ
tp1137
a(Vchallenge
VNN
tp1138
a(Vto
VTO
tp1139
a(VGod
VNNP
tp1140
a(Vrepresented
VVBN
tp1141
a(Vby
VIN
tp1142
a(Vthe
VDT
tp1143
a(Veruption
VNN
tp1144
a(Vof
VIN
tp1145
a(Vviolence
VNN
tp1146
a(Vat
VIN
tp1147
a(Vthe
VDT
tp1148
a(Vbirthplace
VNN
tp1149
a(Vof
VIN
tp1150
a(VJesus
VNNP
tp1151
a(Vthat
VWDT
tp1152
a(Vappears
VVBZ
tp1153
a(Vto
VTO
tp1154
a(Vbe
VVB
tp1155
a(Vpre-apocalyptic
VJJ
tp1156
a(V.
V.
tp1157
aa(lp1158
(VA
VDT
tp1159
a(Vcase
VNN
tp1160
a(Vmust
VMD
tp1161
a(Vbe
VVB
tp1162
a(Vallowed
VVBN
tp1163
a(Vto
VTO
tp1164
a(Vbe
VVB
tp1165
a(Vdeveloped
VVBN
tp1166
a(Vthat
VIN
tp1167
a(Vcan
VMD
tp1168
a(Vgo
VVB
tp1169
a(Vto
VTO
tp1170
a(Vthe
VDT
tp1171
a(VCourt
VNNP
tp1172
a(Vof
VIN
tp1173
a(VHuman
VNNP
tp1174
a(VRights
VNNPS
tp1175
a(V,
V,
tp1176
a(Vbut
VCC
tp1177
a(Vthis
VDT
tp1178
a(Vis
VVBZ
tp1179
a(Valso
VRB
tp1180
a(Vbeing
VVBG
tp1181
a(Vdenied
VVBN
tp1182
a(Vas
VIN
tp1183
a(Vmatters
VNNS
tp1184
a(Vare
VVBP
tp1185
a(Vbeing
VVBG
tp1186
a(Vpushed
VVBN
tp1187
a(Vthrough
VIN
tp1188
a(Vquickly
VRB
tp1189
a(V.
V.
tp1190
aa(lp1191
(VThe
VDT
tp1192
a(Voccupying
VJJ
tp1193
a(Vforces
VNNS
tp1194
a(Vhad
VVBD
tp1195
a(Vonly
VRB
tp1196
a(Vrecently
VRB
tp1197
a(Vleft
VVBD
tp1198
a(Vthe
VDT
tp1199
a(Vcountry
VNN
tp1200
a(V;
V:
tp1201
a(Vthe
VDT
tp1202
a(VRed
VNNP
tp1203
a(VArmy
VNNP
tp1204
a(Vhad
VVBD
tp1205
a(Vonly
VRB
tp1206
a(Vrecently
VRB
tp1207
a(Vmoved
VVBN
tp1208
a(Vout
VIN
tp1209
a(Vof
VIN
tp1210
a(VVienna
VNNP
tp1211
a(V.
V.
tp1212
aa(lp1213
(VThere
VEX
tp1214
a(Vare
VVBP
tp1215
a(Vmany
VJJ
tp1216
a(Vother
VJJ
tp1217
a(Vthings
VNNS
tp1218
a(V,
V,
tp1219
a(Vmuch
VRB
tp1220
a(Vhas
VVBZ
tp1221
a(Vbeen
VVBN
tp1222
a(Vdone
VVBN
tp1223
a(Vfor
VIN
tp1224
a(Vinstance
VNN
tp1225
a(Vover
VIN
tp1226
a(Vrecent
VJJ
tp1227
a(Vyears
VNNS
tp1228
a(Vby
VIN
tp1229
a(VChina
VNNP
tp1230
a(V,
V,
tp1231
a(Vfor
VIN
tp1232
a(Vexample
VNN
tp1233
a(V,
V,
tp1234
a(Von
VIN
tp1235
a(Vlabour
VNN
tp1236
a(Vrights
VNNS
tp1237
a(V.
V.
tp1238
aa(lp1239
(VThe
VDT
tp1240
a(VHaglund
VNNP
tp1241
a(Vreport
VNN
tp1242
a(Vis
VVBZ
tp1243
a(Vpart
VNN
tp1244
a(Vof
VIN
tp1245
a(Vthe
VDT
tp1246
a(Vlegislative
VJJ
tp1247
a(Vpackage
VNN
tp1248
a(Vfor
VIN
tp1249
a(Vreforming
VVBG
tp1250
a(Veconomic
VJJ
tp1251
a(Vgovernance
VNN
tp1252
a(V,
V,
tp1253
a(Vwhich
VWDT
tp1254
a(Vconsists
VVBZ
tp1255
a(Vof
VIN
tp1256
a(Vsix
VCD
tp1257
a(Vreports
VNNS
tp1258
a(Vresulting
VVBG
tp1259
a(Vfrom
VIN
tp1260
a(Vmonths
VNNS
tp1261
a(Vof
VIN
tp1262
a(Vnegotiations
VNNS
tp1263
a(V.
V.
tp1264
aa(lp1265
(VChina
VNNP
tp1266
a(Vseems
VVBZ
tp1267
a(Vunwilling
VJJ
tp1268
a(Vto
VTO
tp1269
a(Vaccept
VVB
tp1270
a(Vbinding
VNN
tp1271
a(Vtargets
VNNS
tp1272
a(V.
V.
tp1273
aa(lp1274
(VEnd
VNN
tp1275
a(Vof
VIN
tp1276
a(Vvoting
VNN
tp1277
a(Vtime
VNN
tp1278
aa(lp1279
(VDuring
VIN
tp1280
a(Vthis
VDT
tp1281
a(Vdebate
VNN
tp1282
a(Vit
VPRP
tp1283
a(Vhas
VVBZ
tp1284
a(Vat
VIN
tp1285
a(Vtimes
VNNS
tp1286
a(Vbeen
VVBN
tp1287
a(Vdifficult
VJJ
tp1288
a(Vto
VTO
tp1289
a(Vdistinguish
VVB
tp1290
a(Vheat
VNN
tp1291
a(Vfrom
VIN
tp1292
a(Vlight
VNN
tp1293
a(V.
V.
tp1294
aa(lp1295
(VThis
VDT
tp1296
a(Vwill
VMD
tp1297
a(Vhelp
VVB
tp1298
a(Vconsumers
VNNS
tp1299
a(Vto
VTO
tp1300
a(Vget
VVB
tp1301
a(Vused
VVBN
tp1302
a(Vto
VTO
tp1303
a(Veuro
VNN
tp1304
a(Vprices
VNNS
tp1305
a(V.
V.
tp1306
aa(lp1307
(VIf
VIN
tp1308
a(Vdomestic
VJJ
tp1309
a(Vworkers
VNNS
tp1310
a(Vcannot
VVBP
tp1311
a(Vwork
VNN
tp1312
a(Voccasionally
VRB
tp1313
a(V,
V,
tp1314
a(Vsporadically
VRB
tp1315
a(Vor
VCC
tp1316
a(Vnot
VRB
tp1317
a(Von
VIN
tp1318
a(Van
VDT
tp1319
a(Voccupational
VJJ
tp1320
a(Vbasis
VNN
tp1321
a(Vin
VIN
tp1322
a(Vthis
VDT
tp1323
a(Vsector
VNN
tp1324
a(V,
V,
tp1325
a(Vthen
VRB
tp1326
a(Vthe
VDT
tp1327
a(Vopportunities
VNNS
tp1328
a(Vfor
VIN
tp1329
a(Vcircumventing
VVBG
tp1330
a(Vthe
VDT
tp1331
a(Vlegislation
VNN
tp1332
a(Vare
VVBP
tp1333
a(Valready
VRB
tp1334
a(Vin
VIN
tp1335
a(Vplace
VNN
tp1336
a(V.
V.
tp1337
aa(lp1338
(VThere
VEX
tp1339
a(Vare
VVBP
tp1340
a(V1.4
VCD
tp1341
a(Vbillion
VCD
tp1342
a(Vpeople
VNNS
tp1343
a(Vin
VIN
tp1344
a(Vthe
VDT
tp1345
a(Vworld
VNN
tp1346
a(V,
V,
tp1347
a(Vand
VCC
tp1348
a(Varound
VIN
tp1349
a(V85
VCD
tp1350
a(Vmillion
VCD
tp1351
a(Vin
VIN
tp1352
a(Vthe
VDT
tp1353
a(VEuropean
VNNP
tp1354
a(VUnion
VNNP
tp1355
a(V,
V,
tp1356
a(Vcurrently
VRB
tp1357
a(Vliving
VVBG
tp1358
a(Vin
VIN
tp1359
a(Vpoverty
VNN
tp1360
a(V.
V.
tp1361
aa(lp1362
(VThis
VDT
tp1363
a(Vis
VVBZ
tp1364
a(Van
VDT
tp1365
a(Vissue
VNN
tp1366
a(Vto
VTO
tp1367
a(Vwhich
VWDT
tp1368
a(VI
VPRP
tp1369
a(Vpersonally
VRB
tp1370
a(Vam
VVBP
tp1371
a(Vvery
VRB
tp1372
a(Vcommitted
VVBN
tp1373
a(V.
V.
tp1374
aa(lp1375
(VThey
VPRP
tp1376
a(Vare
VVBP
tp1377
a(Vcaged
VVBN
tp1378
a(Vin
VIN
tp1379
a(Vthe
VDT
tp1380
a(Vsense
VNN
tp1381
a(Vof
VIN
tp1382
a(Vthere
VEX
tp1383
a(Vbeing
VVBG
tp1384
a(Viron
VNN
tp1385
a(Vbars
VNNS
tp1386
a(Vor
VCC
tp1387
a(Vnets
VNNS
tp1388
a(V.
V.
tp1389
a(VThere
VEX
tp1390
a(Vare
VVBP
tp1391
a(Vsafety
VNN
tp1392
a(Vconsequences
VNNS
tp1393
a(V,
V,
tp1394
a(Vbecause
VIN
tp1395
a(Vpeople
VNNS
tp1396
a(Vhave
VVBP
tp1397
a(Vdied
VVBN
tp1398
a(Vin
VIN
tp1399
a(Vthese
VDT
tp1400
a(Vbeds
VNNS
tp1401
a(V.
V.
tp1402
aa(lp1403
(VSecondly
VRB
tp1404
a(V,
V,
tp1405
a(Vif
VIN
tp1406
a(Vyou
VPRP
tp1407
a(Vput
VVBP
tp1408
a(Vforward
VRB
tp1409
a(Va
VDT
tp1410
a(Vproposal
VNN
tp1411
a(Vfor
VIN
tp1412
a(Vthe
VDT
tp1413
a(V2005
VCD
tp1414
a(Vstage
VNN
tp1415
a(Vin
VIN
tp1416
a(Vautumn
VNN
tp1417
a(V1999
VCD
tp1418
a(Vat
VIN
tp1419
a(Vthe
VDT
tp1420
a(Vearliest
VJJS
tp1421
a(Vthen
VRB
tp1422
a(V,
V,
tp1423
a(Vin
VIN
tp1424
a(Vview
VNN
tp1425
a(Vof
VIN
tp1426
a(Vthe
VDT
tp1427
a(Vexperience
VNN
tp1428
a(Vwith
VIN
tp1429
a(Vthe
VDT
tp1430
a(Vfirst
VJJ
tp1431
a(VAuto-Oil
VNN
tp1432
a(Vprogramme
VNN
tp1433
a(V,
V,
tp1434
a(Vwhere
VWRB
tp1435
a(Vit
VPRP
tp1436
a(Vtook
VVBD
tp1437
a(Vover
VRP
tp1438
a(Vtwo
VCD
tp1439
a(Vyears
VNNS
tp1440
a(V,
V,
tp1441
a(Vand
VCC
tp1442
a(Vconsidering
VVBG
tp1443
a(Valso
VRB
tp1444
a(Vthat
VIN
tp1445
a(Vthe
VDT
tp1446
a(Vtime
VNN
tp1447
a(Vneeded
VVBN
tp1448
a(Vto
VTO
tp1449
a(Vdevelop
VVB
tp1450
a(Vthe
VDT
tp1451
a(Vengines
VNNS
tp1452
a(Vof
VIN
tp1453
a(Vheavy
VJJ
tp1454
a(Vgoods
VNNS
tp1455
a(Vvehicles
VNNS
tp1456
a(Vis
VVBZ
tp1457
a(Vabout
VIN
tp1458
a(Vtwice
VRB
tp1459
a(Vas
VRB
tp1460
a(Vlong
VJJ
tp1461
a(Vas
VIN
tp1462
a(Vthat
VDT
tp1463
a(Vfor
VIN
tp1464
a(Vpassenger
VNN
tp1465
a(Vcars
VNNS
tp1466
a(V(
VVBP
tp1467
a(Vabout
VIN
tp1468
a(Vfive
VCD
tp1469
a(Vyears
VNNS
tp1470
a(V)
VRB
tp1471
a(V,
V,
tp1472
a(Vhow
VWRB
tp1473
a(Vmuch
VJJ
tp1474
a(Vtime
VNN
tp1475
a(Vare
VVBP
tp1476
a(Vyou
VPRP
tp1477
a(Vestimating
VVBG
tp1478
a(Vfor
VIN
tp1479
a(Vlegislation
VNN
tp1480
a(V?
V.
tp1481
aa(lp1482
(VYou
VPRP
tp1483
a(Vcan
VMD
tp1484
a(Vshrug
VVB
tp1485
a(V,
V,
tp1486
a(Vbut
VCC
tp1487
a(Vit
VPRP
tp1488
a(Vwill
VMD
tp1489
a(Vbe
VVB
tp1490
a(Vinteresting
VJJ
tp1491
a(Vto
VTO
tp1492
a(Vhear
VVB
tp1493
a(Vyour
VPRP$
tp1494
a(Vperspective
VNN
tp1495
a(Von
VIN
tp1496
a(Vthis
VDT
tp1497
a(V.
V.
tp1498
aa(lp1499
(VThat
VDT
tp1500
a(Vmay
VMD
tp1501
a(Vbe
VVB
tp1502
a(Vtrue
VJJ
tp1503
a(V,
V,
tp1504
a(Vbut
VCC
tp1505
a(Vthe
VDT
tp1506
a(Vdisease
VNN
tp1507
a(Vincubates
VVBZ
tp1508
a(Vfor
VIN
tp1509
a(V15
VCD
tp1510
a(Vor
VCC
tp1511
a(V20
VCD
tp1512
a(Vyears
VNNS
tp1513
a(V.
V.
tp1514
aa(lp1515
(VThis
VDT
tp1516
a(Vwould
VMD
tp1517
a(Vpromote
VVB
tp1518
a(Vlabour-intensive
VJJ
tp1519
a(Venterprise
VNN
tp1520
a(Vand
VCC
tp1521
a(Vemployment
VNN
tp1522
a(V.
V.
tp1523
aa(lp1524
(VYouth
VNN
tp1525
a(Vassociations
VNNS
tp1526
a(V,
V,
tp1527
a(Vlet
VVB
tp1528
a(Vme
VPRP
tp1529
a(Vsay
VVB
tp1530
a(V,
V,
tp1531
a(Vare
VVBP
tp1532
a(Valways
VRB
tp1533
a(Va
VDT
tp1534
a(Vbit
VNN
tp1535
a(Vahead
VRB
tp1536
a(Vof
VIN
tp1537
a(Vthe
VDT
tp1538
a(Vother
VJJ
tp1539
a(Vorganisations
VNNS
tp1540
a(V.
V.
tp1541
aa(lp1542
(VIt
VPRP
tp1543
a(Vhas
VVBZ
tp1544
a(Vreduced
VVBN
tp1545
a(Vmuch
VRB
tp1546
a(Vof
VIN
tp1547
a(VLebanon
VNNP
tp1548
a(Vto
VTO
tp1549
a(Vrubble
VNN
tp1550
a(V.
V.
tp1551
aa(lp1552
(VWith
VIN
tp1553
a(V15
VCD
tp1554
a(V%
VNN
tp1555
a(V,
V,
tp1556
a(Vtherefore
VRB
tp1557
a(V,
V,
tp1558
a(Vthere
VEX
tp1559
a(Vis
VVBZ
tp1560
a(Vstill
VRB
tp1561
a(Va
VDT
tp1562
a(V50
VCD
tp1563
a(V%
VNN
tp1564
a(Vbuffer
VNN
tp1565
a(Vto
VTO
tp1566
a(Vwhich
VWDT
tp1567
a(Veconomic
VJJ
tp1568
a(Vpreference
VNN
tp1569
a(Vmay
VMD
tp1570
a(Vbe
VVB
tp1571
a(Vgiven
VVBN
tp1572
a(V.
V.
tp1573
aa(lp1574
(VHow
VWRB
tp1575
a(Vwould
VMD
tp1576
a(Vyou
VPRP
tp1577
a(Vlike
VVB
tp1578
a(Vthere
VRB
tp1579
a(Vto
VTO
tp1580
a(Vbe
VVB
tp1581
a(Vreconciliation
VNN
tp1582
a(Vof
VIN
tp1583
a(Va
VDT
tp1584
a(Vpeople
VNNS
tp1585
a(V?
V.
tp1586
aa(lp1587
(VIndeed
VRB
tp1588
a(V,
V,
tp1589
a(Vmuch
VRB
tp1590
a(Vof
VIN
tp1591
a(Vmy
VPRP$
tp1592
a(Vconstituency
VNN
tp1593
a(V,
V,
tp1594
a(Vthe
VDT
tp1595
a(VEast
VNNP
tp1596
a(Vof
VIN
tp1597
a(VEngland
VNNP
tp1598
a(V,
V,
tp1599
a(Vfits
VVBZ
tp1600
a(Vthe
VDT
tp1601
a(Vbill
VNN
tp1602
a(Vas
VIN
tp1603
a(Va
VDT
tp1604
a(Vrural
VJJ
tp1605
a(Varea
VNN
tp1606
a(V.
V.
tp1607
aa(lp1608
(VThis
VDT
tp1609
a(Vis
VVBZ
tp1610
a(Vnot
VRB
tp1611
a(Vsustainable
VJJ
tp1612
a(V,
V,
tp1613
a(Vit
VPRP
tp1614
a(Vis
VVBZ
tp1615
a(Vnot
VRB
tp1616
a(Vfair
VJJ
tp1617
a(Vand
VCC
tp1618
a(VI
VPRP
tp1619
a(Vdo
VVBP
tp1620
a(Vnot
VRB
tp1621
a(Vthink
VVB
tp1622
a(Vit
VPRP
tp1623
a(Vis
VVBZ
tp1624
a(Vlegal
VJJ
tp1625
a(V.
V.
tp1626
aa(lp1627
(VI
VPRP
tp1628
a(Vwould
VMD
tp1629
a(Vlike
VVB
tp1630
a(Vto
VTO
tp1631
a(Vthank
VVB
tp1632
a(Vthe
VDT
tp1633
a(VBritish
VJJ
tp1634
a(VGovernment
VNN
tp1635
a(Vfor
VIN
tp1636
a(Vrejoining
VVBG
tp1637
a(VEurope
VNNP
tp1638
a(Vbecause
VIN
tp1639
a(Vwe
VPRP
tp1640
a(Vbadly
VRB
tp1641
a(Vneed
VVBP
tp1642
a(Vthem
VPRP
tp1643
a(Vin
VIN
tp1644
a(VEurope
VNNP
tp1645
a(V.
V.
tp1646
aa(lp1647
(VAnd
VCC
tp1648
a(VEurope
VNNP
tp1649
a(Vnever
VRB
tp1650
a(Vspoke
VVBD
tp1651
a(Vup
VRP
tp1652
a(Vat
VIN
tp1653
a(Vtimes
VNNS
tp1654
a(Vlike
VIN
tp1655
a(Vthat
VDT
tp1656
a(V.
V.
tp1657
aa(lp1658
(VThe
VDT
tp1659
a(VACAR
VNNP
tp1660
a(Vmembers
VNNS
tp1661
a(Vare
VVBP
tp1662
a(Vdue
VJJ
tp1663
a(Vto
VTO
tp1664
a(Vbe
VVB
tp1665
a(Vnamed
VVBN
tp1666
a(Vby
VIN
tp1667
a(Vthe
VDT
tp1668
a(Vend
VNN
tp1669
a(Vof
VIN
tp1670
a(VMay
VNNP
tp1671
a(Vand
VCC
tp1672
a(Vthe
VDT
tp1673
a(Vfirst
VJJ
tp1674
a(Vmeeting
VNN
tp1675
a(Vis
VVBZ
tp1676
a(Vscheduled
VVBN
tp1677
a(Vfor
VIN
tp1678
a(VJune
VNNP
tp1679
a(V.
V.
tp1680
aa(lp1681
(VThe
VDT
tp1682
a(Vdirect
VJJ
tp1683
a(Vcosts
VNNS
tp1684
a(Vof
VIN
tp1685
a(Vdiabetes
VNNS
tp1686
a(Vare
VVBP
tp1687
a(Vestimated
VVBN
tp1688
a(Vtoday
VNN
tp1689
a(Vto
VTO
tp1690
a(Vbe
VVB
tp1691
a(V8
VCD
tp1692
a(V%
VNN
tp1693
a(Vof
VIN
tp1694
a(Vhealth
VNN
tp1695
a(Vbudgets
VNNS
tp1696
a(Vin
VIN
tp1697
a(VEurope
VNNP
tp1698
a(V.
V.
tp1699
aa(lp1700
(VAnimals
VNNS
tp1701
a(Vare
VVBP
tp1702
a(Vfar
VRB
tp1703
a(Vtoo
VRB
tp1704
a(Vbeautiful
VJJ
tp1705
a(Vto
VTO
tp1706
a(Vbe
VVB
tp1707
a(Vtreated
VVBN
tp1708
a(Vso
VRB
tp1709
a(Vdreadfully
VRB
tp1710
a(V.
V.
tp1711
aa(lp1712
(VBoth
VDT
tp1713
a(VPalestinian
VNN
tp1714
a(Vand
VCC
tp1715
a(VIsraeli
VJJ
tp1716
a(Vauthorities
VNNS
tp1717
a(Vare
VVBP
tp1718
a(Vresponsible
VJJ
tp1719
a(Vfor
VIN
tp1720
a(Vhuman
VJJ
tp1721
a(Vrights
VNNS
tp1722
a(Vviolations
VNNS
tp1723
a(V&apos;
VVBP
tp1724
a(V.
V.
tp1725
aa(lp1726
(VRepsol
VNNP
tp1727
a(V,
V,
tp1728
a(Vthe
VDT
tp1729
a(Vcompany
VNN
tp1730
a(Vthat
VWDT
tp1731
a(Vwill
VMD
tp1732
a(Vbe
VVB
tp1733
a(Vremoving
VVBG
tp1734
a(Vthe
VDT
tp1735
a(Vremaining
VVBG
tp1736
a(Voil
VNN
tp1737
a(Vfrom
VIN
tp1738
a(Vthe
VDT
tp1739
a(Vwreck
VNN
tp1740
a(V,
V,
tp1741
a(Vstates
VVBZ
tp1742
a(Vthat
VIN
tp1743
a(Vthe
VDT
tp1744
a(Vwreck
VNN
tp1745
a(Vholds
VVBZ
tp1746
a(Vanother
VDT
tp1747
a(V14
VCD
tp1748
a(V000
VCD
tp1749
a(Vtonnes
VNNS
tp1750
a(V.
V.
tp1751
aa(lp1752
(VAnd
VCC
tp1753
a(Vnow
VRB
tp1754
a(V,
V,
tp1755
a(Vin
VIN
tp1756
a(VItaly
VNNP
tp1757
a(V,
V,
tp1758
a(Vall
VDT
tp1759
a(Vwe
VPRP
tp1760
a(Vhear
VVBP
tp1761
a(Vabout
VRB
tp1762
a(Vis
VVBZ
tp1763
a(Vthe
VDT
tp1764
a(Vre-entry
VNN
tp1765
a(Vof
VIN
tp1766
a(Vthe
VDT
tp1767
a(VLira
VNNP
tp1768
a(Vinto
VIN
tp1769
a(Vthe
VDT
tp1770
a(VEuropean
VNNP
tp1771
a(VMonetary
VNNP
tp1772
a(VSystem
VNNP
tp1773
a(Vas
VRB
tp1774
a(Vsoon
VRB
tp1775
a(Vas
VIN
tp1776
a(Vpossible
VJJ
tp1777
a(V.
V.
tp1778
aa(lp1779
(VI
VPRP
tp1780
a(Vadvise
VVBP
tp1781
a(Veveryone
VNN
tp1782
a(Vnot
VRB
tp1783
a(Vto
VTO
tp1784
a(Vbring
VVB
tp1785
a(Vemotion
VNN
tp1786
a(Vinto
VIN
tp1787
a(Vthis
VDT
tp1788
a(Vsubject
VNN
tp1789
a(V.
V.
tp1790
aa(lp1791
(VTherefore
VRB
tp1792
a(V,
V,
tp1793
a(VI
VPRP
tp1794
a(Vhave
VVBP
tp1795
a(Vvoted
VVBN
tp1796
a(Vwithout
VIN
tp1797
a(Vreservations
VNNS
tp1798
a(Vin
VIN
tp1799
a(Vfavour
VNN
tp1800
a(Vof
VIN
tp1801
a(Vreleasing
VVBG
tp1802
a(Vaid
VNN
tp1803
a(Vfrom
VIN
tp1804
a(Vthe
VDT
tp1805
a(Vfund
VNN
tp1806
a(V.
V.
tp1807
aa(lp1808
(VAs
VIN
tp1809
a(Vfishing
VNN
tp1810
a(Vrights
VNNS
tp1811
a(Vform
VVBP
tp1812
a(Vthe
VDT
tp1813
a(Vbackbone
VNN
tp1814
a(Vof
VIN
tp1815
a(Vfisheries
VNNS
tp1816
a(Vmanagement
VNN
tp1817
a(Vin
VIN
tp1818
a(Vthe
VDT
tp1819
a(Vleading
VJJ
tp1820
a(Vcountries
VNNS
tp1821
a(Vin
VIN
tp1822
a(Vterms
VNNS
tp1823
a(Vof
VIN
tp1824
a(Vfishing
VNN
tp1825
a(Vpotential
VJJ
tp1826
a(V(
VCD
tp1827
a(VUS
VNNP
tp1828
a(V,
V,
tp1829
a(VNew
VNNP
tp1830
a(VZealand
VNNP
tp1831
a(V,
V,
tp1832
a(VNorway
VNNP
tp1833
a(V,
V,
tp1834
a(Vetc
VFW
tp1835
a(V.
V.
tp1836
a(V)
VNN
tp1837
a(V,
V,
tp1838
a(Vit
VPRP
tp1839
a(Vis
VVBZ
tp1840
a(Vtotally
VRB
tp1841
a(Vappropriate
VJJ
tp1842
a(Vto
VTO
tp1843
a(Vdiscuss
VVB
tp1844
a(Vthis
VDT
tp1845
a(Vpossibility
VNN
tp1846
a(Vin
VIN
tp1847
a(Vthe
VDT
tp1848
a(VCommunity
VNNP
tp1849
a(V&apos;s
VNNS
tp1850
a(Vfisheries
VNNS
tp1851
a(Vmanagement
VNN
tp1852
a(V.
V.
tp1853
aa(lp1854
(VNow
VRB
tp1855
a(Vwe
VPRP
tp1856
a(Vunderstand
VVBP
tp1857
a(Vhow
VWRB
tp1858
a(Vlawyers
VNNS
tp1859
a(Vend
VVBP
tp1860
a(Vup
VRP
tp1861
a(Vin
VIN
tp1862
a(Vplaces
VNNS
tp1863
a(Vwhere
VWRB
tp1864
a(Vpoliticians
VNNS
tp1865
a(Vshould
VMD
tp1866
a(Vbe
VVB
tp1867
a(V.
V.
tp1868
aa(lp1869
(VWe
VPRP
tp1870
a(Vgo
VVBP
tp1871
a(Vto
VTO
tp1872
a(VBrussels
VNNP
tp1873
a(V,
V,
tp1874
a(Vwe
VPRP
tp1875
a(Vdo
VVBP
tp1876
a(Vnot
VRB
tp1877
a(Vlive
VVB
tp1878
a(Von
VIN
tp1879
a(Van
VDT
tp1880
a(Visland
VNN
tp1881
a(Vthere
VRB
tp1882
a(V.
V.
tp1883
aa(lp1884
(VWe
VPRP
tp1885
a(Vshould
VMD
tp1886
a(Vput
VVB
tp1887
a(Vall
VDT
tp1888
a(Vour
VPRP$
tp1889
a(Veffort
VNN
tp1890
a(Vinto
VIN
tp1891
a(Vensuring
VVBG
tp1892
a(Vthat
VIN
tp1893
a(Vthe
VDT
tp1894
a(VTreaty
VNNP
tp1895
a(Vof
VIN
tp1896
a(VLisbon
VNNP
tp1897
a(Vcan
VMD
tp1898
a(Venter
VVB
tp1899
a(Vinto
VIN
tp1900
a(Vforce
VNN
tp1901
a(Vat
VIN
tp1902
a(Vthe
VDT
tp1903
a(Vbeginning
VNN
tp1904
a(Vof
VIN
tp1905
a(Vnext
VJJ
tp1906
a(Vyear
VNN
tp1907
a(V.
V.
tp1908
aa(lp1909
(VIn
VIN
tp1910
a(Vreply
VNN
tp1911
a(Vseventeen
VCD
tp1912
a(Vsouthern
VJJ
tp1913
a(Vstates
VNNS
tp1914
a(Vhave
VVBP
tp1915
a(Vdemanded
VVBN
tp1916
a(Vthe
VDT
tp1917
a(Vright
VNN
tp1918
a(Vto
VTO
tp1919
a(Vset
VVB
tp1920
a(Vup
VRP
tp1921
a(Vtheir
VPRP$
tp1922
a(Vown
VJJ
tp1923
a(Vpolice
VNN
tp1924
a(Vforces
VNNS
tp1925
a(V.
V.
tp1926
aa(lp1927
(VThese
VDT
tp1928
a(Vemissions
VNNS
tp1929
a(Vmostly
VRB
tp1930
a(Vcome
VVBP
tp1931
a(Vfrom
VIN
tp1932
a(Venrichment
VNN
tp1933
a(Vbut
VCC
tp1934
a(Valso
VRB
tp1935
a(Vfrom
VIN
tp1936
a(Vthe
VDT
tp1937
a(Vextraction
VNN
tp1938
a(Vof
VIN
tp1939
a(Vuranium
VNN
tp1940
a(Vmineral
VNN
tp1941
a(V.
V.
tp1942
aa(lp1943
(VIt
VPRP
tp1944
a(Vis
VVBZ
tp1945
a(Va
VDT
tp1946
a(Vcompletely
VRB
tp1947
a(Villogical
VJJ
tp1948
a(Vposition
VNN
tp1949
a(Vto
VTO
tp1950
a(Vsay
VVB
tp1951
a(Vthat
VIN
tp1952
a(Vantique
VJJ
tp1953
a(Vinstruments
VNNS
tp1954
a(Vwill
VMD
tp1955
a(Vbe
VVB
tp1956
a(Vexempted
VVBN
tp1957
a(Vbut
VCC
tp1958
a(Vnew
VJJ
tp1959
a(Vinstruments
VNNS
tp1960
a(Vwill
VMD
tp1961
a(Vbe
VVB
tp1962
a(Vbanned
VVBN
tp1963
a(V.
V.
tp1964
aa(lp1965
(VThe
VDT
tp1966
a(Vgap
VNN
tp1967
a(Vto
VTO
tp1968
a(Vbe
VVB
tp1969
a(Vmade
VVBN
tp1970
a(Vup
VRP
tp1971
a(Vby
VIN
tp1972
a(Vcomparison
VNN
tp1973
a(Vwith
VIN
tp1974
a(Vthe
VDT
tp1975
a(VUnited
VNNP
tp1976
a(VStates
VNNPS
tp1977
a(Vin
VIN
tp1978
a(Vterms
VNNS
tp1979
a(Vof
VIN
tp1980
a(Vthe
VDT
tp1981
a(Vcost
VNN
tp1982
a(Vof
VIN
tp1983
a(Vservices
VNNS
tp1984
a(Vis
VVBZ
tp1985
a(Vreally
VRB
tp1986
a(Vhuge
VJJ
tp1987
a(V.
V.
tp1988
aa(lp1989
(VUnder
VIN
tp1990
a(Vsuch
VJJ
tp1991
a(Vconditions
VNNS
tp1992
a(V,
V,
tp1993
a(Vwomen
VNNS
tp1994
a(Vwill
VMD
tp1995
a(Vundoubtedly
VRB
tp1996
a(Vhold
VVB
tp1997
a(Vtheir
VPRP$
tp1998
a(Vown
VJJ
tp1999
a(V.
V.
tp2000
aa(lp2001
(VI
VPRP
tp2002
a(Vbelieve
VVBP
tp2003
a(Vwe
VPRP
tp2004
a(Vneed
VVB
tp2005
a(Vto
VTO
tp2006
a(Vremember
VVB
tp2007
a(Vthat
VIN
tp2008
a(Vrespect
VNN
tp2009
a(Vfor
VIN
tp2010
a(Vdifferent
VJJ
tp2011
a(Vpositions
VNNS
tp2012
a(Vshould
VMD
tp2013
a(Vbe
VVB
tp2014
a(Vthe
VDT
tp2015
a(Vstarting
VVBG
tp2016
a(Vpoint
VNN
tp2017
a(Vfor
VIN
tp2018
a(Vdeliberations
VNNS
tp2019
a(V.
V.
tp2020
aa.