(lp1
(lp2
(VWhat
VWP
tp3
a(Vwill
VMD
tp4
a(Vwe
VPRP
tp5
a(Vdo
VVB
tp6
a(Vwith
VIN
tp7
a(Vthe
VDT
tp8
a(Vworkers
VNNS
tp9
a(Vemployed
VVBN
tp10
a(Vin
VIN
tp11
a(Vthis
VDT
tp12
a(Vsector
VNN
tp13
a(V?
V.
tp14
aa(lp15
(VThis
VDT
tp16
a(Vis
VVBZ
tp17
a(Vthe
VDT
tp18
a(Vfirst
VRB
tp19
a(Vimportant
VJJ
tp20
a(Vstep
VNN
tp21
a(V,
V,
tp22
a(Vthough
VIN
tp23
a(Vnot
VRB
tp24
a(Vthe
VDT
tp25
a(Vlast
VJJ
tp26
a(Vone
VCD
tp27
a(V.
V.
tp28
aa(lp29
(VThe
VDT
tp30
a(Vindustrial
VJJ
tp31
a(Vgroups
VNNS
tp32
a(Vaffected
VVBN
tp33
a(Vare
VVBP
tp34
a(Voffshore
VJJ
tp35
a(Vworkers
VNNS
tp36
a(Vin
VIN
tp37
a(Vthe
VDT
tp38
a(Voil
VNN
tp39
a(Vand
VCC
tp40
a(Vgas
VNN
tp41
a(Vindustries
VNNS
tp42
a(V,
V,
tp43
a(Vthe
VDT
tp44
a(Vfishing
VNN
tp45
a(Vindustry
VNN
tp46
a(V,
V,
tp47
a(Vtransport
VNN
tp48
a(Vworkers
VNNS
tp49
a(Vsuch
VJJ
tp50
a(Vas
VIN
tp51
a(Vinland
VRB
tp52
a(Vwaterway
VNN
tp53
a(Vworkers
VNNS
tp54
a(V,
V,
tp55
a(Vairline
VNN
tp56
a(Vpilots
VNNS
tp57
a(Vand
VCC
tp58
a(Vtheir
VPRP$
tp59
a(Vcrews
VNNS
tp60
a(V,
V,
tp61
a(Vand
VCC
tp62
a(Vrailway
VNN
tp63
a(Vworkers
VNNS
tp64
a(V.
V.
tp65
aa(lp66
(VIndustrial
VNNP
tp67
a(Vstrategy
VNN
tp68
a(Vmust
VMD
tp69
a(Videntify
VVB
tp70
a(Vthe
VDT
tp71
a(Vstrategic
VJJ
tp72
a(Vareas
VNNS
tp73
a(Vin
VIN
tp74
a(Vwhich
VWDT
tp75
a(Vwe
VPRP
tp76
a(Vwill
VMD
tp77
a(Vinvest
VVB
tp78
a(V,
V,
tp79
a(Vas
VRB
tp80
a(Vwell
VRB
tp81
a(Vas
VIN
tp82
a(Vthe
VDT
tp83
a(Vnecessary
VJJ
tp84
a(Vraw
VJJ
tp85
a(Vmaterial
VNN
tp86
a(Vsources
VNNS
tp87
a(V.
V.
tp88
aa(lp89
(VRule
VNN
tp90
a(V27
VCD
tp91
a(VB.
VNNP
tp92
aa(lp93
(VIt
VPRP
tp94
a(Vis
VVBZ
tp95
a(Vthis
VDT
tp96
a(Vright
VNN
tp97
a(V,
V,
tp98
a(Vone
VCD
tp99
a(Vwhich
VWDT
tp100
a(Vis
VVBZ
tp101
a(Vnormally
VRB
tp102
a(Vassociated
VVBN
tp103
a(Vwith
VIN
tp104
a(Va
VDT
tp105
a(Vnation
VNN
tp106
a(V,
V,
tp107
a(Vthat
VWDT
tp108
a(Vis
VVBZ
tp109
a(Vnow
VRB
tp110
a(Vbeing
VVBG
tp111
a(Vestablished
VVBN
tp112
a(Vfor
VIN
tp113
a(Vthe
VDT
tp114
a(VEU
VNNP
tp115
a(V.
V.
tp116
aa(lp117
(VThe
VDT
tp118
a(Vnew
VJJ
tp119
a(Vgovernment
VNN
tp120
a(Vunder
VIN
tp121
a(VIvo
VNNP
tp122
a(VSanader
VNNP
tp123
a(Vhas
VVBZ
tp124
a(Vreally
VRB
tp125
a(Vadvanced
VVBN
tp126
a(Vby
VIN
tp127
a(Vleaps
VNNS
tp128
a(Vand
VCC
tp129
a(Vbounds
VNNS
tp130
a(V,
V,
tp131
a(Vespecially
VRB
tp132
a(Vin
VIN
tp133
a(Vpolicy
VNN
tp134
a(Vtowards
VIN
tp135
a(Vminorities
VNNS
tp136
a(Vand
VCC
tp137
a(Vthe
VDT
tp138
a(Vcoexistence
VNN
tp139
a(Vof
VIN
tp140
a(Vethnic
VJJ
tp141
a(Vgroups
VNNS
tp142
a(V.
V.
tp143
aa(lp144
(VWe
VPRP
tp145
a(Veducate
VVBP
tp146
a(Vour
VPRP$
tp147
a(Vchildren
VNNS
tp148
a(Vas
VIN
tp149
a(Vbest
VJJS
tp150
a(Vwe
VPRP
tp151
a(Vcan
VMD
tp152
a(V,
V,
tp153
a(Vsend
VVB
tp154
a(Vthem
VPRP
tp155
a(Vto
VTO
tp156
a(Vschools
VNNS
tp157
a(Vand
VCC
tp158
a(Vuniversities
VNNS
tp159
a(V.
V.
tp160
aa(lp161
(VThere
VEX
tp162
a(Vis
VVBZ
tp163
a(Va
VDT
tp164
a(Vgreat
VJJ
tp165
a(Vdeal
VNN
tp166
a(Vto
VTO
tp167
a(Vdo
VVB
tp168
a(V.
V.
tp169
aa(lp170
(VIn
VIN
tp171
a(Vfact
VNN
tp172
a(VI
VPRP
tp173
a(Vprefer
VVBP
tp174
a(Vthat
VIN
tp175
a(V.
V.
tp176
aa(lp177
(VWe
VPRP
tp178
a(Vregard
VVBP
tp179
a(Vyou
VPRP
tp180
a(Vas
VIN
tp181
a(VJacques
VNNP
tp182
a(VDelors
VNNP
tp183
a(Vthe
VDT
tp184
a(VSecond
VNNP
tp185
a(V.
V.
tp186
aa(lp187
(VInvestment
VNN
tp188
a(Vfirms
VNNS
tp189
a(Vand
VCC
tp190
a(Vcredit
VNN
tp191
a(Vinstitutions
VNNS
tp192
a(V(
VVBP
tp193
a(Vcontinuation
VNN
tp194
a(V)
VNN
tp195
aa(lp196
(VIt
VPRP
tp197
a(Vis
VVBZ
tp198
a(Vestimated
VVBN
tp199
a(Vthat
VIN
tp200
a(Vabout
VIN
tp201
a(V50
VCD
tp202
a(V%
VNN
tp203
a(Vof
VIN
tp204
a(Vthese
VDT
tp205
a(Vpeople
VNNS
tp206
a(Vdo
VVBP
tp207
a(Vnot
VRB
tp208
a(Vhave
VVB
tp209
a(Va
VDT
tp210
a(Vprivate
VJJ
tp211
a(Vcar
VNN
tp212
a(Vat
VIN
tp213
a(Vtheir
VPRP$
tp214
a(Vdisposal
VNN
tp215
a(V.
V.
tp216
aa(lp217
(VThis
VDT
tp218
a(Vis
VVBZ
tp219
a(Vjustified
VJJ
tp220
a(V,
V,
tp221
a(Vas
VIN
tp222
a(Vit
VPRP
tp223
a(Vcan
VMD
tp224
a(Vhave
VVB
tp225
a(Va
VDT
tp226
a(Vmajor
VJJ
tp227
a(Vsocial
VJJ
tp228
a(Vimpact
VNN
tp229
a(V.
V.
tp230
aa(lp231
(VAn
VDT
tp232
a(Vintegrated
VVBN
tp233
a(V,
V,
tp234
a(Vfree
VJJ
tp235
a(V,
V,
tp236
a(Vdemocratic
VJJ
tp237
a(VEurope
VNNP
tp238
a(Vcan
VMD
tp239
a(Vbe
VVB
tp240
a(Vbased
VVBN
tp241
a(Vonly
VRB
tp242
a(Von
VIN
tp243
a(Vintegrated
VVBN
tp244
a(V,
V,
tp245
a(Vfree
VJJ
tp246
a(V,
V,
tp247
a(Vdemocratic
VJJ
tp248
a(Vsocieties
VNNS
tp249
a(V.
V.
tp250
aa(lp251
(VOf
VIN
tp252
a(Vcourse
VNN
tp253
a(V,
V,
tp254
a(VI
VPRP
tp255
a(Vrefer
VVBP
tp256
a(Vto
VTO
tp257
a(VEric
VNNP
tp258
a(VBlair
VNNP
tp259
a(V,
V,
tp260
a(Vbetter
VRB
tp261
a(Vknown
VVBN
tp262
a(Vas
VIN
tp263
a(VGeorge
VNNP
tp264
a(VOrwell
VNNP
tp265
a(V.
V.
tp266
aa(lp267
(VThat
VDT
tp268
a(Vwould
VMD
tp269
a(Vhelp
VVB
tp270
a(Vensure
VVB
tp271
a(Vcompliance
VNN
tp272
a(V.
V.
tp273
aa(lp274
(VThe
VDT
tp275
a(VCouncil
VNNP
tp276
a(Vpromised
VVBD
tp277
a(VParliament
VNNP
tp278
a(Vthat
VIN
tp279
a(Vit
VPRP
tp280
a(Vwould
VMD
tp281
a(Vdo
VVB
tp282
a(Vthis
VDT
tp283
a(V,
V,
tp284
a(Vbut
VCC
tp285
a(Vit
VPRP
tp286
a(Vdid
VVBD
tp287
a(Vnot
VRB
tp288
a(V.
V.
tp289
aa(lp290
(VIn
VIN
tp291
a(Vthe
VDT
tp292
a(Vnegotiations
VNNS
tp293
a(V,
V,
tp294
a(Vincluding
VVBG
tp295
a(Vthose
VDT
tp296
a(Vwith
VIN
tp297
a(Vthe
VDT
tp298
a(VCouncil
VNNP
tp299
a(V,
V,
tp300
a(Vhe
VPRP
tp301
a(Vremained
VVBD
tp302
a(Vsteadfastly
VRB
tp303
a(Vcommitted
VVBN
tp304
a(Vto
VTO
tp305
a(Vthe
VDT
tp306
a(Vposition
VNN
tp307
a(Vformulated
VVBN
tp308
a(Vand
VCC
tp309
a(Vsupported
VVBN
tp310
a(Vby
VIN
tp311
a(Vthe
VDT
tp312
a(VMembers
VNNS
tp313
a(Vof
VIN
tp314
a(Vthis
VDT
tp315
a(VHouse
VNNP
tp316
a(Vin
VIN
tp317
a(Vcommittee
VNN
tp318
a(V.
V.
tp319
aa(lp320
(VIn
VIN
tp321
a(Vparticular
VJJ
tp322
a(V,
V,
tp323
a(Vyou
VPRP
tp324
a(Vhad
VVBD
tp325
a(Vinitially
VRB
tp326
a(Vrecommended
VVBN
tp327
a(Vthat
VIN
tp328
a(Vcoccidiostats
VNNS
tp329
a(Vbe
VVB
tp330
a(Vphased
VVBN
tp331
a(Vout
VRP
tp332
a(Vby
VIN
tp333
a(V2008
VCD
tp334
a(V.
V.
tp335
aa(lp336
(VFor
VIN
tp337
a(Vlet
VVB
tp338
a(Vus
VPRP
tp339
a(Vbe
VVB
tp340
a(Vvery
VRB
tp341
a(Vclear
VJJ
tp342
a(V:
V:
tp343
a(Vthe
VDT
tp344
a(Vterrorists
VNNS
tp345
a(Vwant
VVBP
tp346
a(Vto
VTO
tp347
a(Vattack
VVB
tp348
a(Vnot
VRB
tp349
a(Vonly
VRB
tp350
a(Vour
VPRP$
tp351
a(Vlives
VNNS
tp352
a(Vbut
VCC
tp353
a(Valso
VRB
tp354
a(Vour
VPRP$
tp355
a(Vway
VNN
tp356
a(Vof
VIN
tp357
a(Vlife
VNN
tp358
a(V.
V.
tp359
aa(lp360
(VI
VPRP
tp361
a(Vhave
VVBP
tp362
a(Vanother
VDT
tp363
a(Vquestion
VNN
tp364
a(Vconcerning
VVBG
tp365
a(Vthe
VDT
tp366
a(Vquality
VNN
tp367
a(Vmark
VNN
tp368
a(V.
V.
tp369
aa(lp370
(VA
VDT
tp371
a(Vfurther
VJJ
tp372
a(Vexample
VNN
tp373
a(Vis
VVBZ
tp374
a(Vthat
VIN
tp375
a(Vof
VIN
tp376
a(Vthe
VDT
tp377
a(VGerman
VJJ
tp378
a(Veconomy
VNN
tp379
a(Vand
VCC
tp380
a(Vthe
VDT
tp381
a(Vproduction
VNN
tp382
a(Vof
VIN
tp383
a(Velectricity
VNN
tp384
a(V.
V.
tp385
aa(lp386
(VThe
VDT
tp387
a(Vcurrent
VJJ
tp388
a(Vstatistics
VNNS
tp389
a(Von
VIN
tp390
a(Vunemployment
VNN
tp391
a(Vand
VCC
tp392
a(Vemployment
VNN
tp393
a(Vare
VVBP
tp394
a(Vmuch
VRB
tp395
a(Vbetter
VJJR
tp396
a(Vthan
VIN
tp397
a(Vthey
VPRP
tp398
a(Vhave
VVBP
tp399
a(Vbeen
VVBN
tp400
a(Vsince
VIN
tp401
a(Vthe
VDT
tp402
a(V1980s
VCD
tp403
a(V,
V,
tp404
a(Vwhich
VWDT
tp405
a(Vis
VVBZ
tp406
a(Va
VDT
tp407
a(Vclear
VJJ
tp408
a(Vsuccess
VNN
tp409
a(V.
V.
tp410
aa(lp411
(VFor
VIN
tp412
a(Vthis
VDT
tp413
a(Vreason
VNN
tp414
a(V,
V,
tp415
a(Vit
VPRP
tp416
a(Vis
VVBZ
tp417
a(Vimportant
VJJ
tp418
a(Vto
VTO
tp419
a(Vmonitor
VVB
tp420
a(Vtotal
VJJ
tp421
a(Vstaff
VNN
tp422
a(Vnumbers
VNNS
tp423
a(Vin
VIN
tp424
a(Vthe
VDT
tp425
a(VEU
VNNP
tp426
a(V.
V.
tp427
aa(lp428
(VLater
VRB
tp429
a(V,
V,
tp430
a(Vwe
VPRP
tp431
a(Vhave
VVBP
tp432
a(Vto
VTO
tp433
a(Vensure
VVB
tp434
a(Vthat
VIN
tp435
a(Vthe
VDT
tp436
a(Vconditions
VNNS
tp437
a(Vhave
VVBP
tp438
a(Vbeen
VVBN
tp439
a(Vfulfilled
VVBN
tp440
a(Vproperly
VRB
tp441
a(Vand
VCC
tp442
a(Vthat
VIN
tp443
a(Vthe
VDT
tp444
a(Vcountry
VNN
tp445
a(Vis
VVBZ
tp446
a(Vprogressing
VVBG
tp447
a(Valong
VIN
tp448
a(Vthe
VDT
tp449
a(Vpath
VNN
tp450
a(Vof
VIN
tp451
a(Vdemocracy
VNN
tp452
a(Vand
VCC
tp453
a(Vthat
VIN
tp454
a(Vpeople
VNNS
tp455
a(V&apos;
VVBP
tp456
a(Vs
VNNS
tp457
a(Vliving
VVBG
tp458
a(Vconditions
VNNS
tp459
a(Vare
VVBP
tp460
a(Vimproving
VVBG
tp461
a(V.
V.
tp462
aa(lp463
(VThe
VDT
tp464
a(Vlatter
VNN
tp465
a(Vwas
VVBD
tp466
a(Vjoint
VJJ
tp467
a(Vcommander
VNN
tp468
a(Vof
VIN
tp469
a(Vthe
VDT
tp470
a(V1968
VCD
tp471
a(Vinvasion
VNN
tp472
a(Vof
VIN
tp473
a(VCzechoslovakia
VNNP
tp474
a(Vand
VCC
tp475
a(Vin
VIN
tp476
a(Vcharge
VNN
tp477
a(Vof
VIN
tp478
a(Vthe
VDT
tp479
a(Vdefeat
VNN
tp480
a(Vof
VIN
tp481
a(VSolidarity
VNNP
tp482
a(V.
V.
tp483
aa(lp484
(VI
VPRP
tp485
a(Vfear
VVBP
tp486
a(Vit
VPRP
tp487
a(Vhas
VVBZ
tp488
a(Vbecome
VVBN
tp489
a(Va
VDT
tp490
a(Vpawn
VNN
tp491
a(Vin
VIN
tp492
a(Vlarger
VJJR
tp493
a(Vpower
VNN
tp494
a(Vgames
VNNS
tp495
a(V.
V.
tp496
aa(lp497
(VThe
VDT
tp498
a(Vmass
VNN
tp499
a(Vof
VIN
tp500
a(Vwaste
VNN
tp501
a(V,
V,
tp502
a(Vthe
VDT
tp503
a(Voverall
VJJ
tp504
a(Vquantity
VNN
tp505
a(Vof
VIN
tp506
a(Vwaste
VNN
tp507
a(Vgrows
VVBZ
tp508
a(Vby
VIN
tp509
a(Vthe
VDT
tp510
a(Vhour
VNN
tp511
a(V,
V,
tp512
a(Vmaking
VVBG
tp513
a(Vthe
VDT
tp514
a(Vsituation
VNN
tp515
a(Vever
VRB
tp516
a(Vmore
VRBR
tp517
a(Vdramatic
VJJ
tp518
a(V.
V.
tp519
aa(lp520
(VIt
VPRP
tp521
a(Vviolates
VVBZ
tp522
a(Vevery
VDT
tp523
a(Vinstinct
VNN
tp524
a(Vin
VIN
tp525
a(Vmankind
VNN
tp526
a(Vthat
VWDT
tp527
a(Vprompts
VVBZ
tp528
a(Vus
VPRP
tp529
a(Vto
VTO
tp530
a(Vwork
VVB
tp531
a(Vfor
VIN
tp532
a(Va
VDT
tp533
a(Vworld
VNN
tp534
a(Vthat
VWDT
tp535
a(Vcan
VMD
tp536
a(Vbe
VVB
tp537
a(Vshared
VVBN
tp538
a(Vin
VIN
tp539
a(Vpeace
VNN
tp540
a(Vand
VCC
tp541
a(Venjoyment
VNN
tp542
a(Vby
VIN
tp543
a(Vus
VPRP
tp544
a(Vall
VDT
tp545
a(V.
V.
tp546
aa(lp547
(VOur
VPRP$
tp548
a(Vprimary
VJJ
tp549
a(Veffort
VNN
tp550
a(Vhas
VVBZ
tp551
a(Vbeen
VVBN
tp552
a(Vto
VTO
tp553
a(Vensure
VVB
tp554
a(Vthat
VIN
tp555
a(Vthese
VDT
tp556
a(Vpriorities
VNNS
tp557
a(Vnot
VRB
tp558
a(Vonly
VRB
tp559
a(Vrepresent
VVB
tp560
a(Vthe
VDT
tp561
a(VCzech
VJJ
tp562
a(Vpoint
VNN
tp563
a(Vof
VIN
tp564
a(Vview
VNN
tp565
a(V,
V,
tp566
a(Vbut
VCC
tp567
a(Valso
VRB
tp568
a(Vreflect
VVBP
tp569
a(Vthe
VDT
tp570
a(Vcontinuity
VNN
tp571
a(Vof
VIN
tp572
a(Vdevelopments
VNNS
tp573
a(Vin
VIN
tp574
a(Vthe
VDT
tp575
a(VEU
VNNP
tp576
a(V,
V,
tp577
a(Vand
VCC
tp578
a(Vthe
VDT
tp579
a(Vpositions
VNNS
tp580
a(Vand
VCC
tp581
a(Videas
VNNS
tp582
a(Vof
VIN
tp583
a(Vindividual
VJJ
tp584
a(VMember
VNNP
tp585
a(VStates
VNNPS
tp586
a(Vand
VCC
tp587
a(Vpolitical
VJJ
tp588
a(Vtendencies
VNNS
tp589
a(V.
V.
tp590
aa(lp591
(VThe
VDT
tp592
a(Vdiscussions
VNNS
tp593
a(Vin
VIN
tp594
a(Vadvance
VNN
tp595
a(Vof
VIN
tp596
a(Vthis
VDT
tp597
a(Vreport
VNN
tp598
a(Vwere
VVBD
tp599
a(Valways
VRB
tp600
a(Vvery
VRB
tp601
a(Vfruitful
VJJ
tp602
a(Vand
VCC
tp603
a(Vinteresting
VJJ
tp604
a(V.
V.
tp605
aa(lp606
(VI
VPRP
tp607
a(Vhope
VVBP
tp608
a(Veverything
VNN
tp609
a(Vwill
VMD
tp610
a(Vbe
VVB
tp611
a(Vin
VIN
tp612
a(Vplace
VNN
tp613
a(Vto
VTO
tp614
a(Vallow
VVB
tp615
a(Vratification
VNN
tp616
a(Vto
VTO
tp617
a(Vgo
VVB
tp618
a(Vahead
VRB
tp619
a(Vbefore
VIN
tp620
a(Vthese
VDT
tp621
a(Vsix
VCD
tp622
a(Vmonths
VNNS
tp623
a(Vhave
VVBP
tp624
a(Velapsed
VVBN
tp625
a(V.
V.
tp626
aa(lp627
(VI
VPRP
tp628
a(Vcompletely
VRB
tp629
a(Vagree
VVBP
tp630
a(Vwith
VIN
tp631
a(Vthe
VDT
tp632
a(Vdemand
VNN
tp633
a(Vto
VTO
tp634
a(Vhold
VVB
tp635
a(Vthese
VDT
tp636
a(Vmeetings
VNNS
tp637
a(Vinstead
VRB
tp638
a(Vduring
VIN
tp639
a(Vthe
VDT
tp640
a(Vweeks
VNNS
tp641
a(Vin
VIN
tp642
a(Vwhich
VWDT
tp643
a(Vthe
VDT
tp644
a(Vpolitical
VJJ
tp645
a(Vgroups
VNNS
tp646
a(Vmeet
VVBP
tp647
a(Vso
VRB
tp648
a(Vthat
VIN
tp649
a(Vthere
VEX
tp650
a(Vis
VVBZ
tp651
a(Va
VDT
tp652
a(Vrather
VRB
tp653
a(Vbetter
VJJR
tp654
a(Vpresence
VNN
tp655
a(Von
VIN
tp656
a(Vour
VPRP$
tp657
a(Vpart
VNN
tp658
a(V.
V.
tp659
aa(lp660
(VFor
VIN
tp661
a(Vthis
VDT
tp662
a(VParliament
VNNP
tp663
a(Vit
VPRP
tp664
a(Vcontains
VVBZ
tp665
a(Vincreased
VVBN
tp666
a(Vpowers
VNNS
tp667
a(Vthat
VWDT
tp668
a(Vwill
VMD
tp669
a(Vimprove
VVB
tp670
a(Vthe
VDT
tp671
a(Vdemocracy
VNN
tp672
a(Vand
VCC
tp673
a(Vefficiency
VNN
tp674
a(Vof
VIN
tp675
a(Vthe
VDT
tp676
a(VEU
VNNP
tp677
a(V.
V.
tp678
aa(lp679
(VWe
VPRP
tp680
a(Vare
VVBP
tp681
a(Vnot
VRB
tp682
a(Vtalking
VVBG
tp683
a(Vabout
VIN
tp684
a(Vlobbies
VNNS
tp685
a(Vhere
VRB
tp686
a(V,
V,
tp687
a(Vbut
VCC
tp688
a(Vabout
VIN
tp689
a(Vpeople
VNNS
tp690
a(Vwho
VWP
tp691
a(Vare
VVBP
tp692
a(Vbenefiting
VVBG
tp693
a(Vfrom
VIN
tp694
a(Vsomething
VNN
tp695
a(Vthat
VWDT
tp696
a(Vis
VVBZ
tp697
a(Vby
VIN
tp698
a(Vno
VDT
tp699
a(Vmeans
VVBZ
tp700
a(Va
VDT
tp701
a(Vsubsidy
VNN
tp702
a(V,
V,
tp703
a(Vbut
VCC
tp704
a(Va
VDT
tp705
a(Vlife-long
VJJ
tp706
a(Vinvestment
VNN
tp707
a(V.
V.
tp708
aa(lp709
(VThese
VDT
tp710
a(Vreplies
VNNS
tp711
a(Vwere
VVBD
tp712
a(Vsubmitted
VVBN
tp713
a(Von
VIN
tp714
a(V31
VCD
tp715
a(VJanuary
VNNP
tp716
a(V.
V.
tp717
aa(lp718
(VFor
VIN
tp719
a(Vmost
VJJS
tp720
a(Vof
VIN
tp721
a(Vus
VPRP
tp722
a(V,
V,
tp723
a(Vyou
VPRP
tp724
a(Vare
VVBP
tp725
a(Vstill
VRB
tp726
a(Vone
VCD
tp727
a(Vof
VIN
tp728
a(Vthose
VDT
tp729
a(Vwho
VWP
tp730
a(Vorganised
VVBD
tp731
a(Vthe
VDT
tp732
a(VAzores
VNNP
tp733
a(Vsummit
VNN
tp734
a(V.
V.
tp735
aa(lp736
(VThere
VEX
tp737
a(Vwill
VMD
tp738
a(Valso
VRB
tp739
a(Vbe
VVB
tp740
a(Va
VDT
tp741
a(Vneed
VNN
tp742
a(Vto
VTO
tp743
a(Vensure
VVB
tp744
a(Vthat
VIN
tp745
a(Vthe
VDT
tp746
a(VAgency
VNNP
tp747
a(Vgrows
VVBZ
tp748
a(Vin
VIN
tp749
a(Vstature
VNN
tp750
a(Vso
VIN
tp751
a(Vthat
VIN
tp752
a(Vit
VPRP
tp753
a(Vhas
VVBZ
tp754
a(Vthe
VDT
tp755
a(Vpower
VNN
tp756
a(Vto
VTO
tp757
a(Vact
VVB
tp758
a(Vin
VIN
tp759
a(Vevery
VDT
tp760
a(Vcountry
VNN
tp761
a(V.
V.
tp762
aa(lp763
(VIn
VIN
tp764
a(Vthe
VDT
tp765
a(VFirst
VNNP
tp766
a(VWorld
VNNP
tp767
a(VWar
VNNP
tp768
a(Vthat
VIN
tp769
a(Vbecame
VVBD
tp770
a(Vthe
VDT
tp771
a(Vdeciding
VVBG
tp772
a(Vfactor
VNN
tp773
a(Vin
VIN
tp774
a(Vpreventing
VVBG
tp775
a(Vthe
VDT
tp776
a(Vexpansion
VNN
tp777
a(Vof
VIN
tp778
a(Vimperial
VJJ
tp779
a(VGermany
VNNP
tp780
a(V.
V.
tp781
aa(lp782
(VThe
VDT
tp783
a(VCommissioner
VNNP
tp784
a(Vhas
VVBZ
tp785
a(Vtaken
VVBN
tp786
a(Vthe
VDT
tp787
a(Vtrouble
VNN
tp788
a(Vto
VTO
tp789
a(Vvisit
VVB
tp790
a(Vmany
VJJ
tp791
a(Vwine-producing
VJJ
tp792
a(Vregions
VNNS
tp793
a(Vin
VIN
tp794
a(Vrecent
VJJ
tp795
a(Vmonths
VNNS
tp796
a(V,
V,
tp797
a(Vand
VCC
tp798
a(Vfor
VIN
tp799
a(Vthat
VDT
tp800
a(VI
VPRP
tp801
a(Vam
VVBP
tp802
a(Vobliged
VVBN
tp803
a(Vto
VTO
tp804
a(Vher
VPRP
tp805
a(V.
V.
tp806
aa(lp807
(VIf
VIN
tp808
a(VSlovakia
VNNP
tp809
a(Vis
VVBZ
tp810
a(Vto
VTO
tp811
a(Vkeep
VVB
tp812
a(Vup
VRP
tp813
a(Vwith
VIN
tp814
a(Vthe
VDT
tp815
a(Vfrontrunners
VNNS
tp816
a(V,
V,
tp817
a(Van
VDT
tp818
a(Vextra
VJJ
tp819
a(Veffort
VNN
tp820
a(Vwill
VMD
tp821
a(Vneed
VVB
tp822
a(Vto
VTO
tp823
a(Vbe
VVB
tp824
a(Vmade
VVBN
tp825
a(Vin
VIN
tp826
a(Vthis
VDT
tp827
a(Vconnection
VNN
tp828
a(V.
V.
tp829
aa(lp830
(VWe
VPRP
tp831
a(V,
V,
tp832
a(Vthat
VDT
tp833
a(Vis
VVBZ
tp834
a(Valmost
VRB
tp835
a(Vall
VPDT
tp836
a(Vthose
VDT
tp837
a(Vpresent
VJJ
tp838
a(Vin
VIN
tp839
a(Vthat
VDT
tp840
a(Vcommittee
VNN
tp841
a(V,
V,
tp842
a(Vwere
VVBD
tp843
a(Vagreed
VVBN
tp844
a(Von
VIN
tp845
a(Vthis
VDT
tp846
a(V.
V.
tp847
aa(lp848
(VThe
VDT
tp849
a(Vmost
VRBS
tp850
a(Vsignificant
VJJ
tp851
a(Vthing
VNN
tp852
a(VI
VPRP
tp853
a(Vfound
VVBD
tp854
a(Vin
VIN
tp855
a(Vit
VPRP
tp856
a(Vwas
VVBD
tp857
a(Va
VDT
tp858
a(Vpicture
VNN
tp859
a(Vof
VIN
tp860
a(Vthe
VDT
tp861
a(Vfootprint
VNN
tp862
a(Vof
VIN
tp863
a(Vone
VCD
tp864
a(Vof
VIN
tp865
a(VSaddam
VNNP
tp866
a(VHussein
VNNP
tp867
a(V&apos;s
VVBZ
tp868
a(Vpalaces
VNNS
tp869
a(V.
V.
tp870
aa(lp871
(VThere
VEX
tp872
a(Vare
VVBP
tp873
a(Vstorms
VNNS
tp874
a(Vblowing
VVBG
tp875
a(Vacross
VIN
tp876
a(Vthe
VDT
tp877
a(Vcountries
VNNS
tp878
a(Vwe
VPRP
tp879
a(Vcall
VVBP
tp880
a(Vour
VPRP$
tp881
a(Vneighbours
VNNS
tp882
a(V-
V:
tp883
a(VArab
VNNP
tp884
a(Vspring
VNN
tp885
a(V,
V,
tp886
a(Vwinds
VNNS
tp887
a(Vof
VIN
tp888
a(Vchange
VNN
tp889
a(V,
V,
tp890
a(Vwhatever
VWDT
tp891
a(Vimagery
VNN
tp892
a(Vwe
VPRP
tp893
a(Vuse
VVBP
tp894
a(V.
V.
tp895
aa(lp896
(VThey
VPRP
tp897
a(Vsaid
VVBD
tp898
a(V&apos;
VRB
tp899
a(Vthis
VDT
tp900
a(Vcountry
VNN
tp901
a(Vis
VVBZ
tp902
a(Va
VDT
tp903
a(Vwonderful
VJJ
tp904
a(Vexample
VNN
tp905
a(V&apos;
VNN
tp906
a(V.
V.
tp907
aa(lp908
(VIn
VIN
tp909
a(Vfact
VNN
tp910
a(V,
V,
tp911
a(Vthis
VDT
tp912
a(Vmeans
VVBZ
tp913
a(Vthe
VDT
tp914
a(Vstaff
VNN
tp915
a(Vat
VIN
tp916
a(Vthe
VDT
tp917
a(Vlocal
VJJ
tp918
a(Vpost
VNN
tp919
a(Voffice
VNN
tp920
a(V.
V.
tp921
aa(lp922
(VOne
VCD
tp923
a(Vmotif
VNN
tp924
a(Vruns
VVBZ
tp925
a(Vthrough
VIN
tp926
a(Vthe
VDT
tp927
a(Ventire
VJJ
tp928
a(VGreen
VNNP
tp929
a(VPaper
VNNP
tp930
a(V:
V:
tp931
a(Vlet
VVB
tp932
a(Vold
VJJ
tp933
a(Vpeople
VNNS
tp934
a(Vwork
VVBP
tp935
a(V.
V.
tp936
aa(lp937
(VI
VPRP
tp938
a(Vthank
VVBP
tp939
a(Veveryone
VNN
tp940
a(Vfor
VIN
tp941
a(Vtheir
VPRP$
tp942
a(Vsupport
VNN
tp943
a(Vand
VCC
tp944
a(Vsuggestions
VNNS
tp945
a(V.
V.
tp946
aa(lp947
(VTo
VTO
tp948
a(Vbe
VVB
tp949
a(Vhonest
VJJ
tp950
a(V,
V,
tp951
a(Vthis
VDT
tp952
a(Vlevel
VNN
tp953
a(Vof
VIN
tp954
a(Vcut
VNN
tp955
a(Vcould
VMD
tp956
a(Vbe
VVB
tp957
a(Vconsidered
VVBN
tp958
a(Vsomewhat
VRB
tp959
a(Vpopulist
VJJ
tp960
a(V.
V.
tp961
aa(lp962
(VIt
VPRP
tp963
a(Vwill
VMD
tp964
a(Vbe
VVB
tp965
a(Vapplied
VVBN
tp966
a(Vaccording
VVBG
tp967
a(Vto
VTO
tp968
a(Vthe
VDT
tp969
a(Vconditions
VNNS
tp970
a(Vset
VVBN
tp971
a(Vout
VRP
tp972
a(Vin
VIN
tp973
a(Vthe
VDT
tp974
a(Vrelevant
VJJ
tp975
a(Vlegislation
VNN
tp976
a(V.
V.
tp977
aa(lp978
(VI
VPRP
tp979
a(Vfirst
VRB
tp980
a(Vbecame
VVBD
tp981
a(Vinvolved
VVBN
tp982
a(Vin
VIN
tp983
a(V2004
VCD
tp984
a(Vwhen
VWRB
tp985
a(VI
VPRP
tp986
a(Vvisited
VVBD
tp987
a(Va
VDT
tp988
a(Vhospital
VNN
tp989
a(Vin
VIN
tp990
a(Vmy
VPRP$
tp991
a(Vconstituency
VNN
tp992
a(Vat
VIN
tp993
a(Vthe
VDT
tp994
a(Vinstigation
VNN
tp995
a(Vof
VIN
tp996
a(VHealth
VNNP
tp997
a(VFirst
VNNP
tp998
a(VEurope
VNNP
tp999
a(V,
V,
tp1000
a(Vand
VCC
tp1001
a(Vthen
VRB
tp1002
a(Von
VIN
tp1003
a(VWorld
VNNP
tp1004
a(VAids
VNNP
tp1005
a(VDay
VNNP
tp1006
a(Von
VIN
tp1007
a(V1
VCD
tp1008
a(VDecember
VNNP
tp1009
a(Vthat
VWDT
tp1010
a(Vyear
VNN
tp1011
a(VI
VPRP
tp1012
a(Vhosted
VVBD
tp1013
a(Van
VDT
tp1014
a(Vexhibition
VNN
tp1015
a(Vwith
VIN
tp1016
a(VStephen
VNNP
tp1017
a(VHughes
VNNP
tp1018
a(Vin
VIN
tp1019
a(Vthis
VDT
tp1020
a(VParliament
VNNP
tp1021
a(V.
V.
tp1022
aa(lp1023
(VThere
VEX
tp1024
a(Vis
VVBZ
tp1025
a(Va
VDT
tp1026
a(Vmandatory
VJJ
tp1027
a(Vtoll
VNN
tp1028
a(Vwith
VIN
tp1029
a(Vno
VDT
tp1030
a(Vupper
VJJ
tp1031
a(Vlimit
VNN
tp1032
a(Vfor
VIN
tp1033
a(Vevery
VDT
tp1034
a(Vkilometre
VNN
tp1035
a(Vof
VIN
tp1036
a(Vtrack
VNN
tp1037
a(Vthat
VIN
tp1038
a(Va
VDT
tp1039
a(Vtrain
VNN
tp1040
a(Vcovers
VVBZ
tp1041
a(V.
V.
tp1042
aa(lp1043
(VThat
VDT
tp1044
a(Vis
VVBZ
tp1045
a(Vnot
VRB
tp1046
a(Va
VDT
tp1047
a(Vcriticism
VNN
tp1048
a(Vof
VIN
tp1049
a(Vthe
VDT
tp1050
a(Vrapporteur
VNN
tp1051
a(V.
V.
tp1052
aa(lp1053
(VIncreased
VVBN
tp1054
a(Vcompetition
VNN
tp1055
a(V,
V,
tp1056
a(Vassociated
VVBN
tp1057
a(Vwith
VIN
tp1058
a(Vthe
VDT
tp1059
a(Vglobalisation
VNN
tp1060
a(Vof
VIN
tp1061
a(Vthe
VDT
tp1062
a(Vmarket
VNN
tp1063
a(Vin
VIN
tp1064
a(Vfishery
VNN
tp1065
a(Vproducts
VNNS
tp1066
a(V,
V,
tp1067
a(Vis
VVBZ
tp1068
a(Va
VDT
tp1069
a(Vfurther
VJJ
tp1070
a(Vproblem
VNN
tp1071
a(V.
V.
tp1072
aa(lp1073
(VThere
VEX
tp1074
a(Vwas
VVBD
tp1075
a(Va
VDT
tp1076
a(Vcard
VNN
tp1077
a(Vvote
VNN
tp1078
a(Vfrom
VIN
tp1079
a(VMrs
VNNP
tp1080
a(VBaldi
VNNP
tp1081
a(Vwhen
VWRB
tp1082
a(Vshe
VPRP
tp1083
a(Vwas
VVBD
tp1084
a(Vnot
VRB
tp1085
a(Vpresent
VJJ
tp1086
a(V,
V,
tp1087
a(Vand
VCC
tp1088
a(Vthat
VIN
tp1089
a(Vgives
VVBZ
tp1090
a(Vrise
VNN
tp1091
a(Vto
VTO
tp1092
a(Vthe
VDT
tp1093
a(Vapplication
VNN
tp1094
a(Vof
VIN
tp1095
a(Vparagraph
VNN
tp1096
a(V1
VCD
tp1097
a(Vof
VIN
tp1098
a(VRule
VNN
tp1099
a(V110
VCD
tp1100
a(V.
V.
tp1101
aa(lp1102
(VNobody
VNN
tp1103
a(Vcould
VMD
tp1104
a(Vbe
VVB
tp1105
a(Vunaware
VJJ
tp1106
a(Vof
VIN
tp1107
a(Vthe
VDT
tp1108
a(Vreality
VNN
tp1109
a(Vof
VIN
tp1110
a(Vmy
VPRP$
tp1111
a(Vcountry
VNN
tp1112
a(V.
V.
tp1113
aa(lp1114
(VThere
VEX
tp1115
a(Vis
VVBZ
tp1116
a(Vvery
VRB
tp1117
a(Vlittle
VJJ
tp1118
a(Vinformation
VNN
tp1119
a(Vavailable
VJJ
tp1120
a(Von
VIN
tp1121
a(Vthis
VDT
tp1122
a(Vsubject
VJJ
tp1123
a(Vbut
VCC
tp1124
a(Vthere
VRB
tp1125
a(Vappear
VVBP
tp1126
a(Vto
VTO
tp1127
a(Vbe
VVB
tp1128
a(Va
VDT
tp1129
a(Vwealth
VNN
tp1130
a(Vof
VIN
tp1131
a(Vhorror
VNN
tp1132
a(Vstories
VNNS
tp1133
a(V.
V.
tp1134
aa(lp1135
(VThe
VDT
tp1136
a(Vpolling
VNN
tp1137
a(Vstations
VNNS
tp1138
a(V,
V,
tp1139
a(Vusually
VRB
tp1140
a(Vin
VIN
tp1141
a(Vschools
VNNS
tp1142
a(Vand
VCC
tp1143
a(Vadministered
VVBN
tp1144
a(Vby
VIN
tp1145
a(Vteachers
VNNS
tp1146
a(V,
V,
tp1147
a(Vwere
VVBD
tp1148
a(Vefficient
VJJ
tp1149
a(Vand
VCC
tp1150
a(Vwell
VRB
tp1151
a(Vorganised
VJJ
tp1152
a(V.
V.
tp1153
aa(lp1154
(VThis
VDT
tp1155
a(Vnew
VJJ
tp1156
a(Vresolution
VNN
tp1157
a(Vsupplements
VNNS
tp1158
a(Vthe
VDT
tp1159
a(Vresolutions
VNNS
tp1160
a(Vtabled
VVBD
tp1161
a(Vlast
VJJ
tp1162
a(Vyear
VNN
tp1163
a(Vin
VIN
tp1164
a(VLusaka
VNNP
tp1165
a(V,
V,
tp1166
a(VZambia
VNNP
tp1167
a(V.
V.
tp1168
aa(lp1169
(VPeace
VNN
tp1170
a(Vmust
VMD
tp1171
a(Vbe
VVB
tp1172
a(Vestablished
VVBN
tp1173
a(Vwith
VIN
tp1174
a(Vthe
VDT
tp1175
a(Vcountries
VNNS
tp1176
a(Varound
VIN
tp1177
a(VAfghanistan
VNNP
tp1178
a(Vto
VTO
tp1179
a(Vensure
VVB
tp1180
a(Vthat
VIN
tp1181
a(Van
VDT
tp1182
a(Varea
VNN
tp1183
a(Vof
VIN
tp1184
a(Vstability
VNN
tp1185
a(Vand
VCC
tp1186
a(Vpeace
VNN
tp1187
a(Vis
VVBZ
tp1188
a(Vcreated
VVBN
tp1189
a(V.
V.
tp1190
aa(lp1191
(VThe
VDT
tp1192
a(Vnon-availability
VNN
tp1193
a(Vof
VIN
tp1194
a(Vprecise
VJJ
tp1195
a(Vcriteria
VNNS
tp1196
a(Vfor
VIN
tp1197
a(Vthe
VDT
tp1198
a(Vdefinition
VNN
tp1199
a(Vof
VIN
tp1200
a(Vgovernment
VNN
tp1201
a(Vdeficit
VNN
tp1202
a(Vwould
VMD
tp1203
a(Vproduce
VVB
tp1204
a(Vdistortions
VNNS
tp1205
a(Vin
VIN
tp1206
a(Vthe
VDT
tp1207
a(Vestimates
VNNS
tp1208
a(Vof
VIN
tp1209
a(Vthe
VDT
tp1210
a(VMember
VNNP
tp1211
a(VStates
VNNPS
tp1212
a(V&apos;
VJJ
tp1213
a(Vgovernment
VNN
tp1214
a(Vdeficits
VNNS
tp1215
a(V.
V.
tp1216
aa(lp1217
(VThe
VDT
tp1218
a(Vpriority
VNN
tp1219
a(Vwill
VMD
tp1220
a(Vbe
VVB
tp1221
a(Vthe
VDT
tp1222
a(Vpromotion
VNN
tp1223
a(Vof
VIN
tp1224
a(Vinnovation
VNN
tp1225
a(V.
V.
tp1226
aa(lp1227
(VWe
VPRP
tp1228
a(Vare
VVBP
tp1229
a(Vextremely
VRB
tp1230
a(Vprudent
VJJ
tp1231
a(V.
V.
tp1232
aa(lp1233
(VWe
VPRP
tp1234
a(Vare
VVBP
tp1235
a(Vthen
VRB
tp1236
a(Vat
VIN
tp1237
a(Vsea
VNN
tp1238
a(Vwithout
VIN
tp1239
a(Va
VDT
tp1240
a(Vcompass
VNN
tp1241
a(V.
V.
tp1242
aa(lp1243
(VThe
VDT
tp1244
a(VUnion
VNNP
tp1245
a(Vmust
VMD
tp1246
a(Vassert
VVB
tp1247
a(Vits
VPRP$
tp1248
a(Vviews
VNNS
tp1249
a(Von
VIN
tp1250
a(Vthe
VDT
tp1251
a(Vsubject
VJJ
tp1252
a(Vand
VCC
tp1253
a(Vtake
VVB
tp1254
a(Vnote
VNN
tp1255
a(Vof
VIN
tp1256
a(Vthe
VDT
tp1257
a(Vfailure
VNN
tp1258
a(Vof
VIN
tp1259
a(Vthe
VDT
tp1260
a(VUnited
VNNP
tp1261
a(VStates
VNNPS
tp1262
a(V&apos;
VNN
tp1263
a(Vmilitary
VJJ
tp1264
a(Vpolicy
VNN
tp1265
a(Vin
VIN
tp1266
a(Vthe
VDT
tp1267
a(Vregion
VNN
tp1268
a(V.
V.
tp1269
aa(lp1270
(VSix
VCD
tp1271
a(Vmonths
VNNS
tp1272
a(Vago
VRB
tp1273
a(V,
V,
tp1274
a(Vhe
VPRP
tp1275
a(Vstarted
VVBD
tp1276
a(Vto
VTO
tp1277
a(Vrelax
VVB
tp1278
a(V;
V:
tp1279
a(Vthen
VRB
tp1280
a(Vhe
VPRP
tp1281
a(Vclamped
VVBD
tp1282
a(Vdown
VRP
tp1283
a(V,
V,
tp1284
a(Vand
VCC
tp1285
a(Vhe
VPRP
tp1286
a(Vsometimes
VRB
tp1287
a(Vconcealed
VVBD
tp1288
a(Vimportant
VJJ
tp1289
a(Vinformation
VNN
tp1290
a(V,
V,
tp1291
a(Vas
VIN
tp1292
a(Vyou
VPRP
tp1293
a(Vwell
VRB
tp1294
a(Vknow
VVBP
tp1295
a(V.
V.
tp1296
aa(lp1297
(VThat
VDT
tp1298
a(Vwas
VVBD
tp1299
a(Vthe
VDT
tp1300
a(Vlast
VJJ
tp1301
a(Vstatement
VNN
tp1302
a(Vof
VIN
tp1303
a(Vthis
VDT
tp1304
a(Vsitting
VVBG
tp1305
a(Vas
VIN
tp1306
a(Vwe
VPRP
tp1307
a(Vhave
VVBP
tp1308
a(Vreached
VVBN
tp1309
a(Vthe
VDT
tp1310
a(Vend
VNN
tp1311
a(Vof
VIN
tp1312
a(Vthe
VDT
tp1313
a(Vagenda
VNN
tp1314
a(V.
V.
tp1315
aa(lp1316
(VBut
VCC
tp1317
a(Vwe
VPRP
tp1318
a(Vmust
VMD
tp1319
a(Valso
VRB
tp1320
a(Vemphasise
VVB
tp1321
a(V,
V,
tp1322
a(Von
VIN
tp1323
a(Vthe
VDT
tp1324
a(Vother
VJJ
tp1325
a(Vhand
VNN
tp1326
a(V,
V,
tp1327
a(Vthat
VIN
tp1328
a(Vit
VPRP
tp1329
a(Vis
VVBZ
tp1330
a(Va
VDT
tp1331
a(Vconcept
VNN
tp1332
a(Vwhich
VWDT
tp1333
a(Vmust
VMD
tp1334
a(Vbe
VVB
tp1335
a(Vone
VCD
tp1336
a(Vthat
VWDT
tp1337
a(Vmoves
VVBZ
tp1338
a(Vwith
VIN
tp1339
a(Vthe
VDT
tp1340
a(Vtimes
VNNS
tp1341
a(V.
V.
tp1342
aa(lp1343
(VThese
VDT
tp1344
a(Vare
VVBP
tp1345
a(Vbeing
VVBG
tp1346
a(Voverwritten
VJJ
tp1347
a(Vhere
VRB
tp1348
a(Vand
VCC
tp1349
a(Vinterference
VNN
tp1350
a(Vby
VIN
tp1351
a(Va
VDT
tp1352
a(Vpublic
VJJ
tp1353
a(Vauthority
VNN
tp1354
a(Vshould
VMD
tp1355
a(Vbe
VVB
tp1356
a(Vsubject
VJJ
tp1357
a(Vto
VTO
tp1358
a(Vextremely
VRB
tp1359
a(Vstrict
VJJ
tp1360
a(Vconditions
VNNS
tp1361
a(V.
V.
tp1362
aa(lp1363
(VOut
VIN
tp1364
a(Vof
VIN
tp1365
a(Vthe
VDT
tp1366
a(Vtotal
VJJ
tp1367
a(Vincrease
VNN
tp1368
a(Vrelated
VJJ
tp1369
a(Vto
VTO
tp1370
a(Vmedicinal
VJJ
tp1371
a(Vproducts
VNNS
tp1372
a(V,
V,
tp1373
a(V47
VCD
tp1374
a(V%
VNN
tp1375
a(Vwas
VVBD
tp1376
a(Vspent
VVBN
tp1377
a(Von
VIN
tp1378
a(Vadvertising
VNN
tp1379
a(V50
VCD
tp1380
a(Vmedicinal
VJJ
tp1381
a(Vproducts
VNNS
tp1382
a(V.
V.
tp1383
aa(lp1384
(VParliament
VNNP
tp1385
a(Vhas
VVBZ
tp1386
a(Vfought
VVBN
tp1387
a(Vfor
VIN
tp1388
a(Vthis
VDT
tp1389
a(V,
V,
tp1390
a(Vin
VIN
tp1391
a(Vconjunction
VNN
tp1392
a(Vwith
VIN
tp1393
a(Vthe
VDT
tp1394
a(VCommission
VNNP
tp1395
a(V.
V.
tp1396
aa(lp1397
(VIn
VIN
tp1398
a(VFinland
VNNP
tp1399
a(V,
V,
tp1400
a(Va
VDT
tp1401
a(Vrural
VJJ
tp1402
a(Vprogramme
VNN
tp1403
a(Vwas
VVBD
tp1404
a(Vadopted
VVBN
tp1405
a(Vin
VIN
tp1406
a(V1991
VCD
tp1407
a(Vwhich
VWDT
tp1408
a(Vis
VVBZ
tp1409
a(Vcomprehensive
VJJ
tp1410
a(Vand
VCC
tp1411
a(Vprogressive
VJJ
tp1412
a(V.
V.
tp1413
aa(lp1414
(VIn
VIN
tp1415
a(Vthe
VDT
tp1416
a(Vpast
VNN
tp1417
a(Vthat
VWDT
tp1418
a(Vwas
VVBD
tp1419
a(Vnot
VRB
tp1420
a(Voften
VRB
tp1421
a(Vthe
VDT
tp1422
a(Vcase
VNN
tp1423
a(V.
V.
tp1424
aa(lp1425
(VAnd
VCC
tp1426
a(Vso
VIN
tp1427
a(Vwe
VPRP
tp1428
a(Vcome
VVBP
tp1429
a(Vto
VTO
tp1430
a(V1997
VCD
tp1431
a(V,
V,
tp1432
a(Va
VDT
tp1433
a(Vyear
VNN
tp1434
a(Vof
VIN
tp1435
a(Vgreat
VJJ
tp1436
a(Vchanges
VNNS
tp1437
a(V.
V.
tp1438
aa(lp1439
(VOur
VPRP$
tp1440
a(VBelgian
VJJ
tp1441
a(VPresidency
VNNP
tp1442
a(Vis
VVBZ
tp1443
a(V,
V,
tp1444
a(Vin
VIN
tp1445
a(Vfact
VNN
tp1446
a(V,
V,
tp1447
a(Vthe
VDT
tp1448
a(Vfirst
VJJ
tp1449
a(Vone
VCD
tp1450
a(Vwhich
VWDT
tp1451
a(Vtakes
VVBZ
tp1452
a(Vplace
VNN
tp1453
a(Ventirely
VRB
tp1454
a(Vunder
VIN
tp1455
a(Vthe
VDT
tp1456
a(VLisbon
VNNP
tp1457
a(VTreaty
VNNP
tp1458
a(V.
V.
tp1459
aa(lp1460
(VI
VPRP
tp1461
a(Vwould
VMD
tp1462
a(Vnever
VRB
tp1463
a(Vwant
VVB
tp1464
a(Vthis
VDT
tp1465
a(V.
V.
tp1466
aa(lp1467
(VWe
VPRP
tp1468
a(Vare
VVBP
tp1469
a(Vincreasingly
VRB
tp1470
a(Vsharing
VVBG
tp1471
a(Vthis
VDT
tp1472
a(Vresponsibility
VNN
tp1473
a(Vbetween
VIN
tp1474
a(Vus
VPRP
tp1475
a(V,
V,
tp1476
a(Vhowever
VRB
tp1477
a(V.
V.
tp1478
aa(lp1479
(VEarlier
VRBR
tp1480
a(Vthis
VDT
tp1481
a(Vyear
VNN
tp1482
a(V,
V,
tp1483
a(Vthe
VDT
tp1484
a(Vthree
VCD
tp1485
a(Vinstitutions
VNNS
tp1486
a(Vof
VIN
tp1487
a(Vthe
VDT
tp1488
a(VEuropean
VNNP
tp1489
a(VUnion
VNNP
tp1490
a(Vconcluded
VVBD
tp1491
a(Vthe
VDT
tp1492
a(Vinterinstitutional
VJJ
tp1493
a(Vagreement
VNN
tp1494
a(Vfor
VIN
tp1495
a(Va
VDT
tp1496
a(Vperiod
VNN
tp1497
a(Vof
VIN
tp1498
a(Vseven
VCD
tp1499
a(Vyears
VNNS
tp1500
a(V,
V,
tp1501
a(Vstipulating
VVBG
tp1502
a(Vthe
VDT
tp1503
a(Vfinancial
VJJ
tp1504
a(Vceilings
VNNS
tp1505
a(Vfor
VIN
tp1506
a(Vthe
VDT
tp1507
a(Vvarious
VJJ
tp1508
a(Vpolicy
VNN
tp1509
a(Vareas
VNNS
tp1510
a(V.
V.
tp1511
aa(lp1512
(VIt
VPRP
tp1513
a(Vis
VVBZ
tp1514
a(Vthe
VDT
tp1515
a(VMember
VNNP
tp1516
a(VStates
VNNPS
tp1517
a(Vwhich
VWDT
tp1518
a(Vhave
VVBP
tp1519
a(Vthe
VDT
tp1520
a(Vprincipal
VJJ
tp1521
a(Vresponsibility
VNN
tp1522
a(Vfor
VIN
tp1523
a(Vcompetitiveness
VNN
tp1524
a(V.
V.
tp1525
aa(lp1526
(VI
VPRP
tp1527
a(Vwould
VMD
tp1528
a(Vlike
VVB
tp1529
a(Vto
VTO
tp1530
a(Vpay
VVB
tp1531
a(Vtribute
VNN
tp1532
a(Vto
VTO
tp1533
a(Vher
VPRP$
tp1534
a(Vcontribution
VNN
tp1535
a(Vto
VTO
tp1536
a(Vthe
VDT
tp1537
a(VEuropean
VJJ
tp1538
a(Vcause
VNN
tp1539
a(Vand
VCC
tp1540
a(Vher
VPRP$
tp1541
a(Vcontribution
VNN
tp1542
a(Vto
VTO
tp1543
a(Vthe
VDT
tp1544
a(Vcause
VNN
tp1545
a(Vof
VIN
tp1546
a(Vwomen
VNNS
tp1547
a(V.
V.
tp1548
aa(lp1549
(VI
VPRP
tp1550
a(Vand
VCC
tp1551
a(Vother
VJJ
tp1552
a(Vcolleagues
VNNS
tp1553
a(Vwaited
VVBD
tp1554
a(Vten
VCD
tp1555
a(Vminutes
VNNS
tp1556
a(Vfor
VIN
tp1557
a(Va
VDT
tp1558
a(Vlift
VNN
tp1559
a(Vdown
VIN
tp1560
a(Vto
VTO
tp1561
a(Vthis
VDT
tp1562
a(Vfloor
VNN
tp1563
a(V.
V.
tp1564
aa(lp1565
(VLegislative
VJJ
tp1566
a(VDecree
VNNP
tp1567
a(Vno
VDT
tp1568
a(V.
V.
tp1569
a(V61
VCD
tp1570
a(V,
V,
tp1571
a(Vissued
VVBN
tp1572
a(Vin
VIN
tp1573
a(VMay
VNNP
tp1574
a(V2007
VCD
tp1575
a(Vto
VTO
tp1576
a(Vsolve
VVB
tp1577
a(Vthe
VDT
tp1578
a(Vrefuse
VNN
tp1579
a(Vcrisis
VNN
tp1580
a(V,
V,
tp1581
a(Vdid
VVBD
tp1582
a(Vnot
VRB
tp1583
a(Vachieve
VVB
tp1584
a(Vits
VPRP$
tp1585
a(Vaim
VNN
tp1586
a(V.
V.
tp1587
aa(lp1588
(VThat
VDT
tp1589
a(Vmay
VMD
tp1590
a(Vbe
VVB
tp1591
a(Vthe
VDT
tp1592
a(Vcase
VNN
tp1593
a(Vbut
VCC
tp1594
a(V,
V,
tp1595
a(Vthroughout
VIN
tp1596
a(Vtoday
VNN
tp1597
a(V&apos;
VVBP
tp1598
a(Vs
VNNS
tp1599
a(Vproceedings
VNNS
tp1600
a(V,
V,
tp1601
a(VMr
VNNP
tp1602
a(VPresident
VNNP
tp1603
a(V,
V,
tp1604
a(VI
VPRP
tp1605
a(Vfelt
VVBD
tp1606
a(Vyour
VPRP$
tp1607
a(Vconcern
VNN
tp1608
a(V,
V,
tp1609
a(VI
VPRP
tp1610
a(Vshared
VVBD
tp1611
a(Vyour
VPRP$
tp1612
a(Vnerves
VNNS
tp1613
a(Vwhen
VWRB
tp1614
a(Vfaced
VVBN
tp1615
a(Vwith
VIN
tp1616
a(Vthe
VDT
tp1617
a(Vuncertainty
VNN
tp1618
a(Vof
VIN
tp1619
a(Vthe
VDT
tp1620
a(Vballot
VNN
tp1621
a(Vand
VCC
tp1622
a(Vthe
VDT
tp1623
a(Vfinal
VJJ
tp1624
a(Voutcome
VNN
tp1625
a(Vwas
VVBD
tp1626
a(Va
VDT
tp1627
a(Vgreat
VJJ
tp1628
a(Vrelief
VNN
tp1629
a(Vto
VTO
tp1630
a(Vboth
VDT
tp1631
a(Vof
VIN
tp1632
a(Vus
VPRP
tp1633
a(Vwhen
VWRB
tp1634
a(Vit
VPRP
tp1635
a(Vwas
VVBD
tp1636
a(Vannounced
VVBN
tp1637
a(V.
V.
tp1638
aa(lp1639
(VIn
VIN
tp1640
a(Vother
VJJ
tp1641
a(Vwords
VNNS
tp1642
a(V,
V,
tp1643
a(Vfaced
VVBN
tp1644
a(Vwith
VIN
tp1645
a(Vthe
VDT
tp1646
a(Vcrisis
VNN
tp1647
a(Vcaused
VVBN
tp1648
a(Vby
VIN
tp1649
a(Vneoliberal
VJJ
tp1650
a(Vcapitalism
VNN
tp1651
a(V,
V,
tp1652
a(Vthe
VDT
tp1653
a(Vsolution
VNN
tp1654
a(Vis
VVBZ
tp1655
a(Vmore
VJJR
tp1656
a(Vof
VIN
tp1657
a(Vthe
VDT
tp1658
a(Vsame
VJJ
tp1659
a(V.
V.
tp1660
aa(lp1661
(VAny
VDT
tp1662
a(Vreport
VNN
tp1663
a(Von
VIN
tp1664
a(Vthis
VDT
tp1665
a(Vsubject
VNN
tp1666
a(Vshould
VMD
tp1667
a(V,
V,
tp1668
a(Vin
VIN
tp1669
a(Vmy
VPRP$
tp1670
a(Vopinion
VNN
tp1671
a(V,
V,
tp1672
a(Vdeal
VNN
tp1673
a(Vwith
VIN
tp1674
a(Vexcesses
VNNS
tp1675
a(Vagainst
VIN
tp1676
a(Vfundamental
VJJ
tp1677
a(Vhuman
VJJ
tp1678
a(Vrights
VNNS
tp1679
a(Vsuch
VJJ
tp1680
a(Vas
VIN
tp1681
a(Vthe
VDT
tp1682
a(Vfreedom
VNN
tp1683
a(Vof
VIN
tp1684
a(Vspeech
VNN
tp1685
a(V,
V,
tp1686
a(Vfreedom
VNN
tp1687
a(Vof
VIN
tp1688
a(Vthe
VDT
tp1689
a(Vpress
VNN
tp1690
a(V,
V,
tp1691
a(Vreligious
VJJ
tp1692
a(Vfreedom
VNN
tp1693
a(Vand
VCC
tp1694
a(Vfreedom
VNN
tp1695
a(Vof
VIN
tp1696
a(Vassociation
VNN
tp1697
a(V.
V.
tp1698
aa(lp1699
(VThe
VDT
tp1700
a(Vreason
VNN
tp1701
a(Vis
VVBZ
tp1702
a(Vthe
VDT
tp1703
a(Vunprecedented
VJJ
tp1704
a(Vboom
VNN
tp1705
a(Vin
VIN
tp1706
a(Vthe
VDT
tp1707
a(Vpopularity
VNN
tp1708
a(Vof
VIN
tp1709
a(Vsport
VNN
tp1710
a(Vover
VIN
tp1711
a(Vthe
VDT
tp1712
a(Vlast
VJJ
tp1713
a(Vfew
VJJ
tp1714
a(Vdecades
VNNS
tp1715
a(Vand
VCC
tp1716
a(V,
V,
tp1717
a(Vobviously
VRB
tp1718
a(V,
V,
tp1719
a(Vthe
VDT
tp1720
a(Vrich
VJJ
tp1721
a(Vrewards
VNNS
tp1722
a(Vthat
VWDT
tp1723
a(Vaccompany
VVBP
tp1724
a(Vit
VPRP
tp1725
a(V.
V.
tp1726
aa(lp1727
(VThis
VDT
tp1728
a(Vis
VVBZ
tp1729
a(Vwhere
VWRB
tp1730
a(VI
VPRP
tp1731
a(Vshall
VMD
tp1732
a(Vleave
VVB
tp1733
a(Vmy
VPRP$
tp1734
a(Vcontribution
VNN
tp1735
a(V,
V,
tp1736
a(Vas
VIN
tp1737
a(Vtime
VNN
tp1738
a(Vis
VVBZ
tp1739
a(Vgetting
VVBG
tp1740
a(Von
VIN
tp1741
a(V.
V.
tp1742
aa(lp1743
(VThat
VDT
tp1744
a(Vis
VVBZ
tp1745
a(Vmy
VPRP$
tp1746
a(Vquestion
VNN
tp1747
a(Vto
VTO
tp1748
a(Vthe
VDT
tp1749
a(VCommission
VNNP
tp1750
a(V.
V.
tp1751
aa(lp1752
(VWe
VPRP
tp1753
a(Vwill
VMD
tp1754
a(Vfollow
VVB
tp1755
a(Vthe
VDT
tp1756
a(Vdiscussions
VNNS
tp1757
a(Vand
VCC
tp1758
a(Vnegotiations
VNNS
tp1759
a(Vthat
VWDT
tp1760
a(Vform
VVBP
tp1761
a(Vpart
VNN
tp1762
a(Vof
VIN
tp1763
a(Vthe
VDT
tp1764
a(Vassessment
VNN
tp1765
a(Vof
VIN
tp1766
a(Vhow
VWRB
tp1767
a(Vfar
VRB
tp1768
a(Vthe
VDT
tp1769
a(Vworld
VNN
tp1770
a(Vhas
VVBZ
tp1771
a(Vcome
VVBN
tp1772
a(Vin
VIN
tp1773
a(V15
VCD
tp1774
a(Vyears
VNNS
tp1775
a(Vtowards
VIN
tp1776
a(Vachieving
VVBG
tp1777
a(Vthe
VDT
tp1778
a(Vobjectives
VNNS
tp1779
a(Vof
VIN
tp1780
a(Vthe
VDT
tp1781
a(Vplatform
VNN
tp1782
a(V.
V.
tp1783
aa(lp1784
(VWe
VPRP
tp1785
a(Valways
VRB
tp1786
a(Vcome
VVBP
tp1787
a(Vback
VRB
tp1788
a(Vto
VTO
tp1789
a(Veconomic
VJJ
tp1790
a(Vsanctions
VNNS
tp1791
a(V.
V.
tp1792
aa(lp1793
(VIn
VIN
tp1794
a(V1956
VCD
tp1795
a(Vour
VPRP$
tp1796
a(Vrequest
VNN
tp1797
a(Vwas
VVBD
tp1798
a(V:
V:
tp1799
a(V&apos;
VVB
tp1800
a(VBack
VRB
tp1801
a(Vto
VTO
tp1802
a(VEurope
VNNP
tp1803
a(V!
V.
tp1804
a(V&apos;
VIN
tp1805
aa(lp1806
(VWhat
VWDT
tp1807
a(Vconcrete
VJJ
tp1808
a(Vsteps
VNNS
tp1809
a(Vhas
VVBZ
tp1810
a(Vthe
VDT
tp1811
a(VCommission
VNNP
tp1812
a(Vso
VRB
tp1813
a(Vfar
VRB
tp1814
a(Vtaken
VVBN
tp1815
a(Vto
VTO
tp1816
a(Vthis
VDT
tp1817
a(Vend
VNN
tp1818
a(V?
V.
tp1819
aa(lp1820
(VBut
VCC
tp1821
a(Vwe
VPRP
tp1822
a(Vare
VVBP
tp1823
a(Vgoing
VVBG
tp1824
a(Vto
VTO
tp1825
a(Vabstain
VVB
tp1826
a(Vbecause
VIN
tp1827
a(Vwe
VPRP
tp1828
a(Valso
VRB
tp1829
a(Vbelieve
VVBP
tp1830
a(Vthat
VIN
tp1831
a(Vwe
VPRP
tp1832
a(Vmust
VMD
tp1833
a(Vlisten
VVB
tp1834
a(Vto
VTO
tp1835
a(Vthe
VDT
tp1836
a(Vopinion
VNN
tp1837
a(Vof
VIN
tp1838
a(VLatin
VNNP
tp1839
a(VAmerica
VNNP
tp1840
a(Vand
VCC
tp1841
a(V,
V,
tp1842
a(Vin
VIN
tp1843
a(Vthis
VDT
tp1844
a(Vcase
VNN
tp1845
a(V,
V,
tp1846
a(Vits
VPRP$
tp1847
a(Vsocial
VJJ
tp1848
a(Vorganisations
VNNS
tp1849
a(Vas
VRB
tp1850
a(Vwell
VRB
tp1851
a(V.
V.
tp1852
aa(lp1853
(VSome
VDT
tp1854
a(Vof
VIN
tp1855
a(Vthese
VDT
tp1856
a(Vposts
VNNS
tp1857
a(Vare
VVBP
tp1858
a(Vdescribed
VVBN
tp1859
a(Vas
VIN
tp1860
a(Vjobs
VNNS
tp1861
a(V,
V,
tp1862
a(Vas
VIN
tp1863
a(Vif
VIN
tp1864
a(Vthere
VEX
tp1865
a(Vwas
VVBD
tp1866
a(Vemployment
VNN
tp1867
a(Vattached
VVBN
tp1868
a(V.
V.
tp1869
aa(lp1870
(VThe
VDT
tp1871
a(Vcurrent
VJJ
tp1872
a(Vpresident
VNN
tp1873
a(V,
V,
tp1874
a(VMr
VNNP
tp1875
a(VMubarak
VNNP
tp1876
a(V,
V,
tp1877
a(Vdoes
VVBZ
tp1878
a(Vnot
VRB
tp1879
a(Voffer
VVB
tp1880
a(Vany
VDT
tp1881
a(Vhope
VNN
tp1882
a(Vat
VIN
tp1883
a(Vall
VDT
tp1884
a(V.
V.
tp1885
aa(lp1886
(VI
VPRP
tp1887
a(Vtherefore
VRB
tp1888
a(Vwelcome
VJJ
tp1889
a(VCommissioner
VNNP
tp1890
a(VReding
VNN
tp1891
a(V&apos;s
VNNS
tp1892
a(V&apos;
VVBP
tp1893
a(VWomen
VNNS
tp1894
a(Von
VIN
tp1895
a(Vthe
VDT
tp1896
a(VBoard
VNNP
tp1897
a(VPledge
VNN
tp1898
a(Vfor
VIN
tp1899
a(VEurope
VNNP
tp1900
a(V&apos;
VNN
tp1901
a(Vinitiative
VNN
tp1902
a(V.
V.
tp1903
aa(lp1904
(VThis
VDT
tp1905
a(Vmay
VMD
tp1906
a(Vbe
VVB
tp1907
a(Vthe
VDT
tp1908
a(Vfirst
VJJ
tp1909
a(Vtime
VNN
tp1910
a(Vthat
VIN
tp1911
a(Vthis
VDT
tp1912
a(VHouse
VNNP
tp1913
a(Vhas
VVBZ
tp1914
a(Vheard
VVBN
tp1915
a(Va
VDT
tp1916
a(Vpolitical
VJJ
tp1917
a(Vstatement
VNN
tp1918
a(Vfrom
VIN
tp1919
a(Vthe
VDT
tp1920
a(VCouncil
VNNP
tp1921
a(Vwhich
VWDT
tp1922
a(Vgoes
VVBZ
tp1923
a(Vmuch
VRB
tp1924
a(Vfurther
VRBR
tp1925
a(Vthan
VIN
tp1926
a(Vthe
VDT
tp1927
a(Vusual
VJJ
tp1928
a(Vstrictly
VRB
tp1929
a(Vformal
VJJ
tp1930
a(Vstatements
VNNS
tp1931
a(Von
VIN
tp1932
a(Vthe
VDT
tp1933
a(Vconflict
VNN
tp1934
a(Vin
VIN
tp1935
a(Vthe
VDT
tp1936
a(VWestern
VJJ
tp1937
a(VSahara
VNNP
tp1938
a(V.
V.
tp1939
aa(lp1940
(VPreparation
VNN
tp1941
a(Vof
VIN
tp1942
a(Vthe
VDT
tp1943
a(VEU-India
VNNP
tp1944
a(VSummit
VNNP
tp1945
a(V(
VNNP
tp1946
a(VMarseille
VNNP
tp1947
a(V,
V,
tp1948
a(V29
VCD
tp1949
a(VSeptember
VNNP
tp1950
a(V2008
VCD
tp1951
a(V)
VCD
tp1952
aa(lp1953
(VPerhaps
VRB
tp1954
a(V,
V,
tp1955
a(Vfrom
VIN
tp1956
a(Vnow
VRB
tp1957
a(Von
VIN
tp1958
a(V,
V,
tp1959
a(Vjustice
VNN
tp1960
a(Vwill
VMD
tp1961
a(Vbe
VVB
tp1962
a(Vable
VJJ
tp1963
a(Vto
VTO
tp1964
a(Vcross
VVB
tp1965
a(Vborders
VNNS
tp1966
a(Vwithout
VIN
tp1967
a(Vhindrance
VNN
tp1968
a(V,
V,
tp1969
a(Vunlike
VIN
tp1970
a(Vin
VIN
tp1971
a(Vthe
VDT
tp1972
a(Vpast
VNN
tp1973
a(V.
V.
tp1974
aa.