(lp1
(lp2
(VAs
VIN
tp3
a(Vfar
VRB
tp4
a(Vas
VIN
tp5
a(Vthe
VDT
tp6
a(Vtask
VNN
tp7
a(Vforce
VNN
tp8
a(Vis
VVBZ
tp9
a(Vconcerned
VVBN
tp10
a(V,
V,
tp11
a(Vnew
VJJ
tp12
a(Videas
VNNS
tp13
a(Vare
VVBP
tp14
a(Valways
VRB
tp15
a(Vwelcome
VJJ
tp16
a(V,
V,
tp17
a(Vbut
VCC
tp18
a(Vit
VPRP
tp19
a(Vis
VVBZ
tp20
a(Vactions
VNNS
tp21
a(Vthat
VWDT
tp22
a(Vare
VVBP
tp23
a(Vmost
VRBS
tp24
a(Vimportant
VJJ
tp25
a(V.
V.
tp26
aa(lp27
(VWho
VWP
tp28
a(Vcan
VMD
tp29
a(Vbelieve
VVB
tp30
a(Vthat
VIN
tp31
a(Vpeace
VNN
tp32
a(Vfor
VIN
tp33
a(Vthe
VDT
tp34
a(VIsraelis
VNNPS
tp35
a(Vand
VCC
tp36
a(VPalestinians
VNNPS
tp37
a(Vwill
VMD
tp38
a(Vbe
VVB
tp39
a(Vbuilt
VVBN
tp40
a(Vthrough
VIN
tp41
a(Va
VDT
tp42
a(Vpolicy
VNN
tp43
a(Vthat
VIN
tp44
a(Vin
VIN
tp45
a(Vfact
VNN
tp46
a(Vleads
VVBZ
tp47
a(Vto
VTO
tp48
a(Vthe
VDT
tp49
a(Vradicalisation
VNN
tp50
a(Vof
VIN
tp51
a(Vthe
VDT
tp52
a(Vpeople
VNNS
tp53
a(Vof
VIN
tp54
a(VIsrael
VNNP
tp55
a(Vand
VCC
tp56
a(Vof
VIN
tp57
a(VPalestine
VNNP
tp58
a(V?
V.
tp59
aa(lp60
(VLabelling
VNN
tp61
a(Vshould
VMD
tp62
a(Vtell
VVB
tp63
a(Vconsumers
VNNS
tp64
a(Vhow
VWRB
tp65
a(Vto
VTO
tp66
a(Vuse
VVB
tp67
a(Vvitamin
VNN
tp68
a(Vand
VCC
tp69
a(Vmineral
VNN
tp70
a(Vproducts
VNNS
tp71
a(Vcorrectly
VRB
tp72
a(V.
V.
tp73
aa(lp74
(VFirst
VNNP
tp75
a(Vof
VIN
tp76
a(Vall
VDT
tp77
a(V,
V,
tp78
a(Vthe
VDT
tp79
a(Veuro
VNN
tp80
a(V&apos;s
VNNS
tp81
a(Vsuccess
VNN
tp82
a(Vhas
VVBZ
tp83
a(Vexceeded
VVBN
tp84
a(Vexpectations
VNNS
tp85
a(V,
V,
tp86
a(Vnot
VRB
tp87
a(Vonly
VRB
tp88
a(Vof
VIN
tp89
a(Vall
VDT
tp90
a(Vits
VPRP$
tp91
a(Vopponents
VNNS
tp92
a(V,
V,
tp93
a(Vof
VIN
tp94
a(Vcourse
VNN
tp95
a(V,
V,
tp96
a(Vbut
VCC
tp97
a(Veven
VRB
tp98
a(Vof
VIN
tp99
a(Vall
VDT
tp100
a(Vits
VPRP$
tp101
a(Vsupporters
VNNS
tp102
a(V.
V.
tp103
aa(lp104
(VThis
VDT
tp105
a(Vwill
VMD
tp106
a(Vinvolve
VVB
tp107
a(Va
VDT
tp108
a(Vvery
VRB
tp109
a(Vsmall
VJJ
tp110
a(Vsum
VNN
tp111
a(V,
V,
tp112
a(Vbut
VCC
tp113
a(Vit
VPRP
tp114
a(Vis
VVBZ
tp115
a(Vreally
VRB
tp116
a(Vextremely
VRB
tp117
a(Vimportant
VJJ
tp118
a(V.
V.
tp119
aa(lp120
(VThey
VPRP
tp121
a(Vdo
VVBP
tp122
a(Vnot
VRB
tp123
a(Vwant
VVB
tp124
a(Va
VDT
tp125
a(Vsecond-rate
VJJ
tp126
a(Vlanguage
VNN
tp127
a(V,
V,
tp128
a(Vand
VCC
tp129
a(Vneither
VDT
tp130
a(Vdo
VVBP
tp131
a(Vthey
VPRP
tp132
a(Vwant
VVBP
tp133
a(Vto
VTO
tp134
a(Vbe
VVB
tp135
a(Vtreated
VVBN
tp136
a(Vlike
VIN
tp137
a(Vsecond-class
VJJ
tp138
a(Vcitizens
VNNS
tp139
a(V.
V.
tp140
aa(lp141
(VEver
VRB
tp142
a(Vsince
VIN
tp143
a(VApril
VNNP
tp144
a(V,
V,
tp145
a(Vwe
VPRP
tp146
a(Vhave
VVBP
tp147
a(Vasked
VVBN
tp148
a(Vquestions
VNNS
tp149
a(Vabout
VIN
tp150
a(Vthis
VDT
tp151
a(Vissue
VNN
tp152
a(V.
V.
tp153
aa(lp154
(VChechnya
VNNP
tp155
a(Vhas
VVBZ
tp156
a(Vbeen
VVBN
tp157
a(Vsuffering
VVBG
tp158
a(Vfor
VIN
tp159
a(Vthree
VCD
tp160
a(Vyears
VNNS
tp161
a(Vnow
VRB
tp162
a(V.
V.
tp163
aa(lp164
(VPeople
VNNS
tp165
a(Vwill
VMD
tp166
a(Vsay
VVB
tp167
a(V:
V:
tp168
a(V&apos;
VVB
tp169
a(VThis
VDT
tp170
a(Vis
VVBZ
tp171
a(Vtotally
VRB
tp172
a(Vinsane
VJJ
tp173
a(V!
V.
tp174
aa(lp175
(VAnyway
VRB
tp176
a(V,
V,
tp177
a(VI
VPRP
tp178
a(Vsuppose
VVBP
tp179
a(Vit
VPRP
tp180
a(Vis
VVBZ
tp181
a(Vnear
VIN
tp182
a(VCongo
VNNP
tp183
a(V.
V.
tp184
aa(lp185
(VI
VPRP
tp186
a(Vlistened
VVBD
tp187
a(Vvery
VRB
tp188
a(Vcarefully
VRB
tp189
a(Vto
VTO
tp190
a(Vthe
VDT
tp191
a(Vspeakers
VNNS
tp192
a(Vfrom
VIN
tp193
a(Vthe
VDT
tp194
a(VLiberal
VNNP
tp195
a(VGroup
VNNP
tp196
a(V,
V,
tp197
a(Vbut
VCC
tp198
a(VI
VPRP
tp199
a(Vwas
VVBD
tp200
a(Vnot
VRB
tp201
a(Vreally
VRB
tp202
a(Vable
VJJ
tp203
a(Vto
VTO
tp204
a(Vtell
VVB
tp205
a(Vwhat
VWP
tp206
a(Vthey
VPRP
tp207
a(Vintend
VVBP
tp208
a(Vto
VTO
tp209
a(Vdo
VVB
tp210
a(V.
V.
tp211
aa(lp212
(VCultural
VJJ
tp213
a(VHeritage
VNNP
tp214
a(V-
V:
tp215
a(Vthe
VDT
tp216
a(VRaphael
VNNP
tp217
a(Vprogramme
VNN
tp218
aa(lp219
(VOthers
VNNS
tp220
a(Vare
VVBP
tp221
a(Vfretting
VVBG
tp222
a(Vabout
VIN
tp223
a(Vnot
VRB
tp224
a(Vbeing
VVBG
tp225
a(Vable
VJJ
tp226
a(Vto
VTO
tp227
a(Vbenefit
VVB
tp228
a(Vmore
VRBR
tp229
a(Vfrom
VIN
tp230
a(Vthe
VDT
tp231
a(Vprotective
VJJ
tp232
a(Vshield
VNN
tp233
a(Vprovided
VVBN
tp234
a(Vby
VIN
tp235
a(Vthe
VDT
tp236
a(Veuro
VNN
tp237
a(V.
V.
tp238
aa(lp239
(VMaybe
VRB
tp240
a(Vsome
VDT
tp241
a(Vgenerous
VJJ
tp242
a(Vsoul
VNN
tp243
a(V,
V,
tp244
a(Vbut
VCC
tp245
a(Vvery
VRB
tp246
a(Vfew
VJJ
tp247
a(V.
V.
tp248
aa(lp249
(VThe
VDT
tp250
a(VCzech
VNNP
tp251
a(VRepublic
VNNP
tp252
a(V,
V,
tp253
a(Vhowever
VRB
tp254
a(V,
V,
tp255
a(Vdoes
VVBZ
tp256
a(Vnot
VRB
tp257
a(Vhave
VVB
tp258
a(Va
VDT
tp259
a(Vpresidential
VJJ
tp260
a(Vsystem
VNN
tp261
a(Vand
VCC
tp262
a(Vthe
VDT
tp263
a(Vgovernment
VNN
tp264
a(Vcan
VMD
tp265
a(Vbring
VVB
tp266
a(Van
VDT
tp267
a(Vaction
VNN
tp268
a(Vagainst
VIN
tp269
a(Vsuch
VPDT
tp270
a(Va
VDT
tp271
a(Vpresident
VNN
tp272
a(Vfor
VIN
tp273
a(Vexceeding
VVBG
tp274
a(Vhis
VPRP$
tp275
a(Vauthority
VNN
tp276
a(V.
V.
tp277
aa(lp278
(VThis
VDT
tp279
a(Vrule
VNN
tp280
a(Vapplies
VVBZ
tp281
a(Vto
VTO
tp282
a(Vindividual
VJJ
tp283
a(Vprogrammes
VNNS
tp284
a(Vwith
VIN
tp285
a(Veffect
VNN
tp286
a(Vfrom
VIN
tp287
a(V31
VCD
tp288
a(VDecember
VNNP
tp289
a(V2002
VCD
tp290
a(V,
V,
tp291
a(Votherwise
VRB
tp292
a(Vwith
VIN
tp293
a(Veffect
VNN
tp294
a(Vfrom
VIN
tp295
a(V31
VCD
tp296
a(VDecember
VNNP
tp297
a(V2003
VCD
tp298
a(V.
V.
tp299
aa(lp300
(Vpoor
VJJ
tp301
a(Vworking
VNN
tp302
a(Vconditions
VNNS
tp303
a(Vfor
VIN
tp304
a(Vpeople
VNNS
tp305
a(Vworking
VVBG
tp306
a(Vin
VIN
tp307
a(Vthe
VDT
tp308
a(VMembers
VNNS
tp309
a(V&apos;
VVBP
tp310
a(Vcash
VNN
tp311
a(Voffice
VNN
tp312
aa(lp313
(VLastly
VRB
tp314
a(V,
V,
tp315
a(Vthe
VDT
tp316
a(VMember
VNNP
tp317
a(VStates
VNNPS
tp318
a(Vwere
VVBD
tp319
a(Vnow
VRB
tp320
a(Vfree
VJJ
tp321
a(Vto
VTO
tp322
a(Vdecide
VVB
tp323
a(Vwhether
VIN
tp324
a(Vor
VCC
tp325
a(Vnot
VRB
tp326
a(Vto
VTO
tp327
a(Vset
VVB
tp328
a(Va
VDT
tp329
a(Vcompulsory
VJJ
tp330
a(Vlimit
VNN
tp331
a(Von
VIN
tp332
a(Vthe
VDT
tp333
a(Vnumber
VNN
tp334
a(Vof
VIN
tp335
a(Vauthorisations
VNNS
tp336
a(Vto
VTO
tp337
a(Vprovide
VVB
tp338
a(Vport
VJJ
tp339
a(Vservices
VNNS
tp340
a(V.
V.
tp341
aa(lp342
(VThe
VDT
tp343
a(VTreaty
VNNP
tp344
a(Vof
VIN
tp345
a(VLisbon
VNNP
tp346
a(Vsignals
VVBZ
tp347
a(Vthe
VDT
tp348
a(Vreturn
VNN
tp349
a(Vto
VTO
tp350
a(Vpolitics
VNNS
tp351
a(Vin
VIN
tp352
a(VEurope
VNNP
tp353
a(V.
V.
tp354
aa(lp355
(VOn
VIN
tp356
a(Vthe
VDT
tp357
a(Vsectoral
VJJ
tp358
a(Vdialogues
VNNS
tp359
a(V,
V,
tp360
a(Vmy
VPRP$
tp361
a(Vservices
VNNS
tp362
a(Vproduce
VVBP
tp363
a(Vregular
VJJ
tp364
a(Vupdates
VNNS
tp365
a(Vand
VCC
tp366
a(Vthese
VDT
tp367
a(Vare
VVBP
tp368
a(Von
VIN
tp369
a(Vour
VPRP$
tp370
a(Vwebsites
VNNS
tp371
a(V.
V.
tp372
aa(lp373
(VMrs
VNNP
tp374
a(Vde
VIN
tp375
a(VPalacio
VNNP
tp376
a(V&apos;
VNNP
tp377
a(Vs
VVBZ
tp378
a(Vcompromise
VNN
tp379
a(Vproposal
VNN
tp380
a(Vendeavours
VNNS
tp381
a(Vto
VTO
tp382
a(Vgo
VVB
tp383
a(Vas
VRB
tp384
a(Vfar
VRB
tp385
a(Vas
VIN
tp386
a(Vpossible
VJJ
tp387
a(Vtowards
VIN
tp388
a(Vmeeting
VNN
tp389
a(VParliament
VNNP
tp390
a(V&apos;
VNNP
tp391
a(Vs
VVBZ
tp392
a(Vwishes
VNNS
tp393
a(V.
V.
tp394
a(VI
VPRP
tp395
a(Vthink
VVBP
tp396
a(Vyou
VPRP
tp397
a(Vunderstand
VVB
tp398
a(Vthis
VDT
tp399
a(V.
V.
tp400
aa(lp401
(VI
VPRP
tp402
a(Vdo
VVBP
tp403
a(Vnot
VRB
tp404
a(Vspeak
VVB
tp405
a(Vof
VIN
tp406
a(Vother
VJJ
tp407
a(Vvery
VRB
tp408
a(Vcruel
VJJ
tp409
a(Vmethods
VNNS
tp410
a(Vof
VIN
tp411
a(Vkilling
VVBG
tp412
a(Vpeople
VNNS
tp413
a(V.
V.
tp414
aa(lp415
(VIn
VIN
tp416
a(Van
VDT
tp417
a(Vage
VNN
tp418
a(Vwhen
VWRB
tp419
a(V,
V,
tp420
a(Vat
VIN
tp421
a(Vevery
VDT
tp422
a(Vimportant
VJJ
tp423
a(Vmoment
VNN
tp424
a(V,
V,
tp425
a(Vwhen
VWRB
tp426
a(Va
VDT
tp427
a(Vpeace
VNN
tp428
a(Vagreement
VNN
tp429
a(Vis
VVBZ
tp430
a(Vsigned
VVBN
tp431
a(V,
V,
tp432
a(Vwhen
VWRB
tp433
a(Va
VDT
tp434
a(Vfamily
VNN
tp435
a(Vparty
VNN
tp436
a(Vis
VVBZ
tp437
a(Vcelebrated
VVBN
tp438
a(V,
V,
tp439
a(Vetc
VFW
tp440
a(V.
V.
tp441
a(V,
V,
tp442
a(Vit
VPRP
tp443
a(Vis
VVBZ
tp444
a(Vwine
VNN
tp445
a(Vand
VCC
tp446
a(V,
V,
tp447
a(Vmoreover
VRB
tp448
a(V,
V,
tp449
a(Vquality
VNN
tp450
a(Vwine
VNN
tp451
a(Vthat
VWDT
tp452
a(Vis
VVBZ
tp453
a(Vconsumed
VVBN
tp454
a(V,
V,
tp455
a(Vquality
VNN
tp456
a(Vmust
VMD
tp457
a(Vbe
VVB
tp458
a(Vrecognised
VVBN
tp459
a(V.
V.
tp460
aa(lp461
(VI
VPRP
tp462
a(Vhope
VVBP
tp463
a(Vthat
VIN
tp464
a(Vthe
VDT
tp465
a(Vname
VNN
tp466
a(Vof
VIN
tp467
a(Vthis
VDT
tp468
a(Vmysterious
VJJ
tp469
a(VMember
VNNP
tp470
a(VState
VNNP
tp471
a(Vneighbouring
VVBG
tp472
a(VGermany
VNNP
tp473
a(Vdoes
VVBZ
tp474
a(Vnot
VRB
tp475
a(Vbegin
VVB
tp476
a(Vwith
VIN
tp477
a(Vthe
VDT
tp478
a(Vletter
VNN
tp479
a(V&apos;
VJJ
tp480
a(VF
VNN
tp481
a(V&apos;
VNN
tp482
a(V.
V.
tp483
aa(lp484
(VIndeed
VRB
tp485
a(V,
V,
tp486
a(Vthe
VDT
tp487
a(Vnumber
VNN
tp488
a(Vof
VIN
tp489
a(Vreactors
VNNS
tp490
a(Vthat
VWDT
tp491
a(Vare
VVBP
tp492
a(Vthought
VVBN
tp493
a(Vto
VTO
tp494
a(Vneed
VVB
tp495
a(Vto
VTO
tp496
a(Vbe
VVB
tp497
a(Vdecommissioned
VVBN
tp498
a(Vin
VIN
tp499
a(VEU
VNNP
tp500
a(Vterritory
VNN
tp501
a(Vin
VIN
tp502
a(Vthe
VDT
tp503
a(Vnear
VJJ
tp504
a(Vfuture
VNN
tp505
a(Vis
VVBZ
tp506
a(Vrather
VRB
tp507
a(Vhigh
VJJ
tp508
a(V.
V.
tp509
aa(lp510
(VA
VDT
tp511
a(VChinese
VJJ
tp512
a(Vsupplier
VNN
tp513
a(Vsupplied
VVBD
tp514
a(Va
VDT
tp515
a(Vpaint
VNN
tp516
a(Vhere
VRB
tp517
a(Vwhich
VWDT
tp518
a(Vit
VPRP
tp519
a(Vshould
VMD
tp520
a(Vnot
VRB
tp521
a(Vhave
VVB
tp522
a(Vsupplied
VVBN
tp523
a(V.
V.
tp524
aa(lp525
(VIt
VPRP
tp526
a(Vis
VVBZ
tp527
a(Vnow
VRB
tp528
a(V2009
VCD
tp529
a(Vand
VCC
tp530
a(V,
V,
tp531
a(Vdespite
VIN
tp532
a(Veverything
VNN
tp533
a(V,
V,
tp534
a(Vwe
VPRP
tp535
a(Vare
VVBP
tp536
a(Vfaced
VVBN
tp537
a(Vwith
VIN
tp538
a(Vincreasing
VVBG
tp539
a(Vpoverty
VNN
tp540
a(Vand
VCC
tp541
a(Van
VDT
tp542
a(Veconomic
VJJ
tp543
a(Vand
VCC
tp544
a(Vfinancial
VJJ
tp545
a(Vcrisis
VNN
tp546
a(Vwithout
VIN
tp547
a(Vparallel
VNN
tp548
a(Vin
VIN
tp549
a(Vhistory
VNN
tp550
a(V.
V.
tp551
aa(lp552
(VUnder
VIN
tp553
a(Vthese
VDT
tp554
a(Vcircumstances
VNNS
tp555
a(V,
V,
tp556
a(Vthe
VDT
tp557
a(VCommission
VNNP
tp558
a(Vconsiders
VVBZ
tp559
a(Vthat
VIN
tp560
a(Vthe
VDT
tp561
a(Vmost
VRBS
tp562
a(Vurgent
VJJ
tp563
a(Vissue
VNN
tp564
a(Vis
VVBZ
tp565
a(Vnot
VRB
tp566
a(Vso
VRB
tp567
a(Vmuch
VJJ
tp568
a(Vthat
VIN
tp569
a(Vof
VIN
tp570
a(Vthe
VDT
tp571
a(Vsingle
VJJ
tp572
a(Vjudge
VNN
tp573
a(V,
V,
tp574
a(Vbut
VCC
tp575
a(Vof
VIN
tp576
a(Vconducting
VVBG
tp577
a(Va
VDT
tp578
a(Vthorough
VJJ
tp579
a(Vreform
VNN
tp580
a(Vof
VIN
tp581
a(Vthe
VDT
tp582
a(VCommunity
VNNP
tp583
a(Vlegal
VJJ
tp584
a(Vsystem
VNN
tp585
a(Vas
VIN
tp586
a(Va
VDT
tp587
a(Vwhole
VNN
tp588
a(V.
V.
tp589
aa(lp590
(VI
VPRP
tp591
a(Vdo
VVBP
tp592
a(Vnot
VRB
tp593
a(Vthink
VVB
tp594
a(Vthat
VIN
tp595
a(Vthere
VEX
tp596
a(Vshould
VMD
tp597
a(Vbe
VVB
tp598
a(Van
VDT
tp599
a(Vexchange
VNN
tp600
a(Vof
VIN
tp601
a(Vviews
VNNS
tp602
a(Vprior
VRB
tp603
a(Vto
VTO
tp604
a(Vthat
VDT
tp605
a(Vmeeting
VNN
tp606
a(V.
V.
tp607
aa(lp608
(VThere
VEX
tp609
a(Vare
VVBP
tp610
a(Valso
VRB
tp611
a(Vrumours
VNNS
tp612
a(Vthat
VIN
tp613
a(Vthe
VDT
tp614
a(VKatangan
VJJ
tp615
a(Vpolice
VNNS
tp616
a(Vare
VVBP
tp617
a(Vplanning
VVBG
tp618
a(Van
VDT
tp619
a(Voperation
VNN
tp620
a(Vfrom
VIN
tp621
a(VAngola
VNNP
tp622
a(Vto
VTO
tp623
a(Vexpel
VVB
tp624
a(VKabila
VNNP
tp625
a(V,
V,
tp626
a(Vwho
VWP
tp627
a(Vnow
VRB
tp628
a(Vsymbolises
VVBZ
tp629
a(Vthe
VDT
tp630
a(Vstate
VNN
tp631
a(Vof
VIN
tp632
a(VCongo
VNNP
tp633
a(V,
V,
tp634
a(Vfrom
VIN
tp635
a(VKatanga
VNNP
tp636
a(V.
V.
tp637
aa(lp638
(VBut
VCC
tp639
a(Vsome
VDT
tp640
a(Vpeople
VNNS
tp641
a(Von
VIN
tp642
a(Vthe
VDT
tp643
a(VCommittee
VNNP
tp644
a(Von
VIN
tp645
a(VFisheries
VNNPS
tp646
a(Vseem
VVBP
tp647
a(Vto
VTO
tp648
a(Vthink
VVB
tp649
a(Votherwise
VRB
tp650
a(V.
V.
tp651
aa(lp652
(VIt
VPRP
tp653
a(Vwas
VVBD
tp654
a(Valso
VRB
tp655
a(Vnot
VRB
tp656
a(VUkraine
VNNP
tp657
a(V\u2019
VCD
tp658
a(Vs
VNNS
tp659
a(Vfault
VNN
tp660
a(Vthat
VIN
tp661
a(Vit
VPRP
tp662
a(Vwas
VVBD
tp663
a(Va
VDT
tp664
a(VSoviet
VJJ
tp665
a(Vrepublic
VNN
tp666
a(Vin
VIN
tp667
a(V1963
VCD
tp668
a(V.
V.
tp669
aa(lp670
(VThey
VPRP
tp671
a(Vhave
VVBP
tp672
a(Vnow
VRB
tp673
a(Vcompletely
VRB
tp674
a(Vlost
VVBN
tp675
a(Vtouch
VNN
tp676
a(Vwith
VIN
tp677
a(Vwhat
VWP
tp678
a(Vis
VVBZ
tp679
a(Vgoing
VVBG
tp680
a(Von
VIN
tp681
a(Vin
VIN
tp682
a(Vthe
VDT
tp683
a(Vminds
VNNS
tp684
a(Vof
VIN
tp685
a(Vtheir
VPRP$
tp686
a(Vown
VJJ
tp687
a(Vcitizens
VNNS
tp688
a(V.
V.
tp689
aa(lp690
(VThe
VDT
tp691
a(VCommission
VNNP
tp692
a(Vproposal
VNN
tp693
a(Vand
VCC
tp694
a(Vthe
VDT
tp695
a(VCouncil
VNNP
tp696
a(V&apos;s
VNNS
tp697
a(Vcommon
VJJ
tp698
a(Vposition
VNN
tp699
a(Vare
VVBP
tp700
a(Vbased
VVBN
tp701
a(Von
VIN
tp702
a(Vthe
VDT
tp703
a(V&apos;
VNN
tp704
a(Vquick
VJJ
tp705
a(Vfix
VNN
tp706
a(V&apos;
VNN
tp707
a(Vprinciple
VNN
tp708
a(V,
V,
tp709
a(Vwhile
VIN
tp710
a(VParliament
VNNP
tp711
a(Vhas
VVBZ
tp712
a(Vwanted
VVBD
tp713
a(Va
VDT
tp714
a(Vbroader
VJJR
tp715
a(Vhorizontal
VJJ
tp716
a(Vapproach
VNN
tp717
a(V.
V.
tp718
aa(lp719
(VIt
VPRP
tp720
a(Vis
VVBZ
tp721
a(Vthe
VDT
tp722
a(Vway
VNN
tp723
a(Vforward
VRB
tp724
a(V.
V.
tp725
aa(lp726
(VIf
VIN
tp727
a(VI
VPRP
tp728
a(Vfind
VVBP
tp729
a(Vit
VPRP
tp730
a(Vconfusing
VJJ
tp731
a(V,
V,
tp732
a(Vthen
VRB
tp733
a(VI
VPRP
tp734
a(Vsuspect
VVBP
tp735
a(Vmany
VJJ
tp736
a(Vof
VIN
tp737
a(Vmy
VPRP$
tp738
a(Vconstituents
VNNS
tp739
a(Vdo
VVBP
tp740
a(V.
V.
tp741
aa(lp742
(VWe
VPRP
tp743
a(Vmust
VMD
tp744
a(Vtherefore
VRB
tp745
a(Vachieve
VVB
tp746
a(Vbetter
VJJR
tp747
a(Vintegration
VNN
tp748
a(Vbetween
VIN
tp749
a(Vthe
VDT
tp750
a(Vdifferent
VJJ
tp751
a(Vmethods
VNNS
tp752
a(Vof
VIN
tp753
a(Vtransport
VNN
tp754
a(Vin
VIN
tp755
a(Vcities
VNNS
tp756
a(V,
V,
tp757
a(Vincluding
VVBG
tp758
a(Vpublic
VJJ
tp759
a(Vtransport
VNN
tp760
a(V.
V.
tp761
aa(lp762
(VA
VDT
tp763
a(Vhigh
VJJ
tp764
a(Vintake
VNN
tp765
a(Vof
VIN
tp766
a(Vfruit
VNN
tp767
a(Vand
VCC
tp768
a(Vvegetables
VNNS
tp769
a(Vreduces
VVBZ
tp770
a(Vthe
VDT
tp771
a(Vrisk
VNN
tp772
a(Vof
VIN
tp773
a(Vmany
VJJ
tp774
a(Vdiseases
VNNS
tp775
a(Vand
VCC
tp776
a(Vprevents
VVBZ
tp777
a(Vthe
VDT
tp778
a(Voccurrence
VNN
tp779
a(Vof
VIN
tp780
a(Vexcessive
VJJ
tp781
a(Vweight
VNN
tp782
a(Vand
VCC
tp783
a(Vchildhood
VNN
tp784
a(Vobesity
VNN
tp785
a(V.
V.
tp786
aa(lp787
(VThe
VDT
tp788
a(Vproblem
VNN
tp789
a(Vyou
VPRP
tp790
a(Vhave
VVBP
tp791
a(Vpresented
VVBN
tp792
a(Vus
VPRP
tp793
a(Vwith
VIN
tp794
a(Vfocuses
VVBZ
tp795
a(Vmainly
VRB
tp796
a(Von
VIN
tp797
a(Vpolicing
VVBG
tp798
a(V,
V,
tp799
a(Vand
VCC
tp800
a(Vthis
VDT
tp801
a(Vis
VVBZ
tp802
a(Vsomewhat
VRB
tp803
a(Vbiased
VVBN
tp804
a(V.
V.
tp805
aa(lp806
(VBuy
VVB
tp807
a(Vhim
VPRP
tp808
a(Vdinner
VNN
tp809
a(V.
V.
tp810
aa(lp811
(VIt
VPRP
tp812
a(Vhas
VVBZ
tp813
a(Vbeen
VVBN
tp814
a(Vcrucial
VJJ
tp815
a(Vto
VTO
tp816
a(Vvalidate
VVB
tp817
a(Vthe
VDT
tp818
a(Vrelevant
VJJ
tp819
a(Vbudget
VNN
tp820
a(Vheadings
VNNS
tp821
a(Vand
VCC
tp822
a(Vto
VTO
tp823
a(Vstrengthen
VVB
tp824
a(Vsupport
VNN
tp825
a(Vfor
VIN
tp826
a(Vsmall
VJJ
tp827
a(Vand
VCC
tp828
a(Vmedium-sized
VJJ
tp829
a(Vbusinesses
VNNS
tp830
a(Vas
VRB
tp831
a(Vwell
VRB
tp832
a(Vas
VIN
tp833
a(Vresearch
VNN
tp834
a(Vand
VCC
tp835
a(Vtraining
VNN
tp836
a(Vprogrammes
VNNS
tp837
a(V.
V.
tp838
aa(lp839
(VI
VPRP
tp840
a(Vam
VVBP
tp841
a(Vespecially
VRB
tp842
a(Vpleased
VJJ
tp843
a(Vto
VTO
tp844
a(Vsee
VVB
tp845
a(Vthat
VDT
tp846
a(Vprivate
VJJ
tp847
a(Vcompanies
VNNS
tp848
a(Vand
VCC
tp849
a(Vpublic
VJJ
tp850
a(Vauthorities
VNNS
tp851
a(Vare
VVBP
tp852
a(Vnow
VRB
tp853
a(Vplaced
VVBN
tp854
a(Von
VIN
tp855
a(Van
VDT
tp856
a(Vequal
VJJ
tp857
a(Vfooting
VNN
tp858
a(V.
V.
tp859
aa(lp860
(VThis
VDT
tp861
a(Vdischarge
VNN
tp862
a(Vis
VVBZ
tp863
a(V,
V,
tp864
a(Vafter
VIN
tp865
a(Vall
VDT
tp866
a(V,
V,
tp867
a(Vone
VCD
tp868
a(Vof
VIN
tp869
a(Vmany
VJJ
tp870
a(V,
V,
tp871
a(Vand
VCC
tp872
a(VI
VPRP
tp873
a(Vhappen
VVB
tp874
a(Vto
VTO
tp875
a(Vbe
VVB
tp876
a(Vthe
VDT
tp877
a(Vgeneral
VJJ
tp878
a(Vrapporteur
VNN
tp879
a(V.
V.
tp880
aa(lp881
(VAs
VIN
tp882
a(Vwe
VPRP
tp883
a(Vopen
VVBP
tp884
a(Vup
VRP
tp885
a(Vour
VPRP$
tp886
a(Vmarkets
VNNS
tp887
a(Vto
VTO
tp888
a(Vthe
VDT
tp889
a(Vcheap
VJJ
tp890
a(Vimported
VVBN
tp891
a(Vgoods
VNNS
tp892
a(Veagerly
VRB
tp893
a(Vawaited
VVBN
tp894
a(Vby
VIN
tp895
a(VEuropean
VJJ
tp896
a(Vconsumers
VNNS
tp897
a(Vwho
VWP
tp898
a(Vmake
VVBP
tp899
a(Vup
VRP
tp900
a(Vour
VPRP$
tp901
a(Velectorate
VNN
tp902
a(V,
V,
tp903
a(Vwe
VPRP
tp904
a(Vshould
VMD
tp905
a(Vkeep
VVB
tp906
a(Vrising
VVBG
tp907
a(Vunemployment
VNN
tp908
a(Vand
VCC
tp909
a(Vthe
VDT
tp910
a(Vthousands
VNNS
tp911
a(Vof
VIN
tp912
a(Vcollapsing
VVBG
tp913
a(Vcompanies
VNNS
tp914
a(Vin
VIN
tp915
a(Vthe
VDT
tp916
a(Vforefront
VNN
tp917
a(Vof
VIN
tp918
a(Vour
VPRP$
tp919
a(Vminds
VNNS
tp920
a(V.
V.
tp921
aa(lp922
(VThe
VDT
tp923
a(VCouncil
VNNP
tp924
a(Vand
VCC
tp925
a(Vthe
VDT
tp926
a(VCommission
VNNP
tp927
a(Vhave
VVBP
tp928
a(Vthe
VDT
tp929
a(Vresources
VNNS
tp930
a(Vto
VTO
tp931
a(Vhelp
VVB
tp932
a(Vbring
VVB
tp933
a(Vthis
VDT
tp934
a(Vabout
VRB
tp935
a(V.
V.
tp936
aa(lp937
(VUnfortunately
VRB
tp938
a(V,
V,
tp939
a(VNigeria
VNNP
tp940
a(Vis
VVBZ
tp941
a(Van
VDT
tp942
a(Valarming
VJJ
tp943
a(Vcase
VNN
tp944
a(Vin
VIN
tp945
a(Vpoint
VNN
tp946
a(V.
V.
tp947
aa(lp948
(VThere
VEX
tp949
a(Vare
VVBP
tp950
a(Vtherefore
VRB
tp951
a(Vno
VDT
tp952
a(Vprogrammes
VNNS
tp953
a(Vbeing
VVBG
tp954
a(Vbroadcast
VVBN
tp955
a(Vfrom
VIN
tp956
a(VFinland
VNNP
tp957
a(V,
V,
tp958
a(Vwhile
VIN
tp959
a(Vsome
VDT
tp960
a(VMember
VNNP
tp961
a(VStates
VNNPS
tp962
a(Vcan
VMD
tp963
a(Vget
VVB
tp964
a(Vthree
VCD
tp965
a(Vor
VCC
tp966
a(Veven
VRB
tp967
a(Vfour
VCD
tp968
a(Vchannels
VNNS
tp969
a(V.
V.
tp970
aa(lp971
(VNot
VRB
tp972
a(Vthat
VIN
tp973
a(Vwe
VPRP
tp974
a(Vare
VVBP
tp975
a(Vhappy
VJJ
tp976
a(Vabout
VIN
tp977
a(Vit
VPRP
tp978
a(V,
V,
tp979
a(Vof
VIN
tp980
a(Vcourse
VNN
tp981
a(V.
V.
tp982
aa(lp983
(VWhen
VWRB
tp984
a(Vit
VPRP
tp985
a(Vcomes
VVBZ
tp986
a(Vto
VTO
tp987
a(Vfraud
VNN
tp988
a(Vand
VCC
tp989
a(Vartificially
VRB
tp990
a(Vinflating
VVBG
tp991
a(Vthe
VDT
tp992
a(Vbudget
VNN
tp993
a(V,
V,
tp994
a(Vhe
VPRP
tp995
a(Vcould
VMD
tp996
a(Veven
VRB
tp997
a(Vteach
VVB
tp998
a(Vthe
VDT
tp999
a(VGreeks
VNNPS
tp1000
a(Va
VDT
tp1001
a(Vthing
VNN
tp1002
a(Vor
VCC
tp1003
a(Vtwo
VCD
tp1004
a(V!
V.
tp1005
aa(lp1006
(V(
VNN
tp1007
a(VDE
VNN
tp1008
a(V)
VCD
tp1009
a(VMr
VNNP
tp1010
a(VPresident
VNNP
tp1011
a(V,
V,
tp1012
a(Vslogans
VNNS
tp1013
a(Vare
VVBP
tp1014
a(Vgood
VJJ
tp1015
a(Vfor
VIN
tp1016
a(Vthe
VDT
tp1017
a(Vpolitical
VJJ
tp1018
a(Vdebate
VNN
tp1019
a(V,
V,
tp1020
a(Vbut
VCC
tp1021
a(Vwe
VPRP
tp1022
a(Vmust
VMD
tp1023
a(Vnot
VRB
tp1024
a(Vstop
VVB
tp1025
a(Vat
VIN
tp1026
a(Vslogans
VNNS
tp1027
a(V.
V.
tp1028
aa(lp1029
(VWithout
VIN
tp1030
a(Vinformation
VNN
tp1031
a(Vand
VCC
tp1032
a(Vknowledge
VNN
tp1033
a(V,
V,
tp1034
a(Vwe
VPRP
tp1035
a(Vcannot
VVBP
tp1036
a(Vsubstantiate
VVB
tp1037
a(Vhow
VWRB
tp1038
a(V,
V,
tp1039
a(Vin
VIN
tp1040
a(Vreality
VNN
tp1041
a(V,
V,
tp1042
a(Vgender
VNN
tp1043
a(Vdiscrimination
VNN
tp1044
a(Voperates
VVBZ
tp1045
a(V.
V.
tp1046
aa(lp1047
(VIt
VPRP
tp1048
a(Vset
VVBD
tp1049
a(Vme
VPRP
tp1050
a(Vthinking
VVBG
tp1051
a(Vabout
VIN
tp1052
a(Vwhat
VWP
tp1053
a(Vis
VVBZ
tp1054
a(Vreally
VRB
tp1055
a(Vmeant
VVBN
tp1056
a(Vby
VIN
tp1057
a(Vfairness
VNN
tp1058
a(V.
V.
tp1059
aa(lp1060
(VAre
VVBP
tp1061
a(Vwe
VPRP
tp1062
a(Vforgetting
VVBG
tp1063
a(Vthat
VIN
tp1064
a(Vour
VPRP$
tp1065
a(Voverriding
VVBG
tp1066
a(Vaim
VNN
tp1067
a(Vis
VVBZ
tp1068
a(Vto
VTO
tp1069
a(Vencourage
VVB
tp1070
a(Vthe
VDT
tp1071
a(Vparties
VNNS
tp1072
a(Vto
VTO
tp1073
a(Vachieve
VVB
tp1074
a(Va
VDT
tp1075
a(Vpeaceful
VJJ
tp1076
a(Vtwo-state
VJJ
tp1077
a(Vsolution
VNN
tp1078
a(V?
V.
tp1079
aa(lp1080
(VConsumers
VNNS
tp1081
a(Vwill
VMD
tp1082
a(Vtherefore
VRB
tp1083
a(Vbe
VVB
tp1084
a(Vable
VJJ
tp1085
a(Vto
VTO
tp1086
a(Vseek
VVB
tp1087
a(Vcompensation
VNN
tp1088
a(Vfor
VIN
tp1089
a(Vdamages
VNNS
tp1090
a(Vcaused
VVBN
tp1091
a(Vby
VIN
tp1092
a(Vdefective
VJJ
tp1093
a(Vprimary
VJJ
tp1094
a(Vagricultural
VJJ
tp1095
a(Vproducts
VNNS
tp1096
a(Vsuch
VJJ
tp1097
a(Vas
VIN
tp1098
a(Vmeat
VNN
tp1099
a(V,
V,
tp1100
a(Vcereals
VNNS
tp1101
a(V,
V,
tp1102
a(Vfruit
VNN
tp1103
a(Vand
VCC
tp1104
a(Vvegetables
VNNS
tp1105
a(V.
V.
tp1106
aa(lp1107
(VIf
VIN
tp1108
a(Vwe
VPRP
tp1109
a(Vcould
VMD
tp1110
a(Vdo
VVB
tp1111
a(Vthis
VDT
tp1112
a(Vmore
VRBR
tp1113
a(Voften
VRB
tp1114
a(V,
V,
tp1115
a(Veverybody
VNN
tp1116
a(V&apos;s
VVBZ
tp1117
a(Vlife
VNN
tp1118
a(Vwould
VMD
tp1119
a(Vbe
VVB
tp1120
a(Vsimpler
VJJR
tp1121
a(V.
V.
tp1122
aa(lp1123
(VThere
VEX
tp1124
a(Vis
VVBZ
tp1125
a(Va
VDT
tp1126
a(Vfamous
VJJ
tp1127
a(Vexample
VNN
tp1128
a(Von
VIN
tp1129
a(VFacebook
VNNP
tp1130
a(V,
V,
tp1131
a(Vone
VCD
tp1132
a(Vof
VIN
tp1133
a(Vthe
VDT
tp1134
a(Vsocial
VJJ
tp1135
a(Vnetworks
VNNS
tp1136
a(V-
V:
tp1137
a(Va
VDT
tp1138
a(Vnew
VJJ
tp1139
a(Vtool
VNN
tp1140
a(Vthat
VWDT
tp1141
a(Vis
VVBZ
tp1142
a(Vnot
VRB
tp1143
a(Vcovered
VVBN
tp1144
a(Vby
VIN
tp1145
a(Vthe
VDT
tp1146
a(Vlegislation
VNN
tp1147
a(V-
V:
tp1148
a(Vwhere
VWRB
tp1149
a(Vgroups
VNNS
tp1150
a(Vof
VIN
tp1151
a(Vpeople
VNNS
tp1152
a(Vreport
VVBP
tp1153
a(Vsome
VDT
tp1154
a(Valleged
VJJ
tp1155
a(Vfault
VNN
tp1156
a(Vor
VCC
tp1157
a(Vother
VJJ
tp1158
a(Vin
VIN
tp1159
a(Va
VDT
tp1160
a(Vproduct
VNN
tp1161
a(V.
V.
tp1162
aa(lp1163
(VIt
VPRP
tp1164
a(Vis
VVBZ
tp1165
a(Vincomprehensible
VNN
tp1166
a(Vthat
VIN
tp1167
a(Vthe
VDT
tp1168
a(VCommission
VNNP
tp1169
a(Vshould
VMD
tp1170
a(Vavoid
VVB
tp1171
a(Vcommenting
VVBG
tp1172
a(Von
VIN
tp1173
a(Va
VDT
tp1174
a(Vserious
VJJ
tp1175
a(Vinfringement
VNN
tp1176
a(Vof
VIN
tp1177
a(Vthe
VDT
tp1178
a(Vbasic
VJJ
tp1179
a(Vrules
VNNS
tp1180
a(Vof
VIN
tp1181
a(Vdata
VNNS
tp1182
a(Vprotection
VNN
tp1183
a(V.
V.
tp1184
aa(lp1185
(VAt
VIN
tp1186
a(Vthe
VDT
tp1187
a(Vsame
VJJ
tp1188
a(Vtime
VNN
tp1189
a(V,
V,
tp1190
a(Vin
VIN
tp1191
a(Vthe
VDT
tp1192
a(VNetherlands
VNNP
tp1193
a(V,
V,
tp1194
a(Vwhere
VWRB
tp1195
a(Veuthanasia
VNN
tp1196
a(Vhas
VVBZ
tp1197
a(Vbeen
VVBN
tp1198
a(Vlegalised
VVBN
tp1199
a(V,
V,
tp1200
a(Vit
VPRP
tp1201
a(Vis
VVBZ
tp1202
a(Vreported
VVBN
tp1203
a(Vthat
VIN
tp1204
a(Vassisted
VVBN
tp1205
a(Vsuicide
VNN
tp1206
a(Vand
VCC
tp1207
a(Vvoluntary
VJJ
tp1208
a(Veuthanasia
VNN
tp1209
a(Vare
VVBP
tp1210
a(Vnow
VRB
tp1211
a(Vresponsible
VJJ
tp1212
a(Vfor
VIN
tp1213
a(Vone
VCD
tp1214
a(Vin
VIN
tp1215
a(V40
VCD
tp1216
a(Vdeaths
VNNS
tp1217
a(V.
V.
tp1218
aa(lp1219
(VMr
VNNP
tp1220
a(VPresident
VNNP
tp1221
a(V,
V,
tp1222
a(Vin
VIN
tp1223
a(V1989
VCD
tp1224
a(VI
VPRP
tp1225
a(Vwitnessed
VVBD
tp1226
a(Vthe
VDT
tp1227
a(Vpolitical
VJJ
tp1228
a(Vupheaval
VNN
tp1229
a(Vin
VIN
tp1230
a(VCentral
VNNP
tp1231
a(Vand
VCC
tp1232
a(VEastern
VNNP
tp1233
a(VEurope
VNNP
tp1234
a(Vin
VIN
tp1235
a(Vperson
VNN
tp1236
a(V.
V.
tp1237
aa(lp1238
(VIn
VIN
tp1239
a(Van
VDT
tp1240
a(Vopen
VJJ
tp1241
a(Varea
VNN
tp1242
a(Vin
VIN
tp1243
a(Vwhich
VWDT
tp1244
a(Vfreedom
VNN
tp1245
a(Vof
VIN
tp1246
a(Vmovement
VNN
tp1247
a(Vof
VIN
tp1248
a(Vcitizens
VNNS
tp1249
a(Vis
VVBZ
tp1250
a(Vthe
VDT
tp1251
a(Vrule
VNN
tp1252
a(V,
V,
tp1253
a(Vthe
VDT
tp1254
a(Vconsequences
VNNS
tp1255
a(Vof
VIN
tp1256
a(Vthis
VDT
tp1257
a(Vsituation
VNN
tp1258
a(Vare
VVBP
tp1259
a(Vclear
VJJ
tp1260
a(V.
V.
tp1261
aa(lp1262
(VMy
VPRP$
tp1263
a(Vfirst
VJJ
tp1264
a(Vimpression
VNN
tp1265
a(Vis
VVBZ
tp1266
a(Vthat
VIN
tp1267
a(Vyou
VPRP
tp1268
a(Vare
VVBP
tp1269
a(Vright
VRB
tp1270
a(V,
V,
tp1271
a(Vand
VCC
tp1272
a(VI
VPRP
tp1273
a(Vintend
VVBP
tp1274
a(Vto
VTO
tp1275
a(Vlook
VVB
tp1276
a(Vinto
VIN
tp1277
a(Vthe
VDT
tp1278
a(Vmatter
VNN
tp1279
a(Vfurther
VRBR
tp1280
a(V.
V.
tp1281
aa(lp1282
(VThe
VDT
tp1283
a(Vproblem
VNN
tp1284
a(Vis
VVBZ
tp1285
a(Vnot
VRB
tp1286
a(Vprocedural
VJJ
tp1287
a(V,
V,
tp1288
a(Vit
VPRP
tp1289
a(Vis
VVBZ
tp1290
a(Vdeeply
VRB
tp1291
a(Vpolitical
VJJ
tp1292
a(V.
V.
tp1293
aa(lp1294
(VPretending
VVBG
tp1295
a(Vto
VTO
tp1296
a(Vsupervise
VVB
tp1297
a(Vit
VPRP
tp1298
a(Vis
VVBZ
tp1299
a(Vnot
VRB
tp1300
a(Venough
VRB
tp1301
a(V.
V.
tp1302
aa(lp1303
(VWith
VIN
tp1304
a(Vthe
VDT
tp1305
a(VGreen
VNNP
tp1306
a(VPaper
VNNP
tp1307
a(Von
VIN
tp1308
a(Vcommerce
VNN
tp1309
a(Vall
VPDT
tp1310
a(Vthe
VDT
tp1311
a(Vpublic
VJJ
tp1312
a(Vand
VCC
tp1313
a(Vprivate
VJJ
tp1314
a(Vinstitutions
VNNS
tp1315
a(Vand
VCC
tp1316
a(Vthe
VDT
tp1317
a(Vdirect
VJJ
tp1318
a(Vplayers
VNNS
tp1319
a(Vin
VIN
tp1320
a(Vthe
VDT
tp1321
a(Vmarket
VNN
tp1322
a(V,
V,
tp1323
a(Vlarge
VJJ
tp1324
a(Vand
VCC
tp1325
a(Vsmall
VJJ
tp1326
a(V,
V,
tp1327
a(Vwere
VVBD
tp1328
a(Vinvited
VVBN
tp1329
a(Vto
VTO
tp1330
a(Vtake
VVB
tp1331
a(Vpart
VNN
tp1332
a(Vin
VIN
tp1333
a(Vdiscussion
VNN
tp1334
a(Vto
VTO
tp1335
a(Vlead
VVB
tp1336
a(V,
V,
tp1337
a(Vwithin
VIN
tp1338
a(Vtwo
VCD
tp1339
a(Vyears
VNNS
tp1340
a(V,
V,
tp1341
a(Vto
VTO
tp1342
a(Vthe
VDT
tp1343
a(Vcompletion
VNN
tp1344
a(Vof
VIN
tp1345
a(Va
VDT
tp1346
a(Vfinal
VJJ
tp1347
a(Vwhite
VJJ
tp1348
a(Vpaper
VNN
tp1349
a(V.
V.
tp1350
aa(lp1351
(VThis
VDT
tp1352
a(Vis
VVBZ
tp1353
a(Vwhat
VWP
tp1354
a(VI
VPRP
tp1355
a(Vthought
VVBD
tp1356
a(Vyou
VPRP
tp1357
a(Vwould
VMD
tp1358
a(Vsay
VVB
tp1359
a(V.
V.
tp1360
aa(lp1361
(VIf
VIN
tp1362
a(Vthere
VEX
tp1363
a(Vis
VVBZ
tp1364
a(Va
VDT
tp1365
a(Vdesire
VNN
tp1366
a(Vto
VTO
tp1367
a(Vdo
VVB
tp1368
a(Vsomething
VNN
tp1369
a(Vabout
VIN
tp1370
a(Vthe
VDT
tp1371
a(Vdifficulties
VNNS
tp1372
a(Vbeing
VVBG
tp1373
a(Vexperienced
VVBN
tp1374
a(Vby
VIN
tp1375
a(Vthe
VDT
tp1376
a(Vpoor
VJJ
tp1377
a(Vin
VIN
tp1378
a(Vpaying
VVBG
tp1379
a(Vfor
VIN
tp1380
a(Vessential
VJJ
tp1381
a(Vconsumption
VNN
tp1382
a(V,
V,
tp1383
a(Vthere
VEX
tp1384
a(Vare
VVBP
tp1385
a(Vmany
VJJ
tp1386
a(Vother
VJJ
tp1387
a(Vmethods
VNNS
tp1388
a(Vthat
VWDT
tp1389
a(Vcan
VMD
tp1390
a(Vbe
VVB
tp1391
a(Vused
VVBN
tp1392
a(Vwhich
VWDT
tp1393
a(Vdo
VVBP
tp1394
a(Vnot
VRB
tp1395
a(Vinvolve
VVB
tp1396
a(Vgreen
VJJ
tp1397
a(Vtaxes
VNNS
tp1398
a(V.
V.
tp1399
aa(lp1400
(V(
VNN
tp1401
a(VApplause
VNN
tp1402
a(Vand
VCC
tp1403
a(Vmixed
VJJ
tp1404
a(Vreactions
VNNS
tp1405
a(V)
VVBP
tp1406
aa(lp1407
(VPeople
VNNS
tp1408
a(Vhave
VVBP
tp1409
a(Vto
VTO
tp1410
a(Vjump
VVB
tp1411
a(Vthrough
VIN
tp1412
a(Vhoops
VNNS
tp1413
a(Vto
VTO
tp1414
a(Vbe
VVB
tp1415
a(Vreimbursed
VVBN
tp1416
a(Vfor
VIN
tp1417
a(Vtreatment
VNN
tp1418
a(Vreceived
VVBD
tp1419
a(Vabroad
VRB
tp1420
a(V,
V,
tp1421
a(Vand
VCC
tp1422
a(Vit
VPRP
tp1423
a(Vis
VVBZ
tp1424
a(Vvery
VRB
tp1425
a(Vdifficult
VJJ
tp1426
a(Vfor
VIN
tp1427
a(Vthem
VPRP
tp1428
a(Vto
VTO
tp1429
a(Vfind
VVB
tp1430
a(Vthe
VDT
tp1431
a(Vinformation
VNN
tp1432
a(Vthey
VPRP
tp1433
a(Vneed
VVBP
tp1434
a(V.
V.
tp1435
aa(lp1436
(VBiological
VJJ
tp1437
a(Vinformation
VNN
tp1438
a(Vsystems
VNNS
tp1439
a(Vform
VVBP
tp1440
a(Vpart
VNN
tp1441
a(Vof
VIN
tp1442
a(Vthis
VDT
tp1443
a(Vgroup
VNN
tp1444
a(V.
V.
tp1445
aa(lp1446
(VThis
VDT
tp1447
a(Vwill
VMD
tp1448
a(Voften
VRB
tp1449
a(Vbe
VVB
tp1450
a(Vdifficult
VJJ
tp1451
a(V,
V,
tp1452
a(Vsometimes
VRB
tp1453
a(Vpainful
VJJ
tp1454
a(V,
V,
tp1455
a(Vbut
VCC
tp1456
a(Vthe
VDT
tp1457
a(Vissue
VNN
tp1458
a(Vis
VVBZ
tp1459
a(Vworth
VIN
tp1460
a(Vit
VPRP
tp1461
a(V.
V.
tp1462
aa(lp1463
(VIndeed
VRB
tp1464
a(V,
V,
tp1465
a(Vthe
VDT
tp1466
a(VEU
VNNP
tp1467
a(VPresidency
VNNP
tp1468
a(Vis
VVBZ
tp1469
a(Vcurrently
VRB
tp1470
a(Vheaded
VVBN
tp1471
a(Vby
VIN
tp1472
a(Va
VDT
tp1473
a(Vwoman
VNN
tp1474
a(V,
V,
tp1475
a(VMrs
VNNP
tp1476
a(VHalonen
VNNP
tp1477
a(V.
V.
tp1478
aa(lp1479
(VThe
VDT
tp1480
a(VEU
VNNP
tp1481
a(VHeads
VNNPS
tp1482
a(Vof
VIN
tp1483
a(VState
VNNP
tp1484
a(Vor
VCC
tp1485
a(VGovernment
VNNP
tp1486
a(Vraised
VVBD
tp1487
a(Vthe
VDT
tp1488
a(Vproblem
VNN
tp1489
a(Vat
VIN
tp1490
a(Vthe
VDT
tp1491
a(VDublin
VNNP
tp1492
a(VSummit
VNNP
tp1493
a(Vin
VIN
tp1494
a(V1996
VCD
tp1495
a(V.
V.
tp1496
aa(lp1497
(VI
VPRP
tp1498
a(Vbelieve
VVBP
tp1499
a(Vthat
VIN
tp1500
a(Vthis
VDT
tp1501
a(Vreally
VRB
tp1502
a(Vis
VVBZ
tp1503
a(Van
VDT
tp1504
a(Vimportant
VJJ
tp1505
a(Vproject
VNN
tp1506
a(Vfor
VIN
tp1507
a(Vthe
VDT
tp1508
a(Vfuture
VNN
tp1509
a(V.
V.
tp1510
aa(lp1511
(VI
VPRP
tp1512
a(Vam
VVBP
tp1513
a(Vespecially
VRB
tp1514
a(Vglad
VJJ
tp1515
a(Vthat
VIN
tp1516
a(VMrs
VNNP
tp1517
a(VIivari
VNNP
tp1518
a(Vhas
VVBZ
tp1519
a(Vbeen
VVBN
tp1520
a(Vable
VJJ
tp1521
a(Vto
VTO
tp1522
a(Vgain
VVB
tp1523
a(Vacceptance
VNN
tp1524
a(Vfor
VIN
tp1525
a(Vthe
VDT
tp1526
a(Videa
VNN
tp1527
a(Vthat
VIN
tp1528
a(Vcultural
VJJ
tp1529
a(Vinstitutions
VNNS
tp1530
a(Vshould
VMD
tp1531
a(Vbe
VVB
tp1532
a(Vable
VJJ
tp1533
a(Vto
VTO
tp1534
a(Vretain
VVB
tp1535
a(Vtheir
VPRP$
tp1536
a(Vsubsidies
VNNS
tp1537
a(V,
V,
tp1538
a(Vat
VIN
tp1539
a(Vleast
VJJS
tp1540
a(Vfor
VIN
tp1541
a(Va
VDT
tp1542
a(Vtransitional
VJJ
tp1543
a(Vperiod
VNN
tp1544
a(Vof
VIN
tp1545
a(Vtwo
VCD
tp1546
a(Vyears
VNNS
tp1547
a(V.
V.
tp1548
aa(lp1549
(VFor
VIN
tp1550
a(Vmany
VJJ
tp1551
a(Vyears
VNNS
tp1552
a(V,
V,
tp1553
a(VI
VPRP
tp1554
a(Vlectured
VVBD
tp1555
a(Vstudents
VNNS
tp1556
a(Vin
VIN
tp1557
a(VUniversity
VNNP
tp1558
a(VCollege
VNNP
tp1559
a(V,
V,
tp1560
a(VDublin
VNNP
tp1561
a(V,
V,
tp1562
a(Von
VIN
tp1563
a(Vthe
VDT
tp1564
a(VEuropean
VNNP
tp1565
a(VUnion
VNNP
tp1566
a(Vand
VCC
tp1567
a(Vsought
VVBD
tp1568
a(Vto
VTO
tp1569
a(Vimpress
VVB
tp1570
a(Vupon
VIN
tp1571
a(Vthem
VPRP
tp1572
a(Vhow
VWRB
tp1573
a(Vremarkable
VJJ
tp1574
a(Vour
VPRP$
tp1575
a(VUnion
VNNP
tp1576
a(Vis
VVBZ
tp1577
a(V.
V.
tp1578
aa(lp1579
(VThe
VDT
tp1580
a(Vwording
VNN
tp1581
a(Von
VIN
tp1582
a(Vthe
VDT
tp1583
a(Voutside
VJJ
tp1584
a(Vbelies
VVBZ
tp1585
a(Vthe
VDT
tp1586
a(Vactual
VJJ
tp1587
a(Vcontents
VNNS
tp1588
a(Vof
VIN
tp1589
a(Vthese
VDT
tp1590
a(Vdocuments
VNNS
tp1591
a(V.
V.
tp1592
aa(lp1593
(VWe
VPRP
tp1594
a(Vmust
VMD
tp1595
a(Vstop
VVB
tp1596
a(Vgrovelling
VVBG
tp1597
a(Vto
VTO
tp1598
a(VBen
VNNP
tp1599
a(VAli
VNNP
tp1600
a(V.
V.
tp1601
aa(lp1602
(VThe
VDT
tp1603
a(Venvironmentally-aware
VJJ
tp1604
a(Vconsumer
VNN
tp1605
a(Vcan
VMD
tp1606
a(Vchoose
VVB
tp1607
a(Vbetween
VIN
tp1608
a(Vdifferent
VJJ
tp1609
a(Vecolabels
VNNS
tp1610
a(V,
V,
tp1611
a(Vmany
VJJ
tp1612
a(Vof
VIN
tp1613
a(Vwhich
VWDT
tp1614
a(Vrelate
VVBP
tp1615
a(Vto
VTO
tp1616
a(Vorganic
VJJ
tp1617
a(Vproducts
VNNS
tp1618
a(V.
V.
tp1619
aa(lp1620
(VThese
VDT
tp1621
a(Vthree
VCD
tp1622
a(Vconventions
VNNS
tp1623
a(Vprohibit
VVBP
tp1624
a(Vthe
VDT
tp1625
a(Vproduction
VNN
tp1626
a(V,
V,
tp1627
a(Vtraffic
VNN
tp1628
a(V,
V,
tp1629
a(Vsale
VNN
tp1630
a(Vand
VCC
tp1631
a(Vconsumption
VNN
tp1632
a(Vof
VIN
tp1633
a(Va
VDT
tp1634
a(Vwide
VJJ
tp1635
a(Vrange
VNN
tp1636
a(Vof
VIN
tp1637
a(Vsubstances
VNNS
tp1638
a(Vfor
VIN
tp1639
a(Vother
VJJ
tp1640
a(Vthan
VIN
tp1641
a(Vmedical
VJJ
tp1642
a(Vor
VCC
tp1643
a(Vscientific
VJJ
tp1644
a(Vpurposes
VNNS
tp1645
a(V.
V.
tp1646
aa(lp1647
(VThis
VDT
tp1648
a(Vis
VVBZ
tp1649
a(Valso
VRB
tp1650
a(Vthe
VDT
tp1651
a(Vcase
VNN
tp1652
a(Vfor
VIN
tp1653
a(VAustria
VNNP
tp1654
a(Vwhere
VWRB
tp1655
a(VOtto
VNNP
tp1656
a(Vvon
VNNP
tp1657
a(VHabsburg
VNNP
tp1658
a(Vwas
VVBD
tp1659
a(Vrequired
VVBN
tp1660
a(Vto
VTO
tp1661
a(Vdeny
VVB
tp1662
a(Vhis
VPRP$
tp1663
a(Vown
VJJ
tp1664
a(Videntity
VNN
tp1665
a(Vand
VCC
tp1666
a(Vrenounce
VVB
tp1667
a(Vrights
VNNS
tp1668
a(Vbelonging
VVBG
tp1669
a(Vto
VTO
tp1670
a(Vhim
VPRP
tp1671
a(Vand
VCC
tp1672
a(Vto
VTO
tp1673
a(Vmembers
VNNS
tp1674
a(Vof
VIN
tp1675
a(Vhis
VPRP$
tp1676
a(Vfamily
VNN
tp1677
a(Vto
VTO
tp1678
a(Venter
VVB
tp1679
a(VAustria
VNNP
tp1680
a(V.
V.
tp1681
aa(lp1682
(VIs
VVBZ
tp1683
a(Vit
VPRP
tp1684
a(Vsafe
VJJ
tp1685
a(Vor
VCC
tp1686
a(Vnot
VRB
tp1687
a(V?
V.
tp1688
aa(lp1689
(VThe
VDT
tp1690
a(Vemployment
VNN
tp1691
a(Vsituation
VNN
tp1692
a(Vin
VIN
tp1693
a(Vthe
VDT
tp1694
a(VEuropean
VNNP
tp1695
a(VUnion
VNNP
tp1696
a(Vis
VVBZ
tp1697
a(Vnot
VRB
tp1698
a(Vvery
VRB
tp1699
a(Vgood
VJJ
tp1700
a(V.
V.
tp1701
aa(lp1702
(VThat
VDT
tp1703
a(Vpeasant
VNN
tp1704
a(Vwill
VMD
tp1705
a(Vlook
VVB
tp1706
a(Vat
VIN
tp1707
a(Vyou
VPRP
tp1708
a(Vin
VIN
tp1709
a(Vbewilderment
VNN
tp1710
a(Vand
VCC
tp1711
a(Vplead
VVB
tp1712
a(V:
V:
tp1713
a(V&quot;
VVB
tp1714
a(VAll
VDT
tp1715
a(VI
VPRP
tp1716
a(Vneed
VVBP
tp1717
a(Vis
VVBZ
tp1718
a(Va
VDT
tp1719
a(Vsupply
VNN
tp1720
a(Vof
VIN
tp1721
a(Vfresh
VJJ
tp1722
a(Vwater
VNN
tp1723
a(Vto
VTO
tp1724
a(Vmy
VPRP$
tp1725
a(Vhouse
VNN
tp1726
a(V.
V.
tp1727
aa(lp1728
(VNow
VRB
tp1729
a(Vit
VPRP
tp1730
a(Vis
VVBZ
tp1731
a(Vless
VJJR
tp1732
a(Vthan
VIN
tp1733
a(Veight
VCD
tp1734
a(Vcents
VNNS
tp1735
a(V.
V.
tp1736
aa(lp1737
(VOf
VIN
tp1738
a(Vcourse
VNN
tp1739
a(V.
V.
tp1740
aa(lp1741
(VExperts
VNNS
tp1742
a(Vhave
VVBP
tp1743
a(Vfound
VVBN
tp1744
a(Vthat
VIN
tp1745
a(V,
V,
tp1746
a(Vif
VIN
tp1747
a(Vthe
VDT
tp1748
a(Vresources
VNNS
tp1749
a(Vare
VVBP
tp1750
a(Vadministered
VVBN
tp1751
a(Vsensibly
VRB
tp1752
a(V,
V,
tp1753
a(Vfishing
VNN
tp1754
a(Vfor
VIN
tp1755
a(Vcuttlefish
VNN
tp1756
a(Valone
VRB
tp1757
a(Vcan
VMD
tp1758
a(Vgive
VVB
tp1759
a(VMauritania
VNNP
tp1760
a(Van
VDT
tp1761
a(Vincome
VNN
tp1762
a(Vof
VIN
tp1763
a(VUSD
VNN
tp1764
a(V100
VCD
tp1765
a(Vmillion
VCD
tp1766
a(Vper
VIN
tp1767
a(Vyear
VNN
tp1768
a(V.
V.
tp1769
aa(lp1770
(VThe
VDT
tp1771
a(Vurgent
VJJ
tp1772
a(Vneed
VNN
tp1773
a(Vfor
VIN
tp1774
a(Vstrategic
VJJ
tp1775
a(Vaction
VNN
tp1776
a(Vto
VTO
tp1777
a(Vcombat
VVB
tp1778
a(Vcancer
VNN
tp1779
a(Vat
VIN
tp1780
a(VEuropean
VJJ
tp1781
a(Vlevel
VNN
tp1782
a(Vis
VVBZ
tp1783
a(Vdemonstrated
VVBN
tp1784
a(Vby
VIN
tp1785
a(Vthe
VDT
tp1786
a(Valarming
VJJ
tp1787
a(Vetiological
VJJ
tp1788
a(Vfact
VNN
tp1789
a(Vthat
VIN
tp1790
a(Vone
VCD
tp1791
a(VEuropean
VJJ
tp1792
a(Vin
VIN
tp1793
a(Vfour
VCD
tp1794
a(Vhas
VVBZ
tp1795
a(Vor
VCC
tp1796
a(Vwill
VMD
tp1797
a(Vhave
VVB
tp1798
a(Va
VDT
tp1799
a(Vmalignant
VJJ
tp1800
a(Vtumour
VNN
tp1801
a(Vin
VIN
tp1802
a(Vthe
VDT
tp1803
a(Vcourse
VNN
tp1804
a(Vof
VIN
tp1805
a(Vtheir
VPRP$
tp1806
a(Vlives
VNNS
tp1807
a(V.
V.
tp1808
aa(lp1809
(VIt
VPRP
tp1810
a(Vwas
VVBD
tp1811
a(Vin
VIN
tp1812
a(Vthat
VDT
tp1813
a(Vhospital
VNN
tp1814
a(V,
V,
tp1815
a(Vback
VRB
tp1816
a(Vin
VIN
tp1817
a(V1998
VCD
tp1818
a(V,
V,
tp1819
a(Vthat
VIN
tp1820
a(Van
VDT
tp1821
a(Voutbreak
VNN
tp1822
a(Vof
VIN
tp1823
a(VHIV
VNN
tp1824
a(Vinfection
VNN
tp1825
a(Vwas
VVBD
tp1826
a(Vdiscovered
VVBN
tp1827
a(V,
V,
tp1828
a(Vaffecting
VVBG
tp1829
a(Vapproximately
VRB
tp1830
a(V400
VCD
tp1831
a(Vchildren
VNNS
tp1832
a(V.
V.
tp1833
aa(lp1834
(VWhether
VIN
tp1835
a(Vthis
VDT
tp1836
a(Vis
VVBZ
tp1837
a(Va
VDT
tp1838
a(Vsensible
VJJ
tp1839
a(Voption
VNN
tp1840
a(Vor
VCC
tp1841
a(Vwill
VMD
tp1842
a(Vsimply
VRB
tp1843
a(Vlead
VVB
tp1844
a(Vto
VTO
tp1845
a(Vnew
VJJ
tp1846
a(Voffences
VNNS
tp1847
a(Vremains
VVBZ
tp1848
a(Vto
VTO
tp1849
a(Vbe
VVB
tp1850
a(Vseen
VVBN
tp1851
a(V.
V.
tp1852
aa(lp1853
(VMadam
VNNP
tp1854
a(VPresident
VNNP
tp1855
a(V,
V,
tp1856
a(Vyou
VPRP
tp1857
a(Vsaid
VVBD
tp1858
a(V:
V:
tp1859
a(V&apos;
VVB
tp1860
a(VI
VPRP
tp1861
a(Vam
VVBP
tp1862
a(Vnot
VRB
tp1863
a(Vwilling
VJJ
tp1864
a(Vto
VTO
tp1865
a(Vparticipate
VVB
tp1866
a(Vin
VIN
tp1867
a(Vyour
VPRP$
tp1868
a(Vgame
VNN
tp1869
a(V&apos;
VNN
tp1870
a(V.
V.
tp1871
aa(lp1872
(VPlease
VVB
tp1873
a(Varrange
VVB
tp1874
a(Vfor
VIN
tp1875
a(Vthat
VDT
tp1876
a(Vreport
VNN
tp1877
a(V&apos;s
VNNS
tp1878
a(Vimmediate
VJJ
tp1879
a(Vpublication
VNN
tp1880
a(V.
V.
tp1881
aa(lp1882
(VIt
VPRP
tp1883
a(Vis
VVBZ
tp1884
a(Va
VDT
tp1885
a(Vtechnical
VJJ
tp1886
a(Vassistance
VNN
tp1887
a(Voffice
VNN
tp1888
a(V,
V,
tp1889
a(Vselected
VVBN
tp1890
a(Von
VIN
tp1891
a(Vthe
VDT
tp1892
a(Vbasis
VNN
tp1893
a(Vof
VIN
tp1894
a(Va
VDT
tp1895
a(Vcall
VNN
tp1896
a(Vfor
VIN
tp1897
a(Vtenders
VNNS
tp1898
a(V.
V.
tp1899
aa(lp1900
(VIn
VIN
tp1901
a(Vactual
VJJ
tp1902
a(Vfact
VNN
tp1903
a(V,
V,
tp1904
a(Vit
VPRP
tp1905
a(Vall
VDT
tp1906
a(Vboils
VNNS
tp1907
a(Vdown
VIN
tp1908
a(Vto
VTO
tp1909
a(Vthe
VDT
tp1910
a(Vgood
VJJ
tp1911
a(Vfaith
VNN
tp1912
a(Vand
VCC
tp1913
a(Vgood
VJJ
tp1914
a(Vwill
VNN
tp1915
a(Vof
VIN
tp1916
a(Vtour
VNN
tp1917
a(Voperators
VNNS
tp1918
a(Vand
VCC
tp1919
a(Vtravel
VVB
tp1920
a(Vagents
VNNS
tp1921
a(V.
V.
tp1922
aa(lp1923
(VOf
VIN
tp1924
a(Vcourse
VNN
tp1925
a(V,
V,
tp1926
a(Vthe
VDT
tp1927
a(Vhistory
VNN
tp1928
a(Vof
VIN
tp1929
a(Vthe
VDT
tp1930
a(VMember
VNNP
tp1931
a(VStates
VNNPS
tp1932
a(Vcan
VMD
tp1933
a(Valso
VRB
tp1934
a(Vbe
VVB
tp1935
a(Vstrengthened
VVBN
tp1936
a(V,
V,
tp1937
a(Vif
VIN
tp1938
a(Vyou
VPRP
tp1939
a(Vwant
VVBP
tp1940
a(V.
V.
tp1941
aa(lp1942
(VThank
VVB
tp1943
a(Vyou
VPRP
tp1944
a(V,
V,
tp1945
a(VMr
VNNP
tp1946
a(VMiller
VNNP
tp1947
a(V.
V.
tp1948
aa(lp1949
(VIn
VIN
tp1950
a(Vthis
VDT
tp1951
a(Vcase
VNN
tp1952
a(V,
V,
tp1953
a(Vwe
VPRP
tp1954
a(Vshall
VMD
tp1955
a(Vconcentrate
VVB
tp1956
a(Von
VIN
tp1957
a(Vthe
VDT
tp1958
a(Velection
VNN
tp1959
a(Vwe
VPRP
tp1960
a(Vface
VVBP
tp1961
a(Vnext
VJJ
tp1962
a(Vyear
VNN
tp1963
a(V.
V.
tp1964
aa(lp1965
(VIt
VPRP
tp1966
a(Vwould
VMD
tp1967
a(Vtherefore
VRB
tp1968
a(Vbe
VVB
tp1969
a(Vbeneficial
VJJ
tp1970
a(Vto
VTO
tp1971
a(Vdraw
VVB
tp1972
a(Vup
VRP
tp1973
a(Va
VDT
tp1974
a(Vscoreboard
VNN
tp1975
a(Vof
VIN
tp1976
a(Vlaws
VNNS
tp1977
a(Vwhich
VWDT
tp1978
a(Vhave
VVBP
tp1979
a(Vbeen
VVBN
tp1980
a(Vabolished
VVBN
tp1981
a(V.
V.
tp1982
aa(lp1983
(VThere
VEX
tp1984
a(Vmust
VMD
tp1985
a(Vbe
VVB
tp1986
a(Van
VDT
tp1987
a(Vimmediate
VJJ
tp1988
a(Vceasefire
VNN
tp1989
a(Von
VIN
tp1990
a(Vboth
VDT
tp1991
a(Vsides
VNNS
tp1992
a(Vto
VTO
tp1993
a(Vrelieve
VVB
tp1994
a(Vthe
VDT
tp1995
a(Venormous
VJJ
tp1996
a(Vhuman
VJJ
tp1997
a(Vsuffering
VNN
tp1998
a(V.
V.
tp1999
aa(lp2000
(VThey
VPRP
tp2001
a(Vare
VVBP
tp2002
a(Vbeginning
VVBG
tp2003
a(Vto
VTO
tp2004
a(Vcount
VVB
tp2005
a(Vhow
VWRB
tp2006
a(Vmany
VJJ
tp2007
a(Vcountries
VNNS
tp2008
a(Vhave
VVBP
tp2009
a(Vsaid
VVBN
tp2010
a(V\u2018
VRB
tp2011
a(Vyes
VRB
tp2012
a(V\u2019
VCD
tp2013
a(V,
V,
tp2014
a(Vin
VIN
tp2015
a(Vspite
VNN
tp2016
a(Vof
VIN
tp2017
a(Vits
VPRP$
tp2018
a(Vbeing
VVBG
tp2019
a(Vclear
VJJ
tp2020
a(Vthat
VIN
tp2021
a(Vall
VPDT
tp2022
a(Vthe
VDT
tp2023
a(Vcountries
VNNS
tp2024
a(Vmust
VMD
tp2025
a(Vapprove
VVB
tp2026
a(Vthe
VDT
tp2027
a(Vdraft
VNN
tp2028
a(V.
V.
tp2029
aa(lp2030
(VHe
VPRP
tp2031
a(Vhas
VVBZ
tp2032
a(Vnot
VRB
tp2033
a(Vsucceeded
VVBN
tp2034
a(Vin
VIN
tp2035
a(Vstopping
VVBG
tp2036
a(Vthe
VDT
tp2037
a(Villegal
VJJ
tp2038
a(Vland
VNN
tp2039
a(Voccupations
VNNS
tp2040
a(Vor
VCC
tp2041
a(Vin
VIN
tp2042
a(Vbringing
VVBG
tp2043
a(Vabout
VIN
tp2044
a(Vfair
VJJ
tp2045
a(Vland
VNN
tp2046
a(Vreform
VNN
tp2047
a(V.
V.
tp2048
aa.