(lp1
(lp2
(VIt
VPRP
tp3
a(Vhas
VVBZ
tp4
a(Vto
VTO
tp5
a(Vbe
VVB
tp6
a(Vsaid
VVBN
tp7
a(V,
V,
tp8
a(Vof
VIN
tp9
a(Vcourse
VNN
tp10
a(V,
V,
tp11
a(Vthat
VWDT
tp12
a(Vsurely
VRB
tp13
a(Vno
VDT
tp14
a(Vone
VNN
tp15
a(Vwants
VVBZ
tp16
a(Vtaxpayers
VNNS
tp17
a(Vto
VTO
tp18
a(Vhave
VVB
tp19
a(Vto
VTO
tp20
a(Vbail
VVB
tp21
a(Vout
VRP
tp22
a(Vthe
VDT
tp23
a(Vbanks
VNNS
tp24
a(V.
V.
tp25
aa(lp26
(VThe
VDT
tp27
a(Vsector
VNN
tp28
a(Vwill
VMD
tp29
a(Vthen
VRB
tp30
a(Vbecome
VVB
tp31
a(Vtruly
VRB
tp32
a(Vglobal
VJJ
tp33
a(V.
V.
tp34
aa(lp35
(VOutside
VIN
tp36
a(Vthe
VDT
tp37
a(Vlaw
VNN
tp38
a(V\u2019
VNN
tp39
a(Vs
VVBZ
tp40
a(Vprotection
VNN
tp41
a(V,
V,
tp42
a(Vpeople
VNNS
tp43
a(Vhave
VVBP
tp44
a(Vno
VDT
tp45
a(Vrights
VNNS
tp46
a(V.
V.
tp47
aa(lp48
(VIt
VPRP
tp49
a(Vis
VVBZ
tp50
a(Vsuperfluous
VJJ
tp51
a(Vand
VCC
tp52
a(Vthat
VDT
tp53
a(Vis
VVBZ
tp54
a(Vwhy
VWRB
tp55
a(Vit
VPRP
tp56
a(Vwas
VVBD
tp57
a(Vnot
VRB
tp58
a(Vput
VVB
tp59
a(Vto
VTO
tp60
a(Va
VDT
tp61
a(Vvote
VNN
tp62
a(V.
V.
tp63
aa(lp64
(VAttention
VNN
tp65
a(Vstill
VRB
tp66
a(Vneeds
VVBZ
tp67
a(Vto
VTO
tp68
a(Vbe
VVB
tp69
a(Vgiven
VVBN
tp70
a(Vto
VTO
tp71
a(Vhow
VWRB
tp72
a(Vthe
VDT
tp73
a(Vpublic
VNN
tp74
a(Vare
VVBP
tp75
a(Vto
VTO
tp76
a(Vbe
VVB
tp77
a(Vprovided
VVBN
tp78
a(Vwith
VIN
tp79
a(Vinformation
VNN
tp80
a(V.
V.
tp81
aa(lp82
(VWhat
VWP
tp83
a(Vdoes
VVBZ
tp84
a(V&apos;
VVB
tp85
a(Va
VDT
tp86
a(Vmarketing
VNN
tp87
a(Vban
VNN
tp88
a(Vsome
VDT
tp89
a(Vtime
VNN
tp90
a(Vin
VIN
tp91
a(Vthe
VDT
tp92
a(Vfuture
VJJ
tp93
a(V&apos;
VNN
tp94
a(Vmean
VVB
tp95
a(V?
V.
tp96
aa(lp97
(VNo-one
VNN
tp98
a(Vis
VVBZ
tp99
a(Vperfect
VJJ
tp100
a(V.
V.
tp101
aa(lp102
(VIf
VIN
tp103
a(Vcoal
VNN
tp104
a(Vcould
VMD
tp105
a(Vno
VRB
tp106
a(Vlonger
VRB
tp107
a(Vbe
VVB
tp108
a(Vmined
VVBN
tp109
a(Vin
VIN
tp110
a(VEurope
VNNP
tp111
a(V,
V,
tp112
a(Vwe
VPRP
tp113
a(Vwould
VMD
tp114
a(Vhave
VVB
tp115
a(Vto
VTO
tp116
a(Vimport
VVB
tp117
a(Vit
VPRP
tp118
a(Vfrom
VIN
tp119
a(Vthe
VDT
tp120
a(VUnited
VNNP
tp121
a(VStates
VNNPS
tp122
a(Vor
VCC
tp123
a(VAustralia
VNNP
tp124
a(V.
V.
tp125
aa(lp126
(VThis
VDT
tp127
a(Vdirective
VNN
tp128
a(Vprimarily
VRB
tp129
a(Vrelates
VVBZ
tp130
a(Vto
VTO
tp131
a(Vradiation
VNN
tp132
a(Vsources
VNNS
tp133
a(Vsuch
VJJ
tp134
a(Vas
VIN
tp135
a(Vlasers
VNNS
tp136
a(Vand
VCC
tp137
a(Vinfrared
VJJ
tp138
a(Vlamps
VNNS
tp139
a(V.
V.
tp140
aa(lp141
(VThe
VDT
tp142
a(Vother
VJJ
tp143
a(Vten
VCD
tp144
a(Vare
VVBP
tp145
a(Vnot
VRB
tp146
a(Vaffected
VVBN
tp147
a(Vbecause
VIN
tp148
a(Vthey
VPRP
tp149
a(Vare
VVBP
tp150
a(Valready
VRB
tp151
a(Vat
VIN
tp152
a(Vthe
VDT
tp153
a(Vtopmost
VJJ
tp154
a(Vpoint
VNN
tp155
a(V.
V.
tp156
aa(lp157
(VThe
VDT
tp158
a(Vinformation
VNN
tp159
a(Vsuperhighway
VNN
tp160
a(Vwould
VMD
tp161
a(Vblaze
VVB
tp162
a(Va
VDT
tp163
a(Vtrail
VNN
tp164
a(Vtowards
VIN
tp165
a(Va
VDT
tp166
a(Vnew
VJJ
tp167
a(Vsocial
VJJ
tp168
a(Vorder
VNN
tp169
a(V.
V.
tp170
aa(lp171
(VWe
VPRP
tp172
a(Vhave
VVBP
tp173
a(Vworked
VVBN
tp174
a(Vhard
VJJ
tp175
a(Vand
VCC
tp176
a(Vwe
VPRP
tp177
a(Vhave
VVBP
tp178
a(Valso
VRB
tp179
a(Vshown
VVBN
tp180
a(Vourselves
VPRP
tp181
a(Vto
VTO
tp182
a(Vbe
VVB
tp183
a(Vflexible
VJJ
tp184
a(V.
V.
tp185
aa(lp186
(VWe
VPRP
tp187
a(Vmust
VMD
tp188
a(Vmake
VVB
tp189
a(Vsubstantial
VJJ
tp190
a(Vefforts
VNNS
tp191
a(Vto
VTO
tp192
a(Vsuccessfully
VRB
tp193
a(Vhelp
VVB
tp194
a(Venterprises
VNNS
tp195
a(Vand
VCC
tp196
a(Vusers
VNNS
tp197
a(Vadapt
VVBP
tp198
a(Vto
VTO
tp199
a(Vclimate
VNN
tp200
a(Vchange
VNN
tp201
a(V.
V.
tp202
aa(lp203
(VEvery
VDT
tp204
a(Vyear
VNN
tp205
a(V,
V,
tp206
a(Vsome
VDT
tp207
a(V2
VCD
tp208
a(V%
VNN
tp209
a(Vof
VIN
tp210
a(Vthe
VDT
tp211
a(Vearth
VNN
tp212
a(V\u2019
VNN
tp213
a(Vs
VVBZ
tp214
a(Voriginal
VJJ
tp215
a(Vnatural
VJJ
tp216
a(Venvironments
VNNS
tp217
a(Vbecome
VVBP
tp218
a(Vagricultural
VJJ
tp219
a(Vand
VCC
tp220
a(Vforestry
VNN
tp221
a(Vland
VNN
tp222
a(Vor
VCC
tp223
a(Vpart
VNN
tp224
a(Vof
VIN
tp225
a(Vthe
VDT
tp226
a(Vbuilt
VVBN
tp227
a(Venvironment
VNN
tp228
a(V.
V.
tp229
aa(lp230
(VI
VPRP
tp231
a(Vhave
VVBP
tp232
a(Vthe
VDT
tp233
a(Vfeeling
VNN
tp234
a(Vthat
VIN
tp235
a(Vthis
VDT
tp236
a(Vtext
VNN
tp237
a(Vis
VVBZ
tp238
a(Vnot
VRB
tp239
a(Vvery
VRB
tp240
a(Vclear
VJJ
tp241
a(Vfrom
VIN
tp242
a(Vthe
VDT
tp243
a(Vlegal
VJJ
tp244
a(Vpoint
VNN
tp245
a(Vof
VIN
tp246
a(Vview
VNN
tp247
a(V.
V.
tp248
aa(lp249
(VWe
VPRP
tp250
a(Vare
VVBP
tp251
a(Vhis
VPRP$
tp252
a(Vhumble
VJJ
tp253
a(Vservants
VNNS
tp254
a(V.
V.
tp255
aa(lp256
(VThe
VDT
tp257
a(Vconditions
VNNS
tp258
a(Vmake
VVBP
tp259
a(Vit
VPRP
tp260
a(Vvirtually
VRB
tp261
a(Vimpossible
VJJ
tp262
a(Vfor
VIN
tp263
a(Vthe
VDT
tp264
a(Vopposition
VNN
tp265
a(Vparties
VNNS
tp266
a(Vto
VTO
tp267
a(Vregister
VVB
tp268
a(V.
V.
tp269
aa(lp270
(VIf
VIN
tp271
a(Vso
VRB
tp272
a(V,
V,
tp273
a(Vis
VVBZ
tp274
a(Vit
VPRP
tp275
a(Vpossible
VJJ
tp276
a(Vto
VTO
tp277
a(Vavoid
VVB
tp278
a(Vcivilians
VNNS
tp279
a(Vbecoming
VVBG
tp280
a(Vvictims
VNNS
tp281
a(V?
V.
tp282
aa(lp283
(VEverything
VNN
tp284
a(Vpoints
VVBZ
tp285
a(Vto
VTO
tp286
a(Vthe
VDT
tp287
a(Vcountry
VNN
tp288
a(Vsitting
VVBG
tp289
a(Von
VIN
tp290
a(Va
VDT
tp291
a(Vvolcano
VNN
tp292
a(Vthat
VWDT
tp293
a(Vcould
VMD
tp294
a(Verupt
VVB
tp295
a(Vat
VIN
tp296
a(Vany
VDT
tp297
a(Vminute
VNN
tp298
a(V.
V.
tp299
aa(lp300
(VShall
VNNP
tp301
a(Vwe
VPRP
tp302
a(Vrelinquish
VVBP
tp303
a(Vit
VPRP
tp304
a(Vto
VTO
tp305
a(Vthe
VDT
tp306
a(VUnited
VNNP
tp307
a(VStates
VNNPS
tp308
a(V,
V,
tp309
a(Vor
VCC
tp310
a(Vperhaps
VRB
tp311
a(Vto
VTO
tp312
a(Vother
VJJ
tp313
a(Vcountries
VNNS
tp314
a(Vthat
VWDT
tp315
a(Vare
VVBP
tp316
a(Vfilling
VVBG
tp317
a(Vthe
VDT
tp318
a(Vgap
VNN
tp319
a(V,
V,
tp320
a(Vsuch
VJJ
tp321
a(Vas
VIN
tp322
a(VSouth
VNNP
tp323
a(VAfrica
VNNP
tp324
a(V,
V,
tp325
a(VRussia
VNNP
tp326
a(Vor
VCC
tp327
a(Vthe
VDT
tp328
a(VCzech
VNNP
tp329
a(VRepublic
VNNP
tp330
a(V,
V,
tp331
a(Vor
VCC
tp332
a(Vshall
VMD
tp333
a(Vwe
VPRP
tp334
a(Vtake
VVB
tp335
a(Vup
VRP
tp336
a(Vthe
VDT
tp337
a(Vchallenge
VNN
tp338
a(V?
V.
tp339
aa(lp340
(VThis
VDT
tp341
a(Vis
VVBZ
tp342
a(Van
VDT
tp343
a(Vimportant
VJJ
tp344
a(Vfunction
VNN
tp345
a(Vof
VIN
tp346
a(Va
VDT
tp347
a(Vstate
VNN
tp348
a(V.
V.
tp349
a(VThe
VDT
tp350
a(Vnext
VJJ
tp351
a(Vstep
VNN
tp352
a(Vis
VVBZ
tp353
a(V,
V,
tp354
a(Vof
VIN
tp355
a(Vcourse
VNN
tp356
a(V,
V,
tp357
a(Vto
VTO
tp358
a(Vcreate
VVB
tp359
a(Va
VDT
tp360
a(Vcommon
VJJ
tp361
a(Vcitizenship
VNN
tp362
a(V,
V,
tp363
a(Vwith
VIN
tp364
a(Vcommon
VJJ
tp365
a(Vrights
VNNS
tp366
a(Vand
VCC
tp367
a(Vduties
VNNS
tp368
a(V.
V.
tp369
aa(lp370
(V\u2013
VNN
tp371
a(VMr
VNNP
tp372
a(VPresident
VNNP
tp373
a(V,
V,
tp374
a(Vlast
VJJ
tp375
a(Vweek
VNN
tp376
a(V,
V,
tp377
a(Vthere
VEX
tp378
a(Vwere
VVBD
tp379
a(Vpresidential
VJJ
tp380
a(Velections
VNNS
tp381
a(Vin
VIN
tp382
a(VAzerbaijan
VNNP
tp383
a(V.
V.
tp384
aa(lp385
(VAnd
VCC
tp386
a(Vthis
VDT
tp387
a(Valso
VRB
tp388
a(Vholds
VVBZ
tp389
a(Vgood
VJJ
tp390
a(Vfor
VIN
tp391
a(Vthe
VDT
tp392
a(Vburden
VNN
tp393
a(Vof
VIN
tp394
a(Vproof
VNN
tp395
a(V.
V.
tp396
aa(lp397
(VDespite
VIN
tp398
a(Vthe
VDT
tp399
a(Vfact
VNN
tp400
a(Vthat
VIN
tp401
a(Vthere
VEX
tp402
a(Vhas
VVBZ
tp403
a(Vbeen
VVBN
tp404
a(Va
VDT
tp405
a(Vchange
VNN
tp406
a(Vof
VIN
tp407
a(Vgovernment
VNN
tp408
a(V,
V,
tp409
a(Vthere
VEX
tp410
a(Vseems
VVBZ
tp411
a(Vto
VTO
tp412
a(Vbe
VVB
tp413
a(Vno
VDT
tp414
a(Vchange
VNN
tp415
a(Vin
VIN
tp416
a(Vpolicy
VNN
tp417
a(V.
V.
tp418
aa(lp419
(VOn
VIN
tp420
a(Vthe
VDT
tp421
a(Vone
VCD
tp422
a(Vhand
VNN
tp423
a(V,
V,
tp424
a(Vthe
VDT
tp425
a(V2004
VCD
tp426
a(Vguidelines
VNNS
tp427
a(Vwill
VMD
tp428
a(Vnot
VRB
tp429
a(V&apos;
VVB
tp430
a(Vexpire
VVB
tp431
a(V&apos;
VNN
tp432
a(Vin
VIN
tp433
a(V2011
VCD
tp434
a(V,
V,
tp435
a(Veven
VRB
tp436
a(Vif
VIN
tp437
a(Vthe
VDT
tp438
a(VCommission
VNNP
tp439
a(Vsaid
VVBD
tp440
a(Vthat
VIN
tp441
a(Vthey
VPRP
tp442
a(V&apos;
VVBP
tp443
a(Vwill
VMD
tp444
a(Vbe
VVB
tp445
a(Vreviewed
VVBN
tp446
a(Vwithin
VIN
tp447
a(Vseven
VCD
tp448
a(Vyears
VNNS
tp449
a(V&apos;
VRB
tp450
a(V.
V.
tp451
aa(lp452
(VMadam
VNNP
tp453
a(VPresident
VNNP
tp454
a(V,
V,
tp455
a(Vthe
VDT
tp456
a(Vsituation
VNN
tp457
a(Vin
VIN
tp458
a(VColombia
VNNP
tp459
a(Vis
VVBZ
tp460
a(Vdeteriorating
VVBG
tp461
a(Vday
VNN
tp462
a(Vby
VIN
tp463
a(Vday
VNN
tp464
a(V.
V.
tp465
aa(lp466
(VIn
VIN
tp467
a(Vthis
VDT
tp468
a(Vrespect
VNN
tp469
a(V,
V,
tp470
a(Vthe
VDT
tp471
a(VCommission
VNNP
tp472
a(V,
V,
tp473
a(Vthe
VDT
tp474
a(VCouncil
VNNP
tp475
a(Vand
VCC
tp476
a(VParliament
VNNP
tp477
a(Vall
VDT
tp478
a(Vwasted
VVBD
tp479
a(Vtheir
VPRP$
tp480
a(Vtime
VNN
tp481
a(V,
V,
tp482
a(Vand
VCC
tp483
a(Vduring
VIN
tp484
a(Vthis
VDT
tp485
a(Vperiod
VNN
tp486
a(Vthe
VDT
tp487
a(Vmarket
VNN
tp488
a(Vovertook
VVBD
tp489
a(Vus
VPRP
tp490
a(V,
V,
tp491
a(Vespecially
VRB
tp492
a(Vthe
VDT
tp493
a(VAmericans
VNNPS
tp494
a(V.
V.
tp495
aa(lp496
(VIt
VPRP
tp497
a(Vis
VVBZ
tp498
a(Ventirely
VRB
tp499
a(Vunsatisfactory
VJJ
tp500
a(V.
V.
tp501
aa(lp502
(VWe
VPRP
tp503
a(Vare
VVBP
tp504
a(Vstill
VRB
tp505
a(Vpaying
VVBG
tp506
a(Vrent
VNN
tp507
a(Vfor
VIN
tp508
a(Vthe
VDT
tp509
a(VArdenne
VNNP
tp510
a(Vand
VCC
tp511
a(VRavenstein
VNNP
tp512
a(Vbuildings
VNNS
tp513
a(V.
V.
tp514
aa(lp515
(VTaking
VVBG
tp516
a(Va
VDT
tp517
a(Vhard
VJJ
tp518
a(Vline
VNN
tp519
a(Vobviously
VRB
tp520
a(Vdoes
VVBZ
tp521
a(Vnot
VRB
tp522
a(Vmean
VVB
tp523
a(Vdepriving
VVBG
tp524
a(Vthe
VDT
tp525
a(VMauritanians
VNNPS
tp526
a(Vof
VIN
tp527
a(Vfood
VNN
tp528
a(Vand
VCC
tp529
a(Vhumanitarian
VJJ
tp530
a(Vaid
VNN
tp531
a(V.
V.
tp532
aa(lp533
(VThe
VDT
tp534
a(Vdialogue
VNN
tp535
a(Vwould
VMD
tp536
a(Vinitially
VRB
tp537
a(Vtake
VVB
tp538
a(Vthe
VDT
tp539
a(Vform
VNN
tp540
a(Vof
VIN
tp541
a(Van
VDT
tp542
a(Vexperimental
VJJ
tp543
a(Vround
VNN
tp544
a(Vtable
VNN
tp545
a(Vin
VIN
tp546
a(VTeheran
VNNP
tp547
a(Vin
VIN
tp548
a(VDecember
VNNP
tp549
a(Vof
VIN
tp550
a(Vthis
VDT
tp551
a(Vyear
VNN
tp552
a(V.
V.
tp553
aa(lp554
(VToday
VNN
tp555
a(VI
VPRP
tp556
a(Varrived
VVBD
tp557
a(Vwithout
VIN
tp558
a(Vthe
VDT
tp559
a(Vnew
VJJ
tp560
a(Vcard
VNN
tp561
a(Vwhich
VWDT
tp562
a(VI
VPRP
tp563
a(Vreceived
VVBD
tp564
a(Vin
VIN
tp565
a(VJune
VNNP
tp566
a(Vand
VCC
tp567
a(VI
VPRP
tp568
a(Vwent
VVBD
tp569
a(Vto
VTO
tp570
a(Vthe
VDT
tp571
a(Voffices
VNNS
tp572
a(Vat
VIN
tp573
a(Vthe
VDT
tp574
a(Vback
VNN
tp575
a(Vof
VIN
tp576
a(Vthis
VDT
tp577
a(Vbuilding
VNN
tp578
a(Vto
VTO
tp579
a(Vobtain
VVB
tp580
a(Va
VDT
tp581
a(Vspare
VJJ
tp582
a(Vcard
VNN
tp583
a(V.
V.
tp584
aa(lp585
(VIt
VPRP
tp586
a(Vwas
VVBD
tp587
a(Va
VDT
tp588
a(Vsuccess
VNN
tp589
a(Vand
VCC
tp590
a(VI
VPRP
tp591
a(Vwelcome
VVBP
tp592
a(VRussia
VNNP
tp593
a(V&apos;s
VNNS
tp594
a(Vinvolvement
VNN
tp595
a(Vin
VIN
tp596
a(Vthat
VDT
tp597
a(Voverall
VJJ
tp598
a(Videa
VNN
tp599
a(V.
V.
tp600
aa(lp601
(VWe
VPRP
tp602
a(Vhave
VVBP
tp603
a(Vtalked
VVBN
tp604
a(Vtoo
VRB
tp605
a(Vabout
VIN
tp606
a(Vthe
VDT
tp607
a(Vimportance
VNN
tp608
a(Vof
VIN
tp609
a(Vthe
VDT
tp610
a(Vrelationship
VNN
tp611
a(Vbeyond
VIN
tp612
a(Vthe
VDT
tp613
a(Vconfines
VNNS
tp614
a(Vof
VIN
tp615
a(Vthe
VDT
tp616
a(Vtransatlantic
VNN
tp617
a(Vcommunity
VNN
tp618
a(V.
V.
tp619
aa(lp620
(VSince
VIN
tp621
a(Vthe
VDT
tp622
a(Vearly
VJJ
tp623
a(V70s
VCD
tp624
a(V,
V,
tp625
a(Vthose
VDT
tp626
a(Vpioneers
VNNS
tp627
a(Vhave
VVBP
tp628
a(Vnonetheless
VRB
tp629
a(Vmanaged
VVBN
tp630
a(V,
V,
tp631
a(Vgradually
VRB
tp632
a(V,
V,
tp633
a(Vto
VTO
tp634
a(Vbuild
VVB
tp635
a(Va
VDT
tp636
a(Vmonopoly
VNN
tp637
a(Vposition
VNN
tp638
a(Vwhen
VWRB
tp639
a(Vdealing
VVBG
tp640
a(Vwith
VIN
tp641
a(VEuropean
VJJ
tp642
a(Vstates
VNNS
tp643
a(V.
V.
tp644
aa(lp645
(VIt
VPRP
tp646
a(Vis
VVBZ
tp647
a(Vimportant
VJJ
tp648
a(Vto
VTO
tp649
a(Vreach
VVB
tp650
a(Va
VDT
tp651
a(Vpeaceful
VJJ
tp652
a(Vsolution
VNN
tp653
a(Vto
VTO
tp654
a(Vthe
VDT
tp655
a(Vconflict
VNN
tp656
a(V.
V.
tp657
aa(lp658
(VThey
VPRP
tp659
a(Vmust
VMD
tp660
a(Vfinally
VRB
tp661
a(Vbe
VVB
tp662
a(Vrecognised
VVBN
tp663
a(Vas
VIN
tp664
a(Vpartners
VNNS
tp665
a(V.
V.
tp666
a(VThe
VDT
tp667
a(Vleast
VJJS
tp668
a(Vwe
VPRP
tp669
a(Vshould
VMD
tp670
a(Vdo
VVB
tp671
a(Vis
VVBZ
tp672
a(Vto
VTO
tp673
a(Vgive
VVB
tp674
a(Vthem
VPRP
tp675
a(Va
VDT
tp676
a(Vsay
VVBP
tp677
a(Vin
VIN
tp678
a(Vthe
VDT
tp679
a(Vcoordinating
VVBG
tp680
a(Vcommittee
VNN
tp681
a(V.
V.
tp682
aa(lp683
(VLooking
VVBG
tp684
a(Vat
VIN
tp685
a(Vcolleagues
VNNS
tp686
a(V&apos;
VJJ
tp687
a(Vreactions
VNNS
tp688
a(V,
V,
tp689
a(Vthat
VIN
tp690
a(Vseems
VVBZ
tp691
a(Vto
VTO
tp692
a(Vme
VPRP
tp693
a(Vto
VTO
tp694
a(Vbe
VVB
tp695
a(Van
VDT
tp696
a(Vacceptable
VJJ
tp697
a(Vsuggestion
VNN
tp698
a(V.
V.
tp699
aa(lp700
(VIt
VPRP
tp701
a(Vwould
VMD
tp702
a(Vsend
VVB
tp703
a(Vout
VRP
tp704
a(Vthe
VDT
tp705
a(Vwrong
VJJ
tp706
a(Vsignal
VNN
tp707
a(V.
V.
tp708
aa(lp709
(VIn
VIN
tp710
a(Vbank
VNN
tp711
a(Vaccounts
VNNS
tp712
a(Vin
VIN
tp713
a(VSwitzerland
VNNP
tp714
a(V,
V,
tp715
a(Vthe
VDT
tp716
a(VUnited
VNNP
tp717
a(VKingdom
VNNP
tp718
a(Vand
VCC
tp719
a(VFrance
VNNP
tp720
a(V.
V.
tp721
aa(lp722
(VJust
VRB
tp723
a(Vthe
VDT
tp724
a(Vnight
VNN
tp725
a(Vbefore
VIN
tp726
a(Vlast
VJJ
tp727
a(V33
VCD
tp728
a(Vinhabitants
VNNS
tp729
a(Vof
VIN
tp730
a(Va
VDT
tp731
a(Vvillage
VNN
tp732
a(Vsouth
VNN
tp733
a(Vof
VIN
tp734
a(VAlgiers
VNNP
tp735
a(Vwere
VVBD
tp736
a(Vmurdered
VVBN
tp737
a(V.
V.
tp738
aa(lp739
(VI
VPRP
tp740
a(Vheld
VVBD
tp741
a(Vthe
VDT
tp742
a(Vview
VNN
tp743
a(Vthat
VIN
tp744
a(Vthe
VDT
tp745
a(Vreasoning
VNN
tp746
a(Vwas
VVBD
tp747
a(V,
V,
tp748
a(Vnonetheless
VRB
tp749
a(V,
V,
tp750
a(Vslightly
VRB
tp751
a(Vodd
VJJ
tp752
a(V.
V.
tp753
aa(lp754
(VI
VPRP
tp755
a(Vthink
VVBP
tp756
a(Vit
VPRP
tp757
a(Vwas
VVBD
tp758
a(Von
VIN
tp759
a(Vthe
VDT
tp760
a(Vcards
VNNS
tp761
a(Vthat
VWDT
tp762
a(VHamas
VNNP
tp763
a(Vwould
VMD
tp764
a(Vwin
VVB
tp765
a(V.
V.
tp766
aa(lp767
(VCivil
VJJ
tp768
a(Vaviation
VNN
tp769
aa(lp770
(VThis
VDT
tp771
a(Vpolitical
VJJ
tp772
a(Vprospect
VNN
tp773
a(Vis
VVBZ
tp774
a(Vset
VVBN
tp775
a(Vout
VRP
tp776
a(Vin
VIN
tp777
a(Vthe
VDT
tp778
a(VMitchell
VNNP
tp779
a(Vreport
VNN
tp780
a(Vwhich
VWDT
tp781
a(V,
V,
tp782
a(Vin
VIN
tp783
a(Vturn
VNN
tp784
a(V,
V,
tp785
a(Vshould
VMD
tp786
a(Vonly
VRB
tp787
a(Vbe
VVB
tp788
a(Vviewed
VVBN
tp789
a(Vas
VIN
tp790
a(Van
VDT
tp791
a(Vintermediate
VJJ
tp792
a(Vstage
VNN
tp793
a(Vtowards
VIN
tp794
a(Vthe
VDT
tp795
a(Veventual
VJJ
tp796
a(Vrelaunch
VVBP
tp797
a(Vof
VIN
tp798
a(Vnegotiations
VNNS
tp799
a(Von
VIN
tp800
a(Va
VDT
tp801
a(Vpermanent
VJJ
tp802
a(Vstatus
VNN
tp803
a(Vfor
VIN
tp804
a(Vthe
VDT
tp805
a(VPalestinian
VJJ
tp806
a(Vregions
VNNS
tp807
a(V.
V.
tp808
aa(lp809
(VWhen
VWRB
tp810
a(Va
VDT
tp811
a(Vstudy
VNN
tp812
a(Vthat
VWDT
tp813
a(Vhad
VVBD
tp814
a(Vbeen
VVBN
tp815
a(Vcommissioned
VVBN
tp816
a(Vshowed
VVBD
tp817
a(Vthat
VIN
tp818
a(Vviolence
VNN
tp819
a(Vagainst
VIN
tp820
a(VJews
VNNPS
tp821
a(Vin
VIN
tp822
a(VEurope
VNNP
tp823
a(Vwas
VVBD
tp824
a(Vmainly
VRB
tp825
a(Vperpetrated
VVBN
tp826
a(Vby
VIN
tp827
a(Vyoung
VJJ
tp828
a(VMuslims
VNNPS
tp829
a(V,
V,
tp830
a(Vthe
VDT
tp831
a(Vdirector
VNN
tp832
a(Vof
VIN
tp833
a(Vthe
VDT
tp834
a(VCentre
VNNP
tp835
a(Vpromptly
VRB
tp836
a(Vconsigned
VVBD
tp837
a(Vit
VPRP
tp838
a(Vto
VTO
tp839
a(Vthe
VDT
tp840
a(Vbin
VNN
tp841
a(V.
V.
tp842
aa(lp843
(VWe
VPRP
tp844
a(Vmust
VMD
tp845
a(Vreconcile
VVB
tp846
a(Va
VDT
tp847
a(Vneed
VNN
tp848
a(Vto
VTO
tp849
a(Vimpose
VVB
tp850
a(Vcontrol
VNN
tp851
a(Vwith
VIN
tp852
a(Vdemocratic
VJJ
tp853
a(Vrequirements
VNNS
tp854
a(V.
V.
tp855
aa(lp856
(VDid
VVBD
tp857
a(Vthe
VDT
tp858
a(Vcountries
VNNS
tp859
a(Vtake
VVBP
tp860
a(Vit
VPRP
tp861
a(Vseriously
VRB
tp862
a(V,
V,
tp863
a(Vwere
VVBD
tp864
a(Vthey
VPRP
tp865
a(Vpositive
VJJ
tp866
a(Vand
VCC
tp867
a(Vdo
VVBP
tp868
a(Vthey
VPRP
tp869
a(Vintend
VVBP
tp870
a(Vto
VTO
tp871
a(Vdo
VVB
tp872
a(Vanything
VNN
tp873
a(Vabout
VIN
tp874
a(Vit
VPRP
tp875
a(V?
V.
tp876
aa(lp877
(VThere
VEX
tp878
a(Vare
VVBP
tp879
a(Valso
VRB
tp880
a(Vsome
VDT
tp881
a(Vsignificant
VJJ
tp882
a(Vparameters
VNNS
tp883
a(Vwhich
VWDT
tp884
a(Vare
VVBP
tp885
a(Vinterpreted
VVBN
tp886
a(Vincorrectly
VRB
tp887
a(V.
V.
tp888
aa(lp889
(VI
VPRP
tp890
a(Vwas
VVBD
tp891
a(Vin
VIN
tp892
a(VWarsaw
VNNP
tp893
a(Von
VIN
tp894
a(Vthe
VDT
tp895
a(Vmarch
VNN
tp896
a(Vthat
VWDT
tp897
a(Vyour
VPRP$
tp898
a(VGovernment
VNN
tp899
a(Vtried
VVBD
tp900
a(Vto
VTO
tp901
a(Vban
VVB
tp902
a(V.
V.
tp903
aa(lp904
(VSome
VDT
tp905
a(Vreports
VNNS
tp906
a(Vindicate
VVBP
tp907
a(Vthe
VDT
tp908
a(Vpossibility
VNN
tp909
a(Vof
VIN
tp910
a(Vserious
VJJ
tp911
a(Vfood
VNN
tp912
a(Vshortages
VNNS
tp913
a(Vwhich
VWDT
tp914
a(Vcould
VMD
tp915
a(Vproduce
VVB
tp916
a(Vgreat
VJJ
tp917
a(Vwaves
VNNS
tp918
a(Vof
VIN
tp919
a(Vviolence
VNN
tp920
a(V.
V.
tp921
aa(lp922
(VThis
VDT
tp923
a(Vis
VVBZ
tp924
a(Vwhy
VWRB
tp925
a(VI
VPRP
tp926
a(Vgenerally
VRB
tp927
a(Vview
VVBP
tp928
a(Vscaling
VVBG
tp929
a(Vup
VRP
tp930
a(Vin
VIN
tp931
a(Va
VDT
tp932
a(Vnegative
VJJ
tp933
a(Vlight
VNN
tp934
a(V.
V.
tp935
aa(lp936
(VIt
VPRP
tp937
a(Vonly
VRB
tp938
a(Vtakes
VVBZ
tp939
a(V3
VCD
tp940
a(Vto
VTO
tp941
a(V5
VCD
tp942
a(Vkilograms
VNNS
tp943
a(Vof
VIN
tp944
a(Vnuclear
VJJ
tp945
a(Vplutonium
VNN
tp946
a(Vto
VTO
tp947
a(Vmake
VVB
tp948
a(Va
VDT
tp949
a(Vnuclear
VJJ
tp950
a(Vbomb
VNN
tp951
a(V.
V.
tp952
aa(lp953
(VIt
VPRP
tp954
a(Valso
VRB
tp955
a(Vinspires
VVBZ
tp956
a(Va
VDT
tp957
a(Vfew
VJJ
tp958
a(Vpolitical
VJJ
tp959
a(Vcomments
VNNS
tp960
a(V.
V.
tp961
aa(lp962
(VThat
VDT
tp963
a(Vwas
VVBD
tp964
a(Vabsolutely
VRB
tp965
a(Vnot
VRB
tp966
a(Vwhat
VWP
tp967
a(Vwas
VVBD
tp968
a(Vintended
VVBN
tp969
a(V.
V.
tp970
aa(lp971
(VThe
VDT
tp972
a(VCommission
VNNP
tp973
a(Vhas
VVBZ
tp974
a(Vput
VVBN
tp975
a(Vin
VIN
tp976
a(Vplace
VNN
tp977
a(Va
VDT
tp978
a(Vset
VNN
tp979
a(Vof
VIN
tp980
a(Vprocedures
VNNS
tp981
a(Vto
VTO
tp982
a(Vimplement
VVB
tp983
a(Vthis
VDT
tp984
a(Vrequirement
VNN
tp985
a(V.
V.
tp986
aa(lp987
(VI
VPRP
tp988
a(Vthink
VVBP
tp989
a(Vthis
VDT
tp990
a(Vis
VVBZ
tp991
a(Vone
VCD
tp992
a(Vway
VNN
tp993
a(Vin
VIN
tp994
a(Vwhich
VWDT
tp995
a(Vcontrols
VVBZ
tp996
a(Vcan
VMD
tp997
a(Vbe
VVB
tp998
a(Vimproved
VVBN
tp999
a(V.
V.
tp1000
aa(lp1001
(VAfter
VIN
tp1002
a(Vall
VDT
tp1003
a(V,
V,
tp1004
a(Vthis
VDT
tp1005
a(Vis
VVBZ
tp1006
a(Vnot
VRB
tp1007
a(Vsomething
VNN
tp1008
a(Vto
VTO
tp1009
a(Vwhich
VWDT
tp1010
a(Vthe
VDT
tp1011
a(Vcountry
VNN
tp1012
a(Vof
VIN
tp1013
a(Vorigin
VNN
tp1014
a(Vprinciple
VNN
tp1015
a(Vcan
VMD
tp1016
a(Vapply
VVB
tp1017
a(V.
V.
tp1018
aa(lp1019
(VI
VPRP
tp1020
a(Vwas
VVBD
tp1021
a(Vborn
VVBN
tp1022
a(Vjust
VRB
tp1023
a(Vafter
VIN
tp1024
a(Vthe
VDT
tp1025
a(Vwar
VNN
tp1026
a(V.
V.
tp1027
aa(lp1028
(VWe
VPRP
tp1029
a(Vare
VVBP
tp1030
a(Vtalking
VVBG
tp1031
a(Vabout
VIN
tp1032
a(Va
VDT
tp1033
a(Vdraft
VNN
tp1034
a(Vlaw
VNN
tp1035
a(Vin
VIN
tp1036
a(VLithuania
VNNP
tp1037
a(Vwhich
VWDT
tp1038
a(Vis
VVBZ
tp1039
a(Vcausing
VVBG
tp1040
a(Va
VDT
tp1041
a(Vproblem
VNN
tp1042
a(V,
V,
tp1043
a(Vwhich
VWDT
tp1044
a(Vis
VVBZ
tp1045
a(Vcausing
VVBG
tp1046
a(Vsuch
VPDT
tp1047
a(Va
VDT
tp1048
a(Vproblem
VNN
tp1049
a(Vthat
VWDT
tp1050
a(VMrs
VNNP
tp1051
a(VGrybauskaithas
VNNP
tp1052
a(Vbecome
VVB
tp1053
a(Vinvolved
VVBN
tp1054
a(V.
V.
tp1055
aa(lp1056
(VFollowing
VVBG
tp1057
a(Vthat
VIN
tp1058
a(V,
V,
tp1059
a(VI
VPRP
tp1060
a(Vhave
VVBP
tp1061
a(Vanother
VDT
tp1062
a(Vquestion
VNN
tp1063
a(Vregarding
VVBG
tp1064
a(Vthe
VDT
tp1065
a(Vcampaign
VNN
tp1066
a(Vagainst
VIN
tp1067
a(VJulian
VNNP
tp1068
a(VAssange
VNNP
tp1069
a(V.
V.
tp1070
aa(lp1071
(VThe
VDT
tp1072
a(Vconclusion
VNN
tp1073
a(V,
V,
tp1074
a(Vtherefore
VRB
tp1075
a(V,
V,
tp1076
a(Vis
VVBZ
tp1077
a(Vthat
VIN
tp1078
a(Vit
VPRP
tp1079
a(Vmust
VMD
tp1080
a(Vbe
VVB
tp1081
a(Vremoved
VVBN
tp1082
a(Vand
VCC
tp1083
a(Vthat
VIN
tp1084
a(Vit
VPRP
tp1085
a(Vmust
VMD
tp1086
a(Vbe
VVB
tp1087
a(Vregarded
VVBN
tp1088
a(Vunconditionally
VRB
tp1089
a(Vas
VIN
tp1090
a(Va
VDT
tp1091
a(VCommunity
VNN
tp1092
a(Vmatter
VNN
tp1093
a(V.
V.
tp1094
aa(lp1095
(VThe
VDT
tp1096
a(VKyoto
VNNP
tp1097
a(VProtocol
VNNP
tp1098
a(Vhas
VVBZ
tp1099
a(Vcome
VVBN
tp1100
a(Vin
VIN
tp1101
a(Vfor
VIN
tp1102
a(Vheavy
VJJ
tp1103
a(Vcriticism
VNN
tp1104
a(Vand
VCC
tp1105
a(Vwill
VMD
tp1106
a(Vcontinue
VVB
tp1107
a(Vto
VTO
tp1108
a(Vdo
VVB
tp1109
a(Vso
VRB
tp1110
a(V.
V.
tp1111
aa(lp1112
(VWe
VPRP
tp1113
a(Vshould
VMD
tp1114
a(Vnot
VRB
tp1115
a(Vfeed
VVB
tp1116
a(Vthe
VDT
tp1117
a(Vradicalisation
VNN
tp1118
a(Vof
VIN
tp1119
a(Vextreme
VJJ
tp1120
a(VPalestinian
VJJ
tp1121
a(Vorganisations
VNNS
tp1122
a(Vany
VDT
tp1123
a(Vmore
VJJR
tp1124
a(Vand
VCC
tp1125
a(VIsrael
VNNP
tp1126
a(Vbears
VVBZ
tp1127
a(Va
VDT
tp1128
a(Vgreat
VJJ
tp1129
a(Vdeal
VNN
tp1130
a(Vof
VIN
tp1131
a(Vresponsibility
VNN
tp1132
a(Vhere
VRB
tp1133
a(V.
V.
tp1134
aa(lp1135
(VOld
VJJ
tp1136
a(Vtimes
VNNS
tp1137
a(Vpersist
VVBP
tp1138
a(Vin
VIN
tp1139
a(VBelarus
VNNP
tp1140
a(V.
V.
tp1141
aa(lp1142
(VI
VPRP
tp1143
a(Vhear
VVBP
tp1144
a(Vthe
VDT
tp1145
a(Vvoices
VNNS
tp1146
a(Vof
VIN
tp1147
a(Vcritics
VNNS
tp1148
a(Vraising
VVBG
tp1149
a(Vtheir
VPRP$
tp1150
a(Vfingers
VNNS
tp1151
a(Vin
VIN
tp1152
a(Vwarning
VNN
tp1153
a(Vand
VCC
tp1154
a(Vquoting
VVBG
tp1155
a(Vthis
VDT
tp1156
a(Vproverb
VNN
tp1157
a(V.
V.
tp1158
aa(lp1159
(VThat
VDT
tp1160
a(Vis
VVBZ
tp1161
a(Vwhy
VWRB
tp1162
a(Vthe
VDT
tp1163
a(VCommission
VNNP
tp1164
a(Vfollows
VVBZ
tp1165
a(Vall
VPDT
tp1166
a(Vthese
VDT
tp1167
a(Vissues
VNNS
tp1168
a(Vclosely
VRB
tp1169
a(Vas
VIN
tp1170
a(Vpart
VNN
tp1171
a(Vof
VIN
tp1172
a(Vits
VPRP$
tp1173
a(Vregular
VJJ
tp1174
a(Vmonitoring
VNN
tp1175
a(V.
V.
tp1176
aa(lp1177
(VThank
VVB
tp1178
a(Vyou
VPRP
tp1179
a(Vin
VIN
tp1180
a(Vadvance
VNN
tp1181
a(V.
V.
tp1182
aa(lp1183
(VOthers
VNNS
tp1184
a(Vdo
VVBP
tp1185
a(Vnot
VRB
tp1186
a(V,
V,
tp1187
a(Vbut
VCC
tp1188
a(Vare
VVBP
tp1189
a(Vin
VIN
tp1190
a(Va
VDT
tp1191
a(Vcaring
VNN
tp1192
a(Vrelationship
VNN
tp1193
a(Vwith
VIN
tp1194
a(Vthat
VDT
tp1195
a(Vchild
VNN
tp1196
a(Vand
VCC
tp1197
a(Vprovide
VVB
tp1198
a(Va
VDT
tp1199
a(Vstable
VJJ
tp1200
a(Vand
VCC
tp1201
a(Vsafe
VJJ
tp1202
a(Vhome
VNN
tp1203
a(Vfor
VIN
tp1204
a(Vthem
VPRP
tp1205
a(V.
V.
tp1206
aa(lp1207
(VI
VPRP
tp1208
a(Vdo
VVBP
tp1209
a(Vnot
VRB
tp1210
a(Vunderstand
VVB
tp1211
a(Vwhy
VWRB
tp1212
a(Vthe
VDT
tp1213
a(VInternational
VNNP
tp1214
a(VAtomic
VJJ
tp1215
a(VEnergy
VNNP
tp1216
a(VAgency
VNNP
tp1217
a(Vdid
VVBD
tp1218
a(Vnot
VRB
tp1219
a(Vintervene
VVB
tp1220
a(Vearlier
VJJR
tp1221
a(V.
V.
tp1222
aa(lp1223
(VMy
VPRP$
tp1224
a(Vhost
VNN
tp1225
a(V,
V,
tp1226
a(Vwho
VWP
tp1227
a(Vserves
VVBZ
tp1228
a(Vthe
VDT
tp1229
a(Vbread
VNN
tp1230
a(Vrolls
VNNS
tp1231
a(V,
V,
tp1232
a(Vdoes
VVBZ
tp1233
a(Vnot
VRB
tp1234
a(Vhave
VVB
tp1235
a(Vto
VTO
tp1236
a(Vkeep
VVB
tp1237
a(Va
VDT
tp1238
a(Vrecord
VNN
tp1239
a(Vof
VIN
tp1240
a(Vwhether
VIN
tp1241
a(Vhe
VPRP
tp1242
a(Vhas
VVBZ
tp1243
a(Vwiped
VVBN
tp1244
a(Vthe
VDT
tp1245
a(Vcounter
VNN
tp1246
a(Vand
VCC
tp1247
a(Vwashed
VVBN
tp1248
a(Vthe
VDT
tp1249
a(Vdishes
VNNS
tp1250
a(V.
V.
tp1251
aa(lp1252
(VThis
VDT
tp1253
a(Vinvolves
VVBZ
tp1254
a(Van
VDT
tp1255
a(Venormous
VJJ
tp1256
a(Vamount
VNN
tp1257
a(Vof
VIN
tp1258
a(Vsuffering
VVBG
tp1259
a(Vfor
VIN
tp1260
a(Vthe
VDT
tp1261
a(Vanimals
VNNS
tp1262
a(V.
V.
tp1263
aa(lp1264
(VToday
VNN
tp1265
a(V,
V,
tp1266
a(Vthe
VDT
tp1267
a(Veconomic
VJJ
tp1268
a(Vinterests
VNNS
tp1269
a(Vthat
VIN
tp1270
a(VI
VPRP
tp1271
a(Vencounter
VVBP
tp1272
a(Vin
VIN
tp1273
a(Vthe
VDT
tp1274
a(VCongo
VNNP
tp1275
a(Vare
VVBP
tp1276
a(VChinese
VJJ
tp1277
a(V,
V,
tp1278
a(VIndian
VJJ
tp1279
a(V,
V,
tp1280
a(VIsraeli
VJJ
tp1281
a(V,
V,
tp1282
a(VAmerican
VJJ
tp1283
a(V.
V.
tp1284
aa(lp1285
(VLet
VVB
tp1286
a(Vus
VPRP
tp1287
a(Vnot
VRB
tp1288
a(Vpush
VVB
tp1289
a(Vthings
VNNS
tp1290
a(Vto
VTO
tp1291
a(Vthe
VDT
tp1292
a(Vlimit
VNN
tp1293
a(V.
V.
tp1294
aa(lp1295
(VOn
VIN
tp1296
a(Vthat
VDT
tp1297
a(Vreference
VNN
tp1298
a(Vdate
VNN
tp1299
a(V,
V,
tp1300
a(Vthe
VDT
tp1301
a(VFund
VNNP
tp1302
a(Vhad
VVBD
tp1303
a(Vat
VIN
tp1304
a(Vits
VPRP$
tp1305
a(Vdisposal
VNN
tp1306
a(VECU
VNN
tp1307
a(V1.186
VCD
tp1308
a(Vbillion
VCD
tp1309
a(V.
V.
tp1310
aa(lp1311
(VWe
VPRP
tp1312
a(Vshould
VMD
tp1313
a(Vbe
VVB
tp1314
a(Vproud
VJJ
tp1315
a(Vof
VIN
tp1316
a(VEurope
VNNP
tp1317
a(V&apos;s
VNNS
tp1318
a(Vrecord
VNN
tp1319
a(V.
V.
tp1320
aa(lp1321
(VI
VPRP
tp1322
a(Vmanaged
VVBD
tp1323
a(Vto
VTO
tp1324
a(Vget
VVB
tp1325
a(Vto
VTO
tp1326
a(Vthe
VDT
tp1327
a(Vpolice
VNN
tp1328
a(Vstation
VNN
tp1329
a(V,
V,
tp1330
a(Vwhere
VWRB
tp1331
a(Vthere
VEX
tp1332
a(Vwas
VVBD
tp1333
a(Van
VDT
tp1334
a(Vofficer
VNN
tp1335
a(Vwho
VWP
tp1336
a(Vspoke
VVBD
tp1337
a(VFlemish
VNNP
tp1338
a(V,
V,
tp1339
a(Vbut
VCC
tp1340
a(Vnot
VRB
tp1341
a(Vthe
VDT
tp1342
a(Vsort
VNN
tp1343
a(Vthat
VWDT
tp1344
a(Vhas
VVBZ
tp1345
a(Vany
VDT
tp1346
a(Vsimilarity
VNN
tp1347
a(Vwith
VIN
tp1348
a(VDutch
VNNP
tp1349
a(V.
V.
tp1350
aa(lp1351
(VMany
VJJ
tp1352
a(Vof
VIN
tp1353
a(Vus
VPRP
tp1354
a(Vconsider
VVBP
tp1355
a(Vit
VPRP
tp1356
a(Vnecessary
VJJ
tp1357
a(Vto
VTO
tp1358
a(Vreduce
VVB
tp1359
a(Vemissions
VNNS
tp1360
a(Vby
VIN
tp1361
a(Vbetween
VIN
tp1362
a(V30
VCD
tp1363
a(V%
VNN
tp1364
a(Vand
VCC
tp1365
a(V40
VCD
tp1366
a(V%
VNN
tp1367
a(Vby
VIN
tp1368
a(V2020
VCD
tp1369
a(V.
V.
tp1370
aa(lp1371
(VUnfortunately
VRB
tp1372
a(VI
VPRP
tp1373
a(Vhave
VVBP
tp1374
a(Vnot
VRB
tp1375
a(Vyet
VRB
tp1376
a(Vlearned
VVBD
tp1377
a(Vthe
VDT
tp1378
a(Vart
VNN
tp1379
a(Vof
VIN
tp1380
a(Vwalking
VVBG
tp1381
a(Von
VIN
tp1382
a(Vwater
VNN
tp1383
a(V.
V.
tp1384
aa(lp1385
(VThey
VPRP
tp1386
a(Vmark
VVBP
tp1387
a(Vthe
VDT
tp1388
a(Vstart
VNN
tp1389
a(Vof
VIN
tp1390
a(Vour
VPRP$
tp1391
a(Vdialogue
VNN
tp1392
a(V.
V.
tp1393
aa(lp1394
(VAIDS
VNN
tp1395
aa(lp1396
(VI
VPRP
tp1397
a(Vwould
VMD
tp1398
a(Vlike
VVB
tp1399
a(Vto
VTO
tp1400
a(Vunderline
VVB
tp1401
a(Vthis
VDT
tp1402
a(Vlast
VJJ
tp1403
a(Vpoint
VNN
tp1404
a(Vin
VIN
tp1405
a(Vparticular
VJJ
tp1406
a(V.
V.
tp1407
aa(lp1408
(VMany
VJJ
tp1409
a(Vof
VIN
tp1410
a(Vthe
VDT
tp1411
a(Vslogans
VNNS
tp1412
a(Vat
VIN
tp1413
a(Vtoday
VNN
tp1414
a(V&apos;s
VNNS
tp1415
a(Vdemonstration
VNN
tp1416
a(Vwere
VVBD
tp1417
a(Vnot
VRB
tp1418
a(Vup-to-date
VJJ
tp1419
a(V.
V.
tp1420
aa(lp1421
(VI
VPRP
tp1422
a(Vwill
VMD
tp1423
a(Vend
VVB
tp1424
a(Vnow
VRB
tp1425
a(V.
V.
tp1426
a(VI
VPRP
tp1427
a(Vwill
VMD
tp1428
a(Vnot
VRB
tp1429
a(Vexpand
VVB
tp1430
a(Vfurther
VRB
tp1431
a(V.
V.
tp1432
aa(lp1433
(VBaroness
VNNP
tp1434
a(VLudford
VNNP
tp1435
a(Vhas
VVBZ
tp1436
a(Vreassured
VVBN
tp1437
a(Vus
VPRP
tp1438
a(Vand
VCC
tp1439
a(Vput
VVB
tp1440
a(Vour
VPRP$
tp1441
a(Vminds
VNNS
tp1442
a(Vat
VIN
tp1443
a(Vrest
VNN
tp1444
a(V.
V.
tp1445
aa(lp1446
(VThe
VDT
tp1447
a(V&apos;
VJJ
tp1448
a(Vno
VDT
tp1449
a(V&apos;
VJJ
tp1450
a(Vside
VNN
tp1451
a(Vwas
VVBD
tp1452
a(Vnot
VRB
tp1453
a(Vallowed
VVBN
tp1454
a(Vto
VTO
tp1455
a(Vbe
VVB
tp1456
a(Vpresent
VJJ
tp1457
a(Vat
VIN
tp1458
a(VBerlin
VNNP
tp1459
a(V,
V,
tp1460
a(VLondon
VNNP
tp1461
a(Vor
VCC
tp1462
a(VParis
VNNP
tp1463
a(V.
V.
tp1464
aa(lp1465
(VThe
VDT
tp1466
a(Vlatest
VJJS
tp1467
a(VUNICEF
VNNP
tp1468
a(Vstatistics
VNNS
tp1469
a(Von
VIN
tp1470
a(Vabuse
VNN
tp1471
a(Vof
VIN
tp1472
a(Vwomen
VNNS
tp1473
a(Vare
VVBP
tp1474
a(Vshocking
VJJ
tp1475
a(V.
V.
tp1476
aa(lp1477
(VWe
VPRP
tp1478
a(Vcame
VVBD
tp1479
a(Vto
VTO
tp1480
a(Vthe
VDT
tp1481
a(Vconclusion
VNN
tp1482
a(Vthat
VIN
tp1483
a(Vperhaps
VRB
tp1484
a(Vabsorption
VNN
tp1485
a(Vis
VVBZ
tp1486
a(Vnot
VRB
tp1487
a(Vthe
VDT
tp1488
a(Vbest
VJJS
tp1489
a(Vterm
VNN
tp1490
a(Vto
VTO
tp1491
a(Vuse
VVB
tp1492
a(V.
V.
tp1493
aa(lp1494
(VVlad
VNNP
tp1495
a(VCubreacov
VNNP
tp1496
a(Vtold
VVBD
tp1497
a(Vme
VPRP
tp1498
a(Vabout
VIN
tp1499
a(Vassassination
VNN
tp1500
a(Vattempts
VNNS
tp1501
a(Vto
VTO
tp1502
a(Vwhich
VWDT
tp1503
a(Vhe
VPRP
tp1504
a(Vhad
VVBD
tp1505
a(Vearlier
VRB
tp1506
a(Vbeen
VVBN
tp1507
a(Vsubjected
VVBN
tp1508
a(V.
V.
tp1509
aa(lp1510
(VIndeed
VRB
tp1511
a(V,
V,
tp1512
a(Vthe
VDT
tp1513
a(Vfinger
VNN
tp1514
a(Vis
VVBZ
tp1515
a(Vnot
VRB
tp1516
a(Veven
VRB
tp1517
a(Vpointed
VVBD
tp1518
a(Vat
VIN
tp1519
a(VIslamic
VJJ
tp1520
a(Vextremism
VNN
tp1521
a(V.
V.
tp1522
aa(lp1523
(VThe
VDT
tp1524
a(Vcountry
VNN
tp1525
a(Vis
VVBZ
tp1526
a(Vin
VIN
tp1527
a(Vfact
VNN
tp1528
a(V,
V,
tp1529
a(Vday
VNN
tp1530
a(Vby
VIN
tp1531
a(Vday
VNN
tp1532
a(V,
V,
tp1533
a(Vas
VIN
tp1534
a(VDavid
VNNP
tp1535
a(VGrossman
VNNP
tp1536
a(Vsays
VVBZ
tp1537
a(V,
V,
tp1538
a(Vlosing
VVBG
tp1539
a(Vits
VPRP$
tp1540
a(Vvery
VRB
tp1541
a(Vmorality
VNN
tp1542
a(V.
V.
tp1543
aa(lp1544
(VThat
VDT
tp1545
a(Vis
VVBZ
tp1546
a(Vthe
VDT
tp1547
a(Vonly
VJJ
tp1548
a(Vway
VNN
tp1549
a(Vto
VTO
tp1550
a(Vprevent
VVB
tp1551
a(Vseparatism
VNN
tp1552
a(V.
V.
tp1553
aa(lp1554
(VThat
VDT
tp1555
a(Vwould
VMD
tp1556
a(Vhave
VVB
tp1557
a(Vresulted
VVBN
tp1558
a(Vin
VIN
tp1559
a(Vcompensation
VNN
tp1560
a(Vequivalent
VNN
tp1561
a(Vto
VTO
tp1562
a(Vbetween
VIN
tp1563
a(V12
VCD
tp1564
a(Vand
VCC
tp1565
a(V19
VCD
tp1566
a(Vmonths
VNNS
tp1567
a(V&apos;
VJJ
tp1568
a(Vsalary
VNN
tp1569
a(V.
V.
tp1570
aa(lp1571
(VI
VPRP
tp1572
a(Vrepeat
VVBP
tp1573
a(Vmy
VPRP$
tp1574
a(Vfirm
VNN
tp1575
a(Vposition
VNN
tp1576
a(Vthat
VWDT
tp1577
a(VDublin
VNNP
tp1578
a(VII
VNNP
tp1579
a(Vneeds
VVBZ
tp1580
a(Vto
VTO
tp1581
a(Vbe
VVB
tp1582
a(Vrevised
VVBN
tp1583
a(Vand
VCC
tp1584
a(Vthe
VDT
tp1585
a(VFrontex
VNNP
tp1586
a(Voperational
VJJ
tp1587
a(Voffice
VNN
tp1588
a(Vin
VIN
tp1589
a(VGreece
VNNP
tp1590
a(Vneeds
VVBZ
tp1591
a(Vto
VTO
tp1592
a(Voperate
VVB
tp1593
a(Von
VIN
tp1594
a(Va
VDT
tp1595
a(Vpermanent
VJJ
tp1596
a(Vbasis
VNN
tp1597
a(V.
V.
tp1598
aa(lp1599
(VThere
VEX
tp1600
a(Vis
VVBZ
tp1601
a(Va
VDT
tp1602
a(Vcertain
VJJ
tp1603
a(Vambiguity
VNN
tp1604
a(Vin
VIN
tp1605
a(Vthe
VDT
tp1606
a(Vlanguage
VNN
tp1607
a(Vof
VIN
tp1608
a(Vthe
VDT
tp1609
a(VCouncil
VNNP
tp1610
a(V.
V.
tp1611
aa(lp1612
(VIt
VPRP
tp1613
a(Vwas
VVBD
tp1614
a(VEuropeans
VNNPS
tp1615
a(Vwho
VWP
tp1616
a(Vcame
VVBD
tp1617
a(Vup
VRP
tp1618
a(Vwith
VIN
tp1619
a(Vthe
VDT
tp1620
a(Videa
VNN
tp1621
a(Vof
VIN
tp1622
a(Vthe
VDT
tp1623
a(Vsupremacy
VNN
tp1624
a(Vof
VIN
tp1625
a(Vthe
VDT
tp1626
a(VAryan
VNNP
tp1627
a(Vrace
VNN
tp1628
a(V,
V,
tp1629
a(Vthe
VDT
tp1630
a(VFinal
VJJ
tp1631
a(VSolution
VNN
tp1632
a(Vfor
VIN
tp1633
a(Vother
VJJ
tp1634
a(Vraces
VNNS
tp1635
a(Vand
VCC
tp1636
a(Vthe
VDT
tp1637
a(Vgas
VNN
tp1638
a(Vchambers
VNNS
tp1639
a(V.
V.
tp1640
aa(lp1641
(VWe
VPRP
tp1642
a(Valso
VRB
tp1643
a(Vhave
VVBP
tp1644
a(V1
VCD
tp1645
a(Vin
VIN
tp1646
a(Vevery
VDT
tp1647
a(V360
VCD
tp1648
a(Vpregnant
VJJ
tp1649
a(Vwomen
VNNS
tp1650
a(VHIV
VNN
tp1651
a(Vpositive
VJJ
tp1652
a(V.
V.
tp1653
aa(lp1654
(VWe
VPRP
tp1655
a(Vknow
VVBP
tp1656
a(Vthat
VDT
tp1657
a(Voften
VRB
tp1658
a(Vthe
VDT
tp1659
a(Vconstruction
VNN
tp1660
a(Vof
VIN
tp1661
a(Vinfrastructures
VNNS
tp1662
a(Vand
VCC
tp1663
a(Vthe
VDT
tp1664
a(Voperation
VNN
tp1665
a(Vof
VIN
tp1666
a(Vthe
VDT
tp1667
a(Vtransport
VNN
tp1668
a(Vsystem
VNN
tp1669
a(Vhave
VVBP
tp1670
a(Vbeen
VVBN
tp1671
a(Vfunded
VVBN
tp1672
a(Vprimarily
VRB
tp1673
a(Vfrom
VIN
tp1674
a(Vgeneral
VJJ
tp1675
a(Vtaxation
VNN
tp1676
a(V.
V.
tp1677
aa(lp1678
(VThese
VDT
tp1679
a(Vchanges
VNNS
tp1680
a(Vneed
VVBP
tp1681
a(Vto
VTO
tp1682
a(Vdemonstrate
VVB
tp1683
a(Vthat
VIN
tp1684
a(Vthey
VPRP
tp1685
a(Vare
VVBP
tp1686
a(Veffective
VJJ
tp1687
a(Vin
VIN
tp1688
a(Vpractice
VNN
tp1689
a(V,
V,
tp1690
a(Vhowever
VRB
tp1691
a(V.
V.
tp1692
aa(lp1693
(VThis
VDT
tp1694
a(VConvention
VNNP
tp1695
a(Vwas
VVBD
tp1696
a(Vsigned
VVBN
tp1697
a(Von
VIN
tp1698
a(V15
VCD
tp1699
a(VJune
VNNP
tp1700
a(V1990
VCD
tp1701
a(V.
V.
tp1702
aa.