(lp1
(lp2
(VA
VDT
tp3
a(Vlist
VNN
tp4
a(Vof
VIN
tp5
a(Vthis
VDT
tp6
a(Vkind
VNN
tp7
a(Vis
VVBZ
tp8
a(Vnecessary
VJJ
tp9
a(V,
V,
tp10
a(Vand
VCC
tp11
a(Vit
VPRP
tp12
a(Vis
VVBZ
tp13
a(Vfine
VJJ
tp14
a(Vif
VIN
tp15
a(V,
V,
tp16
a(Vafter
VIN
tp17
a(Vthe
VDT
tp18
a(Vdirective
VNN
tp19
a(Vhas
VVBZ
tp20
a(Vcome
VVBN
tp21
a(Vinto
VIN
tp22
a(Veffect
VNN
tp23
a(V,
V,
tp24
a(Vthese
VDT
tp25
a(Vdecisions
VNNS
tp26
a(Vare
VVBP
tp27
a(Vtaken
VVBN
tp28
a(Vby
VIN
tp29
a(Va
VDT
tp30
a(Vqualified
VVBN
tp31
a(Vmajority
VNN
tp32
a(V.
V.
tp33
aa(lp34
(VI
VPRP
tp35
a(Vknow
VVBP
tp36
a(Vthat
VIN
tp37
a(Vthe
VDT
tp38
a(VCommission
VNNP
tp39
a(Vis
VVBZ
tp40
a(Vfar
VRB
tp41
a(Vsuperior
VJJ
tp42
a(Vto
VTO
tp43
a(Vits
VPRP$
tp44
a(Vreputation
VNN
tp45
a(V.
V.
tp46
aa(lp47
(VBravo
VNNP
tp48
a(Vfor
VIN
tp49
a(Vpolitical
VJJ
tp50
a(Vcourage
VNN
tp51
a(V,
V,
tp52
a(Vdemocratic
VJJ
tp53
a(Vrigour
VNN
tp54
a(Vand
VCC
tp55
a(Vconfidence
VNN
tp56
a(Vin
VIN
tp57
a(Vthe
VDT
tp58
a(VConstitution
VNNP
tp59
a(V.
V.
tp60
aa(lp61
(VAccording
VVBG
tp62
a(Vto
VTO
tp63
a(Vthe
VDT
tp64
a(Vjudge
VNN
tp65
a(V,
V,
tp66
a(Vthat
VWDT
tp67
a(Vtext
VNN
tp68
a(Vwas
VVBD
tp69
a(Vnot
VRB
tp70
a(Vpublished
VVBN
tp71
a(Vto
VTO
tp72
a(Vimprove
VVB
tp73
a(Vthe
VDT
tp74
a(Vsituation
VNN
tp75
a(Vof
VIN
tp76
a(Vwomen
VNNS
tp77
a(Vin
VIN
tp78
a(VIslam
VNNP
tp79
a(V,
V,
tp80
a(Vbut
VCC
tp81
a(Vto
VTO
tp82
a(Vstigmatise
VVB
tp83
a(VIslam
VNNP
tp84
a(V.
V.
tp85
aa(lp86
(VI
VPRP
tp87
a(Vthink
VVBP
tp88
a(Vof
VIN
tp89
a(Vthe
VDT
tp90
a(Vparents
VNNS
tp91
a(Vof
VIN
tp92
a(Vthose
VDT
tp93
a(Vteenagers
VNNS
tp94
a(Vand
VCC
tp95
a(Vothers
VNNS
tp96
a(Vmurdered
VVBN
tp97
a(Vor
VCC
tp98
a(Vmaimed
VVBN
tp99
a(Vin
VIN
tp100
a(Vcountless
VJJ
tp101
a(Vterrorist
VJJ
tp102
a(Vsuicide
VNN
tp103
a(Vbomb
VNN
tp104
a(Vattacks
VNNS
tp105
a(V.
V.
tp106
aa(lp107
(VWe
VPRP
tp108
a(Vshould
VMD
tp109
a(Vlook
VVB
tp110
a(Vat
VIN
tp111
a(VPresident
VNNP
tp112
a(VSarkozy
VNNP
tp113
a(Vof
VIN
tp114
a(VFrance
VNNP
tp115
a(Vand
VCC
tp116
a(Vremember
VVB
tp117
a(Vthat
VIN
tp118
a(Vthere
VEX
tp119
a(Vwas
VVBD
tp120
a(Vno
VDT
tp121
a(Vlimit
VNN
tp122
a(Von
VIN
tp123
a(Vhow
VWRB
tp124
a(Vmany
VJJ
tp125
a(Vextraordinary
VJJ
tp126
a(Vsummits
VNNS
tp127
a(Vthe
VDT
tp128
a(VPresident
VNNP
tp129
a(Vof
VIN
tp130
a(VFrance
VNNP
tp131
a(Vheld
VVBD
tp132
a(Vduring
VIN
tp133
a(Vhis
VPRP$
tp134
a(VPresidency
VNNP
tp135
a(V.
V.
tp136
aa(lp137
(VWe
VPRP
tp138
a(Vcould
VMD
tp139
a(Vbegin
VVB
tp140
a(Vto
VTO
tp141
a(Vcreate
VVB
tp142
a(Va
VDT
tp143
a(VEurope
VNNP
tp144
a(Vof
VIN
tp145
a(Vthe
VDT
tp146
a(Vpeople
VNNS
tp147
a(V,
V,
tp148
a(Vusing
VVBG
tp149
a(Vthe
VDT
tp150
a(Vsincere
VJJ
tp151
a(Vcommitment
VNN
tp152
a(Vof
VIN
tp153
a(Vthe
VDT
tp154
a(Vpeople
VNNS
tp155
a(V.
V.
tp156
aa(lp157
(VWe
VPRP
tp158
a(Vwant
VVBP
tp159
a(Vto
VTO
tp160
a(Vconcentrate
VVB
tp161
a(Von
VIN
tp162
a(Vthose
VDT
tp163
a(Vthings
VNNS
tp164
a(Vthat
VWDT
tp165
a(VEuropean
VJJ
tp166
a(Vlaw
VNN
tp167
a(Vis
VVBZ
tp168
a(Vmeant
VVBN
tp169
a(Vto
VTO
tp170
a(Vaddress
VVB
tp171
a(V,
V,
tp172
a(Vwith
VIN
tp173
a(Veverything
VNN
tp174
a(Velse
VRB
tp175
a(Vbeing
VVBG
tp176
a(Vleft
VVBN
tp177
a(Vto
VTO
tp178
a(Vnational
VJJ
tp179
a(Vlaw
VNN
tp180
a(V.
V.
tp181
aa(lp182
(VWell
VRB
tp183
a(V,
V,
tp184
a(Vtoday
VNN
tp185
a(V,
V,
tp186
a(Vthe
VDT
tp187
a(Vsame
VJJ
tp188
a(VMinister
VNNP
tp189
a(Vof
VIN
tp190
a(VEuropean
VNNP
tp191
a(VAffairs
VNNP
tp192
a(Vwho
VWP
tp193
a(Vdrew
VVBD
tp194
a(Vup
VRP
tp195
a(Vthe
VDT
tp196
a(VTreaty
VNNP
tp197
a(Vof
VIN
tp198
a(VAmsterdam
VNNP
tp199
a(V,
V,
tp200
a(Vwho
VWP
tp201
a(Vhas
VVBZ
tp202
a(V,
V,
tp203
a(Vin
VIN
tp204
a(Vthe
VDT
tp205
a(Vmeantime
VNN
tp206
a(V,
V,
tp207
a(Vbecome
VVB
tp208
a(Va
VDT
tp209
a(VEuropean
VJJ
tp210
a(VCommissioner
VNNP
tp211
a(V,
V,
tp212
a(VMr
VNNP
tp213
a(VBarnier
VNNP
tp214
a(V,
V,
tp215
a(Vproposes
VVBZ
tp216
a(Vto
VTO
tp217
a(Vdecide
VVB
tp218
a(V,
V,
tp219
a(Vat
VIN
tp220
a(Vthe
VDT
tp221
a(Vforthcoming
VJJ
tp222
a(VIGC
VNNP
tp223
a(V,
V,
tp224
a(Vthat
VIN
tp225
a(Vthe
VDT
tp226
a(VCouncil
VNNP
tp227
a(Vwill
VMD
tp228
a(Voperate
VVB
tp229
a(Vin
VIN
tp230
a(Vthese
VDT
tp231
a(Vareas
VNNS
tp232
a(Vby
VIN
tp233
a(Vmajority
VNN
tp234
a(Vdecision
VNN
tp235
a(V.
V.
tp236
aa(lp237
(VThere
VEX
tp238
a(Vare
VVBP
tp239
a(Vindeed
VRB
tp240
a(Vfisheries
VNNS
tp241
a(Vresources
VNNS
tp242
a(V,
V,
tp243
a(Vand
VCC
tp244
a(Va
VDT
tp245
a(Vnew
VJJ
tp246
a(Vmonitoring
VNN
tp247
a(Vsystem
VNN
tp248
a(V,
V,
tp249
a(Vwhich
VWDT
tp250
a(Vwe
VPRP
tp251
a(Vare
VVBP
tp252
a(Vdebating
VVBG
tp253
a(Vthis
VDT
tp254
a(Vevening
VNN
tp255
a(V,
V,
tp256
a(Vbut
VCC
tp257
a(Vabove
VIN
tp258
a(Vall
VDT
tp259
a(Vthere
VEX
tp260
a(Vare
VVBP
tp261
a(Vfishermen
VNNS
tp262
a(V,
V,
tp263
a(Vtheir
VPRP$
tp264
a(Vjobs
VNNS
tp265
a(Vand
VCC
tp266
a(Vtheir
VPRP$
tp267
a(Vlivelihoods
VNNS
tp268
a(V,
V,
tp269
a(Vand
VCC
tp270
a(Vbeing
VVBG
tp271
a(Va
VDT
tp272
a(Vfisherman
VNN
tp273
a(Vis
VVBZ
tp274
a(Vthe
VDT
tp275
a(Vhardest
VJJS
tp276
a(Vjob
VNN
tp277
a(Vin
VIN
tp278
a(Vthe
VDT
tp279
a(Vworld
VNN
tp280
a(V.
V.
tp281
aa(lp282
(VThe
VDT
tp283
a(VMediterranean
VNNP
tp284
a(Vprovides
VVBZ
tp285
a(Va
VDT
tp286
a(Vdramatic
VJJ
tp287
a(Vexample
VNN
tp288
a(Vof
VIN
tp289
a(Vthe
VDT
tp290
a(Vissue
VNN
tp291
a(Vof
VIN
tp292
a(Vwar
VNN
tp293
a(Vand
VCC
tp294
a(Vpeace
VNN
tp295
a(V.
V.
tp296
aa(lp297
(VPoorly
VRB
tp298
a(Vupgraded
VVBN
tp299
a(Vroads
VNNS
tp300
a(Vand
VCC
tp301
a(Vthe
VDT
tp302
a(Vformation
VNN
tp303
a(Vof
VIN
tp304
a(Vtailbacks
VNNS
tp305
a(Valso
VRB
tp306
a(Vincrease
VVBP
tp307
a(Vthe
VDT
tp308
a(Vpotential
VJJ
tp309
a(Vdanger
VNN
tp310
a(V.
V.
tp311
aa(lp312
(VMr
VNNP
tp313
a(VPresident
VNNP
tp314
a(V,
V,
tp315
a(Vladies
VNNS
tp316
a(Vand
VCC
tp317
a(Vgentlemen
VNNS
tp318
a(V,
V,
tp319
a(Vhere
VRB
tp320
a(Vwe
VPRP
tp321
a(Vare
VVBP
tp322
a(Vmeeting
VVBG
tp323
a(Vto
VTO
tp324
a(Vdiscuss
VVB
tp325
a(Vour
VPRP$
tp326
a(Vfuture
VJJ
tp327
a(Vstatute
VNN
tp328
a(Vat
VIN
tp329
a(Va
VDT
tp330
a(VBrussels
VNNP
tp331
a(Vmini-session
VNN
tp332
a(Von
VIN
tp333
a(Va
VDT
tp334
a(VWednesday
VNNP
tp335
a(Vevening
VNN
tp336
a(Vat
VIN
tp337
a(V9
VCD
tp338
a(Vp.m.
VNN
tp339
a(Vwith
VIN
tp340
a(Vno
VDT
tp341
a(Vpublic
VJJ
tp342
a(Vpresent
VJJ
tp343
a(V.
V.
tp344
aa(lp345
(VThis
VDT
tp346
a(Vbrings
VVBZ
tp347
a(Vus
VPRP
tp348
a(Vto
VTO
tp349
a(Vthe
VDT
tp350
a(Vtwo
VCD
tp351
a(Vproposals
VNNS
tp352
a(Vfor
VIN
tp353
a(Vdirectives
VNNS
tp354
a(V.
V.
tp355
aa(lp356
(VAnd
VCC
tp357
a(Vin
VIN
tp358
a(Vthe
VDT
tp359
a(Vsame
VJJ
tp360
a(Vway
VNN
tp361
a(Vthat
VIN
tp362
a(Vany
VDT
tp363
a(Vtown
VNN
tp364
a(Vand
VCC
tp365
a(Vcountry
VNN
tp366
a(Vplanning
VNN
tp367
a(Vaccepts
VVBZ
tp368
a(Vprotected
VJJ
tp369
a(Vnatural
VJJ
tp370
a(Vareas
VNNS
tp371
a(V,
V,
tp372
a(Vmeasures
VNNS
tp373
a(Vof
VIN
tp374
a(Vthis
VDT
tp375
a(Vtype
VNN
tp376
a(Vwill
VMD
tp377
a(Valso
VRB
tp378
a(Vhave
VVB
tp379
a(Vto
VTO
tp380
a(Vbe
VVB
tp381
a(Vaccepted
VVBN
tp382
a(V.
V.
tp383
aa(lp384
(VIn
VIN
tp385
a(Vshort
VJJ
tp386
a(V,
V,
tp387
a(Vit
VPRP
tp388
a(Vcan
VMD
tp389
a(Vdo
VVB
tp390
a(Vwhat
VWP
tp391
a(Vit
VPRP
tp392
a(Vwishes
VVBZ
tp393
a(V.
V.
tp394
aa(lp395
(VWe
VPRP
tp396
a(Vcertainly
VRB
tp397
a(Vneed
VVBP
tp398
a(Vto
VTO
tp399
a(Vtarget
VVB
tp400
a(Vthe
VDT
tp401
a(Vmedia
VNNS
tp402
a(Vand
VCC
tp403
a(Vinformation
VNN
tp404
a(Vformers
VNNS
tp405
a(V.
V.
tp406
aa(lp407
(VIn
VIN
tp408
a(Vthat
VDT
tp409
a(Vrespect
VNN
tp410
a(Vthe
VDT
tp411
a(Velections
VNNS
tp412
a(Vare
VVBP
tp413
a(Vimportant
VJJ
tp414
a(V.
V.
tp415
aa(lp416
(VWhat
VWP
tp417
a(Vhappens
VVBZ
tp418
a(Vif
VIN
tp419
a(Vthat
VDT
tp420
a(Vperson
VNN
tp421
a(Vis
VVBZ
tp422
a(Vunfortunate
VJJ
tp423
a(Venough
VRB
tp424
a(Vto
VTO
tp425
a(Vdie
VVB
tp426
a(Vunexpectedly
VRB
tp427
a(V?
V.
tp428
aa(lp429
(VIt
VPRP
tp430
a(Vwas
VVBD
tp431
a(Vnot
VRB
tp432
a(Vso
VRB
tp433
a(Vlong
VJJ
tp434
a(Vago
VIN
tp435
a(Vthat
VIN
tp436
a(VI
VPRP
tp437
a(Vwas
VVBD
tp438
a(Vat
VIN
tp439
a(Vuniversity
VNN
tp440
a(Vand
VCC
tp441
a(Vthere
VRB
tp442
a(V,
V,
tp443
a(Vunfortunately
VRB
tp444
a(V,
V,
tp445
a(Vmany
VJJ
tp446
a(Vstudents
VNNS
tp447
a(Villegally
VRB
tp448
a(Vcopied
VVBD
tp449
a(Vtheir
VPRP$
tp450
a(Vcourse
VNN
tp451
a(Vliterature
VNN
tp452
a(V,
V,
tp453
a(Vbut
VCC
tp454
a(Vto
VTO
tp455
a(Vpunish
VVB
tp456
a(Vthem
VPRP
tp457
a(Vby
VIN
tp458
a(Vforbidding
VVBG
tp459
a(Vthem
VPRP
tp460
a(Vto
VTO
tp461
a(Vread
VVB
tp462
a(Vbooks
VNNS
tp463
a(Vor
VCC
tp464
a(Vwrite
VVB
tp465
a(Varticles
VNNS
tp466
a(Vwould
VMD
tp467
a(Vclearly
VRB
tp468
a(Vbe
VVB
tp469
a(Vunreasonable
VJJ
tp470
a(V.
V.
tp471
aa(lp472
(VIt
VPRP
tp473
a(Vhas
VVBZ
tp474
a(Vproved
VVBN
tp475
a(Vits
VPRP$
tp476
a(Vworth
VJJ
tp477
a(V,
V,
tp478
a(Vand
VCC
tp479
a(Vthe
VDT
tp480
a(Vresults
VNNS
tp481
a(Vit
VPRP
tp482
a(Vhas
VVBZ
tp483
a(Vachieved
VVBN
tp484
a(Vare
VVBP
tp485
a(Vamong
VIN
tp486
a(Vthis
VDT
tp487
a(VHouse
VNNP
tp488
a(V&apos;s
VVBZ
tp489
a(Vtruly
VRB
tp490
a(Vgreat
VJJ
tp491
a(Vhighlights
VVBZ
tp492
a(Vwhich
VWDT
tp493
a(Vdo
VVBP
tp494
a(Vit
VPRP
tp495
a(Vsuch
VJJ
tp496
a(Vgreat
VJJ
tp497
a(Vcredit
VNN
tp498
a(V.
V.
tp499
aa(lp500
(VWe
VPRP
tp501
a(Vknow
VVBP
tp502
a(Vthat
VIN
tp503
a(Vhe
VPRP
tp504
a(Vis
VVBZ
tp505
a(Vcapable
VJJ
tp506
a(Vof
VIN
tp507
a(Vanything
VNN
tp508
a(V.
V.
tp509
aa(lp510
(VMost
VJJS
tp511
a(Vchildren
VNNS
tp512
a(Vare
VVBP
tp513
a(Vnot
VRB
tp514
a(Vyet
VRB
tp515
a(Vprepared
VVBN
tp516
a(Vfor
VIN
tp517
a(Vthis
VDT
tp518
a(Vtype
VNN
tp519
a(Vof
VIN
tp520
a(Vcontent
VNN
tp521
a(Vand
VCC
tp522
a(Vthere
VEX
tp523
a(Vis
VVBZ
tp524
a(Vthe
VDT
tp525
a(Vrisk
VNN
tp526
a(Vthat
VIN
tp527
a(Vthey
VPRP
tp528
a(Vwill
VMD
tp529
a(Vgrow
VVB
tp530
a(Vup
VRP
tp531
a(Vto
VTO
tp532
a(Vbe
VVB
tp533
a(Vpsychologically
VRB
tp534
a(Vdisturbed
VJJ
tp535
a(V,
V,
tp536
a(Vdeviant
VJJ
tp537
a(Vadults
VNNS
tp538
a(V.
V.
tp539
aa(lp540
(VYou
VPRP
tp541
a(Vknow
VVBP
tp542
a(Vthat
VIN
tp543
a(Vwe
VPRP
tp544
a(Vhave
VVBP
tp545
a(Vprosecuted
VVBN
tp546
a(Vwhenever
VWRB
tp547
a(VUCLAF
VNNP
tp548
a(Vhas
VVBZ
tp549
a(Vsuspected
VVBN
tp550
a(Vfraud
VNN
tp551
a(V.
V.
tp552
aa(lp553
(VClaims
VNNS
tp554
a(Vof
VIN
tp555
a(Vinfallibility
VNN
tp556
a(Vhave
VVBP
tp557
a(Valready
VRB
tp558
a(Vdone
VVBN
tp559
a(VEurope
VNNP
tp560
a(Vuntold
VJJ
tp561
a(Vdamage
VNN
tp562
a(V.
V.
tp563
aa(lp564
(VLast
VJJ
tp565
a(Vweek
VNN
tp566
a(VI
VPRP
tp567
a(Vwas
VVBD
tp568
a(Vfortunate
VJJ
tp569
a(Vto
VTO
tp570
a(Vbe
VVB
tp571
a(Von
VIN
tp572
a(Va
VDT
tp573
a(Vdelegation
VNN
tp574
a(Vfrom
VIN
tp575
a(Vthe
VDT
tp576
a(VCommittee
VNNP
tp577
a(Von
VIN
tp578
a(VFisheries
VNNPS
tp579
a(Vto
VTO
tp580
a(VNorway
VNNP
tp581
a(V.
V.
tp582
aa(lp583
(VIt
VPRP
tp584
a(Vseems
VVBZ
tp585
a(Va
VDT
tp586
a(Vbit
VNN
tp587
a(Vpointless
VJJ
tp588
a(Vsimply
VRB
tp589
a(Vto
VTO
tp590
a(Vtag
VVB
tp591
a(Valong
VIN
tp592
a(Vto
VTO
tp593
a(VJohannesburg
VNNP
tp594
a(Vas
VIN
tp595
a(Va
VDT
tp596
a(Vkind
VNN
tp597
a(Vof
VIN
tp598
a(Vicing
VNN
tp599
a(Von
VIN
tp600
a(Vthe
VDT
tp601
a(Vcake
VNN
tp602
a(V.
V.
tp603
aa(lp604
(VOne
VCD
tp605
a(Vpoint
VNN
tp606
a(Vis
VVBZ
tp607
a(Vthe
VDT
tp608
a(Vgeneral
VJJ
tp609
a(Vdisorder
VNN
tp610
a(Vthat
VWDT
tp611
a(Vprevailed
VVBD
tp612
a(Vduring
VIN
tp613
a(Vthe
VDT
tp614
a(Vtests
VNNS
tp615
a(V,
V,
tp616
a(Vwith
VIN
tp617
a(Va
VDT
tp618
a(Vlack
VNN
tp619
a(Vof
VIN
tp620
a(Vsupervision
VNN
tp621
a(Vof
VIN
tp622
a(Vtoilet
VNN
tp623
a(Vvisits
VNNS
tp624
a(Vand
VCC
tp625
a(Vuse
VNN
tp626
a(Vof
VIN
tp627
a(Vmobile
VJJ
tp628
a(Vphones
VNNS
tp629
a(V.
V.
tp630
aa(lp631
(VThe
VDT
tp632
a(Vmost
VRBS
tp633
a(Vsignificant
VJJ
tp634
a(Vtype
VNN
tp635
a(Vis
VVBZ
tp636
a(Vknown
VVBN
tp637
a(Vas
VIN
tp638
a(V&apos;
VNN
tp639
a(Vthe
VDT
tp640
a(VIron
VNNP
tp641
a(VCurtain
VNNP
tp642
a(Vbetween
VIN
tp643
a(Vthe
VDT
tp644
a(VEast
VNNP
tp645
a(Vand
VCC
tp646
a(Vthe
VDT
tp647
a(VWest
VNNP
tp648
a(V&apos;
VNNP
tp649
a(Vin
VIN
tp650
a(Vterms
VNNS
tp651
a(Vof
VIN
tp652
a(Vmajor
VJJ
tp653
a(Vdifferences
VNNS
tp654
a(Vbetween
VIN
tp655
a(Vthe
VDT
tp656
a(Vsurvival
VNN
tp657
a(Vprospects
VNNS
tp658
a(Vof
VIN
tp659
a(Vcancer
VNN
tp660
a(Vpatients
VNNS
tp661
a(V,
V,
tp662
a(Vbut
VCC
tp663
a(Vwe
VPRP
tp664
a(Vare
VVBP
tp665
a(Valso
VRB
tp666
a(Vaware
VJJ
tp667
a(Vof
VIN
tp668
a(Vsignificant
VJJ
tp669
a(Vdifferences
VNNS
tp670
a(Vwithin
VIN
tp671
a(VMember
VNNP
tp672
a(VStates
VNNPS
tp673
a(Vthemselves
VPRP
tp674
a(V.
V.
tp675
aa(lp676
(VIn
VIN
tp677
a(Vterms
VNNS
tp678
a(Vof
VIN
tp679
a(Vthe
VDT
tp680
a(Vbudget
VNN
tp681
a(Vthat
VIN
tp682
a(Vwe
VPRP
tp683
a(Vwill
VMD
tp684
a(Vbe
VVB
tp685
a(Vpreparing
VVBG
tp686
a(Vfor
VIN
tp687
a(V2010
VCD
tp688
a(V,
V,
tp689
a(Vit
VPRP
tp690
a(Vis
VVBZ
tp691
a(Va
VDT
tp692
a(Vbudget
VNN
tp693
a(Vwhich
VWDT
tp694
a(Vobviously
VRB
tp695
a(Vis
VVBZ
tp696
a(Vat
VIN
tp697
a(Vthe
VDT
tp698
a(Vbeginning
VNN
tp699
a(V.
V.
tp700
aa(lp701
(VMeanwhile
VRB
tp702
a(V,
V,
tp703
a(Vno
VDT
tp704
a(Vone
VNN
tp705
a(Vcares
VVBZ
tp706
a(Vif
VIN
tp707
a(Vlittle
VJJ
tp708
a(Vchildren
VNNS
tp709
a(Vin
VIN
tp710
a(VIraq
VNNP
tp711
a(Vand
VCC
tp712
a(VLebanon
VNNP
tp713
a(Vare
VVBP
tp714
a(Vdying
VVBG
tp715
a(V.
V.
tp716
aa(lp717
(VWe
VPRP
tp718
a(Vdo
VVBP
tp719
a(Vnot
VRB
tp720
a(Vwant
VVB
tp721
a(Vto
VTO
tp722
a(Vopen
VVB
tp723
a(Va
VDT
tp724
a(VPandora
VNNP
tp725
a(V&apos;s
VNNS
tp726
a(Vbox
VNN
tp727
a(Vand
VCC
tp728
a(Vinstead
VRB
tp729
a(Vof
VIN
tp730
a(Vsimplifying
VVBG
tp731
a(Vmatters
VNNS
tp732
a(V,
V,
tp733
a(Vend
VVB
tp734
a(Vup
VRP
tp735
a(Vwith
VIN
tp736
a(Veven
VRB
tp737
a(Vgreater
VJJR
tp738
a(Vcomplexity
VNN
tp739
a(V.
V.
tp740
aa(lp741
(VWe
VPRP
tp742
a(Vcannot
VVBP
tp743
a(Vfight
VNN
tp744
a(Vorganized
VJJ
tp745
a(Vcrime
VNN
tp746
a(Vwhile
VIN
tp747
a(Vthe
VDT
tp748
a(Vsources
VNNS
tp749
a(Vof
VIN
tp750
a(Vcorruption
VNN
tp751
a(V,
V,
tp752
a(VI
VPRP
tp753
a(Vrepeat
VVBP
tp754
a(V,
V,
tp755
a(Vfrom
VIN
tp756
a(Vthe
VDT
tp757
a(Vtop
VNN
tp758
a(Vof
VIN
tp759
a(Vthe
VDT
tp760
a(Vpolitical
VJJ
tp761
a(Vleadership
VNN
tp762
a(Vof
VIN
tp763
a(Vparties
VNNS
tp764
a(Vsometimes
VRB
tp765
a(V,
V,
tp766
a(Vthe
VDT
tp767
a(Vcourts
VNNS
tp768
a(V,
V,
tp769
a(Vthe
VDT
tp770
a(Vpolice
VNN
tp771
a(V,
V,
tp772
a(Vthe
VDT
tp773
a(Vadministrative
VJJ
tp774
a(Vauthorities
VNNS
tp775
a(Vare
VVBP
tp776
a(Vinvolved
VVBN
tp777
a(Vin
VIN
tp778
a(Vorganized
VJJ
tp779
a(Vcrime
VNN
tp780
a(V.
V.
tp781
aa(lp782
(VA
VDT
tp783
a(Vfew
VJJ
tp784
a(Vdays
VNNS
tp785
a(Vlater
VRB
tp786
a(V,
V,
tp787
a(Von
VIN
tp788
a(V11
VCD
tp789
a(VSeptember
VNNP
tp790
a(V,
V,
tp791
a(Vthe
VDT
tp792
a(Ventire
VJJ
tp793
a(Vworld
VNN
tp794
a(Vwas
VVBD
tp795
a(Vin
VIN
tp796
a(Vshock
VNN
tp797
a(V.
V.
tp798
aa(lp799
(VWe
VPRP
tp800
a(Vare
VVBP
tp801
a(Vmaking
VVBG
tp802
a(Vtoo
VRB
tp803
a(Vgreat
VJJ
tp804
a(Va
VDT
tp805
a(Vfuss
VNN
tp806
a(Vover
VIN
tp807
a(Vsomething
VNN
tp808
a(Vthat
VWDT
tp809
a(Vwill
VMD
tp810
a(Vprovide
VVB
tp811
a(Vvery
VRB
tp812
a(Vfew
VJJ
tp813
a(Vresults
VNNS
tp814
a(V.
V.
tp815
aa(lp816
(VFollowing
VVBG
tp817
a(Vindependence
VNN
tp818
a(V,
V,
tp819
a(Vit
VPRP
tp820
a(Vwas
VVBD
tp821
a(Valso
VRB
tp822
a(Van
VDT
tp823
a(Veconomically
VRB
tp824
a(Vpromising
VJJ
tp825
a(Vcountry
VNN
tp826
a(V.
V.
tp827
aa(lp828
(VYesterday
VNN
tp829
a(V,
V,
tp830
a(Va
VDT
tp831
a(VMember
VNNP
tp832
a(Vfrom
VIN
tp833
a(Vthe
VDT
tp834
a(VSocialist
VNNP
tp835
a(VGroup
VNNP
tp836
a(Vin
VIN
tp837
a(Vthe
VDT
tp838
a(VEuropean
VNNP
tp839
a(VParliament
VNNP
tp840
a(Vsaid
VVBD
tp841
a(Vthat
VIN
tp842
a(Vhe
VPRP
tp843
a(Vwould
VMD
tp844
a(Vnever
VRB
tp845
a(Vaccept
VVB
tp846
a(VTurkey
VNNP
tp847
a(Vbeing
VVBG
tp848
a(Vfurther
VJJ
tp849
a(VIslamicised
VNNP
tp850
a(V.
V.
tp851
aa(lp852
(VI
VPRP
tp853
a(Vhad
VVBD
tp854
a(Va
VDT
tp855
a(Vvery
VRB
tp856
a(Vdirect
VJJ
tp857
a(Vconversation
VNN
tp858
a(Vwith
VIN
tp859
a(VPresident
VNNP
tp860
a(VMugabe
VNNP
tp861
a(Vat
VIN
tp862
a(Vthe
VDT
tp863
a(VEU-Africa
VNNP
tp864
a(VSummit
VNNP
tp865
a(V.
V.
tp866
aa(lp867
(VI
VPRP
tp868
a(Vlike
VVBP
tp869
a(Vthe
VDT
tp870
a(Vexpression
VNN
tp871
a(V&apos;
VNN
tp872
a(Vthere
VEX
tp873
a(Vis
VVBZ
tp874
a(Va
VDT
tp875
a(Vconflict
VNN
tp876
a(Vof
VIN
tp877
a(Vinterests
VNNS
tp878
a(V&apos;
VVBP
tp879
a(V.
V.
tp880
aa(lp881
(VI
VPRP
tp882
a(Vshould
VMD
tp883
a(Vlike
VVB
tp884
a(Vto
VTO
tp885
a(Vhear
VVB
tp886
a(Vwhether
VIN
tp887
a(Vdiscussions
VNNS
tp888
a(Vare
VVBP
tp889
a(Vbeing
VVBG
tp890
a(Vconducted
VVBN
tp891
a(Vin
VIN
tp892
a(Vthe
VDT
tp893
a(VCouncil
VNNP
tp894
a(Vabout
VIN
tp895
a(Vthe
VDT
tp896
a(Vpossibility
VNN
tp897
a(Vof
VIN
tp898
a(Vintroducing
VVBG
tp899
a(Valcohol
VNN
tp900
a(Vscreening
VNN
tp901
a(Vdevices
VNNS
tp902
a(Vinto
VIN
tp903
a(Vvehicles
VNNS
tp904
a(V.
V.
tp905
aa(lp906
(VNamely
VRB
tp907
a(Vthe
VDT
tp908
a(Vquestion
VNN
tp909
a(Vof
VIN
tp910
a(Vthe
VDT
tp911
a(Veffectiveness
VNN
tp912
a(Vof
VIN
tp913
a(Vthe
VDT
tp914
a(Vmany
VJJ
tp915
a(Vlines
VNNS
tp916
a(Vwhere
VWRB
tp917
a(Vthere
VEX
tp918
a(Vare
VVBP
tp919
a(Vpayment
VNN
tp920
a(Vproblems
VNNS
tp921
a(V.
V.
tp922
aa(lp923
(VWith
VIN
tp924
a(Vregard
VNN
tp925
a(Vto
VTO
tp926
a(Vthis
VDT
tp927
a(Vsituation
VNN
tp928
a(V,
V,
tp929
a(Vwe
VPRP
tp930
a(Vare
VVBP
tp931
a(Vnot
VRB
tp932
a(Vlooking
VVBG
tp933
a(Vat
VIN
tp934
a(Va
VDT
tp935
a(Vblack-and-white
VJJ
tp936
a(Vfilm
VNN
tp937
a(V.
V.
tp938
aa(lp939
(VThe
VDT
tp940
a(VUkrainian
VJJ
tp941
a(Vconstitutional
VJJ
tp942
a(Vcourt
VNN
tp943
a(Vhas
VVBZ
tp944
a(Vbeen
VVBN
tp945
a(Vpresented
VVBN
tp946
a(Vwith
VIN
tp947
a(Va
VDT
tp948
a(Vdifficult
VJJ
tp949
a(Vtask
VNN
tp950
a(V,
V,
tp951
a(Vand
VCC
tp952
a(Vwill
VMD
tp953
a(Vbe
VVB
tp954
a(Vable
VJJ
tp955
a(Vto
VTO
tp956
a(Vperform
VVB
tp957
a(Vit
VPRP
tp958
a(Vonly
VRB
tp959
a(Vif
VIN
tp960
a(Vit
VPRP
tp961
a(Vis
VVBZ
tp962
a(Venabled
VVBN
tp963
a(Vto
VTO
tp964
a(Vcome
VVB
tp965
a(Vto
VTO
tp966
a(Va
VDT
tp967
a(Vdecision
VNN
tp968
a(Von
VIN
tp969
a(Vthe
VDT
tp970
a(Vconstitutionality
VNN
tp971
a(Vof
VIN
tp972
a(Vthe
VDT
tp973
a(Vdissolution
VNN
tp974
a(Vof
VIN
tp975
a(Vparliament
VNN
tp976
a(Vwithout
VIN
tp977
a(Vbeing
VVBG
tp978
a(Vmade
VVBN
tp979
a(Vsubject
VJJ
tp980
a(Vto
VTO
tp981
a(Vexternal
VJJ
tp982
a(Vpressure
VNN
tp983
a(V.
V.
tp984
aa(lp985
(VA
VDT
tp986
a(Vgood
VJJ
tp987
a(Vsports
VNNS
tp988
a(Vpolicy
VNN
tp989
a(V,
V,
tp990
a(Vwith
VIN
tp991
a(Van
VDT
tp992
a(Vintegrating
VVBG
tp993
a(V,
V,
tp994
a(Veducational
VJJ
tp995
a(Vcomponent
VNN
tp996
a(V,
V,
tp997
a(Vcan
VMD
tp998
a(Vlimit
VVB
tp999
a(Vsocial
VJJ
tp1000
a(Vspending
VNN
tp1001
a(V.
V.
tp1002
aa(lp1003
(VTo
VTO
tp1004
a(Vme
VPRP
tp1005
a(Vthis
VDT
tp1006
a(Vis
VVBZ
tp1007
a(Vproof
VNN
tp1008
a(Vthat
VIN
tp1009
a(Vthe
VDT
tp1010
a(VCommission
VNNP
tp1011
a(V&apos;s
VNNS
tp1012
a(Vwork
VVBP
tp1013
a(V,
V,
tp1014
a(Vwhich
VWDT
tp1015
a(Vappears
VVBZ
tp1016
a(Vto
VTO
tp1017
a(Vcover
VVB
tp1018
a(Va
VDT
tp1019
a(Vbroad
VJJ
tp1020
a(Vsweep
VNN
tp1021
a(Vof
VIN
tp1022
a(Vareas
VNNS
tp1023
a(Vof
VIN
tp1024
a(Vactivity
VNN
tp1025
a(V,
V,
tp1026
a(Vis
VVBZ
tp1027
a(Vnot
VRB
tp1028
a(Vgood
VJJ
tp1029
a(Venough
VRB
tp1030
a(Vbecause
VIN
tp1031
a(Vit
VPRP
tp1032
a(Vknowingly
VRB
tp1033
a(Vdisregards
VVBZ
tp1034
a(Vcertain
VJJ
tp1035
a(Vessential
VJJ
tp1036
a(Vpoints
VNNS
tp1037
a(V.
V.
tp1038
aa(lp1039
(VNeedless
VJJ
tp1040
a(Vto
VTO
tp1041
a(Vsay
VVB
tp1042
a(V,
V,
tp1043
a(Vthe
VDT
tp1044
a(Vagreements
VNNS
tp1045
a(Vinvolving
VVBG
tp1046
a(Vthe
VDT
tp1047
a(Vwaiver
VNN
tp1048
a(Vfor
VIN
tp1049
a(Vthe
VDT
tp1050
a(VCotonou
VNNP
tp1051
a(VAgreement
VNN
tp1052
a(Vof
VIN
tp1053
a(Vthe
VDT
tp1054
a(VACP
VNN
tp1055
a(Vand
VCC
tp1056
a(VEU
VNNP
tp1057
a(Vcountries
VNNS
tp1058
a(Vare
VVBP
tp1059
a(Vof
VIN
tp1060
a(Vcrucial
VJJ
tp1061
a(Vimportance
VNN
tp1062
a(V,
V,
tp1063
a(Vfor
VIN
tp1064
a(Vthis
VDT
tp1065
a(Vhas
VVBZ
tp1066
a(Vhelped
VVBN
tp1067
a(Vus
VPRP
tp1068
a(Vbring
VVB
tp1069
a(Vabout
VRP
tp1070
a(Van
VDT
tp1071
a(Venormous
VJJ
tp1072
a(Vbreakthrough
VNN
tp1073
a(Vin
VIN
tp1074
a(Vour
VPRP$
tp1075
a(Vrelations
VNNS
tp1076
a(Vwith
VIN
tp1077
a(Vthe
VDT
tp1078
a(VACP
VNN
tp1079
a(Vcountries
VNNS
tp1080
a(V,
V,
tp1081
a(Va
VDT
tp1082
a(Vbreakthrough
VNN
tp1083
a(Vwhich
VWDT
tp1084
a(Vwe
VPRP
tp1085
a(Vmight
VMD
tp1086
a(Vnot
VRB
tp1087
a(Vhave
VVB
tp1088
a(Vhad
VVBN
tp1089
a(Votherwise
VRB
tp1090
a(V.
V.
tp1091
aa(lp1092
(VI
VPRP
tp1093
a(Vam
VVBP
tp1094
a(Vsorry
VJJ
tp1095
a(V,
V,
tp1096
a(Vbut
VCC
tp1097
a(Vthis
VDT
tp1098
a(Vwas
VVBD
tp1099
a(Vnot
VRB
tp1100
a(Vmy
VPRP$
tp1101
a(Vdecision
VNN
tp1102
a(V.
V.
tp1103
aa(lp1104
(VIt
VPRP
tp1105
a(Vis
VVBZ
tp1106
a(Vgreat
VJJ
tp1107
a(Vthat
VIN
tp1108
a(VI
VPRP
tp1109
a(Vcan
VMD
tp1110
a(Vnow
VRB
tp1111
a(Vdisagree
VVB
tp1112
a(Vwith
VIN
tp1113
a(VCommissioner
VNNP
tp1114
a(VBangemann
VNNP
tp1115
a(V,
V,
tp1116
a(Vbecause
VIN
tp1117
a(Vhe
VPRP
tp1118
a(Vnaturally
VRB
tp1119
a(Vhas
VVBZ
tp1120
a(Va
VDT
tp1121
a(Vgreat
VJJ
tp1122
a(Vdeal
VNN
tp1123
a(Vof
VIN
tp1124
a(Vunderstanding
VVBG
tp1125
a(Vabout
VIN
tp1126
a(Vculture
VNN
tp1127
a(Vbut
VCC
tp1128
a(Valso
VRB
tp1129
a(Vabout
VIN
tp1130
a(Veconomics
VNNS
tp1131
a(Vand
VCC
tp1132
a(Vthe
VDT
tp1133
a(Vtwo
VCD
tp1134
a(Vcome
VVBN
tp1135
a(Vtogether
VRB
tp1136
a(Vhere
VRB
tp1137
a(V.
V.
tp1138
aa(lp1139
(VThis
VDT
tp1140
a(Vcategory
VNN
tp1141
a(Vaccounts
VNNS
tp1142
a(Vfor
VIN
tp1143
a(V70
VCD
tp1144
a(V%
VNN
tp1145
a(Vof
VIN
tp1146
a(Vthe
VDT
tp1147
a(Vtotal
VJJ
tp1148
a(Vfunding
VNN
tp1149
a(Vnot
VRB
tp1150
a(Vtaken
VVBN
tp1151
a(Vup
VRP
tp1152
a(V.
V.
tp1153
aa(lp1154
(VIt
VPRP
tp1155
a(Vis
VVBZ
tp1156
a(Vthey
VPRP
tp1157
a(Vwho
VWP
tp1158
a(Vhad
VVBD
tp1159
a(Vto
VTO
tp1160
a(Vcope
VVB
tp1161
a(Vwith
VIN
tp1162
a(Va
VDT
tp1163
a(Vreally
VRB
tp1164
a(Vpainful
VJJ
tp1165
a(Vadjustment
VNN
tp1166
a(Vprocess
VNN
tp1167
a(V,
V,
tp1168
a(Vand
VCC
tp1169
a(Vthey
VPRP
tp1170
a(Vdid
VVBD
tp1171
a(Vso
VRB
tp1172
a(Vwith
VIN
tp1173
a(Vno
VDT
tp1174
a(Vconcern
VNN
tp1175
a(Vto
VTO
tp1176
a(Vprotect
VVB
tp1177
a(Vvested
VJJ
tp1178
a(Vrights
VNNS
tp1179
a(V.
V.
tp1180
aa(lp1181
(VThe
VDT
tp1182
a(Vexample
VNN
tp1183
a(Vof
VIN
tp1184
a(Vthe
VDT
tp1185
a(Vcoffee
VNN
tp1186
a(Vcrisis
VNN
tp1187
a(V,
V,
tp1188
a(Vhowever
VRB
tp1189
a(V,
V,
tp1190
a(Vdemonstrates
VVBZ
tp1191
a(Vthat
VIN
tp1192
a(Vthis
VDT
tp1193
a(Vis
VVBZ
tp1194
a(Vnot
VRB
tp1195
a(Venough
VRB
tp1196
a(V.
V.
tp1197
aa(lp1198
(VI
VPRP
tp1199
a(Vwould
VMD
tp1200
a(Vparticularly
VRB
tp1201
a(Vlike
VVB
tp1202
a(Vto
VTO
tp1203
a(Vcall
VVB
tp1204
a(Von
VIN
tp1205
a(Vmy
VPRP$
tp1206
a(Vleft-wing
VJJ
tp1207
a(V,
V,
tp1208
a(Vsocialist
VJJ
tp1209
a(Vand
VCC
tp1210
a(Vcommunist
VJJ
tp1211
a(Vfriends
VNNS
tp1212
a(Vto
VTO
tp1213
a(Vstop
VVB
tp1214
a(Vusing
VVBG
tp1215
a(Vdouble
VJJ
tp1216
a(Vstandards
VNNS
tp1217
a(V!
V.
tp1218
aa(lp1219
(VEntry
VNN
tp1220
a(Vinto
VIN
tp1221
a(Vthe
VDT
tp1222
a(VUnion
VNNP
tp1223
a(Vshould
VMD
tp1224
a(Vtrigger
VVB
tp1225
a(Vinward
VJJ
tp1226
a(Vinvestment
VNN
tp1227
a(V,
V,
tp1228
a(Vwhich
VWDT
tp1229
a(VRomania
VNNP
tp1230
a(Vbadly
VRB
tp1231
a(Vneeds
VVBZ
tp1232
a(V.
V.
tp1233
aa(lp1234
(VWe
VPRP
tp1235
a(Vmust
VMD
tp1236
a(Vact
VVB
tp1237
a(Vrapidly
VRB
tp1238
a(V,
V,
tp1239
a(Vto
VTO
tp1240
a(Vshow
VVB
tp1241
a(Vour
VPRP$
tp1242
a(Vsolidarity
VNN
tp1243
a(Vwith
VIN
tp1244
a(Vour
VPRP$
tp1245
a(VCuban
VJJ
tp1246
a(Vbrothers
VNNS
tp1247
a(Vand
VCC
tp1248
a(Vsisters
VNNS
tp1249
a(V.
V.
tp1250
aa(lp1251
(VIrish
VJJ
tp1252
a(Vconsumers
VNNS
tp1253
a(Vcontinued
VVBD
tp1254
a(Vto
VTO
tp1255
a(Vbuy
VVB
tp1256
a(Vpork
VNN
tp1257
a(Vas
VIN
tp1258
a(Vit
VPRP
tp1259
a(Vbecame
VVBD
tp1260
a(Vavailable
VJJ
tp1261
a(Von
VIN
tp1262
a(Vthe
VDT
tp1263
a(Vsupermarket
VNN
tp1264
a(Vshelves
VNNS
tp1265
a(V,
V,
tp1266
a(Vand
VCC
tp1267
a(Vthere
VEX
tp1268
a(Vwas
VVBD
tp1269
a(Van
VDT
tp1270
a(Vearly
VJJ
tp1271
a(Vresumption
VNN
tp1272
a(Vin
VIN
tp1273
a(Vtrading
VNN
tp1274
a(Vin
VIN
tp1275
a(Vmost
VJJS
tp1276
a(VEuropean
VJJ
tp1277
a(Vand
VCC
tp1278
a(Vinternational
VJJ
tp1279
a(Vmarkets
VNNS
tp1280
a(V.
V.
tp1281
aa(lp1282
(VI
VPRP
tp1283
a(Vwould
VMD
tp1284
a(Vask
VVB
tp1285
a(Vyou
VPRP
tp1286
a(Vto
VTO
tp1287
a(Vforward
VRB
tp1288
a(Vthis
VDT
tp1289
a(Vcomplaint
VNN
tp1290
a(Vto
VTO
tp1291
a(VParliament
VNNP
tp1292
a(V&apos;s
VVBZ
tp1293
a(VPresidency
VNNP
tp1294
a(V.
V.
tp1295
aa(lp1296
(VA
VDT
tp1297
a(Vlarge
VJJ
tp1298
a(Vnumber
VNN
tp1299
a(Vof
VIN
tp1300
a(Vthem
VPRP
tp1301
a(Vare
VVBP
tp1302
a(Vseeking
VVBG
tp1303
a(Vrefuge
VNN
tp1304
a(Vin
VIN
tp1305
a(Vthe
VDT
tp1306
a(Vshelters
VNNS
tp1307
a(V;
V:
tp1308
a(Vthe
VDT
tp1309
a(Vrest
VNN
tp1310
a(Vof
VIN
tp1311
a(Vthe
VDT
tp1312
a(Vinternally
VRB
tp1313
a(Vdisplaced
VJJ
tp1314
a(Vpeople
VNNS
tp1315
a(Vare
VVBP
tp1316
a(Vstaying
VVBG
tp1317
a(Vwith
VIN
tp1318
a(Vrelatives
VNNS
tp1319
a(V.
V.
tp1320
aa(lp1321
(VIt
VPRP
tp1322
a(Vcan
VMD
tp1323
a(Vbe
VVB
tp1324
a(Van
VDT
tp1325
a(Vaid
VNN
tp1326
a(Vto
VTO
tp1327
a(Vmedical
VJJ
tp1328
a(Vresearch
VNN
tp1329
a(V,
V,
tp1330
a(Vfor
VIN
tp1331
a(Vexample
VNN
tp1332
a(V.
V.
tp1333
aa(lp1334
(VIt
VPRP
tp1335
a(Vwill
VMD
tp1336
a(Vbe
VVB
tp1337
a(Vgrandmothers
VNNS
tp1338
a(Vup
VRB
tp1339
a(Vin
VIN
tp1340
a(VNorrland
VNNP
tp1341
a(Vwho
VWP
tp1342
a(Vwill
VMD
tp1343
a(Vnot
VRB
tp1344
a(Vbe
VVB
tp1345
a(Vable
VJJ
tp1346
a(Vto
VTO
tp1347
a(Vsee
VVB
tp1348
a(Vtheir
VPRP$
tp1349
a(Vgrandchildren
VNNS
tp1350
a(Vin
VIN
tp1351
a(Vthe
VDT
tp1352
a(Vcity
VNN
tp1353
a(Vso
VRB
tp1354
a(Voften
VRB
tp1355
a(V.
V.
tp1356
aa(lp1357
(VIt
VPRP
tp1358
a(Vis
VVBZ
tp1359
a(Vtremendous
VJJ
tp1360
a(Vin
VIN
tp1361
a(Vterms
VNNS
tp1362
a(Vof
VIN
tp1363
a(Vthe
VDT
tp1364
a(Vachievement
VNN
tp1365
a(Vof
VIN
tp1366
a(Vtrying
VVBG
tp1367
a(Vto
VTO
tp1368
a(Vget
VVB
tp1369
a(Va
VDT
tp1370
a(Vconsensus
VNN
tp1371
a(V.
V.
tp1372
aa(lp1373
(VThe
VDT
tp1374
a(VEuropean
VNNP
tp1375
a(VUnion
VNNP
tp1376
a(Vrespects
VVBZ
tp1377
a(Vthe
VDT
tp1378
a(Vculture
VNN
tp1379
a(Vof
VIN
tp1380
a(Vits
VPRP$
tp1381
a(Vneighbours
VNNS
tp1382
a(Vand
VCC
tp1383
a(Vshould
VMD
tp1384
a(Vnot
VRB
tp1385
a(Vintervene
VVB
tp1386
a(Von
VIN
tp1387
a(Vquestions
VNNS
tp1388
a(Vof
VIN
tp1389
a(Vmorality
VNN
tp1390
a(Vor
VCC
tp1391
a(Vaxiology
VNN
tp1392
a(V.
V.
tp1393
aa(lp1394
(VIt
VPRP
tp1395
a(Vis
VVBZ
tp1396
a(Van
VDT
tp1397
a(Vabsolute
VJJ
tp1398
a(Vsovereign
VJJ
tp1399
a(Vright
VNN
tp1400
a(Vof
VIN
tp1401
a(Vthe
VDT
tp1402
a(VPolish
VJJ
tp1403
a(Vpeople
VNNS
tp1404
a(Vto
VTO
tp1405
a(Velect
VVB
tp1406
a(Vtheir
VPRP$
tp1407
a(Vgovernment
VNN
tp1408
a(Vand
VCC
tp1409
a(VPresident
VNN
tp1410
a(V.
V.
tp1411
aa(lp1412
(VIntimidation
VNN
tp1413
a(Vand
VCC
tp1414
a(Vviolent
VJJ
tp1415
a(Vattacks
VNNS
tp1416
a(Vby
VIN
tp1417
a(Vgovernment
VNN
tp1418
a(Vsupporters
VNNS
tp1419
a(Vgo
VVBP
tp1420
a(Vunpunished
VJJ
tp1421
a(V.
V.
tp1422
aa(lp1423
(VI
VPRP
tp1424
a(Vwould
VMD
tp1425
a(Vnow
VRB
tp1426
a(Vask
VVB
tp1427
a(Vthe
VDT
tp1428
a(VMembers
VNNS
tp1429
a(Vof
VIN
tp1430
a(Vthe
VDT
tp1431
a(VEuropean
VNNP
tp1432
a(VParliament
VNNP
tp1433
a(Vto
VTO
tp1434
a(Vjoin
VVB
tp1435
a(Vme
VPRP
tp1436
a(Vin
VIN
tp1437
a(Va
VDT
tp1438
a(Vminute
VJJ
tp1439
a(V&apos;s
VNNS
tp1440
a(Vsilence
VNN
tp1441
a(Vin
VIN
tp1442
a(Vmemory
VNN
tp1443
a(Vof
VIN
tp1444
a(Vthe
VDT
tp1445
a(Vthree
VCD
tp1446
a(Vchildren
VNNS
tp1447
a(V,
V,
tp1448
a(VRichard
VNNP
tp1449
a(V,
V,
tp1450
a(VMark
VNNP
tp1451
a(Vand
VCC
tp1452
a(VJason
VNNP
tp1453
a(VQuinn
VNNP
tp1454
a(V,
V,
tp1455
a(Vwho
VWP
tp1456
a(Vlost
VVBD
tp1457
a(Vtheir
VPRP$
tp1458
a(Vlives
VNNS
tp1459
a(Vin
VIN
tp1460
a(Vthe
VDT
tp1461
a(Vhorrendous
VJJ
tp1462
a(Vattack
VNN
tp1463
a(Von
VIN
tp1464
a(Vtheir
VPRP$
tp1465
a(Vhome
VNN
tp1466
a(Vin
VIN
tp1467
a(VNorthern
VJJ
tp1468
a(VIreland
VNNP
tp1469
a(Von
VIN
tp1470
a(VSaturday
VNNP
tp1471
a(Vnight
VNN
tp1472
a(V.
V.
tp1473
aa(lp1474
(VMy
VPRP$
tp1475
a(Vthird
VJJ
tp1476
a(Vexample
VNN
tp1477
a(Vconcerns
VVBZ
tp1478
a(Vthe
VDT
tp1479
a(Vprinciple
VNN
tp1480
a(Vof
VIN
tp1481
a(Vnon-discrimination
VJJ
tp1482
a(V,
V,
tp1483
a(Vor
VCC
tp1484
a(Vnational
VJJ
tp1485
a(Vtreatment
VNN
tp1486
a(V.
V.
tp1487
aa(lp1488
(VMuch
VJJ
tp1489
a(Vof
VIN
tp1490
a(Vthe
VDT
tp1491
a(Vresponsibility
VNN
tp1492
a(Vfor
VIN
tp1493
a(Vthat
VDT
tp1494
a(Vlies
VVBZ
tp1495
a(Vwith
VIN
tp1496
a(Vthe
VDT
tp1497
a(Vinternational
VJJ
tp1498
a(Vcommunity
VNN
tp1499
a(V,
V,
tp1500
a(Vwhich
VWDT
tp1501
a(V,
V,
tp1502
a(Vafter
VIN
tp1503
a(Vthe
VDT
tp1504
a(VOslo
VNNP
tp1505
a(Vagreements
VNNS
tp1506
a(Vwere
VVBD
tp1507
a(Vsigned
VVBN
tp1508
a(V,
V,
tp1509
a(Vwas
VVBD
tp1510
a(Vincapable
VJJ
tp1511
a(Vof
VIN
tp1512
a(Vensuring
VVBG
tp1513
a(Vthat
VIN
tp1514
a(Vinternational
VJJ
tp1515
a(Vlaw
VNN
tp1516
a(Vwould
VMD
tp1517
a(Vprevail
VVB
tp1518
a(Vand
VCC
tp1519
a(Vbe
VVB
tp1520
a(Vrespected
VVBN
tp1521
a(V.
V.
tp1522
aa(lp1523
(VThe
VDT
tp1524
a(Vtext
VNN
tp1525
a(Vis
VVBZ
tp1526
a(Vworded
VVBN
tp1527
a(Vwisely
VRB
tp1528
a(V.
V.
tp1529
aa(lp1530
(VAll
VDT
tp1531
a(Vthat
VWDT
tp1532
a(Vis
VVBZ
tp1533
a(Valready
VRB
tp1534
a(Vin
VIN
tp1535
a(Vhand
VNN
tp1536
a(V.
V.
tp1537
aa(lp1538
(VHistory
VNN
tp1539
a(Vshows
VVBZ
tp1540
a(Vhow
VWRB
tp1541
a(V,
V,
tp1542
a(Vfor
VIN
tp1543
a(Vexample
VNN
tp1544
a(V,
V,
tp1545
a(Va
VDT
tp1546
a(Vcountry
VNN
tp1547
a(Vsuch
VJJ
tp1548
a(Vas
VIN
tp1549
a(VNorway
VNNP
tp1550
a(Vfought
VVBD
tp1551
a(Vto
VTO
tp1552
a(Vconduct
VVB
tp1553
a(Vits
VPRP$
tp1554
a(Vown
VJJ
tp1555
a(Vdiplomacy
VNN
tp1556
a(Vin
VIN
tp1557
a(Vits
VPRP$
tp1558
a(Vstruggle
VNN
tp1559
a(Vfor
VIN
tp1560
a(Vindependence
VNN
tp1561
a(Vfrom
VIN
tp1562
a(VSweden
VNNP
tp1563
a(V.
V.
tp1564
aa(lp1565
(VI
VPRP
tp1566
a(Vbelieve
VVBP
tp1567
a(Vthat
VIN
tp1568
a(Vthe
VDT
tp1569
a(Vprofessionals
VNNS
tp1570
a(Vwhich
VWDT
tp1571
a(Vwe
VPRP
tp1572
a(Vsometimes
VRB
tp1573
a(Vcall
VVBP
tp1574
a(Vintellectuals
VNNS
tp1575
a(V,
V,
tp1576
a(Vengineers
VNNS
tp1577
a(Vor
VCC
tp1578
a(Vthose
VDT
tp1579
a(Vwith
VIN
tp1580
a(Va
VDT
tp1581
a(Vhigh
VJJ
tp1582
a(Vlevel
VNN
tp1583
a(Vof
VIN
tp1584
a(Vqualifications
VNNS
tp1585
a(V,
V,
tp1586
a(Vhave
VVBP
tp1587
a(Vas
VRB
tp1588
a(Vmuch
VRB
tp1589
a(Vright
VJJ
tp1590
a(Vas
VIN
tp1591
a(Vthose
VDT
tp1592
a(Vwith
VIN
tp1593
a(Vlesser
VJJR
tp1594
a(Vqualifications
VNNS
tp1595
a(V.
V.
tp1596
aa(lp1597
(V.
V.
tp1598
a(V\u2013
VCD
tp1599
a(VMr
VNNP
tp1600
a(VPresident
VNNP
tp1601
a(V,
V,
tp1602
a(Vaccording
VVBG
tp1603
a(Vto
VTO
tp1604
a(Vthe
VDT
tp1605
a(Vlatest
VJJS
tp1606
a(Vinformation
VNN
tp1607
a(V,
V,
tp1608
a(Vat
VIN
tp1609
a(Vleast
VJJS
tp1610
a(V14
VCD
tp1611
a(V000
VCD
tp1612
a(Vprisoners
VNNS
tp1613
a(Vare
VVBP
tp1614
a(Vbeing
VVBG
tp1615
a(Vheld
VVBN
tp1616
a(Vin
VIN
tp1617
a(VIraq
VNNP
tp1618
a(Vwithout
VIN
tp1619
a(Vany
VDT
tp1620
a(Vdefinite
VJJ
tp1621
a(Vcharge
VNN
tp1622
a(Vbeing
VVBG
tp1623
a(Vlaid
VVBN
tp1624
a(Vagainst
VIN
tp1625
a(Vthem
VPRP
tp1626
a(V.
V.
tp1627
aa(lp1628
(VThis
VDT
tp1629
a(Vis
VVBZ
tp1630
a(Vwhy
VWRB
tp1631
a(Vwe
VPRP
tp1632
a(Vshould
VMD
tp1633
a(Vpay
VVB
tp1634
a(Vspecific
VJJ
tp1635
a(Vattention
VNN
tp1636
a(Vto
VTO
tp1637
a(Vhow
VWRB
tp1638
a(Vthe
VDT
tp1639
a(Vcompromise
VNN
tp1640
a(Vis
VVBZ
tp1641
a(Vto
VTO
tp1642
a(Vbe
VVB
tp1643
a(Vworded
VVBN
tp1644
a(V.
V.
tp1645
aa(lp1646
(VThis
VDT
tp1647
a(Vyear
VNN
tp1648
a(Vmarks
VVBZ
tp1649
a(Vfive
VCD
tp1650
a(Vyears
VNNS
tp1651
a(Vsince
VIN
tp1652
a(VLatvia
VNNP
tp1653
a(Vbecame
VVBD
tp1654
a(Va
VDT
tp1655
a(Vmember
VNN
tp1656
a(Vof
VIN
tp1657
a(Vthe
VDT
tp1658
a(VEuropean
VNNP
tp1659
a(VUnion
VNNP
tp1660
a(Vand
VCC
tp1661
a(Vof
VIN
tp1662
a(VNATO
VNNP
tp1663
a(V.
V.
tp1664
aa(lp1665
(VWe
VPRP
tp1666
a(Vall
VDT
tp1667
a(Vknow
VVBP
tp1668
a(Vwhat
VWP
tp1669
a(Vwas
VVBD
tp1670
a(Vdecided
VVBN
tp1671
a(Vin
VIN
tp1672
a(VBrussels
VNNP
tp1673
a(Vand
VCC
tp1674
a(V,
V,
tp1675
a(Vmoreover
VRB
tp1676
a(V,
V,
tp1677
a(Vwhat
VWP
tp1678
a(Vwas
VVBD
tp1679
a(Vnot
VRB
tp1680
a(V.
V.
tp1681
aa(lp1682
(VFears
VNNS
tp1683
a(Vthat
VIN
tp1684
a(Vit
VPRP
tp1685
a(Vwould
VMD
tp1686
a(Vresult
VVB
tp1687
a(Vin
VIN
tp1688
a(Vsocial
VJJ
tp1689
a(Vand
VCC
tp1690
a(Vwage
VNN
tp1691
a(Vdumping
VVBG
tp1692
a(Vare
VVBP
tp1693
a(Vno
VRB
tp1694
a(Vlonger
VRB
tp1695
a(Vjustified
VJJ
tp1696
a(V.
V.
tp1697
aa(lp1698
(VThat
VDT
tp1699
a(Vmeans
VVBZ
tp1700
a(Vthat
VIN
tp1701
a(VGermany
VNNP
tp1702
a(Vmust
VMD
tp1703
a(Vhave
VVB
tp1704
a(Va
VDT
tp1705
a(Vshare
VNN
tp1706
a(Vof
VIN
tp1707
a(Vat
VIN
tp1708
a(Vleast
VJJS
tp1709
a(V20
VCD
tp1710
a(V%
VNN
tp1711
a(V.
V.
tp1712
aa(lp1713
(VMadam
VNNP
tp1714
a(VPresident
VNNP
tp1715
a(V,
V,
tp1716
a(Vwhen
VWRB
tp1717
a(Varchaeologists
VNNS
tp1718
a(Vcomb
VVBP
tp1719
a(Vthe
VDT
tp1720
a(Vcountryside
VNN
tp1721
a(Vtoday
VNN
tp1722
a(Vand
VCC
tp1723
a(Vfind
VVB
tp1724
a(Vthe
VDT
tp1725
a(Vbones
VNNS
tp1726
a(Vof
VIN
tp1727
a(Vprehistoric
VJJ
tp1728
a(Vdinosaurs
VNNS
tp1729
a(V,
V,
tp1730
a(Vthey
VPRP
tp1731
a(Vare
VVBP
tp1732
a(Vdelighted
VJJ
tp1733
a(Vand
VCC
tp1734
a(Vcan
VMD
tp1735
a(Vprepare
VVB
tp1736
a(Vand
VCC
tp1737
a(Vexhibit
VVB
tp1738
a(Vthese
VDT
tp1739
a(Vfinds
VNNS
tp1740
a(Vin
VIN
tp1741
a(Vperfect
VJJ
tp1742
a(Vsafety
VNN
tp1743
a(V.
V.
tp1744
a(VI
VPRP
tp1745
a(Vdo
VVBP
tp1746
a(Vnot
VRB
tp1747
a(Vbelieve
VVB
tp1748
a(Vthat
VIN
tp1749
a(Vit
VPRP
tp1750
a(Vis
VVBZ
tp1751
a(Vquite
VRB
tp1752
a(Vso
VRB
tp1753
a(Vsimple
VJJ
tp1754
a(Vwith
VIN
tp1755
a(Vthe
VDT
tp1756
a(Venergy
VNN
tp1757
a(Vdinosaurs
VNNS
tp1758
a(Vof
VIN
tp1759
a(Vtoday
VNN
tp1760
a(V.
V.
tp1761
aa(lp1762
(VI
VPRP
tp1763
a(Vsalute
VVBP
tp1764
a(VPresident
VNNP
tp1765
a(VBush
VNNP
tp1766
a(Vand
VCC
tp1767
a(Vthe
VDT
tp1768
a(VBritish
VJJ
tp1769
a(VPrime
VNNP
tp1770
a(VMinister
VNNP
tp1771
a(Vfor
VIN
tp1772
a(Vtheir
VPRP$
tp1773
a(Vdetermination
VNN
tp1774
a(V-
V:
tp1775
a(Vshoulder-to-shoulder
VNN
tp1776
a(Vwith
VIN
tp1777
a(Va
VDT
tp1778
a(VDemocratic
VJJ
tp1779
a(VParty
VNNP
tp1780
a(Vand
VCC
tp1781
a(VIan
VNNP
tp1782
a(VDuncan
VNNP
tp1783
a(VSmith
VNNP
tp1784
a(V,
V,
tp1785
a(Vthe
VDT
tp1786
a(Vleader
VNN
tp1787
a(Vof
VIN
tp1788
a(Vthe
VDT
tp1789
a(VConservative
VNNP
tp1790
a(VParty
VNNP
tp1791
a(Vwho
VWP
tp1792
a(Vwas
VVBD
tp1793
a(Vhere
VRB
tp1794
a(Vin
VIN
tp1795
a(VParliament
VNNP
tp1796
a(Vtoday
VNN
tp1797
a(V-
V:
tp1798
a(Vto
VTO
tp1799
a(Vdefeat
VVB
tp1800
a(Vand
VCC
tp1801
a(Veradicate
VVB
tp1802
a(Vinternational
VJJ
tp1803
a(Vterrorism
VNN
tp1804
a(V.
V.
tp1805
aa(lp1806
(VHere
VRB
tp1807
a(VI
VPRP
tp1808
a(Vwould
VMD
tp1809
a(Vmention
VVB
tp1810
a(Vthat
VIN
tp1811
a(Vthe
VDT
tp1812
a(VIntergovernmental
VNNP
tp1813
a(VConference
VNN
tp1814
a(Vwas
VVBD
tp1815
a(Vnot
VRB
tp1816
a(Vin
VIN
tp1817
a(Vfact
VNN
tp1818
a(Vexpected
VVBN
tp1819
a(Vto
VTO
tp1820
a(Vopen
VVB
tp1821
a(Vduring
VIN
tp1822
a(Vthese
VDT
tp1823
a(Vsix
VCD
tp1824
a(Vmonths
VNNS
tp1825
a(V.
V.
tp1826
aa(lp1827
(VIn
VIN
tp1828
a(Vthe
VDT
tp1829
a(Vfinal
VJJ
tp1830
a(Vanalysis
VNN
tp1831
a(Vdesperate
VJJ
tp1832
a(Vcitizens
VNNS
tp1833
a(Vdo
VVBP
tp1834
a(Vnot
VRB
tp1835
a(Vcare
VVB
tp1836
a(Vabout
VIN
tp1837
a(Vwho
VWP
tp1838
a(Vor
VCC
tp1839
a(Vwhat
VWP
tp1840
a(Vis
VVBZ
tp1841
a(Vto
VTO
tp1842
a(Vblame
VVB
tp1843
a(V.
V.
tp1844
aa(lp1845
(VIt
VPRP
tp1846
a(Vis
VVBZ
tp1847
a(Vin
VIN
tp1848
a(Vperpetual
VJJ
tp1849
a(Vmovement
VNN
tp1850
a(Vand
VCC
tp1851
a(Vknows
VVBZ
tp1852
a(Vno
VDT
tp1853
a(Vboundaries
VNNS
tp1854
a(V.
V.
tp1855
aa(lp1856
(VIn
VIN
tp1857
a(VEurope
VNNP
tp1858
a(V,
V,
tp1859
a(Vairborne
VJJ
tp1860
a(Vfine
VJJ
tp1861
a(Vparticles
VNNS
tp1862
a(Vdue
VJJ
tp1863
a(Vto
VTO
tp1864
a(Venergy
VNN
tp1865
a(Vconsumption
VNN
tp1866
a(Vnow
VRB
tp1867
a(Vkill
VVBP
tp1868
a(Varound
VIN
tp1869
a(V300
VCD
tp1870
a(V000
VCD
tp1871
a(Vpeople
VNNS
tp1872
a(Veach
VDT
tp1873
a(Vyear
VNN
tp1874
a(V.
V.
tp1875
aa(lp1876
(VWe
VPRP
tp1877
a(Vwill
VMD
tp1878
a(Vwork
VVB
tp1879
a(Vto
VTO
tp1880
a(Vhave
VVB
tp1881
a(Vthis
VDT
tp1882
a(Vdefinition
VNN
tp1883
a(Vaccepted
VVBN
tp1884
a(Vat
VIN
tp1885
a(Vevery
VDT
tp1886
a(Vforum
VNN
tp1887
a(Vand
VCC
tp1888
a(Vbody
VNN
tp1889
a(Vwe
VPRP
tp1890
a(Vcan
VMD
tp1891
a(Vinfluence
VVB
tp1892
a(V.
V.
tp1893
aa(lp1894
(VWe
VPRP
tp1895
a(Vhad
VVBD
tp1896
a(Vthe
VDT
tp1897
a(VYear
VNN
tp1898
a(Vof
VIN
tp1899
a(VFolk
VNN
tp1900
a(VCulture
VNN
tp1901
a(V,
V,
tp1902
a(Vthe
VDT
tp1903
a(VMonth
VNNP
tp1904
a(Vof
VIN
tp1905
a(Vthe
VDT
tp1906
a(VBook
VNN
tp1907
a(V,
V,
tp1908
a(Vthe
VDT
tp1909
a(VMonth
VNNP
tp1910
a(Vof
VIN
tp1911
a(Vthe
VDT
tp1912
a(VCzechoslovak-Soviet
VNNP
tp1913
a(VFriendship
VNN
tp1914
a(V,
V,
tp1915
a(Vthe
VDT
tp1916
a(VCosmos
VNNP
tp1917
a(VWeek
VNN
tp1918
a(V,
V,
tp1919
a(Vthe
VDT
tp1920
a(VMiners
VNNP
tp1921
a(V&apos;
VNNP
tp1922
a(VDay
VNNP
tp1923
a(V.
V.
tp1924
aa(lp1925
(VTo
VTO
tp1926
a(Vthis
VDT
tp1927
a(Vend
VNN
tp1928
a(V,
V,
tp1929
a(Vthe
VDT
tp1930
a(VEuropean
VNNP
tp1931
a(VCommission
VNNP
tp1932
a(Vand
VCC
tp1933
a(Vindividual
VJJ
tp1934
a(Vpublishers
VNNS
tp1935
a(Vshould
VMD
tp1936
a(Vensure
VVB
tp1937
a(Vthat
VIN
tp1938
a(Vdisabled
VJJ
tp1939
a(Vpeople
VNNS
tp1940
a(Vare
VVBP
tp1941
a(Vprovided
VVBN
tp1942
a(Vwith
VIN
tp1943
a(Vspecial
VJJ
tp1944
a(Vdigital
VJJ
tp1945
a(Vversions
VNNS
tp1946
a(Vof
VIN
tp1947
a(Vworks
VNNS
tp1948
a(V,
V,
tp1949
a(Vsuch
VJJ
tp1950
a(Vas
VIN
tp1951
a(Vaudio
VJJ
tp1952
a(Vreadings
VNNS
tp1953
a(V.
V.
tp1954
aa(lp1955
(VIn
VIN
tp1956
a(Vaddition
VNN
tp1957
a(V,
V,
tp1958
a(Vit
VPRP
tp1959
a(Vhas
VVBZ
tp1960
a(Vexpressed
VVBN
tp1961
a(Vits
VPRP$
tp1962
a(Vsupport
VNN
tp1963
a(Vfor
VIN
tp1964
a(Vthe
VDT
tp1965
a(Vrecent
VJJ
tp1966
a(Vinitiative
VNN
tp1967
a(Vby
VIN
tp1968
a(VCrown
VNNP
tp1969
a(VPrince
VNNP
tp1970
a(VAbdullah
VNNP
tp1971
a(Vof
VIN
tp1972
a(VSaudi
VNNP
tp1973
a(VArabia
VNNP
tp1974
a(V.
V.
tp1975
aa(lp1976
(VThanks
VNNS
tp1977
a(Vgo
VVBP
tp1978
a(Vto
VTO
tp1979
a(Veveryone
VNN
tp1980
a(Vwho
VWP
tp1981
a(Vhas
VVBZ
tp1982
a(Vbeen
VVBN
tp1983
a(Vinvolved
VVBN
tp1984
a(V.
V.
tp1985
aa(lp1986
(VDoing
VVBG
tp1987
a(Vso
VRB
tp1988
a(Vis
VVBZ
tp1989
a(Vespecially
VRB
tp1990
a(Vimportant
VJJ
tp1991
a(Vin
VIN
tp1992
a(Va
VDT
tp1993
a(Vcrisis
VNN
tp1994
a(Vsituation
VNN
tp1995
a(V,
V,
tp1996
a(Vand
VCC
tp1997
a(Vthe
VDT
tp1998
a(VSOLVIT
VNNP
tp1999
a(Vprogramme
VNN
tp2000
a(Vis
VVBZ
tp2001
a(Valso
VRB
tp2002
a(Vto
VTO
tp2003
a(Vbe
VVB
tp2004
a(Vsignificantly
VRB
tp2005
a(Vreinforced
VVBN
tp2006
a(V.
V.
tp2007
aa(lp2008
(VI
VPRP
tp2009
a(Vwould
VMD
tp2010
a(Vurge
VVB
tp2011
a(Vthose
VDT
tp2012
a(Vwho
VWP
tp2013
a(Vhave
VVBP
tp2014
a(Vinformation
VNN
tp2015
a(Vto
VTO
tp2016
a(Vcome
VVB
tp2017
a(Vforward
VRB
tp2018
a(Vand
VCC
tp2019
a(Vgive
VVB
tp2020
a(Vthat
VDT
tp2021
a(Vinformation
VNN
tp2022
a(Vto
VTO
tp2023
a(Vthe
VDT
tp2024
a(VPolice
VNNP
tp2025
a(VService
VNNP
tp2026
a(Vof
VIN
tp2027
a(VNorthern
VNNP
tp2028
a(VIreland
VNNP
tp2029
a(Vand
VCC
tp2030
a(Vput
VVBD
tp2031
a(Vit
VPRP
tp2032
a(Von
VIN
tp2033
a(Vrecord
VNN
tp2034
a(V,
V,
tp2035
a(Vand
VCC
tp2036
a(Vfinally
VRB
tp2037
a(Vbring
VVB
tp2038
a(Van
VDT
tp2039
a(Vend
VNN
tp2040
a(Vto
VTO
tp2041
a(Vthis
VDT
tp2042
a(V.
V.
tp2043
aa(lp2044
(VWe
VPRP
tp2045
a(Vare
VVBP
tp2046
a(Vtaking
VVBG
tp2047
a(Vone
VCD
tp2048
a(Vstep
VNN
tp2049
a(Vforwards
VRB
tp2050
a(Vand
VCC
tp2051
a(Vtwo
VCD
tp2052
a(Vsteps
VNNS
tp2053
a(Vbackwards
VRB
tp2054
a(V.
V.
tp2055
aa(lp2056
(VOur
VPRP$
tp2057
a(Vguests
VNNS
tp2058
a(Vare
VVBP
tp2059
a(Vhere
VRB
tp2060
a(Vto
VTO
tp2061
a(Vparticipate
VVB
tp2062
a(Vin
VIN
tp2063
a(Vthe
VDT
tp2064
a(VSixth
VNNP
tp2065
a(VInterparliamentary
VNNP
tp2066
a(VConference
VNNP
tp2067
a(Vof
VIN
tp2068
a(Vthe
VDT
tp2069
a(VEuropean
VNNP
tp2070
a(VParliament
VNNP
tp2071
a(Vand
VCC
tp2072
a(Vthe
VDT
tp2073
a(VMercosur
VNNP
tp2074
a(VJoint
VNNP
tp2075
a(VParliamentary
VNNP
tp2076
a(VCommittee
VNNP
tp2077
a(V.
V.
tp2078
a(VThe
VDT
tp2079
a(Vconference
VNN
tp2080
a(Vtakes
VVBZ
tp2081
a(Vplace
VNN
tp2082
a(Vtoday
VNN
tp2083
a(Vand
VCC
tp2084
a(Vtomorrow
VNN
tp2085
a(Vin
VIN
tp2086
a(VStrasbourg
VNNP
tp2087
a(V.
V.
tp2088
aa(lp2089
(VWe
VPRP
tp2090
a(Vwould
VMD
tp2091
a(Vperhaps
VRB
tp2092
a(Vbe
VVB
tp2093
a(Vbetter
VJJR
tp2094
a(Vadvised
VVBD
tp2095
a(Vto
VTO
tp2096
a(Vput
VVB
tp2097
a(Vas
VRB
tp2098
a(Vmuch
VJJ
tp2099
a(Venergy
VNN
tp2100
a(Vinto
VIN
tp2101
a(Vactually
VRB
tp2102
a(Vachieving
VVBG
tp2103
a(Vfar-reaching
VJJ
tp2104
a(Vreforms
VNNS
tp2105
a(Vas
VIN
tp2106
a(Vinto
VIN
tp2107
a(Vpreaching
VVBG
tp2108
a(Vabout
VIN
tp2109
a(Vthem
VPRP
tp2110
a(V.
V.
tp2111
aa(lp2112
(VI
VPRP
tp2113
a(Vremember
VVBP
tp2114
a(Vonce
VRB
tp2115
a(Vin
VIN
tp2116
a(Vthe
VDT
tp2117
a(Vearly
VJJ
tp2118
a(V1980s
VCD
tp2119
a(Vvisiting
VVBG
tp2120
a(Va
VDT
tp2121
a(Vhospital
VNN
tp2122
a(Vto
VTO
tp2123
a(Vtry
VVB
tp2124
a(Vand
VCC
tp2125
a(Vcheer
VVB
tp2126
a(Vup
VRP
tp2127
a(Vthe
VDT
tp2128
a(Vpatients
VNNS
tp2129
a(V-
V:
tp2130
a(Vwhich
VWDT
tp2131
a(VI
VPRP
tp2132
a(Valways
VRB
tp2133
a(Vfailed
VVBD
tp2134
a(Vto
VTO
tp2135
a(Vdo
VVB
tp2136
a(V!
V.
tp2137
a(V-
V:
tp2138
a(Vand
VCC
tp2139
a(Vwalking
VVBG
tp2140
a(Vinto
VIN
tp2141
a(Van
VDT
tp2142
a(VHIV
VNN
tp2143
a(Vunit
VNN
tp2144
a(Vto
VTO
tp2145
a(Vfind
VVB
tp2146
a(Vthat
VIN
tp2147
a(Vin
VIN
tp2148
a(Vone
VCD
tp2149
a(Vof
VIN
tp2150
a(Vthe
VDT
tp2151
a(Vbeds
VNNS
tp2152
a(Vwas
VVBD
tp2153
a(Vone
VCD
tp2154
a(Vof
VIN
tp2155
a(Vmy
VPRP$
tp2156
a(Vclose
VJJ
tp2157
a(Vfriends
VNNS
tp2158
a(V.
V.
tp2159
aa(lp2160
(VFor
VIN
tp2161
a(Vtheir
VPRP$
tp2162
a(Vcaptors
VNNS
tp2163
a(V,
V,
tp2164
a(Vthey
VPRP
tp2165
a(Vare
VVBP
tp2166
a(Vjust
VRB
tp2167
a(Vobjects
VNNS
tp2168
a(V,
V,
tp2169
a(Vgoods
VNNS
tp2170
a(V,
V,
tp2171
a(Veven
VRB
tp2172
a(Vless
VJJR
tp2173
a(Vthan
VIN
tp2174
a(Vlivestock
VNN
tp2175
a(V.
V.
tp2176
aa(lp2177
(VIt
VPRP
tp2178
a(Vwould
VMD
tp2179
a(Vseem
VVB
tp2180
a(Vthat
VIN
tp2181
a(Vsome
VDT
tp2182
a(Vpeople
VNNS
tp2183
a(Vwere
VVBD
tp2184
a(Veither
VRB
tp2185
a(Vpreoccupied
VVBN
tp2186
a(Vdoing
VVBG
tp2187
a(Vsomething
VNN
tp2188
a(Velse
VRB
tp2189
a(Vor
VCC
tp2190
a(Vwe
VPRP
tp2191
a(Vwere
VVBD
tp2192
a(Vnot
VRB
tp2193
a(Vable
VJJ
tp2194
a(Vto
VTO
tp2195
a(Vhear
VVB
tp2196
a(Vwhat
VWP
tp2197
a(Vwas
VVBD
tp2198
a(Vgoing
VVBG
tp2199
a(Von
VIN
tp2200
a(V.
V.
tp2201
aa(lp2202
(VMr
VNNP
tp2203
a(VPresident
VNNP
tp2204
a(V,
V,
tp2205
a(Vmy
VPRP$
tp2206
a(Vcolleague
VNN
tp2207
a(VMr
VNN
tp2208
a(VCashman
VNNP
tp2209
a(Vhas
VVBZ
tp2210
a(Vonce
VRB
tp2211
a(Vagain
VRB
tp2212
a(Vhad
VVBD
tp2213
a(Vhis
VPRP$
tp2214
a(Vreputation
VNN
tp2215
a(Vof
VIN
tp2216
a(Vbeing
VVBG
tp2217
a(Va
VDT
tp2218
a(Vgood
VJJ
tp2219
a(Vchess
VNN
tp2220
a(Vplayer
VNN
tp2221
a(Vput
VVBD
tp2222
a(Vto
VTO
tp2223
a(Vthe
VDT
tp2224
a(Vtest
VNN
tp2225
a(V,
V,
tp2226
a(Vand
VCC
tp2227
a(Vhis
VPRP$
tp2228
a(Vstrategy
VNN
tp2229
a(Vof
VIN
tp2230
a(Vbeing
VVBG
tp2231
a(Vperfectly
VRB
tp2232
a(Vamiable
VJJ
tp2233
a(Vmay
VMD
tp2234
a(Vindeed
VRB
tp2235
a(Vbe
VVB
tp2236
a(Vthe
VDT
tp2237
a(Vone
VCD
tp2238
a(Vthat
VWDT
tp2239
a(Vin
VIN
tp2240
a(Vfact
VNN
tp2241
a(Vleads
VVBZ
tp2242
a(Vto
VTO
tp2243
a(Vsuccess
VNN
tp2244
a(V.
V.
tp2245
aa(lp2246
(VWe
VPRP
tp2247
a(Vand
VCC
tp2248
a(Vthe
VDT
tp2249
a(VCouncil
VNNP
tp2250
a(Vwould
VMD
tp2251
a(Vbe
VVB
tp2252
a(Vwell
VRB
tp2253
a(Vadvised
VVBN
tp2254
a(Vto
VTO
tp2255
a(Vdeal
VVB
tp2256
a(Vwith
VIN
tp2257
a(Vthis
VDT
tp2258
a(Vproblem
VNN
tp2259
a(Vas
VRB
tp2260
a(Vquickly
VRB
tp2261
a(Vas
VIN
tp2262
a(Vpossible
VJJ
tp2263
a(Vat
VIN
tp2264
a(Van
VDT
tp2265
a(Vintergovernmental
VJJ
tp2266
a(Vconference
VNN
tp2267
a(V,
V,
tp2268
a(Vbecause
VIN
tp2269
a(Vout
VIN
tp2270
a(Vof
VIN
tp2271
a(Vthe
VDT
tp2272
a(V18
VCD
tp2273
a(VMembers
VNNS
tp2274
a(V,
V,
tp2275
a(V16
VCD
tp2276
a(Vare
VVBP
tp2277
a(Vin
VIN
tp2278
a(Va
VDT
tp2279
a(Vstate
VNN
tp2280
a(Vof
VIN
tp2281
a(Vsuspense
VNN
tp2282
a(V,
V,
tp2283
a(Vwhich
VWDT
tp2284
a(Vis
VVBZ
tp2285
a(Vrather
VRB
tp2286
a(Vintolerable
VJJ
tp2287
a(V.
V.
tp2288
aa(lp2289
(VMr
VNNP
tp2290
a(VPresident
VNNP
tp2291
a(V,
V,
tp2292
a(Vthis
VDT
tp2293
a(Vis
VVBZ
tp2294
a(Vthe
VDT
tp2295
a(Vthird
VJJ
tp2296
a(Vdebate
VNN
tp2297
a(Von
VIN
tp2298
a(Vthe
VDT
tp2299
a(VEU-Mexico
VJJ
tp2300
a(Vagreement
VNN
tp2301
a(Vand
VCC
tp2302
a(V,
V,
tp2303
a(Vgiven
VVBN
tp2304
a(Vthat
VIN
tp2305
a(Vit
VPRP
tp2306
a(Vis
VVBZ
tp2307
a(Vthe
VDT
tp2308
a(Vmost
VRBS
tp2309
a(Vcomprehensive
VJJ
tp2310
a(Vagreement
VNN
tp2311
a(Vwhich
VWDT
tp2312
a(Vthe
VDT
tp2313
a(VEuropean
VNNP
tp2314
a(VUnion
VNNP
tp2315
a(Vhas
VVBZ
tp2316
a(Vever
VRB
tp2317
a(Vconcluded
VVBN
tp2318
a(Vwith
VIN
tp2319
a(Va
VDT
tp2320
a(Vthird
VJJ
tp2321
a(Vcountry
VNN
tp2322
a(V,
V,
tp2323
a(Vthe
VDT
tp2324
a(Vprinciples
VNNS
tp2325
a(Vthat
VWDT
tp2326
a(Vmark
VVBP
tp2327
a(Vthe
VDT
tp2328
a(Vsort
VNN
tp2329
a(Vof
VIN
tp2330
a(Vcooperation
VNN
tp2331
a(Vwhich
VWDT
tp2332
a(Vwill
VMD
tp2333
a(Vbe
VVB
tp2334
a(Vviable
VJJ
tp2335
a(Vin
VIN
tp2336
a(Vthe
VDT
tp2337
a(Vfuture
VNN
tp2338
a(Vshould
VMD
tp2339
a(Vnot
VRB
tp2340
a(Vbe
VVB
tp2341
a(Vthrown
VVBN
tp2342
a(Vto
VTO
tp2343
a(Vthe
VDT
tp2344
a(Vwind
VNN
tp2345
a(V.
V.
tp2346
aa(lp2347
(V(
VNN
tp2348
a(V5
VCD
tp2349
a(V)
VNN
tp2350
aa(lp2351
(VYet
VRB
tp2352
a(Vmost
VRBS
tp2353
a(VEuropean
VJJ
tp2354
a(Vgovernments
VNNS
tp2355
a(Vappear
VVBP
tp2356
a(Vfearful
VJJ
tp2357
a(V.
V.
tp2358
aa.