(lp1
(lp2
(VTo
VTO
tp3
a(Vgive
VVB
tp4
a(Vyou
VPRP
tp5
a(Van
VDT
tp6
a(Villustration
VNN
tp7
a(Vof
VIN
tp8
a(Vwhat
VWP
tp9
a(VI
VPRP
tp10
a(Vam
VVBP
tp11
a(Vtalking
VVBG
tp12
a(Vabout
VRB
tp13
a(V,
V,
tp14
a(Vthe
VDT
tp15
a(VBritish
VJJ
tp16
a(VGovernment
VNN
tp17
a(Vturned
VVBD
tp18
a(Vup
VRP
tp19
a(Ven
VIN
tp20
a(Vmasse
VNN
tp21
a(V.
V.
tp22
aa(lp23
(VThere
VEX
tp24
a(Vis
VVBZ
tp25
a(Va
VDT
tp26
a(Vneed
VNN
tp27
a(Vfor
VIN
tp28
a(Vthe
VDT
tp29
a(Vincreased
VVBN
tp30
a(Vprotection
VNN
tp31
a(Vof
VIN
tp32
a(Vintellectual
VJJ
tp33
a(Vproperty
VNN
tp34
a(Vrights
VNNS
tp35
a(Vand
VCC
tp36
a(Va
VDT
tp37
a(Vviable
VJJ
tp38
a(Vcompetitive
VJJ
tp39
a(VEuropean
VJJ
tp40
a(Vpatent
VNN
tp41
a(Vsystem
VNN
tp42
a(V,
V,
tp43
a(Vas
VRB
tp44
a(Vwell
VRB
tp45
a(V.
V.
tp46
aa(lp47
(VI
VPRP
tp48
a(Vdecided
VVBD
tp49
a(V,
V,
tp50
a(Vhowever
VRB
tp51
a(V,
V,
tp52
a(Vhow
VWRB
tp53
a(Vto
VTO
tp54
a(Vvote
VVB
tp55
a(Vwhen
VWRB
tp56
a(Veven
VRB
tp57
a(Vmy
VPRP$
tp58
a(Vmother
VNN
tp59
a(V,
V,
tp60
a(Vwho
VWP
tp61
a(Vis
VVBZ
tp62
a(V94
VCD
tp63
a(V,
V,
tp64
a(Vsaid
VVBD
tp65
a(Vto
VTO
tp66
a(Vme
VPRP
tp67
a(V:
V:
tp68
a(V&apos;
VVB
tp69
a(VYou
VPRP
tp70
a(Vgave
VVBD
tp71
a(Vme
VPRP
tp72
a(Va
VDT
tp73
a(Vcomputer
VNN
tp74
a(Vand
VCC
tp75
a(VI
VPRP
tp76
a(Vhave
VVBP
tp77
a(Vlost
VVBN
tp78
a(Vmy
VPRP$
tp79
a(Ventire
VJJ
tp80
a(Vpension
VNN
tp81
a(Vfor
VIN
tp82
a(VMarch
VNNP
tp83
a(V2009
VCD
tp84
a(V,
V,
tp85
a(VEUR
V$
tp86
a(V450
VCD
tp87
a(V&apos;
VNN
tp88
a(V.
V.
tp89
aa(lp90
(VThis
VDT
tp91
a(Vhas
VVBZ
tp92
a(Vnot
VRB
tp93
a(Vbeen
VVBN
tp94
a(Vsuccessful
VJJ
tp95
a(V.
V.
tp96
aa(lp97
(VIt
VPRP
tp98
a(Vis
VVBZ
tp99
a(Vclear
VJJ
tp100
a(Vthat
VIN
tp101
a(Vwe
VPRP
tp102
a(Vare
VVBP
tp103
a(Vworking
VVBG
tp104
a(Vwith
VIN
tp105
a(Vtwo
VCD
tp106
a(Vbasic
VJJ
tp107
a(Vpresuppositions
VNNS
tp108
a(V.
V.
tp109
aa(lp110
(VThese
VDT
tp111
a(Vacts
VNNS
tp112
a(Vwere
VVBD
tp113
a(Vintolerable
VJJ
tp114
a(Vfor
VIN
tp115
a(Vtheir
VPRP$
tp116
a(Vblind
VJJ
tp117
a(Vviolence
VNN
tp118
a(Vand
VCC
tp119
a(Vbecause
VIN
tp120
a(Vthey
VPRP
tp121
a(Vaffected
VVBD
tp122
a(Vinnocent
VJJ
tp123
a(Vcitizens
VNNS
tp124
a(V.
V.
tp125
aa(lp126
(VAt
VIN
tp127
a(Vpresent
VJJ
tp128
a(V,
V,
tp129
a(Vexport
VNN
tp130
a(Vrefunds
VNNS
tp131
a(Vare
VVBP
tp132
a(Vzero
VCD
tp133
a(Vrated
VVBN
tp134
a(Vdue
VJJ
tp135
a(Vto
VTO
tp136
a(Vthe
VDT
tp137
a(Vstrength
VNN
tp138
a(Vin
VIN
tp139
a(Vglobal
VJJ
tp140
a(Vdairy
VNN
tp141
a(Vmarkets
VNNS
tp142
a(V.
V.
tp143
aa(lp144
(VThere
VEX
tp145
a(Vis
VVBZ
tp146
a(Van
VDT
tp147
a(Vadaptation
VNN
tp148
a(Vperiod
VNN
tp149
a(Vand
VCC
tp150
a(V,
V,
tp151
a(Vif
VIN
tp152
a(Vwe
VPRP
tp153
a(Vbear
VVBP
tp154
a(Vin
VIN
tp155
a(Vmind
VNN
tp156
a(Vthe
VDT
tp157
a(Vrotation
VNN
tp158
a(Vof
VIN
tp159
a(Vthis
VDT
tp160
a(Vtype
VNN
tp161
a(Vof
VIN
tp162
a(Vvehicle
VNN
tp163
a(V,
V,
tp164
a(Vthe
VDT
tp165
a(Vtime
VNN
tp166
a(Vof
VIN
tp167
a(Vthe
VDT
tp168
a(Ventry
VNN
tp169
a(Vinto
VIN
tp170
a(Vforce
VNN
tp171
a(Vof
VIN
tp172
a(Vthe
VDT
tp173
a(Vdirective
VNN
tp174
a(V,
V,
tp175
a(Vetc
VFW
tp176
a(V.
V.
tp177
a(V,
V,
tp178
a(Vwe
VPRP
tp179
a(Vsee
VVBP
tp180
a(Vthat
VIN
tp181
a(Vit
VPRP
tp182
a(Vis
VVBZ
tp183
a(Vnot
VRB
tp184
a(Vso
VRB
tp185
a(Vout
VIN
tp186
a(Vof
VIN
tp187
a(Vplace
VNN
tp188
a(V.
V.
tp189
aa(lp190
(VThat
VDT
tp191
a(Valways
VRB
tp192
a(Vsuits
VNNS
tp193
a(Vus
VPRP
tp194
a(V,
V,
tp195
a(Vbecause
VIN
tp196
a(Vwe
VPRP
tp197
a(Vcan
VMD
tp198
a(Vthen
VRB
tp199
a(Vwait
VVB
tp200
a(Vand
VCC
tp201
a(Vsee
VVB
tp202
a(Vwhich
VWDT
tp203
a(Vposition
VNN
tp204
a(Vprevails
VVBZ
tp205
a(V.
V.
tp206
aa(lp207
(VMr
VNNP
tp208
a(VPresident
VNNP
tp209
a(V,
V,
tp210
a(VI
VPRP
tp211
a(Vbelieve
VVBP
tp212
a(Vthat
VIN
tp213
a(Vwe
VPRP
tp214
a(Vhave
VVBP
tp215
a(Vworked
VVBN
tp216
a(Vhonestly
VRB
tp217
a(V.
V.
tp218
aa(lp219
(VPeace
VNN
tp220
a(Vin
VIN
tp221
a(VBosnia-Herzegovina
VNNP
tp222
a(Vstill
VRB
tp223
a(Vhas
VVBZ
tp224
a(Vfeet
VNNS
tp225
a(Vof
VIN
tp226
a(Vclay
VNN
tp227
a(Vand
VCC
tp228
a(Vwould
VMD
tp229
a(V,
V,
tp230
a(Vunfortunately
VRB
tp231
a(V,
V,
tp232
a(Vnot
VRB
tp233
a(Vhold
VVB
tp234
a(Vfast
VRB
tp235
a(Vwithout
VIN
tp236
a(Vthe
VDT
tp237
a(Vcurrent
VJJ
tp238
a(Vinternational
VJJ
tp239
a(Vsupport
VNN
tp240
a(V.
V.
tp241
aa(lp242
(VI
VPRP
tp243
a(Vwas
VVBD
tp244
a(Va
VDT
tp245
a(Vwitness
VNN
tp246
a(Vto
VTO
tp247
a(Vand
VCC
tp248
a(Va
VDT
tp249
a(Vmodest
VJJ
tp250
a(Vparticipant
VNN
tp251
a(Vin
VIN
tp252
a(Vthe
VDT
tp253
a(Vcollective
VJJ
tp254
a(Velation
VNN
tp255
a(Vin
VIN
tp256
a(VAugust
VNNP
tp257
a(V1980
VCD
tp258
a(Vwhich
VWDT
tp259
a(Vgave
VVBD
tp260
a(Vbirth
VNN
tp261
a(Vto
VTO
tp262
a(VSolidarity
VNNP
tp263
a(V,
V,
tp264
a(Vsubsequently
VRB
tp265
a(Va
VDT
tp266
a(Vmovement
VNN
tp267
a(Vof
VIN
tp268
a(V10
VCD
tp269
a(Vmillion
VCD
tp270
a(Vpeople
VNNS
tp271
a(V.
V.
tp272
aa(lp273
(VWe
VPRP
tp274
a(Vat
VIN
tp275
a(VEuropean
VNNP
tp276
a(VUnion
VNNP
tp277
a(Vlevel
VNN
tp278
a(Vcan
VMD
tp279
a(Vdo
VVB
tp280
a(Va
VDT
tp281
a(Vlot
VNN
tp282
a(Vin
VIN
tp283
a(Vencouraging
VVBG
tp284
a(Vthem
VPRP
tp285
a(V,
V,
tp286
a(Vcreating
VVBG
tp287
a(Vthe
VDT
tp288
a(Vopportunities
VNNS
tp289
a(Vfor
VIN
tp290
a(Vdevelopment
VNN
tp291
a(V,
V,
tp292
a(Vand
VCC
tp293
a(Valso
VRB
tp294
a(Vestablishing
VVBG
tp295
a(Vthe
VDT
tp296
a(Vcoordination
VNN
tp297
a(Vof
VIN
tp298
a(Vresearch
VNN
tp299
a(Vthat
VWDT
tp300
a(Vcan
VMD
tp301
a(Vbe
VVB
tp302
a(Veventually
VRB
tp303
a(Vturned
VVBN
tp304
a(Vinto
VIN
tp305
a(Vthe
VDT
tp306
a(Vknowledge
VNN
tp307
a(Veconomy
VNN
tp308
a(Vand
VCC
tp309
a(Vthe
VDT
tp310
a(Vsmart
VJJ
tp311
a(Vjobs
VNNS
tp312
a(Vwe
VPRP
tp313
a(Vare
VVBP
tp314
a(Vtalking
VVBG
tp315
a(Vabout
VRB
tp316
a(V.
V.
tp317
aa(lp318
(V\u2013
VNN
tp319
a(VThe
VDT
tp320
a(VEuropean
VJJ
tp321
a(VCouncil
VNNP
tp322
a(Vin
VIN
tp323
a(VDecember
VNNP
tp324
a(V2005
VCD
tp325
a(Vlaid
VVBD
tp326
a(Vthe
VDT
tp327
a(Vfoundations
VNNS
tp328
a(Vfor
VIN
tp329
a(Vthe
VDT
tp330
a(Vprogramming
VNN
tp331
a(Vof
VIN
tp332
a(Vthe
VDT
tp333
a(VStructural
VJJ
tp334
a(VFunds
VNNS
tp335
a(Vuntil
VIN
tp336
a(V2013
VCD
tp337
a(V.
V.
tp338
aa(lp339
(VBut
VCC
tp340
a(Vwhat
VWP
tp341
a(Vis
VVBZ
tp342
a(Vbeing
VVBG
tp343
a(Vinvested
VVBN
tp344
a(Vin
VIN
tp345
a(Vscience
VNN
tp346
a(Vand
VCC
tp347
a(Vtechnology
VNN
tp348
a(V?
V.
tp349
aa(lp350
(VIf
VIN
tp351
a(Vglobalisation
VNN
tp352
a(Vhas
VVBZ
tp353
a(Vincontrovertibly
VRB
tp354
a(Vfavoured
VVBN
tp355
a(Vthe
VDT
tp356
a(Vproliferation
VNN
tp357
a(Vof
VIN
tp358
a(Vexchanges
VNNS
tp359
a(V,
V,
tp360
a(Vwe
VPRP
tp361
a(Vmust
VMD
tp362
a(Vfight
VVB
tp363
a(Vagainst
VIN
tp364
a(Vthe
VDT
tp365
a(Vdanger
VNN
tp366
a(Vof
VIN
tp367
a(Va
VDT
tp368
a(Vuniformity
VNN
tp369
a(Vof
VIN
tp370
a(Vcultures
VNNS
tp371
a(V.
V.
tp372
aa(lp373
(VThey
VPRP
tp374
a(Vwork
VVBP
tp375
a(Valone
VRB
tp376
a(Vor
VCC
tp377
a(Vin
VIN
tp378
a(Vconcert
VNN
tp379
a(Vwith
VIN
tp380
a(Vsmall
VJJ
tp381
a(Vteams
VNNS
tp382
a(V.
V.
tp383
aa(lp384
(VThe
VDT
tp385
a(Vinformation
VNN
tp386
a(Vabout
VIN
tp387
a(Vhis
VPRP$
tp388
a(Vhunger
VNN
tp389
a(Vstrike
VNN
tp390
a(Vhad
VVBD
tp391
a(Vbeen
VVBN
tp392
a(Vpublished
VVBN
tp393
a(Vall
VDT
tp394
a(Varound
VIN
tp395
a(Vthe
VDT
tp396
a(Vcity
VNN
tp397
a(Vand
VCC
tp398
a(V,
V,
tp399
a(Vas
VIN
tp400
a(Va
VDT
tp401
a(Vresult
VNN
tp402
a(V,
V,
tp403
a(Vhe
VPRP
tp404
a(Vwas
VVBD
tp405
a(Vfined
VVBN
tp406
a(Vfor
VIN
tp407
a(Vthe
VDT
tp408
a(Vhunger
VNN
tp409
a(Vstrike
VNN
tp410
a(V.
V.
tp411
aa(lp412
(VYour
VPRP$
tp413
a(Vsuccessor
VNN
tp414
a(V,
V,
tp415
a(VMr
VNNP
tp416
a(VRobertson
VNNP
tp417
a(V,
V,
tp418
a(Vhas
VVBZ
tp419
a(Vstated
VVBN
tp420
a(Vin
VIN
tp421
a(Va
VDT
tp422
a(Vnumber
VNN
tp423
a(Vof
VIN
tp424
a(Vinterviews
VNNS
tp425
a(Vthat
VIN
tp426
a(Vthe
VDT
tp427
a(VEU
VNNP
tp428
a(V&apos;
VNN
tp429
a(Vs
VVBZ
tp430
a(Vconduct
VNN
tp431
a(Vwill
VMD
tp432
a(Vlargely
VRB
tp433
a(Vremain
VVB
tp434
a(Vrestricted
VJJ
tp435
a(Vto
VTO
tp436
a(Vminor
VJJ
tp437
a(V,
V,
tp438
a(Vless
VRBR
tp439
a(Vsignificant
VJJ
tp440
a(Vconflicts
VNNS
tp441
a(V.
V.
tp442
aa(lp443
(VIn
VIN
tp444
a(Vits
VPRP$
tp445
a(VJanuary
VNNP
tp446
a(Vreport
VNN
tp447
a(V,
V,
tp448
a(VParliament
VNNP
tp449
a(Vproposed
VVBD
tp450
a(Vthat
VIN
tp451
a(Van
VDT
tp452
a(Vexternal
VJJ
tp453
a(Vchamber
VNN
tp454
a(Vfor
VIN
tp455
a(Vbudgetary
VJJ
tp456
a(Vdiscipline
VNN
tp457
a(Vshould
VMD
tp458
a(Vbe
VVB
tp459
a(Vset
VVBN
tp460
a(Vup
VRP
tp461
a(Vwithin
VIN
tp462
a(Vthe
VDT
tp463
a(VEuropean
VNNP
tp464
a(VCourt
VNNP
tp465
a(Vof
VIN
tp466
a(VJustice
VNNP
tp467
a(Vor
VCC
tp468
a(VCourt
VNNP
tp469
a(Vof
VIN
tp470
a(VAuditors
VNNS
tp471
a(V.
V.
tp472
aa(lp473
(VAgricultural
VNNP
tp474
a(Vexpenditure
VNN
tp475
a(Vis
VVBZ
tp476
a(Vthe
VDT
tp477
a(VEU
VNNP
tp478
a(V&apos;
VNN
tp479
a(Vs
VVBZ
tp480
a(Vlargest
VJJS
tp481
a(Vitem
VNN
tp482
a(Vof
VIN
tp483
a(Vexpenditure
VNN
tp484
a(V,
V,
tp485
a(Vtaking
VVBG
tp486
a(Vapproximately
VRB
tp487
a(V45
VCD
tp488
a(V%
VNN
tp489
a(Vof
VIN
tp490
a(Vthe
VDT
tp491
a(Vbudget
VNN
tp492
a(V.
V.
tp493
aa(lp494
(VThese
VDT
tp495
a(Varguments
VNNS
tp496
a(Vsound
VJJ
tp497
a(Vreally
VRB
tp498
a(Vhypocritical
VJJ
tp499
a(V.
V.
tp500
aa(lp501
(VThis
VDT
tp502
a(Vis
VVBZ
tp503
a(Vall
VDT
tp504
a(Vcock-eyed
VJJ
tp505
a(V.
V.
tp506
aa(lp507
(VBut
VCC
tp508
a(V,
V,
tp509
a(Vat
VIN
tp510
a(Vthe
VDT
tp511
a(Vend
VNN
tp512
a(Vof
VIN
tp513
a(Vthe
VDT
tp514
a(Vday
VNN
tp515
a(V,
V,
tp516
a(Vit
VPRP
tp517
a(Vis
VVBZ
tp518
a(Vthe
VDT
tp519
a(Vpeople
VNNS
tp520
a(Vliving
VVBG
tp521
a(Vnear
VIN
tp522
a(Vairports
VNNS
tp523
a(Vwho
VWP
tp524
a(Vsuffer
VVBP
tp525
a(V.
V.
tp526
aa(lp527
(VWe
VPRP
tp528
a(Vneed
VVBP
tp529
a(Vto
VTO
tp530
a(Vgive
VVB
tp531
a(Vthem
VPRP
tp532
a(Va
VDT
tp533
a(Vplace
VNN
tp534
a(V,
V,
tp535
a(Va
VDT
tp536
a(Vplace
VNN
tp537
a(Vin
VIN
tp538
a(Veducation
VNN
tp539
a(V,
V,
tp540
a(Vespecially
VRB
tp541
a(Vfor
VIN
tp542
a(Vwomen
VNNS
tp543
a(V,
V,
tp544
a(Vbecause
VIN
tp545
a(Vif
VIN
tp546
a(Vthe
VDT
tp547
a(Vwomen
VNNS
tp548
a(Vare
VVBP
tp549
a(Veducated
VVBN
tp550
a(V,
V,
tp551
a(Vthey
VPRP
tp552
a(Vwill
VMD
tp553
a(Veducate
VVB
tp554
a(Vtheir
VPRP$
tp555
a(Vchildren
VNNS
tp556
a(V.
V.
tp557
aa(lp558
(VThe
VDT
tp559
a(Vproblems
VNNS
tp560
a(Vof
VIN
tp561
a(Vmodern
VJJ
tp562
a(Vtimes
VNNS
tp563
a(Vare
VVBP
tp564
a(Vmost
VRBS
tp565
a(Vserious
VJJ
tp566
a(Vwithin
VIN
tp567
a(Vtowns
VNNS
tp568
a(Vand
VCC
tp569
a(Vlarge
VJJ
tp570
a(Vcities
VNNS
tp571
a(V.
V.
tp572
aa(lp573
(VThe
VDT
tp574
a(Vpowers
VNNS
tp575
a(Vthe
VDT
tp576
a(VEU
VNNP
tp577
a(Valready
VRB
tp578
a(Vhas
VVBZ
tp579
a(Vare
VVBP
tp580
a(Va
VDT
tp581
a(Vsufficient
VJJ
tp582
a(Vbasis
VNN
tp583
a(Vfor
VIN
tp584
a(Vtaking
VVBG
tp585
a(Vthe
VDT
tp586
a(Vnecessary
VJJ
tp587
a(Vaction
VNN
tp588
a(V.
V.
tp589
aa(lp590
(VThe
VDT
tp591
a(Vwholesale
VJJ
tp592
a(Vand
VCC
tp593
a(Vretail
VJJ
tp594
a(Vtrades
VNNS
tp595
a(Vwant
VVBP
tp596
a(Vthis
VDT
tp597
a(Vdata
VNNS
tp598
a(Vand
VCC
tp599
a(VI
VPRP
tp600
a(Vhope
VVBP
tp601
a(Vthe
VDT
tp602
a(VMember
VNNP
tp603
a(VStates
VNNPS
tp604
a(Vwill
VMD
tp605
a(Vnot
VRB
tp606
a(Vstand
VVB
tp607
a(Vin
VIN
tp608
a(Vtheir
VPRP$
tp609
a(Vway
VNN
tp610
a(V.
V.
tp611
aa(lp612
(VNot
VRB
tp613
a(Vin
VIN
tp614
a(Vthe
VDT
tp615
a(Vfirst
VJJ
tp616
a(Vinstance
VNN
tp617
a(Vin
VIN
tp618
a(Vcourt
VNN
tp619
a(Vwhere
VWRB
tp620
a(Vthe
VDT
tp621
a(Vaverage
VJJ
tp622
a(Vcost
VNN
tp623
a(Vfor
VIN
tp624
a(Va
VDT
tp625
a(Vcross-border
VJJ
tp626
a(Vcase
VNN
tp627
a(Vis
VVBZ
tp628
a(VEUR
V$
tp629
a(V2
VCD
tp630
a(V500
VCD
tp631
a(Vand
VCC
tp632
a(Vit
VPRP
tp633
a(Vtakes
VVBZ
tp634
a(Vbetween
VIN
tp635
a(V23
VCD
tp636
a(Vand
VCC
tp637
a(V29
VCD
tp638
a(Vmonths
VNNS
tp639
a(Vto
VTO
tp640
a(Vresolve
VVB
tp641
a(V.
V.
tp642
aa(lp643
(VHowever
VRB
tp644
a(V,
V,
tp645
a(Vprecautions
VNNS
tp646
a(Vwhich
VWDT
tp647
a(Vinvolve
VVBP
tp648
a(Vthe
VDT
tp649
a(Vsnapping-off
VNN
tp650
a(Vof
VIN
tp651
a(Va
VDT
tp652
a(V4
VCD
tp653
a(Vcm-long
VJJ
tp654
a(Vnail
VNN
tp655
a(Vfile
VNN
tp656
a(Vor
VCC
tp657
a(Vthe
VDT
tp658
a(Vremoval
VNN
tp659
a(Vfrom
VIN
tp660
a(Vhand
VNN
tp661
a(Vluggage
VNN
tp662
a(Vof
VIN
tp663
a(Vnail
VNN
tp664
a(Vscissors
VNNS
tp665
a(Vavailable
VJJ
tp666
a(Von
VIN
tp667
a(Vany
VDT
tp668
a(Vhigh
VJJ
tp669
a(Vstreet
VNN
tp670
a(Vprompt
VJJ
tp671
a(Vreactions
VNNS
tp672
a(Vof
VIN
tp673
a(Vincomprehension
VNN
tp674
a(Vamong
VIN
tp675
a(Vtravellers
VNNS
tp676
a(V.
V.
tp677
aa(lp678
(VWe
VPRP
tp679
a(Vmust
VMD
tp680
a(Vnot
VRB
tp681
a(Vbe
VVB
tp682
a(Vindifferent
VJJ
tp683
a(Vto
VTO
tp684
a(Vand
VCC
tp685
a(V,
V,
tp686
a(Vmore
VRBR
tp687
a(Vimportantly
VRB
tp688
a(V,
V,
tp689
a(Vwe
VPRP
tp690
a(Vmust
VMD
tp691
a(Vnot
VRB
tp692
a(Vunderestimate
VVB
tp693
a(Vthe
VDT
tp694
a(Vharrowing
VJJ
tp695
a(Vscreams
VNNS
tp696
a(Vof
VIN
tp697
a(Vour
VPRP$
tp698
a(Vyoung
VJJ
tp699
a(Vpeople
VNNS
tp700
a(V.
V.
tp701
aa(lp702
(VThat
VDT
tp703
a(Vis
VVBZ
tp704
a(Vyet
VRB
tp705
a(Vanother
VDT
tp706
a(Vreason
VNN
tp707
a(Vwhy
VWRB
tp708
a(Vthe
VDT
tp709
a(Vdeveloped
VJJ
tp710
a(Vcountries
VNNS
tp711
a(Vare
VVBP
tp712
a(Vduty
VNN
tp713
a(Vbound
VVBD
tp714
a(Vto
VTO
tp715
a(Vhelp
VVB
tp716
a(Vthese
VDT
tp717
a(Vcountries
VNNS
tp718
a(Vdevelop
VVBP
tp719
a(Vtheir
VPRP$
tp720
a(Vproductive
VJJ
tp721
a(Vbase
VNN
tp722
a(Vand
VCC
tp723
a(Vraise
VVB
tp724
a(Vthe
VDT
tp725
a(Vstandard
VNN
tp726
a(Vof
VIN
tp727
a(Vliving
VNN
tp728
a(Vof
VIN
tp729
a(Vtheir
VPRP$
tp730
a(Vinhabitants
VNNS
tp731
a(V.
V.
tp732
aa(lp733
(V60
VCD
tp734
a(Vmillion
VCD
tp735
a(Vpeople
VNNS
tp736
a(V,
V,
tp737
a(Vagain
VRB
tp738
a(Vin
VIN
tp739
a(Vsub-Saharan
VNNP
tp740
a(VAfrica
VNNP
tp741
a(V,
V,
tp742
a(Vare
VVBP
tp743
a(Vat
VIN
tp744
a(Vrisk
VNN
tp745
a(Vfrom
VIN
tp746
a(Vsleeping
VVBG
tp747
a(Vsickness
VNN
tp748
a(Vvia
VIN
tp749
a(Vthe
VDT
tp750
a(Vtsetse
VNN
tp751
a(Vfly
VNN
tp752
a(V.
V.
tp753
aa(lp754
(VTherefore
VRB
tp755
a(V,
V,
tp756
a(Vas
VIN
tp757
a(Vothers
VNNS
tp758
a(Vhave
VVBP
tp759
a(Vsaid
VVBN
tp760
a(V,
V,
tp761
a(Vit
VPRP
tp762
a(Vvery
VRB
tp763
a(Vmuch
VRB
tp764
a(Vharms
VVBZ
tp765
a(Vthe
VDT
tp766
a(VPalestinian
VJJ
tp767
a(Vcause
VNN
tp768
a(Vfor
VIN
tp769
a(Vhim
VPRP
tp770
a(Vnot
VRB
tp771
a(Vto
VTO
tp772
a(Vbe
VVB
tp773
a(Vdoing
VVBG
tp774
a(Vthe
VDT
tp775
a(Vjob
VNN
tp776
a(Vthat
VIN
tp777
a(Vhe
VPRP
tp778
a(Vloves
VVBZ
tp779
a(Vand
VCC
tp780
a(Vdoes
VVBZ
tp781
a(Vso
VRB
tp782
a(Vwell
VRB
tp783
a(V.
V.
tp784
aa(lp785
(VLastly
VRB
tp786
a(V,
V,
tp787
a(Vwith
VIN
tp788
a(Vregard
VNN
tp789
a(Vto
VTO
tp790
a(Vthe
VDT
tp791
a(Vinitiative
VNN
tp792
a(Von
VIN
tp793
a(Vthe
VDT
tp794
a(Vtransmission
VNN
tp795
a(Vof
VIN
tp796
a(Vpersonal
VJJ
tp797
a(Vdata
VNNS
tp798
a(V,
V,
tp799
a(Vthe
VDT
tp800
a(VCommission
VNNP
tp801
a(Vbroadly
VRB
tp802
a(Vsupports
VVBZ
tp803
a(Vthe
VDT
tp804
a(Vamendments
VNNS
tp805
a(VParliament
VNNP
tp806
a(Vhas
VVBZ
tp807
a(Vproposed
VVBN
tp808
a(V.
V.
tp809
aa(lp810
(VDecision-making
VJJ
tp811
a(Vby
VIN
tp812
a(Vmajority
VNN
tp813
a(Vvoting
VNN
tp814
a(V,
V,
tp815
a(Vfull
VJJ
tp816
a(Vparliamentary
VJJ
tp817
a(Vcontrol
VNN
tp818
a(V,
V,
tp819
a(Vit
VPRP
tp820
a(Vreally
VRB
tp821
a(Vwould
VMD
tp822
a(Vnot
VRB
tp823
a(Vbe
VVB
tp824
a(Vall
VPDT
tp825
a(Vthat
VDT
tp826
a(Vdifficult
VJJ
tp827
a(Vto
VTO
tp828
a(Vbring
VVB
tp829
a(Vthis
VDT
tp830
a(Vabout
VRB
tp831
a(V.
V.
tp832
aa(lp833
(VWhat
VWP
tp834
a(VI
VPRP
tp835
a(Vhave
VVBP
tp836
a(Vtold
VVBN
tp837
a(Vyou
VPRP
tp838
a(Vis
VVBZ
tp839
a(Vthat
VIN
tp840
a(Von
VIN
tp841
a(V25
VCD
tp842
a(VJanuary
VNNP
tp843
a(V,
V,
tp844
a(Vthe
VDT
tp845
a(Vagreement
VNN
tp846
a(Vwhich
VWDT
tp847
a(Vwill
VMD
tp848
a(Vcome
VVB
tp849
a(Vinto
VIN
tp850
a(Vforce
VNN
tp851
a(Vprovisionally
VRB
tp852
a(Von
VIN
tp853
a(V1
VCD
tp854
a(VFebruary
VNNP
tp855
a(Vwill
VMD
tp856
a(Vbe
VVB
tp857
a(Vin
VIN
tp858
a(Vthe
VDT
tp859
a(Vhands
VNNS
tp860
a(Vof
VIN
tp861
a(Vthe
VDT
tp862
a(VEuropean
VNNP
tp863
a(VParliament
VNNP
tp864
a(V.
V.
tp865
aa(lp866
(VWe
VPRP
tp867
a(Vshould
VMD
tp868
a(Vpause
VVB
tp869
a(Vfor
VIN
tp870
a(Vthought
VNN
tp871
a(Vbut
VCC
tp872
a(Vnot
VRB
tp873
a(Vbe
VVB
tp874
a(Vpassive
VJJ
tp875
a(V.
V.
tp876
aa(lp877
(VSyria
VNNP
tp878
a(Vhas
VVBZ
tp879
a(V,
V,
tp880
a(Vfor
VIN
tp881
a(Vmany
VJJ
tp882
a(Vyears
VNNS
tp883
a(V,
V,
tp884
a(Vbeen
VVBN
tp885
a(Va
VDT
tp886
a(Vdictatorship
VNN
tp887
a(Vthat
VWDT
tp888
a(Vwas
VVBD
tp889
a(Vrun
VVBN
tp890
a(Vby
VIN
tp891
a(Vthe
VDT
tp892
a(VEl-Assads
VNNP
tp893
a(V,
V,
tp894
a(Vboth
VDT
tp895
a(Vfather
VNN
tp896
a(Vand
VCC
tp897
a(Vson
VNN
tp898
a(V.
V.
tp899
aa(lp900
(VIt
VPRP
tp901
a(Vwill
VMD
tp902
a(Vdrown
VVB
tp903
a(Vthe
VDT
tp904
a(Vhopes
VNNS
tp905
a(Vof
VIN
tp906
a(Vdemocracy
VNN
tp907
a(Vin
VIN
tp908
a(Vthe
VDT
tp909
a(VMiddle
VNNP
tp910
a(VEast
VNNP
tp911
a(V.
V.
tp912
aa(lp913
(VEveryone
VNN
tp914
a(Vwants
VVBZ
tp915
a(Vas
VIN
tp916
a(Vlarge
VJJ
tp917
a(Va
VDT
tp918
a(Vslice
VNN
tp919
a(Vas
VIN
tp920
a(Vpossible
VJJ
tp921
a(Vof
VIN
tp922
a(Vthis
VDT
tp923
a(Vhuge
VJJ
tp924
a(Vcake
VNN
tp925
a(V.
V.
tp926
aa(lp927
(VI
VPRP
tp928
a(Vam
VVBP
tp929
a(Vvery
VRB
tp930
a(Vwell
VRB
tp931
a(Vacquainted
VVBN
tp932
a(Vwith
VIN
tp933
a(Vthe
VDT
tp934
a(Vworking
VNN
tp935
a(Vconditions
VNNS
tp936
a(Vand
VCC
tp937
a(Vsalaries
VNNS
tp938
a(Vof
VIN
tp939
a(VEuropean
VJJ
tp940
a(Vofficials
VNNS
tp941
a(V:
V:
tp942
a(Vthey
VPRP
tp943
a(Vearn
VVBP
tp944
a(V,
V,
tp945
a(Vcertainly
VRB
tp946
a(Vin
VIN
tp947
a(Vthe
VDT
tp948
a(Vhigher
VJJR
tp949
a(Vechelons
VNNS
tp950
a(V,
V,
tp951
a(Vmore
VJJR
tp952
a(Vthan
VIN
tp953
a(Va
VDT
tp954
a(Vminister
VNN
tp955
a(V,
V,
tp956
a(Vor
VCC
tp957
a(Veven
VRB
tp958
a(Va
VDT
tp959
a(Vprime
VJJ
tp960
a(Vminister
VNN
tp961
a(Vin
VIN
tp962
a(Vthe
VDT
tp963
a(Vnational
VJJ
tp964
a(VMember
VNNP
tp965
a(VStates
VNNPS
tp966
a(V,
V,
tp967
a(Vso
VRB
tp968
a(Vlet
VVB
tp969
a(Vus
VPRP
tp970
a(Vnot
VRB
tp971
a(Vexaggerate
VVB
tp972
a(V.
V.
tp973
aa(lp974
(VIt
VPRP
tp975
a(Vwas
VVBD
tp976
a(Va
VDT
tp977
a(Vvery
VRB
tp978
a(Vcontroversial
VJJ
tp979
a(Vamendment
VNN
tp980
a(V.
V.
tp981
aa(lp982
(VThe
VDT
tp983
a(Vhearing
VNN
tp984
a(Vwith
VIN
tp985
a(VMr
VNNP
tp986
a(VBusquin
VNNP
tp987
a(Vwas
VVBD
tp988
a(Vnot
VRB
tp989
a(Va
VDT
tp990
a(Vgreat
VJJ
tp991
a(Vsuccess
VNN
tp992
a(Vfor
VIN
tp993
a(Vthe
VDT
tp994
a(Vcandidate
VNN
tp995
a(V.
V.
tp996
aa(lp997
(VThe
VDT
tp998
a(Vtheory
VNN
tp999
a(Vof
VIN
tp1000
a(VLinus
VNNP
tp1001
a(VPauling
VNNP
tp1002
a(V,
V,
tp1003
a(Vwho
VWP
tp1004
a(Vbecame
VVBD
tp1005
a(Vrenowned
VJJ
tp1006
a(Vfor
VIN
tp1007
a(Vhis
VPRP$
tp1008
a(Vprotest
VNN
tp1009
a(Vagainst
VIN
tp1010
a(Vnuclear
VJJ
tp1011
a(Varms
VNNS
tp1012
a(V,
V,
tp1013
a(Vis
VVBZ
tp1014
a(Vinteresting
VJJ
tp1015
a(V.
V.
tp1016
aa(lp1017
(VWe
VPRP
tp1018
a(Valso
VRB
tp1019
a(Vwanted
VVBD
tp1020
a(Vto
VTO
tp1021
a(Vemphasise
VVB
tp1022
a(Vthe
VDT
tp1023
a(Vrole
VNN
tp1024
a(Vof
VIN
tp1025
a(Vlocal
VJJ
tp1026
a(Vactors
VNNS
tp1027
a(Vand
VCC
tp1028
a(Vcivil
VJJ
tp1029
a(Vsociety
VNN
tp1030
a(V.
V.
tp1031
aa(lp1032
(VI
VPRP
tp1033
a(Vhope
VVBP
tp1034
a(Vthat
VIN
tp1035
a(Vit
VPRP
tp1036
a(Vwill
VMD
tp1037
a(Vcontinue
VVB
tp1038
a(Vto
VTO
tp1039
a(Vbe
VVB
tp1040
a(Vsuperfluous
VJJ
tp1041
a(Vbecause
VIN
tp1042
a(Vpatients
VNNS
tp1043
a(Vwill
VMD
tp1044
a(Vnot
VRB
tp1045
a(Vneed
VVB
tp1046
a(Vto
VTO
tp1047
a(Vmake
VVB
tp1048
a(Vuse
VNN
tp1049
a(Vof
VIN
tp1050
a(Vit
VPRP
tp1051
a(V.
V.
tp1052
aa(lp1053
(VThe
VDT
tp1054
a(VEIT
VNNP
tp1055
a(Vtitle
VNN
tp1056
a(Vmust
VMD
tp1057
a(Vbe
VVB
tp1058
a(Vdesired
VVBN
tp1059
a(V.
V.
tp1060
aa(lp1061
(VThe
VDT
tp1062
a(Vbreakdown
VNN
tp1063
a(Vof
VIN
tp1064
a(Vthe
VDT
tp1065
a(Vfamily
VNN
tp1066
a(Vand
VCC
tp1067
a(Vof
VIN
tp1068
a(Vfamily
VNN
tp1069
a(Vlife
VNN
tp1070
a(Vare
VVBP
tp1071
a(Vamong
VIN
tp1072
a(Vthe
VDT
tp1073
a(Vgreatest
VJJS
tp1074
a(Vand
VCC
tp1075
a(Vmost
VRBS
tp1076
a(Vserious
VJJ
tp1077
a(Vchallenges
VNNS
tp1078
a(Vand
VCC
tp1079
a(Vthreats
VNNS
tp1080
a(Vfaced
VVBN
tp1081
a(Vby
VIN
tp1082
a(VEurope
VNNP
tp1083
a(V.
V.
tp1084
aa(lp1085
(VThere
VEX
tp1086
a(Vare
VVBP
tp1087
a(Valso
VRB
tp1088
a(Vpoints
VNNS
tp1089
a(Von
VIN
tp1090
a(Vwhich
VWDT
tp1091
a(Vwe
VPRP
tp1092
a(Vhave
VVBP
tp1093
a(Vdisagreed
VVBN
tp1094
a(Vwith
VIN
tp1095
a(Vthe
VDT
tp1096
a(Vconsultants
VNNS
tp1097
a(V&apos;
VVBP
tp1098
a(Vproposals
VNNS
tp1099
a(V.
V.
tp1100
aa(lp1101
(VWe
VPRP
tp1102
a(Vbear
VVBP
tp1103
a(Vno
VDT
tp1104
a(Vill-will
VNN
tp1105
a(Vto
VTO
tp1106
a(Vthe
VDT
tp1107
a(Vpeople
VNNS
tp1108
a(Vof
VIN
tp1109
a(Vthe
VDT
tp1110
a(Vnew
VJJ
tp1111
a(VMember
VNNP
tp1112
a(VStates
VNNPS
tp1113
a(V.
V.
tp1114
aa(lp1115
(VWe
VPRP
tp1116
a(V,
V,
tp1117
a(Vthough
VRB
tp1118
a(V,
V,
tp1119
a(Vwant
VVBP
tp1120
a(Vimmigration
VNN
tp1121
a(Vto
VTO
tp1122
a(Vbe
VVB
tp1123
a(Vproperly
VRB
tp1124
a(Vcontrolled
VVBN
tp1125
a(V.
V.
tp1126
aa(lp1127
(VMr
VNNP
tp1128
a(VPresident
VNNP
tp1129
a(V,
V,
tp1130
a(VI
VPRP
tp1131
a(Vhave
VVBP
tp1132
a(Vvoted
VVBN
tp1133
a(Vin
VIN
tp1134
a(Vfavour
VNN
tp1135
a(Vof
VIN
tp1136
a(Vwhat
VWP
tp1137
a(V,
V,
tp1138
a(Vfor
VIN
tp1139
a(Vthe
VDT
tp1140
a(Vsake
VNN
tp1141
a(Vof
VIN
tp1142
a(Vconvenience
VNN
tp1143
a(V,
V,
tp1144
a(VI
VPRP
tp1145
a(Vwill
VMD
tp1146
a(Vrefer
VVB
tp1147
a(Vto
VTO
tp1148
a(Vas
VIN
tp1149
a(Vthe
VDT
tp1150
a(Vpackage
VNN
tp1151
a(Vof
VIN
tp1152
a(Vthe
VDT
tp1153
a(Vtrialogue
VNN
tp1154
a(V.
V.
tp1155
aa(lp1156
(VIn
VIN
tp1157
a(Vthis
VDT
tp1158
a(Vregard
VNN
tp1159
a(V,
V,
tp1160
a(Vwe
VPRP
tp1161
a(Vare
VVBP
tp1162
a(Vgrateful
VJJ
tp1163
a(Vfor
VIN
tp1164
a(VParliament
VNNP
tp1165
a(V\u2019
VCD
tp1166
a(Vs
VNNS
tp1167
a(Vsupport
VVBP
tp1168
a(Vin
VIN
tp1169
a(Vseeking
VVBG
tp1170
a(Van
VDT
tp1171
a(Vadequate
VJJ
tp1172
a(Vshare
VNN
tp1173
a(Vfor
VIN
tp1174
a(Vthe
VDT
tp1175
a(VCommission
VNNP
tp1176
a(Vallocation
VNN
tp1177
a(V.
V.
tp1178
aa(lp1179
(VThe
VDT
tp1180
a(Vmost
VRBS
tp1181
a(Vpertinent
VJJ
tp1182
a(Vissue
VNN
tp1183
a(Vin
VIN
tp1184
a(V2011
VCD
tp1185
a(Vwill
VMD
tp1186
a(Vstill
VRB
tp1187
a(Vbe
VVB
tp1188
a(Vthe
VDT
tp1189
a(Vunemployment
VNN
tp1190
a(Vthat
VWDT
tp1191
a(Vis
VVBZ
tp1192
a(Vrampant
VJJ
tp1193
a(Vin
VIN
tp1194
a(Vthe
VDT
tp1195
a(VEU
VNNP
tp1196
a(V.
V.
tp1197
aa(lp1198
(VThe
VDT
tp1199
a(VPalestinians
VNNPS
tp1200
a(Vare
VVBP
tp1201
a(Vwaging
VVBG
tp1202
a(Va
VDT
tp1203
a(Vwar
VNN
tp1204
a(Vthat
VIN
tp1205
a(Vthey
VPRP
tp1206
a(Vcannot
VVBP
tp1207
a(Vwin
VVB
tp1208
a(V.
V.
tp1209
aa(lp1210
(VThis
VDT
tp1211
a(Vsection
VNN
tp1212
a(Vis
VVBZ
tp1213
a(Vpoorly
VRB
tp1214
a(Vdrafted
VVBN
tp1215
a(Vand
VCC
tp1216
a(Vambiguous
VJJ
tp1217
a(V.
V.
tp1218
aa(lp1219
(VThe
VDT
tp1220
a(Vhistory
VNN
tp1221
a(Vof
VIN
tp1222
a(VEurope
VNNP
tp1223
a(Vas
VIN
tp1224
a(Va
VDT
tp1225
a(Vwhole
VJJ
tp1226
a(V,
V,
tp1227
a(Vgive
VVB
tp1228
a(Vor
VCC
tp1229
a(Vtake
VVB
tp1230
a(Va
VDT
tp1231
a(Vcentury
VNN
tp1232
a(V,
V,
tp1233
a(Vis
VVBZ
tp1234
a(Vfull
VJJ
tp1235
a(Vof
VIN
tp1236
a(Vdifferent
VJJ
tp1237
a(Vkinds
VNNS
tp1238
a(Vof
VIN
tp1239
a(Vworks
VNNS
tp1240
a(Vwhich
VWDT
tp1241
a(Vhave
VVBP
tp1242
a(Vsurvived
VVBN
tp1243
a(Vthe
VDT
tp1244
a(Vpassage
VNN
tp1245
a(Vof
VIN
tp1246
a(Vtime
VNN
tp1247
a(Vbecause
VIN
tp1248
a(Vof
VIN
tp1249
a(Vtheir
VPRP$
tp1250
a(Vartistic
VJJ
tp1251
a(Vvalue
VNN
tp1252
a(V.
V.
tp1253
aa(lp1254
(VWe
VPRP
tp1255
a(Vare
VVBP
tp1256
a(Vwaiting
VVBG
tp1257
a(Vfor
VIN
tp1258
a(Vprecise
VJJ
tp1259
a(V,
V,
tp1260
a(Vproven
VJJ
tp1261
a(V,
V,
tp1262
a(Vdiscussed
VVBN
tp1263
a(Vand
VCC
tp1264
a(Vwritten
VVBN
tp1265
a(Vresults
VNNS
tp1266
a(V.
V.
tp1267
aa(lp1268
(VIts
VPRP$
tp1269
a(Vaim
VNN
tp1270
a(Vis
VVBZ
tp1271
a(Vthe
VDT
tp1272
a(Vachievement
VNN
tp1273
a(Vof
VIN
tp1274
a(V&apos;
VRB
tp1275
a(Vgood
VJJ
tp1276
a(Venvironmental
VJJ
tp1277
a(Vstatus
VNN
tp1278
a(V&apos;
VNN
tp1279
a(Vby
VIN
tp1280
a(Vthe
VDT
tp1281
a(Vyear
VNN
tp1282
a(V2021
VCD
tp1283
a(V.
V.
tp1284
aa(lp1285
(VIn
VIN
tp1286
a(VDecember
VNNP
tp1287
a(Vhe
VPRP
tp1288
a(Valso
VRB
tp1289
a(Vwent
VVBD
tp1290
a(Von
VIN
tp1291
a(Vhis
VPRP$
tp1292
a(Vfirst
VJJ
tp1293
a(Vmission
VNN
tp1294
a(Vto
VTO
tp1295
a(VChina
VNNP
tp1296
a(V.
V.
tp1297
aa(lp1298
(VThat
VDT
tp1299
a(Vis
VVBZ
tp1300
a(Vcontrary
VJJ
tp1301
a(Vto
VTO
tp1302
a(Vfact
VNN
tp1303
a(V.
V.
tp1304
aa(lp1305
(VBy
VIN
tp1306
a(VJune
VNNP
tp1307
a(V2011
VCD
tp1308
a(Vthe
VDT
tp1309
a(VCommission
VNNP
tp1310
a(Vwill
VMD
tp1311
a(Vassess
VVB
tp1312
a(Vthe
VDT
tp1313
a(Vsituation
VNN
tp1314
a(Vin
VIN
tp1315
a(Vthese
VDT
tp1316
a(Venergy-intensive
VJJ
tp1317
a(Vindustries
VNNS
tp1318
a(V.
V.
tp1319
aa(lp1320
(VOn
VIN
tp1321
a(Vwhose
VWP$
tp1322
a(Vauthority
VNN
tp1323
a(Vhave
VVBP
tp1324
a(Vnautical
VJJ
tp1325
a(Vmiles
VNNS
tp1326
a(Vsuddenly
VRB
tp1327
a(Vbecome
VVBP
tp1328
a(Vkilometres
VNNS
tp1329
a(Von
VIN
tp1330
a(Vthose
VDT
tp1331
a(Vmaps
VNNS
tp1332
a(V?
V.
tp1333
aa(lp1334
(VSimilar
VJJ
tp1335
a(Vmeasures
VNNS
tp1336
a(Vhave
VVBP
tp1337
a(Valready
VRB
tp1338
a(Vbeen
VVBN
tp1339
a(Vput
VVBN
tp1340
a(Vin
VIN
tp1341
a(Vplace
VNN
tp1342
a(Vin
VIN
tp1343
a(Vother
VJJ
tp1344
a(Vsectors
VNNS
tp1345
a(V.
V.
tp1346
aa(lp1347
(VI
VPRP
tp1348
a(Vshould
VMD
tp1349
a(Vlike
VVB
tp1350
a(Vto
VTO
tp1351
a(Vtake
VVB
tp1352
a(Vup
VRP
tp1353
a(Vthat
VDT
tp1354
a(Vkeyword
VNN
tp1355
a(V,
V,
tp1356
a(VChina
VNNP
tp1357
a(V.
V.
tp1358
a(VWe
VPRP
tp1359
a(Vmust
VMD
tp1360
a(Vdenounce
VVB
tp1361
a(Vthe
VDT
tp1362
a(Vcomplete
VJJ
tp1363
a(Vinadequacy
VNN
tp1364
a(Vof
VIN
tp1365
a(Vthe
VDT
tp1366
a(Vaction
VNN
tp1367
a(Vtaken
VVBN
tp1368
a(Vby
VIN
tp1369
a(Vthe
VDT
tp1370
a(VChinese
VJJ
tp1371
a(VGovernment
VNN
tp1372
a(Vhere
VRB
tp1373
a(V.
V.
tp1374
aa(lp1375
(VThey
VPRP
tp1376
a(Vmight
VMD
tp1377
a(Vnot
VRB
tp1378
a(Vhave
VVB
tp1379
a(Vmuch
VRB
tp1380
a(Vin
VIN
tp1381
a(Vcommon
VJJ
tp1382
a(Vat
VIN
tp1383
a(Vfirst
VJJ
tp1384
a(Vglance
VNN
tp1385
a(Vuntil
VIN
tp1386
a(Vyou
VPRP
tp1387
a(Vconsider
VVBP
tp1388
a(Vthe
VDT
tp1389
a(Vtitle
VNN
tp1390
a(Vof
VIN
tp1391
a(Vone
VCD
tp1392
a(Vof
VIN
tp1393
a(Vthe
VDT
tp1394
a(VBeatles
VNNP
tp1395
a(V&apos;
VNN
tp1396
a(Vsongs
VNNS
tp1397
a(V,
V,
tp1398
a(VBack
VRB
tp1399
a(Vin
VIN
tp1400
a(Vthe
VDT
tp1401
a(VUSSR
VNNP
tp1402
a(V.
V.
tp1403
aa(lp1404
(VThe
VDT
tp1405
a(Vintroduction
VNN
tp1406
a(Vof
VIN
tp1407
a(Vthese
VDT
tp1408
a(Vsystems
VNNS
tp1409
a(Vneeds
VVBZ
tp1410
a(Vto
VTO
tp1411
a(Vbe
VVB
tp1412
a(Vsuccessfully
VRB
tp1413
a(Vcompleted
VVBN
tp1414
a(Vas
VIN
tp1415
a(Va
VDT
tp1416
a(Vmatter
VNN
tp1417
a(Vof
VIN
tp1418
a(Vurgency
VNN
tp1419
a(V.
V.
tp1420
aa(lp1421
(VCan
VMD
tp1422
a(Vadvertising
VNN
tp1423
a(Vbe
VVB
tp1424
a(Vtargeted
VVBN
tp1425
a(Vat
VIN
tp1426
a(Vjust
VRB
tp1427
a(Vone
VCD
tp1428
a(Vgroup
VNN
tp1429
a(V?
V.
tp1430
aa(lp1431
(VThat
VDT
tp1432
a(Vis
VVBZ
tp1433
a(Vwelcome
VJJ
tp1434
a(Vin
VIN
tp1435
a(Vthe
VDT
tp1436
a(Vsense
VNN
tp1437
a(Vthat
VIN
tp1438
a(Vit
VPRP
tp1439
a(Vwill
VMD
tp1440
a(Vboost
VVB
tp1441
a(Vthe
VDT
tp1442
a(Vbudget
VNN
tp1443
a(Vof
VIN
tp1444
a(Vthe
VDT
tp1445
a(Vhealthcare
VNN
tp1446
a(Vsystem
VNN
tp1447
a(Vin
VIN
tp1448
a(VPoland
VNNP
tp1449
a(V,
V,
tp1450
a(Vprovided
VVBD
tp1451
a(Vthat
VIN
tp1452
a(Vit
VPRP
tp1453
a(Vis
VVBZ
tp1454
a(Vnot
VRB
tp1455
a(Vat
VIN
tp1456
a(Vthe
VDT
tp1457
a(Vcost
VNN
tp1458
a(Vof
VIN
tp1459
a(VPolish
VJJ
tp1460
a(Vpatients
VNNS
tp1461
a(V.
V.
tp1462
aa(lp1463
(VThere
VRB
tp1464
a(V,
V,
tp1465
a(Vtoo
VRB
tp1466
a(V,
V,
tp1467
a(Vthere
VEX
tp1468
a(Vare
VVBP
tp1469
a(Vsecular
VJJ
tp1470
a(Vand
VCC
tp1471
a(Vliberal
VJJ
tp1472
a(Vforces
VNNS
tp1473
a(V.
V.
tp1474
aa(lp1475
(VIn
VIN
tp1476
a(Vshort
VJJ
tp1477
a(V,
V,
tp1478
a(Vwith
VIN
tp1479
a(Vthe
VDT
tp1480
a(Voutcome
VNN
tp1481
a(Vof
VIN
tp1482
a(VSaturday
VNNP
tp1483
a(Vevening
VNN
tp1484
a(V,
V,
tp1485
a(VEurope
VNNP
tp1486
a(Vwill
VMD
tp1487
a(Vfind
VVB
tp1488
a(Va
VDT
tp1489
a(Vnew
VJJ
tp1490
a(V,
V,
tp1491
a(Vcommon
VJJ
tp1492
a(Venergy
VNN
tp1493
a(V.
V.
tp1494
aa(lp1495
(VJoint
VNNP
tp1496
a(Vmotion
VNN
tp1497
a(Vfor
VIN
tp1498
a(Vresolution
VNN
tp1499
a(Von
VIN
tp1500
a(Vthe
VDT
tp1501
a(VThird
VNNP
tp1502
a(VMinisterial
VNNP
tp1503
a(VConference
VNNP
tp1504
a(Vof
VIN
tp1505
a(Vthe
VDT
tp1506
a(VWorld
VNNP
tp1507
a(VTrade
VNNP
tp1508
a(VOrganisation
VNNP
tp1509
a(Vin
VIN
tp1510
a(VSeattle
VNNP
tp1511
aa(lp1512
(VThat
VDT
tp1513
a(Vis
VVBZ
tp1514
a(Vthe
VDT
tp1515
a(Vkey
VJJ
tp1516
a(Vquestion
VNN
tp1517
a(Vapproximately
VRB
tp1518
a(Vten
VCD
tp1519
a(Vyears
VNNS
tp1520
a(Von
VIN
tp1521
a(Vfrom
VIN
tp1522
a(Vthe
VDT
tp1523
a(Vstart
VNN
tp1524
a(Vof
VIN
tp1525
a(Vliberalisation
VNN
tp1526
a(Vwithin
VIN
tp1527
a(Vthat
VDT
tp1528
a(Vsector
VNN
tp1529
a(V.
V.
tp1530
aa(lp1531
(VLife
VNNP
tp1532
a(Vis
VVBZ
tp1533
a(Vsacred
VJJ
tp1534
a(Vand
VCC
tp1535
a(Vno-one
VNN
tp1536
a(V,
V,
tp1537
a(Vnot
VRB
tp1538
a(Veven
VRB
tp1539
a(Va
VDT
tp1540
a(VState
VNN
tp1541
a(V,
V,
tp1542
a(Vmay
VMD
tp1543
a(Vkill
VVB
tp1544
a(V.
V.
tp1545
aa(lp1546
(VYou
VPRP
tp1547
a(Vwere
VVBD
tp1548
a(Vhere
VRB
tp1549
a(Von
VIN
tp1550
a(VMonday
VNNP
tp1551
a(Vevening
VNN
tp1552
a(Vand
VCC
tp1553
a(Vlistened
VVBD
tp1554
a(Vto
VTO
tp1555
a(Vthe
VDT
tp1556
a(Vdebate
VNN
tp1557
a(Von
VIN
tp1558
a(VTurkey
VNNP
tp1559
a(V.
V.
tp1560
aa(lp1561
(VThis
VDT
tp1562
a(Vwill
VMD
tp1563
a(Vprevent
VVB
tp1564
a(Vany
VDT
tp1565
a(Vrecurrence
VNN
tp1566
a(Vof
VIN
tp1567
a(Vsuch
VJJ
tp1568
a(Vregimes
VNNS
tp1569
a(V.
V.
tp1570
aa(lp1571
(VIt
VPRP
tp1572
a(Vis
VVBZ
tp1573
a(Va
VDT
tp1574
a(Vmatter
VNN
tp1575
a(Vfor
VIN
tp1576
a(Vthe
VDT
tp1577
a(Vfree
VJJ
tp1578
a(Vmarket
VNN
tp1579
a(V.
V.
tp1580
aa(lp1581
(VI
VPRP
tp1582
a(Vtherefore
VRB
tp1583
a(Vbelieve
VVBP
tp1584
a(Vwe
VPRP
tp1585
a(Vhave
VVBP
tp1586
a(Va
VDT
tp1587
a(Vresponsibility
VNN
tp1588
a(V,
V,
tp1589
a(Vwhich
VWDT
tp1590
a(Vat
VIN
tp1591
a(Vthe
VDT
tp1592
a(Vsame
VJJ
tp1593
a(Vtime
VNN
tp1594
a(Vis
VVBZ
tp1595
a(Van
VDT
tp1596
a(Vopportunity
VNN
tp1597
a(V.
V.
tp1598
aa(lp1599
(VFinally
VRB
tp1600
a(V,
V,
tp1601
a(VI
VPRP
tp1602
a(Vhope
VVBP
tp1603
a(Vthat
VIN
tp1604
a(Vthe
VDT
tp1605
a(Vboldness
VNN
tp1606
a(Vand
VCC
tp1607
a(Vbrilliance
VNN
tp1608
a(Vof
VIN
tp1609
a(Vour
VPRP$
tp1610
a(VEuropean
VJJ
tp1611
a(Vmanufacturers
VNNS
tp1612
a(Vwill
VMD
tp1613
a(Venable
VVB
tp1614
a(Vthem
VPRP
tp1615
a(Vto
VTO
tp1616
a(Vsubmit
VVB
tp1617
a(Vto
VTO
tp1618
a(Vthis
VDT
tp1619
a(Vpolitical
VJJ
tp1620
a(Vcompromise
VNN
tp1621
a(V,
V,
tp1622
a(Vproving
VVBG
tp1623
a(Vonce
VRB
tp1624
a(Vagain
VRB
tp1625
a(Vtheir
VPRP$
tp1626
a(Vhuge
VJJ
tp1627
a(Vcapacity
VNN
tp1628
a(Vfor
VIN
tp1629
a(Vtechnological
VJJ
tp1630
a(Vadaptation
VNN
tp1631
a(V.
V.
tp1632
aa(lp1633
(VCounterfeiting
VVBG
tp1634
a(Vis
VVBZ
tp1635
a(Va
VDT
tp1636
a(Vgrowing
VVBG
tp1637
a(Vparallel
VNN
tp1638
a(Veconomy
VNN
tp1639
a(Vand
VCC
tp1640
a(Vone
VCD
tp1641
a(Vthat
VWDT
tp1642
a(Vallows
VVBZ
tp1643
a(Vfor
VIN
tp1644
a(Vlarge-scale
VJJ
tp1645
a(Vmoney
VNN
tp1646
a(Vlaundering
VNN
tp1647
a(V.
V.
tp1648
aa(lp1649
(VOne
VCD
tp1650
a(Vof
VIN
tp1651
a(Vmy
VPRP$
tp1652
a(Vbeliefs
VNNS
tp1653
a(V(
VCD
tp1654
a(Vand
VCC
tp1655
a(VI
VPRP
tp1656
a(Vam
VVBP
tp1657
a(Vnot
VRB
tp1658
a(Vsaying
VVBG
tp1659
a(Vthis
VDT
tp1660
a(Vjust
VRB
tp1661
a(Vto
VTO
tp1662
a(Vappease
VVB
tp1663
a(Vthe
VDT
tp1664
a(Vwomen
VNNS
tp1665
a(Vhere
VRB
tp1666
a(V!
V.
tp1667
a(V)
VCD
tp1668
a(Vis
VVBZ
tp1669
a(Vthat
VIN
tp1670
a(Vin
VIN
tp1671
a(Vhuman
VJJ
tp1672
a(Vhistory
VNN
tp1673
a(V,
V,
tp1674
a(Vin
VIN
tp1675
a(Vthe
VDT
tp1676
a(Vearliest
VJJS
tp1677
a(Vperiods
VNNS
tp1678
a(V,
V,
tp1679
a(Vthere
VEX
tp1680
a(Vwas
VVBD
tp1681
a(Vno
VDT
tp1682
a(Vconcept
VNN
tp1683
a(Vof
VIN
tp1684
a(Vleaders
VNNS
tp1685
a(V.
V.
tp1686
aa(lp1687
(VHowever
VRB
tp1688
a(V,
V,
tp1689
a(Vwe
VPRP
tp1690
a(Vare
VVBP
tp1691
a(Vstill
VRB
tp1692
a(Vplaying
VVBG
tp1693
a(Vcatch-up
VNN
tp1694
a(V.
V.
tp1695
aa(lp1696
(VI
VPRP
tp1697
a(Vhave
VVBP
tp1698
a(Vbeen
VVBN
tp1699
a(Vunder
VIN
tp1700
a(Vthe
VDT
tp1701
a(Vdistinct
VJJ
tp1702
a(Vimpression
VNN
tp1703
a(Vfor
VIN
tp1704
a(Vfour
VCD
tp1705
a(Vand
VCC
tp1706
a(Va
VDT
tp1707
a(Vhalf
VNN
tp1708
a(Vyears
VNNS
tp1709
a(Vthat
VWDT
tp1710
a(VMr
VNNP
tp1711
a(VSamland
VNNP
tp1712
a(Vcould
VMD
tp1713
a(Vturn
VVB
tp1714
a(Vwater
VNN
tp1715
a(Vinto
VIN
tp1716
a(Vwine
VNN
tp1717
a(V.
V.
tp1718
aa(lp1719
(VFighting
VNN
tp1720
a(Vcolorectal
VJJ
tp1721
a(Vcancer
VNN
tp1722
a(Vin
VIN
tp1723
a(Vthe
VDT
tp1724
a(VEuropean
VNNP
tp1725
a(VUnion
VNNP
tp1726
a(V(
VNN
tp1727
a(Vwritten
VVBN
tp1728
a(Vdeclaration
VNN
tp1729
a(V)
VNN
tp1730
aa(lp1731
(VBut
VCC
tp1732
a(Vit
VPRP
tp1733
a(Vis
VVBZ
tp1734
a(Vgood
VJJ
tp1735
a(Vto
VTO
tp1736
a(Vhave
VVB
tp1737
a(Vhim
VPRP
tp1738
a(Vin
VIN
tp1739
a(Vthe
VDT
tp1740
a(Vcenturion
VNN
tp1741
a(Vclub
VNN
tp1742
a(V.
V.
tp1743
aa(lp1744
(VRecently
VRB
tp1745
a(VAnatoly
VNNP
tp1746
a(VYermolin
VNNP
tp1747
a(V,
V,
tp1748
a(Va
VDT
tp1749
a(Vdeputy
VNN
tp1750
a(Vin
VIN
tp1751
a(Vthe
VDT
tp1752
a(VRussian
VJJ
tp1753
a(VDuma
VNNP
tp1754
a(V,
V,
tp1755
a(Vspoke
VVBD
tp1756
a(Vin
VIN
tp1757
a(Vthe
VDT
tp1758
a(VEuropean
VNNP
tp1759
a(VParliament
VNNP
tp1760
a(Vand
VCC
tp1761
a(Vreminded
VVBD
tp1762
a(Vus
VPRP
tp1763
a(Vof
VIN
tp1764
a(Vthe
VDT
tp1765
a(Vattack
VNN
tp1766
a(Von
VIN
tp1767
a(VMikhail
VNNP
tp1768
a(VKhodorkovsky
VNNP
tp1769
a(V.
V.
tp1770
aa(lp1771
(VI
VPRP
tp1772
a(Vam
VVBP
tp1773
a(Valso
VRB
tp1774
a(Vangry
VJJ
tp1775
a(Vto
VTO
tp1776
a(Vsee
VVB
tp1777
a(Vhow
VWRB
tp1778
a(Vmy
VPRP$
tp1779
a(Vsocial
VJJ
tp1780
a(Vdemocrat
VNN
tp1781
a(Vcolleagues
VNNS
tp1782
a(Vhave
VVBP
tp1783
a(Vchanged
VVBN
tp1784
a(Vtheir
VPRP$
tp1785
a(Vtune
VNN
tp1786
a(V,
V,
tp1787
a(Vas
VIN
tp1788
a(Vthey
VPRP
tp1789
a(Vabstained
VVBD
tp1790
a(Vfrom
VIN
tp1791
a(Vvoting
VVBG
tp1792
a(Vwhen
VWRB
tp1793
a(Vthe
VDT
tp1794
a(Vlaw
VNN
tp1795
a(Vwas
VVBD
tp1796
a(Vgoing
VVBG
tp1797
a(Vthrough
VIN
tp1798
a(Vthe
VDT
tp1799
a(VAustrian
VJJ
tp1800
a(VParliament
VNNP
tp1801
a(Vand
VCC
tp1802
a(Vhere
VRB
tp1803
a(Vthey
VPRP
tp1804
a(Vare
VVBP
tp1805
a(Vdoing
VVBG
tp1806
a(Vthe
VDT
tp1807
a(Vopposite
VNN
tp1808
a(V.
V.
tp1809
aa(lp1810
(VThe
VDT
tp1811
a(Vofficial
VJJ
tp1812
a(Vact
VNN
tp1813
a(V,
V,
tp1814
a(Vby
VIN
tp1815
a(Vwhich
VWDT
tp1816
a(Vthe
VDT
tp1817
a(Vschool
VNN
tp1818
a(Vwas
VVBD
tp1819
a(Vclosed
VVBN
tp1820
a(Vdown
VRB
tp1821
a(V,
V,
tp1822
a(Vmust
VMD
tp1823
a(Vbe
VVB
tp1824
a(Vwithdrawn
VVBN
tp1825
a(V.
V.
tp1826
aa(lp1827
(VInstead
VRB
tp1828
a(V,
V,
tp1829
a(Vthe
VDT
tp1830
a(VWalt
VNNP
tp1831
a(VDisney
VNNP
tp1832
a(Vcompany
VNN
tp1833
a(Vasserted
VVBD
tp1834
a(Vits
VPRP$
tp1835
a(Vrights
VNNS
tp1836
a(Vover
VIN
tp1837
a(VMickey
VNNP
tp1838
a(VMouse
VNNP
tp1839
a(V,
V,
tp1840
a(Vand
VCC
tp1841
a(Vat
VIN
tp1842
a(Vthe
VDT
tp1843
a(Vend
VNN
tp1844
a(Vof
VIN
tp1845
a(Vthe
VDT
tp1846
a(Vseries
VNN
tp1847
a(V,
V,
tp1848
a(VMickey
VNNP
tp1849
a(VMouse
VNNP
tp1850
a(Vwas
VVBD
tp1851
a(Vkilled
VVBN
tp1852
a(Voff
VRP
tp1853
a(Vby
VIN
tp1854
a(Va
VDT
tp1855
a(VJewish
VJJ
tp1856
a(Vsettler
VNN
tp1857
a(V.
V.
tp1858
aa(lp1859
(VI
VPRP
tp1860
a(Vam
VVBP
tp1861
a(Vsure
VJJ
tp1862
a(Vit
VPRP
tp1863
a(Vwill
VMD
tp1864
a(Vhold
VVB
tp1865
a(Vhigh
VJJ
tp1866
a(Vthe
VDT
tp1867
a(Vtorch
VNN
tp1868
a(Vof
VIN
tp1869
a(Vthe
VDT
tp1870
a(VEuropean
VJJ
tp1871
a(Vdream
VNN
tp1872
a(Vof
VIN
tp1873
a(Vpeace
VNN
tp1874
a(V,
V,
tp1875
a(Vthe
VDT
tp1876
a(VEuropean
VJJ
tp1877
a(Vdream
VNN
tp1878
a(Vof
VIN
tp1879
a(Vfreedom
VNN
tp1880
a(V,
V,
tp1881
a(Vand
VCC
tp1882
a(Vthe
VDT
tp1883
a(Vaim
VNN
tp1884
a(Vof
VIN
tp1885
a(Van
VDT
tp1886
a(Vever
VRB
tp1887
a(Vstronger
VJJR
tp1888
a(VUnion
VNNP
tp1889
a(V.
V.
tp1890
aa(lp1891
(VParticularly
VRB
tp1892
a(Vin
VIN
tp1893
a(Vthis
VDT
tp1894
a(Varea
VNN
tp1895
a(V,
V,
tp1896
a(Vit
VPRP
tp1897
a(Vis
VVBZ
tp1898
a(Volder
VJJR
tp1899
a(Vemployees
VNNS
tp1900
a(Vwho
VWP
tp1901
a(Vhave
VVBP
tp1902
a(Va
VDT
tp1903
a(Vwealth
VNN
tp1904
a(Vof
VIN
tp1905
a(Vexperience
VNN
tp1906
a(Vand
VCC
tp1907
a(Vcan
VMD
tp1908
a(Vmake
VVB
tp1909
a(Va
VDT
tp1910
a(Vcompany
VNN
tp1911
a(Vinnovative
VJJ
tp1912
a(V.
V.
tp1913
aa(lp1914
(VIndeed
VRB
tp1915
a(V,
V,
tp1916
a(Vit
VPRP
tp1917
a(Vis
VVBZ
tp1918
a(Vhard
VJJ
tp1919
a(Vto
VTO
tp1920
a(Vaccept
VVB
tp1921
a(Vthat
VIN
tp1922
a(Vthe
VDT
tp1923
a(Vcountries
VNNS
tp1924
a(Vbeing
VVBG
tp1925
a(Vgiven
VVBN
tp1926
a(Vthese
VDT
tp1927
a(Vfunds
VNNS
tp1928
a(Vare
VVBP
tp1929
a(Vunable
VJJ
tp1930
a(Vto
VTO
tp1931
a(Vuse
VVB
tp1932
a(Vthem
VPRP
tp1933
a(V.
V.
tp1934
aa(lp1935
(VMedia
VNNP
tp1936
a(Vand
VCC
tp1937
a(Vpolitical
VJJ
tp1938
a(Vcircles
VNNS
tp1939
a(Vare
VVBP
tp1940
a(Vwarning
VVBG
tp1941
a(Vthat
VIN
tp1942
a(Vthe
VDT
tp1943
a(VPalestinians
VNNPS
tp1944
a(Vcould
VMD
tp1945
a(Vwaste
VVB
tp1946
a(Vthe
VDT
tp1947
a(Vhistoric
VJJ
tp1948
a(Vopportunity
VNN
tp1949
a(Vof
VIN
tp1950
a(Vbeing
VVBG
tp1951
a(Vable
VJJ
tp1952
a(Vto
VTO
tp1953
a(Vnegotiate
VVB
tp1954
a(Vwith
VIN
tp1955
a(Va
VDT
tp1956
a(VPrime
VNNP
tp1957
a(VMinister
VNNP
tp1958
a(Vsuch
VJJ
tp1959
a(Vas
VIN
tp1960
a(VEhud
VNNP
tp1961
a(VBarak
VNNP
tp1962
a(V,
V,
tp1963
a(Vwho
VWP
tp1964
a(Vhas
VVBZ
tp1965
a(Vdared
VVBN
tp1966
a(Vto
VTO
tp1967
a(Vput
VVB
tp1968
a(Vthe
VDT
tp1969
a(Vissue
VNN
tp1970
a(Vof
VIN
tp1971
a(VJerusalem
VNNP
tp1972
a(Von
VIN
tp1973
a(Vthe
VDT
tp1974
a(Vtable
VNN
tp1975
a(Vopenly
VRB
tp1976
a(V.
V.
tp1977
aa(lp1978
(VFor
VIN
tp1979
a(Vexample
VNN
tp1980
a(V,
V,
tp1981
a(Vaid
VNN
tp1982
a(Vmight
VMD
tp1983
a(Vbe
VVB
tp1984
a(Vgiven
VVBN
tp1985
a(Vto
VTO
tp1986
a(Vthe
VDT
tp1987
a(Vresearch
VNN
tp1988
a(Vsector
VNN
tp1989
a(V,
V,
tp1990
a(Vthen
VRB
tp1991
a(Vto
VTO
tp1992
a(Vanother
VDT
tp1993
a(Vcompany
VNN
tp1994
a(Vcollaborating
VVBG
tp1995
a(Vin
VIN
tp1996
a(Vthe
VDT
tp1997
a(Vmanufacture
VNN
tp1998
a(Vof
VIN
tp1999
a(Vthe
VDT
tp2000
a(Vsame
VJJ
tp2001
a(Vproduct
VNN
tp2002
a(V,
V,
tp2003
a(Vand
VCC
tp2004
a(Vso
VRB
tp2005
a(Von
VIN
tp2006
a(Vall
VDT
tp2007
a(Vdown
VIN
tp2008
a(Vthe
VDT
tp2009
a(Vline
VNN
tp2010
a(V.
V.
tp2011
aa(lp2012
(VIt
VPRP
tp2013
a(Vrejects
VVBZ
tp2014
a(Vthe
VDT
tp2015
a(V&apos;
VJJ
tp2016
a(Vindiscriminate
VJJ
tp2017
a(Vcuts
VNNS
tp2018
a(V&apos;
VVBP
tp2019
a(Vthat
VIN
tp2020
a(Vhave
VVBP
tp2021
a(Vbeen
VVBN
tp2022
a(Vmade
VVBN
tp2023
a(Vin
VIN
tp2024
a(Vpublic
VJJ
tp2025
a(Vinvestments
VNNS
tp2026
a(Vin
VIN
tp2027
a(Vthe
VDT
tp2028
a(Vname
VNN
tp2029
a(Vof
VIN
tp2030
a(Vthe
VDT
tp2031
a(Vcrisis
VNN
tp2032
a(V.
V.
tp2033
aa(lp2034
(VThese
VDT
tp2035
a(Vreforms
VNNS
tp2036
a(Vare
VVBP
tp2037
a(Valso
VRB
tp2038
a(Vnecessary
VJJ
tp2039
a(Vbecause
VIN
tp2040
a(Vanyone
VNN
tp2041
a(Vwho
VWP
tp2042
a(Vwants
VVBZ
tp2043
a(Vto
VTO
tp2044
a(Vappear
VVB
tp2045
a(Vcredible
VJJ
tp2046
a(Vat
VIN
tp2047
a(Vthe
VDT
tp2048
a(Vworld
VNN
tp2049
a(Vtrade
VNN
tp2050
a(Vround
VNN
tp2051
a(V-
V:
tp2052
a(Vat
VIN
tp2053
a(Vthe
VDT
tp2054
a(VDoha
VNNP
tp2055
a(VRound
VNNP
tp2056
a(V-
V:
tp2057
a(Vand
VCC
tp2058
a(Vin
VIN
tp2059
a(VBali
VNNP
tp2060
a(Vwill
VMD
tp2061
a(Vat
VIN
tp2062
a(Vsome
VDT
tp2063
a(Vpoint
VNN
tp2064
a(Vhave
VVBP
tp2065
a(Vto
VTO
tp2066
a(Vsay
VVB
tp2067
a(V:
V:
tp2068
a(Vyes
VUH
tp2069
a(V,
V,
tp2070
a(Vwe
VPRP
tp2071
a(Vneed
VVBP
tp2072
a(Va
VDT
tp2073
a(Vreform
VNN
tp2074
a(Vof
VIN
tp2075
a(VEU
VNNP
tp2076
a(Vpolicy
VNN
tp2077
a(Von
VIN
tp2078
a(Vsubsidies
VNNS
tp2079
a(V.
V.
tp2080
aa(lp2081
(VSir
VNNP
tp2082
a(VTom
VNNP
tp2083
a(VBlundell
VNNP
tp2084
a(V,
V,
tp2085
a(VChairman
VNNP
tp2086
a(Vof
VIN
tp2087
a(Vthe
VDT
tp2088
a(VRoyal
VNNP
tp2089
a(VCommission
VNNP
tp2090
a(Von
VIN
tp2091
a(VEnvironmental
VNNP
tp2092
a(VPollution
VNNP
tp2093
a(V,
V,
tp2094
a(Vsaid
VVBD
tp2095
a(Vthat
VIN
tp2096
a(V,
V,
tp2097
a(Vgiven
VVBN
tp2098
a(Vour
VPRP$
tp2099
a(Vunderstanding
VNN
tp2100
a(Vof
VIN
tp2101
a(Vthe
VDT
tp2102
a(Vway
VNN
tp2103
a(Vchemicals
VNNS
tp2104
a(Vinteract
VVBP
tp2105
a(Vwith
VIN
tp2106
a(Vthe
VDT
tp2107
a(Venvironment
VNN
tp2108
a(V,
V,
tp2109
a(Vyou
VPRP
tp2110
a(Vcould
VMD
tp2111
a(Vsay
VVB
tp2112
a(Vwe
VPRP
tp2113
a(Vare
VVBP
tp2114
a(Vrunning
VVBG
tp2115
a(Va
VDT
tp2116
a(Vgigantic
VJJ
tp2117
a(Vexperiment
VNN
tp2118
a(Vwith
VIN
tp2119
a(Vhumans
VNNS
tp2120
a(Vand
VCC
tp2121
a(Vother
VJJ
tp2122
a(Vliving
VVBG
tp2123
a(Vthings
VNNS
tp2124
a(Vas
VIN
tp2125
a(Vthe
VDT
tp2126
a(Vsubject
VNN
tp2127
a(V.
V.
tp2128
aa(lp2129
(VThis
VDT
tp2130
a(Vproliferation
VNN
tp2131
a(Vis
VVBZ
tp2132
a(Vencouraged
VVBN
tp2133
a(Vby
VIN
tp2134
a(Va
VDT
tp2135
a(Vsense
VNN
tp2136
a(Vof
VIN
tp2137
a(Vimpunity
VNN
tp2138
a(Vderiving
VVBG
tp2139
a(Vfrom
VIN
tp2140
a(Vthe
VDT
tp2141
a(Vperception
VNN
tp2142
a(Vthat
VIN
tp2143
a(Vsuch
VJJ
tp2144
a(Voffences
VNNS
tp2145
a(Vare
VVBP
tp2146
a(Vmerely
VRB
tp2147
a(Vvirtual
VJJ
tp2148
a(Vacts
VNNS
tp2149
a(Vperformed
VVBN
tp2150
a(Vin
VIN
tp2151
a(Vcyberspace
VNN
tp2152
a(V.
V.
tp2153
aa(lp2154
(VIn
VIN
tp2155
a(Vits
VPRP$
tp2156
a(Vconclusions
VNNS
tp2157
a(V,
V,
tp2158
a(Vthe
VDT
tp2159
a(VCouncil
VNNP
tp2160
a(Valso
VRB
tp2161
a(Vestablished
VVBD
tp2162
a(Vthat
VIN
tp2163
a(VSerbia
VNNP
tp2164
a(Vcontinues
VVBZ
tp2165
a(Vto
VTO
tp2166
a(Vachieve
VVB
tp2167
a(Vgood
VJJ
tp2168
a(Vresults
VNNS
tp2169
a(Vin
VIN
tp2170
a(Vthe
VDT
tp2171
a(Vperformance
VNN
tp2172
a(Vof
VIN
tp2173
a(Vits
VPRP$
tp2174
a(Vobligations
VNNS
tp2175
a(Vunder
VIN
tp2176
a(Vthe
VDT
tp2177
a(VStabilisation
VNNP
tp2178
a(Vand
VCC
tp2179
a(VAssociation
VNNP
tp2180
a(VAgreement
VNNP
tp2181
a(V.
V.
tp2182
aa.