(lp1
(lp2
(VMr
VNNP
tp3
a(VPresident
VNNP
tp4
a(V,
V,
tp5
a(VI
VPRP
tp6
a(Vshall
VMD
tp7
a(Vbegin
VVB
tp8
a(Vby
VIN
tp9
a(Vresponding
VVBG
tp10
a(Vto
VTO
tp11
a(VMr
VNNP
tp12
a(VDeprez
VNNP
tp13
a(V,
V,
tp14
a(Vwho
VWP
tp15
a(Vis
VVBZ
tp16
a(Van
VDT
tp17
a(Vexpert
VNN
tp18
a(Vin
VIN
tp19
a(Vbudgetary
VJJ
tp20
a(Vmatters
VNNS
tp21
a(V,
V,
tp22
a(Vjustice
VNN
tp23
a(Vand
VCC
tp24
a(Vhome
VNN
tp25
a(Vaffairs
VNNS
tp26
a(V.
V.
tp27
aa(lp28
(VI
VPRP
tp29
a(Vam
VVBP
tp30
a(Vconvinced
VVBN
tp31
a(Vthat
VIN
tp32
a(Vthis
VDT
tp33
a(Vis
VVBZ
tp34
a(Vbecause
VIN
tp35
a(Vall
VPDT
tp36
a(Vthe
VDT
tp37
a(Vgovernments
VNNS
tp38
a(Vare
VVBP
tp39
a(Vvery
VRB
tp40
a(Vconcerned
VJJ
tp41
a(Vbecause
VIN
tp42
a(Vhaving
VVBG
tp43
a(Vso
VRB
tp44
a(Vmany
VJJ
tp45
a(Velderly
VJJ
tp46
a(Vcompared
VVBN
tp47
a(Vwith
VIN
tp48
a(Vso
VRB
tp49
a(Vfew
VJJ
tp50
a(Vworkers
VNNS
tp51
a(Vmeans
VVBZ
tp52
a(Vpaying
VVBG
tp53
a(Vmuch
VRB
tp54
a(Vmore
VRBR
tp55
a(Vfor
VIN
tp56
a(Vpensions
VNNS
tp57
a(V,
V,
tp58
a(Vpaying
VVBG
tp59
a(Vmuch
VRB
tp60
a(Vmore
VRBR
tp61
a(Vfor
VIN
tp62
a(Vhealthcare
VNN
tp63
a(Vthan
VIN
tp64
a(Vin
VIN
tp65
a(Vthe
VDT
tp66
a(Vpast
VNN
tp67
a(V.
V.
tp68
aa(lp69
(VHow
VWRB
tp70
a(Vhave
VVBP
tp71
a(Vwe
VPRP
tp72
a(Vcome
VVB
tp73
a(Vto
VTO
tp74
a(Vthis
VDT
tp75
a(V?
V.
tp76
aa(lp77
(VFurthermore
VRB
tp78
a(V,
V,
tp79
a(Vwith
VIN
tp80
a(Vregard
VNN
tp81
a(Vto
VTO
tp82
a(Vthe
VDT
tp83
a(Vfisheries
VNNS
tp84
a(Vsector
VNN
tp85
a(V,
V,
tp86
a(Vwe
VPRP
tp87
a(Vmust
VMD
tp88
a(Vwelcome
VVB
tp89
a(Vthe
VDT
tp90
a(Vfinancial
VJJ
tp91
a(Vprotocol
VNN
tp92
a(Vannexed
VVBD
tp93
a(Vto
VTO
tp94
a(Vthe
VDT
tp95
a(Vagreement
VNN
tp96
a(V,
V,
tp97
a(Vwhich
VWDT
tp98
a(Vamounts
VVBZ
tp99
a(Vto
VTO
tp100
a(VECU
VNN
tp101
a(V500
VCD
tp102
a(Vmillion
VCD
tp103
a(Vover
VIN
tp104
a(Vfour
VCD
tp105
a(Vyears
VNNS
tp106
a(V.
V.
tp107
aa(lp108
(VBut
VCC
tp109
a(Vif
VIN
tp110
a(VI
VPRP
tp111
a(Vam
VVBP
tp112
a(Va
VDT
tp113
a(Vdark-haired
VJJ
tp114
a(V,
V,
tp115
a(Vbrown-eyed
VJJ
tp116
a(V,
V,
tp117
a(Vdark-skinned
VJJ
tp118
a(Vsouthern
VJJ
tp119
a(VEuropean
VJJ
tp120
a(V,
V,
tp121
a(VI
VPRP
tp122
a(Vcould
VMD
tp123
a(Vspend
VVB
tp124
a(Vsix
VCD
tp125
a(Vor
VCC
tp126
a(Vseven
VCD
tp127
a(Vhours
VNNS
tp128
a(Vin
VIN
tp129
a(Vthe
VDT
tp130
a(Vsunshine
VNN
tp131
a(Vto
VTO
tp132
a(Vno
VDT
tp133
a(Veffect
VNN
tp134
a(Vat
VIN
tp135
a(Vall
VDT
tp136
a(V.
V.
tp137
aa(lp138
(VThe
VDT
tp139
a(Vincrease
VNN
tp140
a(Vin
VIN
tp141
a(Vviolence
VNN
tp142
a(Vand
VCC
tp143
a(Vdisappearances
VNNS
tp144
a(Vof
VIN
tp145
a(Vhuman
VJJ
tp146
a(Vrights
VNNS
tp147
a(Vactivists
VNNS
tp148
a(Vand
VCC
tp149
a(Vpolitical
VJJ
tp150
a(Vopponents
VNNS
tp151
a(Vin
VIN
tp152
a(Vthe
VDT
tp153
a(VNorth
VNNP
tp154
a(VCaucasus
VNNP
tp155
a(Vregion
VNN
tp156
a(Vsince
VIN
tp157
a(V2009
VCD
tp158
a(Vis
VVBZ
tp159
a(Vworrying
VVBG
tp160
a(V.
V.
tp161
aa(lp162
(VThe
VDT
tp163
a(Vrules
VNNS
tp164
a(Vintroduced
VVBN
tp165
a(Vin
VIN
tp166
a(V1991
VCD
tp167
a(Vfor
VIN
tp168
a(Vimports
VNNS
tp169
a(Vof
VIN
tp170
a(Vprocessed
VVBN
tp171
a(Vrice
VNN
tp172
a(Vshould
VMD
tp173
a(Vnot
VRB
tp174
a(Vmean
VVB
tp175
a(Vthat
VIN
tp176
a(Va
VDT
tp177
a(Vparticular
VJJ
tp178
a(Vgroup
VNN
tp179
a(Vof
VIN
tp180
a(Vfarmers
VNNS
tp181
a(Vare
VVBP
tp182
a(Vthe
VDT
tp183
a(Vonly
VJJ
tp184
a(Vones
VNNS
tp185
a(Vwho
VWP
tp186
a(Vbenefit
VVBP
tp187
a(V,
V,
tp188
a(Vand
VCC
tp189
a(VI
VPRP
tp190
a(Vtherefore
VRB
tp191
a(Vfeel
VVBP
tp192
a(Vthat
VIN
tp193
a(Vthe
VDT
tp194
a(VCommission
VNNP
tp195
a(Vwas
VVBD
tp196
a(Ventirely
VRB
tp197
a(Vright
VJJ
tp198
a(Vto
VTO
tp199
a(Vuse
VVB
tp200
a(Vthe
VDT
tp201
a(Vsafeguard
VVB
tp202
a(Vclause
VNN
tp203
a(V.
V.
tp204
aa(lp205
(VFrom
VIN
tp206
a(Vthe
VDT
tp207
a(VGerman
VJJ
tp208
a(Vstandpoint
VNN
tp209
a(V,
V,
tp210
a(VI
VPRP
tp211
a(Vam
VVBP
tp212
a(Vbound
VVBN
tp213
a(Vto
VTO
tp214
a(Vsay
VVB
tp215
a(Vthat
VIN
tp216
a(Vwe
VPRP
tp217
a(Vcannot
VVBP
tp218
a(Vshare
VNN
tp219
a(Vthese
VDT
tp220
a(Vviews
VNNS
tp221
a(V.
V.
tp222
aa(lp223
(VI
VPRP
tp224
a(Vquote
VVBP
tp225
a(V,
V,
tp226
a(V&apos;
VVBP
tp227
a(VIn
VIN
tp228
a(Vits
VPRP$
tp229
a(Vrelations
VNNS
tp230
a(Vwith
VIN
tp231
a(Vthe
VDT
tp232
a(Vwider
VJJR
tp233
a(Vworld
VNN
tp234
a(V,
V,
tp235
a(Vthe
VDT
tp236
a(VUnion
VNNP
tp237
a(Vshall
VMD
tp238
a(Vcontribute
VVB
tp239
a(Vto
VTO
tp240
a(Vthe
VDT
tp241
a(Vsustainable
VJJ
tp242
a(Vdevelopment
VNN
tp243
a(Vof
VIN
tp244
a(Vthe
VDT
tp245
a(VEarth
VNNP
tp246
a(V&apos;
VNN
tp247
a(V.
V.
tp248
aa(lp249
(VTo
VTO
tp250
a(Vsum
VVB
tp251
a(Vup
VRP
tp252
a(V,
V,
tp253
a(VI
VPRP
tp254
a(Vwould
VMD
tp255
a(Vlike
VVB
tp256
a(Vto
VTO
tp257
a(Vtell
VVB
tp258
a(Vyou
VPRP
tp259
a(Vthat
VIN
tp260
a(Vthis
VDT
tp261
a(VParliament
VNNP
tp262
a(Vwill
VMD
tp263
a(Vcontinue
VVB
tp264
a(Vits
VPRP$
tp265
a(Vwork
VNN
tp266
a(V;
V:
tp267
a(Vmay
VMD
tp268
a(Vyou
VPRP
tp269
a(Vcontinue
VVB
tp270
a(Vwith
VIN
tp271
a(Vyours
VPRP$
tp272
a(V.
V.
tp273
aa(lp274
(VIn
VIN
tp275
a(Vthe
VDT
tp276
a(Vlooking
VVBG
tp277
a(Vglass
VNN
tp278
a(Vworld
VNN
tp279
a(Vof
VIN
tp280
a(VBrussels
VNNP
tp281
a(V,
V,
tp282
a(Vit
VPRP
tp283
a(Vis
VVBZ
tp284
a(Vnot
VRB
tp285
a(Vthose
VDT
tp286
a(Vengaging
VVBG
tp287
a(Vin
VIN
tp288
a(Vfraud
VNN
tp289
a(Vwho
VWP
tp290
a(Vare
VVBP
tp291
a(Vharassed
VVBN
tp292
a(Vand
VCC
tp293
a(Vbullied
VVBN
tp294
a(V,
V,
tp295
a(Vbut
VCC
tp296
a(Vthose
VDT
tp297
a(Vexposing
VVBG
tp298
a(Vit
VPRP
tp299
a(V.
V.
tp300
aa(lp301
(VTo
VTO
tp302
a(Vthat
VDT
tp303
a(Vextent
VNN
tp304
a(V,
V,
tp305
a(Vyou
VPRP
tp306
a(Vare
VVBP
tp307
a(Valso
VRB
tp308
a(Vresponsible
VJJ
tp309
a(Vfor
VIN
tp310
a(Vit
VPRP
tp311
a(V.
V.
tp312
aa(lp313
(VIf
VIN
tp314
a(Vthat
VDT
tp315
a(Vimplies
VVBZ
tp316
a(Vthat
VIN
tp317
a(Veducation
VNN
tp318
a(Vand
VCC
tp319
a(Vhealth
VNN
tp320
a(Vmight
VMD
tp321
a(Vbe
VVB
tp322
a(Vcovered
VVBN
tp323
a(Vwithout
VIN
tp324
a(Vsafeguards
VNNS
tp325
a(V,
V,
tp326
a(Vthis
VDT
tp327
a(Vis
VVBZ
tp328
a(Van
VDT
tp329
a(Varea
VNN
tp330
a(Vof
VIN
tp331
a(Vfurther
VJJ
tp332
a(Vconcern
VNN
tp333
a(V.
V.
tp334
aa(lp335
(VIn
VIN
tp336
a(Vthis
VDT
tp337
a(Vconnection
VNN
tp338
a(V,
V,
tp339
a(Vwe
VPRP
tp340
a(Vwill
VMD
tp341
a(Vneed
VVB
tp342
a(Vto
VTO
tp343
a(Vawait
VVB
tp344
a(Vthe
VDT
tp345
a(Vfurther
VJJ
tp346
a(Vcourse
VNN
tp347
a(Vof
VIN
tp348
a(Vevents
VNNS
tp349
a(V.
V.
tp350
aa(lp351
(VWe
VPRP
tp352
a(Vhave
VVBP
tp353
a(Vlong
VRB
tp354
a(Vbeen
VVBN
tp355
a(Vaware
VJJ
tp356
a(Vthat
VIN
tp357
a(Vdictatorships
VNNS
tp358
a(Vcan
VMD
tp359
a(Valso
VRB
tp360
a(Vbe
VVB
tp361
a(Vovercome
VVBN
tp362
a(Vby
VIN
tp363
a(Vpeaceful
VJJ
tp364
a(Vmeans
VNNS
tp365
a(V.
V.
tp366
aa(lp367
(VIt
VPRP
tp368
a(Vwas
VVBD
tp369
a(Vmy
VPRP$
tp370
a(Vpleasure
VNN
tp371
a(Vto
VTO
tp372
a(Vhave
VVB
tp373
a(Vsigned
VVBN
tp374
a(Vthis
VDT
tp375
a(Vact
VNN
tp376
a(Vbetween
VIN
tp377
a(Vthe
VDT
tp378
a(VEuropean
VNNP
tp379
a(VUnion
VNNP
tp380
a(Vand
VCC
tp381
a(Vthe
VDT
tp382
a(VSwiss
VJJ
tp383
a(VConfederation
VNNP
tp384
a(Vas
VIN
tp385
a(Vmy
VPRP$
tp386
a(Vfirst
VJJ
tp387
a(Vact
VNN
tp388
a(Vas
VIN
tp389
a(VCommissioner
VNNP
tp390
a(Vfor
VIN
tp391
a(VEducation
VNNP
tp392
a(V,
V,
tp393
a(VCulture
VNNP
tp394
a(Vand
VCC
tp395
a(VYouth
VNNP
tp396
a(V.
V.
tp397
aa(lp398
(VIndeed
VRB
tp399
a(V,
V,
tp400
a(Vthe
VDT
tp401
a(Vproblem
VNN
tp402
a(Vthey
VPRP
tp403
a(Vhave
VVBP
tp404
a(Vis
VVBZ
tp405
a(Vthat
VIN
tp406
a(Vthey
VPRP
tp407
a(Vhave
VVBP
tp408
a(Vcontributed
VVBN
tp409
a(Vto
VTO
tp410
a(Vthe
VDT
tp411
a(Vrise
VNN
tp412
a(Vin
VIN
tp413
a(Vcarbon
VNN
tp414
a(Vdioxide
VNN
tp415
a(Vemissions
VNNS
tp416
a(Vwith
VIN
tp417
a(Vthe
VDT
tp418
a(Vclosure
VNN
tp419
a(Vof
VIN
tp420
a(Vthe
VDT
tp421
a(VKozloduy
VNNP
tp422
a(VNuclear
VNNP
tp423
a(VPower
VNNP
tp424
a(VPlant
VNNP
tp425
a(V.
V.
tp426
aa(lp427
(VThis
VDT
tp428
a(VDeca-BDE
VJJ
tp429
a(Vcase
VNN
tp430
a(Vwas
VVBD
tp431
a(Vrectified
VVBN
tp432
a(Vat
VIN
tp433
a(Vthe
VDT
tp434
a(Vend
VNN
tp435
a(Vof
VIN
tp436
a(VJune
VNNP
tp437
a(V,
V,
tp438
a(Vwhen
VWRB
tp439
a(Vthe
VDT
tp440
a(VCommission
VNNP
tp441
a(Vactually
VRB
tp442
a(Vreversed
VVBD
tp443
a(Vits
VPRP$
tp444
a(Vdecision
VNN
tp445
a(V,
V,
tp446
a(Vwhich
VWDT
tp447
a(Vmeans
VVBZ
tp448
a(Vthat
VIN
tp449
a(Vthis
VDT
tp450
a(Vhazardous
VJJ
tp451
a(Vsubstance
VNN
tp452
a(Vwill
VMD
tp453
a(Vbe
VVB
tp454
a(Vremoved
VVBN
tp455
a(Vfrom
VIN
tp456
a(Velectronic
VJJ
tp457
a(Vequipment
VNN
tp458
a(V.
V.
tp459
aa(lp460
(VOne
VCD
tp461
a(Vof
VIN
tp462
a(Vthe
VDT
tp463
a(Vearliest
VJJS
tp464
a(Vtasks
VNNS
tp465
a(Vassigned
VVBN
tp466
a(Vto
VTO
tp467
a(Vme
VPRP
tp468
a(Vwas
VVBD
tp469
a(Va
VDT
tp470
a(Vbundle
VNN
tp471
a(Vof
VIN
tp472
a(Vrequests
VNNS
tp473
a(Vfrom
VIN
tp474
a(VMembers
VNNS
tp475
a(Vfrom
VIN
tp476
a(VItaly
VNNP
tp477
a(V,
V,
tp478
a(Vor
VCC
tp479
a(Vfrom
VIN
tp480
a(Vtheir
VPRP$
tp481
a(Vlawyers
VNNS
tp482
a(V,
V,
tp483
a(Vconcerning
VVBG
tp484
a(Vtheir
VPRP$
tp485
a(Vconcern
VNN
tp486
a(Vthat
VIN
tp487
a(Vprosecutions
VNNS
tp488
a(Vor
VCC
tp489
a(Vother
VJJ
tp490
a(Vlegal
VJJ
tp491
a(Vactions
VNNS
tp492
a(Vwere
VVBD
tp493
a(Vtaking
VVBG
tp494
a(Vplace
VNN
tp495
a(Vin
VIN
tp496
a(VItaly
VNNP
tp497
a(Vwhich
VWDT
tp498
a(Vviolated
VVBD
tp499
a(Vtheir
VPRP$
tp500
a(Vimmunity
VNN
tp501
a(V.
V.
tp502
aa(lp503
(VMr
VNNP
tp504
a(VPresident
VNNP
tp505
a(V,
V,
tp506
a(Vapart
VRB
tp507
a(Vfrom
VIN
tp508
a(Vsoldiers
VNNS
tp509
a(Vand
VCC
tp510
a(Vsailors
VNNS
tp511
a(Vit
VPRP
tp512
a(Vused
VVBD
tp513
a(Vonly
VRB
tp514
a(Vto
VTO
tp515
a(Vbe
VVB
tp516
a(Vthe
VDT
tp517
a(Vrichest
VJJS
tp518
a(Vand
VCC
tp519
a(Vmost
VRBS
tp520
a(Vpowerful
VJJ
tp521
a(Vof
VIN
tp522
a(Vpeople
VNNS
tp523
a(Vwho
VWP
tp524
a(Vfound
VVBD
tp525
a(Vthemselves
VPRP
tp526
a(Va
VDT
tp527
a(Vlong
VJJ
tp528
a(Vway
VNN
tp529
a(Vfrom
VIN
tp530
a(Vhome
VNN
tp531
a(V.
V.
tp532
aa(lp533
(VThat
VDT
tp534
a(Vis
VVBZ
tp535
a(Vwhy
VWRB
tp536
a(Vthe
VDT
tp537
a(Vpreparation
VNN
tp538
a(Vin
VIN
tp539
a(Vgeneral
VJJ
tp540
a(Vhas
VVBZ
tp541
a(Vto
VTO
tp542
a(Vcontinue
VVB
tp543
a(V.
V.
tp544
aa(lp545
(VHowever
VRB
tp546
a(V,
V,
tp547
a(Vthis
VDT
tp548
a(Vdoes
VVBZ
tp549
a(Vnot
VRB
tp550
a(Vhelp
VVB
tp551
a(Vthe
VDT
tp552
a(Vpeople
VNNS
tp553
a(Vwho
VWP
tp554
a(Vhave
VVBP
tp555
a(Vsuffered
VVBN
tp556
a(Vas
VIN
tp557
a(Va
VDT
tp558
a(Vresult
VNN
tp559
a(V.
V.
tp560
aa(lp561
(VMadam
VNNP
tp562
a(VPresident
VNNP
tp563
a(V,
V,
tp564
a(Vthis
VDT
tp565
a(Vis
VVBZ
tp566
a(Va
VDT
tp567
a(Vstrange
VJJ
tp568
a(V,
V,
tp569
a(Vuncomfortable
VJJ
tp570
a(Vand
VCC
tp571
a(Vschizophrenic
VJJ
tp572
a(Vreport
VNN
tp573
a(V.
V.
tp574
aa(lp575
(VOur
VPRP$
tp576
a(Vmeetings
VNNS
tp577
a(Vwith
VIN
tp578
a(Vthe
VDT
tp579
a(Vstudents
VNNS
tp580
a(Vof
VIN
tp581
a(Vthe
VDT
tp582
a(VEuropean
VNNP
tp583
a(VInstitute
VNNP
tp584
a(Vat
VIN
tp585
a(Vthe
VDT
tp586
a(Vuniversity
VNN
tp587
a(Vin
VIN
tp588
a(VAuckland
VNNP
tp589
a(Vand
VCC
tp590
a(Vat
VIN
tp591
a(VCanterbury
VNNP
tp592
a(VUniversity
VNNP
tp593
a(Vin
VIN
tp594
a(VChristchurch
VNNP
tp595
a(Vwere
VVBD
tp596
a(Vvery
VRB
tp597
a(Vinspiring
VJJ
tp598
a(V.
V.
tp599
aa(lp600
(VI
VPRP
tp601
a(Vagree
VVBP
tp602
a(Vwith
VIN
tp603
a(Vthe
VDT
tp604
a(Vrapporteur
VNN
tp605
a(Vthat
VIN
tp606
a(Vit
VPRP
tp607
a(Vis
VVBZ
tp608
a(Vunacceptable
VJJ
tp609
a(Vthat
VIN
tp610
a(Vthe
VDT
tp611
a(Vrevised
VVBN
tp612
a(VCollege
VNNP
tp613
a(V&apos;s
VNNP
tp614
a(VFinancial
VNNP
tp615
a(VRegulation
VNN
tp616
a(Vhas
VVBZ
tp617
a(Vnever
VRB
tp618
a(Ventered
VVBN
tp619
a(Vinto
VIN
tp620
a(Vforce
VNN
tp621
a(Vand
VCC
tp622
a(V,
V,
tp623
a(Vas
VIN
tp624
a(Va
VDT
tp625
a(Vresult
VNN
tp626
a(V,
V,
tp627
a(Vall
VDT
tp628
a(Vengagement
VNN
tp629
a(Vcontracts
VNNS
tp630
a(Vsigned
VVBN
tp631
a(Vwere
VVBD
tp632
a(Villegal
VJJ
tp633
a(V.
V.
tp634
aa(lp635
(VJust
VRB
tp636
a(Vas
VIN
tp637
a(Vclean
VJJ
tp638
a(Vnatural
VJJ
tp639
a(Vwaters
VNNS
tp640
a(Vcan
VMD
tp641
a(Vbe
VVB
tp642
a(Va
VDT
tp643
a(Vrare
VJJ
tp644
a(Vtreasure
VNN
tp645
a(Vof
VIN
tp646
a(Va
VDT
tp647
a(Vcountry
VNN
tp648
a(V,
V,
tp649
a(Vnatural
VJJ
tp650
a(Vpollution
VNN
tp651
a(Vis
VVBZ
tp652
a(Valso
VRB
tp653
a(Va
VDT
tp654
a(Vcharacteristic
VJJ
tp655
a(Vthat
VIN
tp656
a(Vwe
VPRP
tp657
a(Vmust
VMD
tp658
a(Vaccept
VVB
tp659
a(V,
V,
tp660
a(Vespecially
VRB
tp661
a(Vwhen
VWRB
tp662
a(Vthere
VEX
tp663
a(Vis
VVBZ
tp664
a(Vnothing
VNN
tp665
a(Vwe
VPRP
tp666
a(Vcan
VMD
tp667
a(Vdo
VVB
tp668
a(Vabout
VIN
tp669
a(Vit
VPRP
tp670
a(V.
V.
tp671
aa(lp672
(VMany
VJJ
tp673
a(Vof
VIN
tp674
a(Vyou
VPRP
tp675
a(Vclaimed
VVBD
tp676
a(Vat
VIN
tp677
a(Vthe
VDT
tp678
a(Vtime
VNN
tp679
a(Vthat
VIN
tp680
a(Vthe
VDT
tp681
a(Vratification
VNN
tp682
a(Vof
VIN
tp683
a(Vthis
VDT
tp684
a(Vagreement
VNN
tp685
a(Vwould
VMD
tp686
a(Vprevent
VVB
tp687
a(Vthe
VDT
tp688
a(VTurks
VNNPS
tp689
a(Vfrom
VIN
tp690
a(Vrushing
VVBG
tp691
a(Vinto
VIN
tp692
a(Vthe
VDT
tp693
a(Varms
VNNS
tp694
a(Vof
VIN
tp695
a(VIslam
VNNP
tp696
a(V.
V.
tp697
aa(lp698
(VAll
VPDT
tp699
a(Vthe
VDT
tp700
a(Voutcomes
VNNS
tp701
a(Vof
VIN
tp702
a(Vthese
VDT
tp703
a(Vthree
VCD
tp704
a(Vevents
VNNS
tp705
a(Vwill
VMD
tp706
a(Vbe
VVB
tp707
a(Vabsolutely
VRB
tp708
a(Vpublic
VJJ
tp709
a(V,
V,
tp710
a(Vput
VVBN
tp711
a(Von
VIN
tp712
a(Vour
VPRP$
tp713
a(Vwebsites
VNNS
tp714
a(Vand
VCC
tp715
a(Vcommunicated
VVBN
tp716
a(Vin
VIN
tp717
a(Vthe
VDT
tp718
a(Vbest
VJJS
tp719
a(Vmanner
VNN
tp720
a(V,
V,
tp721
a(Vand
VCC
tp722
a(Vof
VIN
tp723
a(Vcourse
VNN
tp724
a(VI
VPRP
tp725
a(Vam
VVBP
tp726
a(Varound
VRB
tp727
a(Vand
VCC
tp728
a(Valways
VRB
tp729
a(Vopen
VJJ
tp730
a(Vto
VTO
tp731
a(Vcontinue
VVB
tp732
a(Vto
VTO
tp733
a(Vdiscuss
VVB
tp734
a(Vyour
VPRP$
tp735
a(Vhopes
VNNS
tp736
a(Vand
VCC
tp737
a(Vyour
VPRP$
tp738
a(Vfears
VNNS
tp739
a(V.
V.
tp740
aa(lp741
(VThis
VDT
tp742
a(Vis
VVBZ
tp743
a(Vone
VCD
tp744
a(Vof
VIN
tp745
a(Vthe
VDT
tp746
a(Vmost
VRBS
tp747
a(Vimportant
VJJ
tp748
a(Vquestions
VNNS
tp749
a(Vof
VIN
tp750
a(Vall
VDT
tp751
a(Vin
VIN
tp752
a(Vevery
VDT
tp753
a(Velection
VNN
tp754
a(Vcampaign
VNN
tp755
a(Vin
VIN
tp756
a(VSweden
VNNP
tp757
a(Vand
VCC
tp758
a(Vin
VIN
tp759
a(Vother
VJJ
tp760
a(Vcountries
VNNS
tp761
a(V.
V.
tp762
aa(lp763
(VThe
VDT
tp764
a(Vearth
VNN
tp765
a(V\u2019
VNN
tp766
a(Vs
VVBZ
tp767
a(Vtemperature
VNN
tp768
a(Vis
VVBZ
tp769
a(Vrising
VVBG
tp770
a(Vat
VIN
tp771
a(Van
VDT
tp772
a(Valarming
VJJ
tp773
a(Vrate
VNN
tp774
a(V.
V.
tp775
aa(lp776
(VHow
VWRB
tp777
a(Vcan
VMD
tp778
a(Vwe
VPRP
tp779
a(Vsuddenly
VRB
tp780
a(Vstart
VVBP
tp781
a(Vbelieving
VVBG
tp782
a(Vwhat
VWP
tp783
a(Vyou
VPRP
tp784
a(Vsay
VVB
tp785
a(V?
V.
tp786
aa(lp787
(VYesterday
VNN
tp788
a(Va
VDT
tp789
a(Vrepresentative
VNN
tp790
a(Vof
VIN
tp791
a(Vthe
VDT
tp792
a(VUkrainian
VJJ
tp793
a(Vpeople
VNNS
tp794
a(Vwas
VVBD
tp795
a(Vhere
VRB
tp796
a(V\u2013
VRB
tp797
a(Vthe
VDT
tp798
a(VUkrainian
VJJ
tp799
a(VEurovision
VNNP
tp800
a(VSong
VNN
tp801
a(VContest
VNN
tp802
a(Vwinner
VNN
tp803
a(VRuslana
VNNP
tp804
a(V,
V,
tp805
a(Vwho
VWP
tp806
a(Vprobably
VRB
tp807
a(Vhas
VVBZ
tp808
a(Va
VDT
tp809
a(Vgreater
VJJR
tp810
a(Vnumber
VNN
tp811
a(Vof
VIN
tp812
a(Vsupporters
VNNS
tp813
a(Vthan
VIN
tp814
a(Vany
VDT
tp815
a(VUkrainian
VJJ
tp816
a(Vpolitician
VNN
tp817
a(V.
V.
tp818
aa(lp819
(VBut
VCC
tp820
a(Vthe
VDT
tp821
a(Vmost
VRBS
tp822
a(Vdifficult
VJJ
tp823
a(Vissues
VNNS
tp824
a(Vare
VVBP
tp825
a(Vthe
VDT
tp826
a(Vfuture
VNN
tp827
a(Vof
VIN
tp828
a(Vthe
VDT
tp829
a(Vopt-out
VNN
tp830
a(Vand
VCC
tp831
a(Vthe
VDT
tp832
a(Vtreatment
VNN
tp833
a(Vof
VIN
tp834
a(Von-call
VJJ
tp835
a(Vtime
VNN
tp836
a(V.
V.
tp837
aa(lp838
(VMy
VPRP$
tp839
a(Vfather
VNN
tp840
a(V,
V,
tp841
a(Vwho
VWP
tp842
a(Vwas
VVBD
tp843
a(Va
VDT
tp844
a(Vjudge
VNN
tp845
a(V,
V,
tp846
a(Vwould
VMD
tp847
a(Vnot
VRB
tp848
a(Vbe
VVB
tp849
a(Vtoo
VRB
tp850
a(Veager
VJJ
tp851
a(Vfor
VIN
tp852
a(Vme
VPRP
tp853
a(Vto
VTO
tp854
a(Vdefend
VVB
tp855
a(Velectronic
VJJ
tp856
a(Vjustice
VNN
tp857
a(Vbefore
VIN
tp858
a(Vthe
VDT
tp859
a(VEuropean
VNNP
tp860
a(VParliament
VNNP
tp861
a(V.
V.
tp862
aa(lp863
(VThis
VDT
tp864
a(Vpolicy
VNN
tp865
a(Vshould
VMD
tp866
a(Vtake
VVB
tp867
a(Vaccount
VNN
tp868
a(Vof
VIN
tp869
a(Vthe
VDT
tp870
a(Vgrowing
VVBG
tp871
a(Vnumber
VNN
tp872
a(Vof
VIN
tp873
a(Vnatural
VJJ
tp874
a(Vdisasters
VNNS
tp875
a(Vwhen
VWRB
tp876
a(Vdrawing
VVBG
tp877
a(Vup
VRP
tp878
a(Vhealth
VNN
tp879
a(Vand
VCC
tp880
a(Vagricultural
VJJ
tp881
a(Vplans
VNNS
tp882
a(V.
V.
tp883
aa(lp884
(VTerrorism
VNNP
tp885
a(Vis
VVBZ
tp886
a(V,
V,
tp887
a(Vhowever
VRB
tp888
a(V,
V,
tp889
a(Va
VDT
tp890
a(Vdelicate
VJJ
tp891
a(Vtopic
VNN
tp892
a(V.
V.
tp893
aa(lp894
(VThe
VDT
tp895
a(VTreaty
VNNP
tp896
a(Von
VIN
tp897
a(Vthe
VDT
tp898
a(VEuropean
VJJ
tp899
a(VDefence
VNNP
tp900
a(VCommunity
VNNP
tp901
a(V(
VCD
tp902
a(VEDC
VNNP
tp903
a(V)
VNN
tp904
a(Vremains
VVBZ
tp905
a(Va
VDT
tp906
a(Vuseful
VJJ
tp907
a(Vsource
VNN
tp908
a(Vof
VIN
tp909
a(Vinspiration
VNN
tp910
a(V.
V.
tp911
aa(lp912
(VThe
VDT
tp913
a(Vman
VNN
tp914
a(Vwho
VWP
tp915
a(Vis
VVBZ
tp916
a(Vaccused
VVBN
tp917
a(Vof
VIN
tp918
a(Vgenocide
VNN
tp919
a(Vand
VCC
tp920
a(Vwho
VWP
tp921
a(Vought
VMD
tp922
a(Vto
VTO
tp923
a(Vbe
VVB
tp924
a(Vbrought
VVBN
tp925
a(Vbefore
VIN
tp926
a(Vthe
VDT
tp927
a(Vwar
VNN
tp928
a(Vcrimes
VNNS
tp929
a(Vtribunal
VNN
tp930
a(Vin
VIN
tp931
a(Vthe
VDT
tp932
a(VHague
VNNP
tp933
a(Vstill
VRB
tp934
a(Vgoes
VVBZ
tp935
a(Vfree
VJJ
tp936
a(V.
V.
tp937
aa(lp938
(VAsia
VNNP
tp939
a(Vshould
VMD
tp940
a(Vrejoice
VVB
tp941
a(Vas
VIN
tp942
a(Vit
VPRP
tp943
a(Vsees
VVBZ
tp944
a(Vhow
VWRB
tp945
a(VEurope
VNNP
tp946
a(V,
V,
tp947
a(Vits
VPRP$
tp948
a(Vmain
VJJ
tp949
a(Vcompetitor
VNN
tp950
a(V,
V,
tp951
a(Vis
VVBZ
tp952
a(Vflagging
VJJ
tp953
a(V.
V.
tp954
aa(lp955
(VAt
VIN
tp956
a(Vthe
VDT
tp957
a(Vbeginning
VNN
tp958
a(Vof
VIN
tp959
a(Vour
VPRP$
tp960
a(Vpresidency
VNN
tp961
a(VI
VPRP
tp962
a(Vthought
VVBD
tp963
a(Vperhaps
VRB
tp964
a(Vthe
VDT
tp965
a(Vmoment
VNN
tp966
a(Vhad
VVBD
tp967
a(Vcome
VVBN
tp968
a(Vfor
VIN
tp969
a(Vthat
VDT
tp970
a(V,
V,
tp971
a(Vbut
VCC
tp972
a(Vin
VIN
tp973
a(Vview
VNN
tp974
a(Vof
VIN
tp975
a(Vthese
VDT
tp976
a(Videntification
VNN
tp977
a(Vdifficulties
VNNS
tp978
a(Vit
VPRP
tp979
a(Vwas
VVBD
tp980
a(Vnot
VRB
tp981
a(Vfeasible
VJJ
tp982
a(Vat
VIN
tp983
a(Vthat
VDT
tp984
a(Vstage
VNN
tp985
a(V.
V.
tp986
aa(lp987
(VIn
VIN
tp988
a(Vthe
VDT
tp989
a(V1990s
VCD
tp990
a(V,
V,
tp991
a(Vthis
VDT
tp992
a(Varea
VNN
tp993
a(Vreceived
VVBD
tp994
a(Va
VDT
tp995
a(Vsubstantial
VJJ
tp996
a(Vboost
VNN
tp997
a(Vand
VCC
tp998
a(Va
VDT
tp999
a(Vgreat
VJJ
tp1000
a(Vdeal
VNN
tp1001
a(Vof
VIN
tp1002
a(VCommunity
VNNP
tp1003
a(Vlegislation
VNN
tp1004
a(Vwas
VVBD
tp1005
a(Vimplemented
VVBN
tp1006
a(Vin
VIN
tp1007
a(Vthis
VDT
tp1008
a(Vfield
VNN
tp1009
a(V.
V.
tp1010
aa(lp1011
(VAnd
VCC
tp1012
a(Vbesides
VIN
tp1013
a(V,
V,
tp1014
a(Vmany
VJJ
tp1015
a(Vof
VIN
tp1016
a(Vyou
VPRP
tp1017
a(Vhave
VVBP
tp1018
a(Vsaid
VVBN
tp1019
a(Vso
VRB
tp1020
a(Vbefore
VIN
tp1021
a(Vme
VPRP
tp1022
a(V.
V.
tp1023
aa(lp1024
(VSome
VDT
tp1025
a(Vbusinessmen
VNNS
tp1026
a(Vassume
VVBP
tp1027
a(Vthat
VIN
tp1028
a(Vthey
VPRP
tp1029
a(Vare
VVBP
tp1030
a(Ventitled
VVBN
tp1031
a(Vto
VTO
tp1032
a(Vsubsidies
VNNS
tp1033
a(Vfrom
VIN
tp1034
a(Va
VDT
tp1035
a(Vgovernment
VNN
tp1036
a(Vwhich
VWDT
tp1037
a(Vis
VVBZ
tp1038
a(Vostensibly
VRB
tp1039
a(Voverflowing
VVBG
tp1040
a(Vwith
VIN
tp1041
a(Vfunding
VNN
tp1042
a(V.
V.
tp1043
aa(lp1044
(VAs
VIN
tp1045
a(Vwe
VPRP
tp1046
a(Vnegotiate
VVBP
tp1047
a(Va
VDT
tp1048
a(Vnew
VJJ
tp1049
a(Vtreaty
VNN
tp1050
a(Vof
VIN
tp1051
a(Vcooperation
VNN
tp1052
a(Vbetween
VIN
tp1053
a(Vthe
VDT
tp1054
a(VEuropean
VNNP
tp1055
a(VUnion
VNNP
tp1056
a(Vand
VCC
tp1057
a(VRussia
VNNP
tp1058
a(V,
V,
tp1059
a(VI
VPRP
tp1060
a(Vinvite
VVBP
tp1061
a(Vthe
VDT
tp1062
a(VCouncil
VNNP
tp1063
a(Vto
VTO
tp1064
a(Vtake
VVB
tp1065
a(Va
VDT
tp1066
a(Vlook
VNN
tp1067
a(Vat
VIN
tp1068
a(Vevents
VNNS
tp1069
a(Vin
VIN
tp1070
a(VRussia
VNNP
tp1071
a(Vand
VCC
tp1072
a(Vnot
VRB
tp1073
a(Vto
VTO
tp1074
a(Vmake
VVB
tp1075
a(Vany
VDT
tp1076
a(Vconcessions
VNNS
tp1077
a(Vto
VTO
tp1078
a(Vit
VPRP
tp1079
a(V.
V.
tp1080
aa(lp1081
(V(
VNN
tp1082
a(VApplause
VNN
tp1083
a(Vand
VCC
tp1084
a(Vlaughter
VNN
tp1085
a(V)
VNN
tp1086
aa(lp1087
(VWe
VPRP
tp1088
a(Vwould
VMD
tp1089
a(Valso
VRB
tp1090
a(Vcontest
VVB
tp1091
a(Vthe
VDT
tp1092
a(Vview
VNN
tp1093
a(Vthat
VIN
tp1094
a(VArticle
VNNP
tp1095
a(V138a
VNN
tp1096
a(Vof
VIN
tp1097
a(Vthe
VDT
tp1098
a(VTreaty
VNNP
tp1099
a(Vcontains
VVBZ
tp1100
a(Va
VDT
tp1101
a(Vconstitutional
VJJ
tp1102
a(Vmission
VNN
tp1103
a(Vto
VTO
tp1104
a(Vcreate
VVB
tp1105
a(VEuropean
VJJ
tp1106
a(Vpolitical
VJJ
tp1107
a(Vparties
VNNS
tp1108
a(V.
V.
tp1109
aa(lp1110
(VIt
VPRP
tp1111
a(Vis
VVBZ
tp1112
a(Vinhuman
VJJ
tp1113
a(Vand
VCC
tp1114
a(Vineffective
VJJ
tp1115
a(Vto
VTO
tp1116
a(Vadvocate
VVB
tp1117
a(Vthe
VDT
tp1118
a(Vfree
VJJ
tp1119
a(Vmovement
VNN
tp1120
a(Vof
VIN
tp1121
a(Vgoods
VNNS
tp1122
a(Vand
VCC
tp1123
a(Vcapital
VNN
tp1124
a(Vbut
VCC
tp1125
a(Vnot
VRB
tp1126
a(Vof
VIN
tp1127
a(Vpeople
VNNS
tp1128
a(V.
V.
tp1129
aa(lp1130
(VFundamental
VJJ
tp1131
a(Vrights
VNNS
tp1132
a(Vmust
VMD
tp1133
a(Vbe
VVB
tp1134
a(Vsecured
VVBN
tp1135
a(Vwhere
VWRB
tp1136
a(Vthey
VPRP
tp1137
a(Vcan
VMD
tp1138
a(Vbe
VVB
tp1139
a(Vprotected
VVBN
tp1140
a(Vas
VIN
tp1141
a(Veffectively
VRB
tp1142
a(Vas
VIN
tp1143
a(Vpossible
VJJ
tp1144
a(Vand
VCC
tp1145
a(Vwhere
VWRB
tp1146
a(Vthey
VPRP
tp1147
a(Vcan
VMD
tp1148
a(Vbe
VVB
tp1149
a(Vembedded
VVBN
tp1150
a(Vin
VIN
tp1151
a(Vthe
VDT
tp1152
a(Vsocial
VJJ
tp1153
a(Vfabric
VNN
tp1154
a(V,
V,
tp1155
a(Vthat
VWDT
tp1156
a(Vis
VVBZ
tp1157
a(Vto
VTO
tp1158
a(Vsay
VVB
tp1159
a(Vwithin
VIN
tp1160
a(Vthe
VDT
tp1161
a(VMember
VNNP
tp1162
a(VStates
VNNPS
tp1163
a(V.
V.
tp1164
aa(lp1165
(VThe
VDT
tp1166
a(Vletting
VVBG
tp1167
a(Vof
VIN
tp1168
a(Vairspace
VNN
tp1169
a(Vblocks
VVBZ
tp1170
a(Vfor
VIN
tp1171
a(Va
VDT
tp1172
a(Vfixed
VJJ
tp1173
a(Vperiod
VNN
tp1174
a(Vof
VIN
tp1175
a(Vtime
VNN
tp1176
a(Vwill
VMD
tp1177
a(Vonly
VRB
tp1178
a(Vperpetuate
VVB
tp1179
a(Vthe
VDT
tp1180
a(Vold
VJJ
tp1181
a(Vfragmentation
VNN
tp1182
a(Vin
VIN
tp1183
a(Va
VDT
tp1184
a(Vdifferent
VJJ
tp1185
a(Vform
VNN
tp1186
a(V.
V.
tp1187
aa(lp1188
(VOtherwise
VRB
tp1189
a(Vthe
VDT
tp1190
a(Vanalysis
VNN
tp1191
a(Vmay
VMD
tp1192
a(Vbe
VVB
tp1193
a(Vvalid
VJJ
tp1194
a(Vbut
VCC
tp1195
a(Vthe
VDT
tp1196
a(Vpolitical
VJJ
tp1197
a(Vconclusions
VNNS
tp1198
a(Vwill
VMD
tp1199
a(Vnot
VRB
tp1200
a(Vbe
VVB
tp1201
a(V.
V.
tp1202
aa(lp1203
(VThey
VPRP
tp1204
a(Vmust
VMD
tp1205
a(Vbe
VVB
tp1206
a(Vdesigned
VVBN
tp1207
a(Vand
VCC
tp1208
a(Vlocated
VJJ
tp1209
a(V,
V,
tp1210
a(Vor
VCC
tp1211
a(Vprotected
VVBN
tp1212
a(V,
V,
tp1213
a(Vso
VRB
tp1214
a(Vas
VIN
tp1215
a(Vto
VTO
tp1216
a(Vprevent
VVB
tp1217
a(Vany
VDT
tp1218
a(Vinvoluntary
VJJ
tp1219
a(Vmovement
VNN
tp1220
a(Vor
VCC
tp1221
a(Vother
VJJ
tp1222
a(Vmanoeuvre
VNN
tp1223
a(Vthat
VWDT
tp1224
a(Vcould
VMD
tp1225
a(Vendanger
VVB
tp1226
a(Vthe
VDT
tp1227
a(Vmachinery
VNN
tp1228
a(Voperator
VNN
tp1229
a(V.
V.
tp1230
aa(lp1231
(VFurthermore
VRB
tp1232
a(V,
V,
tp1233
a(VI
VPRP
tp1234
a(Vwish
VVBP
tp1235
a(Vto
VTO
tp1236
a(Vdraw
VVB
tp1237
a(Vattention
VNN
tp1238
a(Vto
VTO
tp1239
a(Vthe
VDT
tp1240
a(Vneed
VNN
tp1241
a(Vto
VTO
tp1242
a(Vincrease
VVB
tp1243
a(Vthe
VDT
tp1244
a(Vnumber
VNN
tp1245
a(Vof
VIN
tp1246
a(Vjobs
VNNS
tp1247
a(V,
V,
tp1248
a(Vwhich
VWDT
tp1249
a(Vis
VVBZ
tp1250
a(Va
VDT
tp1251
a(Vpriority
VNN
tp1252
a(Vfor
VIN
tp1253
a(Vthe
VDT
tp1254
a(VEU
VNNP
tp1255
a(V,
V,
tp1256
a(Vespecially
VRB
tp1257
a(Vduring
VIN
tp1258
a(Vthe
VDT
tp1259
a(Vcurrent
VJJ
tp1260
a(Vrecession
VNN
tp1261
a(V.
V.
tp1262
aa(lp1263
(VThere
VEX
tp1264
a(Vhas
VVBZ
tp1265
a(Vbeen
VVBN
tp1266
a(Vsome
VDT
tp1267
a(Vprogress
VNN
tp1268
a(V,
V,
tp1269
a(Vbut
VCC
tp1270
a(Vfar
VRB
tp1271
a(Vtoo
VRB
tp1272
a(Vlittle
VJJ
tp1273
a(Vand
VCC
tp1274
a(Vwe
VPRP
tp1275
a(Vmust
VMD
tp1276
a(Vreally
VRB
tp1277
a(Vrevise
VVB
tp1278
a(Vthe
VDT
tp1279
a(Vguidelines
VNNS
tp1280
a(V.
V.
tp1281
aa(lp1282
(VNext
VJJ
tp1283
a(Vyear
VNN
tp1284
a(Vin
VIN
tp1285
a(VMexico
VNNP
tp1286
a(VCity
VNNP
tp1287
a(V,
V,
tp1288
a(Vthe
VDT
tp1289
a(Vindustrialised
VJJ
tp1290
a(Vnations
VNNS
tp1291
a(Vand
VCC
tp1292
a(Vemerging
VVBG
tp1293
a(Veconomies
VNNS
tp1294
a(Vmust
VMD
tp1295
a(Vcome
VVB
tp1296
a(Vto
VTO
tp1297
a(Va
VDT
tp1298
a(Vbinding
VNN
tp1299
a(Vagreement
VNN
tp1300
a(Vwith
VIN
tp1301
a(Vspecific
VJJ
tp1302
a(Vand
VCC
tp1303
a(Vambitious
VJJ
tp1304
a(Vtargets
VNNS
tp1305
a(V.
V.
tp1306
aa(lp1307
(VThis
VDT
tp1308
a(Vdoes
VVBZ
tp1309
a(Vindeed
VRB
tp1310
a(Vshow
VVBP
tp1311
a(Vthat
VIN
tp1312
a(Vwe
VPRP
tp1313
a(Valso
VRB
tp1314
a(Vhave
VVBP
tp1315
a(Vto
VTO
tp1316
a(Vinvest
VVB
tp1317
a(Vour
VPRP$
tp1318
a(Vown
VJJ
tp1319
a(VEuropean
VJJ
tp1320
a(Vsatellite
VNN
tp1321
a(Vnavigation
VNN
tp1322
a(Vsystem
VNN
tp1323
a(V.
V.
tp1324
aa(lp1325
(VThe
VDT
tp1326
a(Vsources
VNNS
tp1327
a(Vof
VIN
tp1328
a(Vmodern
VJJ
tp1329
a(Varms
VNNS
tp1330
a(Vfor
VIN
tp1331
a(Vterrorist
VJJ
tp1332
a(Vorganisations
VNNS
tp1333
a(V,
V,
tp1334
a(Vcooperation
VNN
tp1335
a(Vin
VIN
tp1336
a(Vremoving
VVBG
tp1337
a(Vnuclear
VJJ
tp1338
a(Vweapons
VNNS
tp1339
a(Vfrom
VIN
tp1340
a(Vthe
VDT
tp1341
a(VMiddle
VNNP
tp1342
a(VEast
VNNP
tp1343
a(Vand
VCC
tp1344
a(Vending
VVBG
tp1345
a(Vsupport
VNN
tp1346
a(Vfor
VIN
tp1347
a(Vterrorists
VNNS
tp1348
a(Vin
VIN
tp1349
a(VCentral
VNNP
tp1350
a(VAsia
VNNP
tp1351
a(V,
V,
tp1352
a(Vthe
VDT
tp1353
a(VCaucasus
VNNP
tp1354
a(Vand
VCC
tp1355
a(VWestern
VNNP
tp1356
a(Vand
VCC
tp1357
a(VCentral
VNNP
tp1358
a(VAfrica
VNNP
tp1359
a(V.
V.
tp1360
aa(lp1361
(VWe
VPRP
tp1362
a(Vhave
VVBP
tp1363
a(Vto
VTO
tp1364
a(Vtoe
VNN
tp1365
a(Vthe
VDT
tp1366
a(Vline
VNN
tp1367
a(V.
V.
tp1368
aa(lp1369
(VEven
VRB
tp1370
a(Vthough
VIN
tp1371
a(Vstudents
VNNS
tp1372
a(Vsometimes
VRB
tp1373
a(Vlearn
VVBP
tp1374
a(Vabout
VIN
tp1375
a(Vtheir
VPRP$
tp1376
a(Vown
VJJ
tp1377
a(Vregional
VJJ
tp1378
a(Vor
VCC
tp1379
a(Vnational
VJJ
tp1380
a(Vroots
VNNS
tp1381
a(V,
V,
tp1382
a(Vthey
VPRP
tp1383
a(Vare
VVBP
tp1384
a(Vstill
VRB
tp1385
a(Va
VDT
tp1386
a(Vvery
VRB
tp1387
a(Vlong
VJJ
tp1388
a(Vway
VNN
tp1389
a(Voff
VIN
tp1390
a(Vfrom
VIN
tp1391
a(Vlearning
VVBG
tp1392
a(Vabout
VIN
tp1393
a(Vthe
VDT
tp1394
a(Vroots
VNNS
tp1395
a(Vof
VIN
tp1396
a(Vothers
VNNS
tp1397
a(V,
V,
tp1398
a(Vthe
VDT
tp1399
a(Vroots
VNNS
tp1400
a(Vof
VIN
tp1401
a(Vtheir
VPRP$
tp1402
a(Vneighbours
VNNS
tp1403
a(V.
V.
tp1404
aa(lp1405
(VWe
VPRP
tp1406
a(Vwould
VMD
tp1407
a(Vprefer
VVB
tp1408
a(Vit
VPRP
tp1409
a(Vto
VTO
tp1410
a(Vbe
VVB
tp1411
a(V15
VCD
tp1412
a(V,
V,
tp1413
a(Vbut
VCC
tp1414
a(Vthis
VDT
tp1415
a(Vis
VVBZ
tp1416
a(Van
VDT
tp1417
a(Vissue
VNN
tp1418
a(Von
VIN
tp1419
a(Vwhich
VWDT
tp1420
a(Vwe
VPRP
tp1421
a(Vclearly
VRB
tp1422
a(Vsupport
VVBP
tp1423
a(Vthem
VPRP
tp1424
a(V.
V.
tp1425
aa(lp1426
(VFurthermore
VRB
tp1427
a(V,
V,
tp1428
a(Veven
VRB
tp1429
a(Vwithin
VIN
tp1430
a(Vthe
VDT
tp1431
a(Vsame
VJJ
tp1432
a(VMember
VNNP
tp1433
a(VState
VNNP
tp1434
a(Va
VDT
tp1435
a(Vvariety
VNN
tp1436
a(Vof
VIN
tp1437
a(Vdifferent
VJJ
tp1438
a(VSEs
VNNS
tp1439
a(Vwill
VMD
tp1440
a(Vbe
VVB
tp1441
a(Vcreated
VVBN
tp1442
a(Vto
VTO
tp1443
a(Vcover
VVB
tp1444
a(Vvarious
VJJ
tp1445
a(Vcompany
VNN
tp1446
a(Vfeatures
VNNS
tp1447
a(Vsuch
VJJ
tp1448
a(Vas
VIN
tp1449
a(Vco-decision
VNN
tp1450
a(Vmaking
VNN
tp1451
a(V.
V.
tp1452
aa(lp1453
(VTherefore
VRB
tp1454
a(V,
V,
tp1455
a(Vit
VPRP
tp1456
a(Vshould
VMD
tp1457
a(Vnot
VRB
tp1458
a(Vbe
VVB
tp1459
a(Vdifficult
VJJ
tp1460
a(Vto
VTO
tp1461
a(Vpay
VVB
tp1462
a(Vits
VPRP$
tp1463
a(Vcreditors
VNNS
tp1464
a(Vpunctually
VRB
tp1465
a(V.
V.
tp1466
aa(lp1467
(VThe
VDT
tp1468
a(Vtime
VNN
tp1469
a(Vhas
VVBZ
tp1470
a(Vnow
VRB
tp1471
a(Vcome
VVBN
tp1472
a(Vfor
VIN
tp1473
a(Vus
VPRP
tp1474
a(Vto
VTO
tp1475
a(Vsay
VVB
tp1476
a(Vto
VTO
tp1477
a(Vthe
VDT
tp1478
a(VCouncil
VNNP
tp1479
a(Vthat
VIN
tp1480
a(Vthese
VDT
tp1481
a(Vlittle
VJJ
tp1482
a(Vgames
VNNS
tp1483
a(Vare
VVBP
tp1484
a(Vfinished
VVBN
tp1485
a(V.
V.
tp1486
aa(lp1487
(VOn
VIN
tp1488
a(Vthis
VDT
tp1489
a(Vissue
VNN
tp1490
a(Vthe
VDT
tp1491
a(VFifth
VNNP
tp1492
a(VDirective
VNNP
tp1493
a(Vrounds
VNNS
tp1494
a(Voff
VIN
tp1495
a(Vthe
VDT
tp1496
a(VFourth
VJJ
tp1497
a(Vvery
VRB
tp1498
a(Vwell
VRB
tp1499
a(Vindeed
VRB
tp1500
a(V.
V.
tp1501
aa(lp1502
(VThe
VDT
tp1503
a(VTibetans
VNNS
tp1504
a(Vare
VVBP
tp1505
a(Vvoting
VVBG
tp1506
a(Vfor
VIN
tp1507
a(Va
VDT
tp1508
a(Vnew
VJJ
tp1509
a(Vspiritual
VJJ
tp1510
a(Vleader
VNN
tp1511
a(V,
V,
tp1512
a(Vas
VIN
tp1513
a(Vthe
VDT
tp1514
a(Vcurrent
VJJ
tp1515
a(VDalai
VNNP
tp1516
a(VLama
VNNP
tp1517
a(Vsteps
VVBZ
tp1518
a(Vdown
VRP
tp1519
a(V.
V.
tp1520
aa(lp1521
(VIn
VIN
tp1522
a(Vthe
VDT
tp1523
a(Vcase
VNN
tp1524
a(Vof
VIN
tp1525
a(Vsensitive
VJJ
tp1526
a(Vpopulation
VNN
tp1527
a(Vgroups
VNNS
tp1528
a(V,
V,
tp1529
a(Vozone
VNN
tp1530
a(Vpollution
VNN
tp1531
a(Vmay
VMD
tp1532
a(Vlead
VVB
tp1533
a(Vto
VTO
tp1534
a(Virritation
VNN
tp1535
a(Vof
VIN
tp1536
a(Vthe
VDT
tp1537
a(Veyes
VNNS
tp1538
a(V,
V,
tp1539
a(Vsore
VJJ
tp1540
a(Vthroats
VNNS
tp1541
a(Vand
VCC
tp1542
a(Vbreathing
VNN
tp1543
a(Vproblems
VNNS
tp1544
a(V.
V.
tp1545
aa(lp1546
(VThank
VVB
tp1547
a(VGod
VNNP
tp1548
a(Vour
VPRP$
tp1549
a(Vstaff
VNN
tp1550
a(Vare
VVBP
tp1551
a(Vrelatively
VRB
tp1552
a(Vyoung
VJJ
tp1553
a(V,
V,
tp1554
a(Vbut
VCC
tp1555
a(Vwe
VPRP
tp1556
a(Vhave
VVBP
tp1557
a(Vto
VTO
tp1558
a(Vfinance
VVB
tp1559
a(Vall
VDT
tp1560
a(Vtheir
VPRP$
tp1561
a(Vpensions
VNNS
tp1562
a(Vout
VIN
tp1563
a(Vof
VIN
tp1564
a(Vthe
VDT
tp1565
a(Vbudget
VNN
tp1566
a(V.
V.
tp1567
aa(lp1568
(VI
VPRP
tp1569
a(Vsay
VVBP
tp1570
a(V&apos;
VJJ
tp1571
a(Vno
VDT
tp1572
a(Vway
VNN
tp1573
a(V&apos;
VNN
tp1574
a(V.
V.
tp1575
aa(lp1576
(VTo
VTO
tp1577
a(Vsome
VDT
tp1578
a(Vextent
VNN
tp1579
a(Vthat
VWDT
tp1580
a(Vis
VVBZ
tp1581
a(Vinevitable
VJJ
tp1582
a(V.
V.
tp1583
aa(lp1584
(VPoliticians
VNNS
tp1585
a(Vbelieve
VVBP
tp1586
a(Vthat
VIN
tp1587
a(Vthe
VDT
tp1588
a(Vcurrent
VJJ
tp1589
a(Vsystem
VNN
tp1590
a(V,
V,
tp1591
a(Vin
VIN
tp1592
a(Vwhich
VWDT
tp1593
a(Veach
VDT
tp1594
a(Vcountry
VNN
tp1595
a(Vorganises
VVBZ
tp1596
a(Vits
VPRP$
tp1597
a(Vown
VJJ
tp1598
a(Vbanking
VNN
tp1599
a(Vsupervision
VNN
tp1600
a(V,
V,
tp1601
a(Vis
VVBZ
tp1602
a(Vadequate
VJJ
tp1603
a(V.
V.
tp1604
aa(lp1605
(VBoth
VDT
tp1606
a(VPolish
VJJ
tp1607
a(Vcitizens
VNNS
tp1608
a(Vand
VCC
tp1609
a(Vcitizens
VNNS
tp1610
a(Vof
VIN
tp1611
a(Vother
VJJ
tp1612
a(VEU
VNNP
tp1613
a(VMember
VNNP
tp1614
a(VStates
VNNPS
tp1615
a(Vare
VVBP
tp1616
a(Vdiscriminated
VVBN
tp1617
a(Vagainst
VIN
tp1618
a(Vin
VIN
tp1619
a(Vrestaurants
VNNS
tp1620
a(V,
V,
tp1621
a(Vhotels
VNNS
tp1622
a(Vand
VCC
tp1623
a(Vmuseums
VNNS
tp1624
a(V.
V.
tp1625
aa(lp1626
(VHe
VPRP
tp1627
a(Vsaid
VVBD
tp1628
a(Vthose
VDT
tp1629
a(Vwho
VWP
tp1630
a(Vmake
VVBP
tp1631
a(Vmoney
VNN
tp1632
a(Vout
VIN
tp1633
a(Vof
VIN
tp1634
a(Vfootball
VNN
tp1635
a(Vshould
VMD
tp1636
a(Vput
VVB
tp1637
a(Vit
VPRP
tp1638
a(Vback
VRB
tp1639
a(Vin
VIN
tp1640
a(V.
V.
tp1641
aa(lp1642
(VPeople
VNNS
tp1643
a(Vare
VVBP
tp1644
a(Vnot
VRB
tp1645
a(Vgoods
VNNS
tp1646
a(Vwhose
VWP$
tp1647
a(Vprice
VNN
tp1648
a(Vcan
VMD
tp1649
a(Vbe
VVB
tp1650
a(Vnegotiated
VVBN
tp1651
a(V.
V.
tp1652
aa(lp1653
(VTurning
VVBG
tp1654
a(Vto
VTO
tp1655
a(Vyour
VPRP$
tp1656
a(Vthird
VJJ
tp1657
a(Vquestion
VNN
tp1658
a(V,
V,
tp1659
a(Vbusiness
VNN
tp1660
a(Vwas
VVBD
tp1661
a(Vnot
VRB
tp1662
a(Vcancelled
VVBN
tp1663
a(Vas
VIN
tp1664
a(Va
VDT
tp1665
a(Vresult
VNN
tp1666
a(Vof
VIN
tp1667
a(Vthe
VDT
tp1668
a(Vdemonstration
VNN
tp1669
a(V,
V,
tp1670
a(Vbut
VCC
tp1671
a(Vbecause
VIN
tp1672
a(Vthe
VDT
tp1673
a(VBelgian
VJJ
tp1674
a(Vauthorities
VNNS
tp1675
a(Vhad
VVBD
tp1676
a(Vdecided
VVBN
tp1677
a(Vto
VTO
tp1678
a(Vseal
VVB
tp1679
a(Voff
VRP
tp1680
a(Vthe
VDT
tp1681
a(Varea
VNN
tp1682
a(Vin
VIN
tp1683
a(Vwhich
VWDT
tp1684
a(Vthe
VDT
tp1685
a(VEuropean
VJJ
tp1686
a(Vinstitutions
VNNS
tp1687
a(Vare
VVBP
tp1688
a(Vlocated
VJJ
tp1689
a(V.
V.
tp1690
a(VThis
VDT
tp1691
a(Vaffected
VVBD
tp1692
a(Vnot
VRB
tp1693
a(Vonly
VRB
tp1694
a(VParliament
VNNP
tp1695
a(V,
V,
tp1696
a(Vbut
VCC
tp1697
a(Valso
VRB
tp1698
a(Vthe
VDT
tp1699
a(VCommission
VNNP
tp1700
a(Vand
VCC
tp1701
a(Vthe
VDT
tp1702
a(VCouncil
VNNP
tp1703
a(V.
V.
tp1704
aa(lp1705
(VJust
VRB
tp1706
a(Vto
VTO
tp1707
a(Vgive
VVB
tp1708
a(Vyou
VPRP
tp1709
a(Vsome
VDT
tp1710
a(Vfood
VNN
tp1711
a(Vfor
VIN
tp1712
a(Vthought
VNN
tp1713
a(V:
V:
tp1714
a(Vthe
VDT
tp1715
a(VCommission
VNNP
tp1716
a(Vis
VVBZ
tp1717
a(Va
VDT
tp1718
a(Vvery
VRB
tp1719
a(Vdifferent
VJJ
tp1720
a(Vinstitution
VNN
tp1721
a(Vfrom
VIN
tp1722
a(Vus
VPRP
tp1723
a(V,
V,
tp1724
a(Vbut
VCC
tp1725
a(Vit
VPRP
tp1726
a(Vmanages
VVBZ
tp1727
a(Vto
VTO
tp1728
a(Vwork
VVB
tp1729
a(Vin
VIN
tp1730
a(Vtwo
VCD
tp1731
a(Vlanguages
VNNS
tp1732
a(V.
V.
tp1733
aa(lp1734
(VMr
VNNP
tp1735
a(VPresident
VNNP
tp1736
a(V,
V,
tp1737
a(VI
VPRP
tp1738
a(Vthink
VVBP
tp1739
a(Vthat
VDT
tp1740
a(Vwill
VMD
tp1741
a(Vbe
VVB
tp1742
a(Vcomplicated
VVBN
tp1743
a(V.
V.
tp1744
aa(lp1745
(VInstead
VRB
tp1746
a(V,
V,
tp1747
a(Vthe
VDT
tp1748
a(Vrapporteur
VNN
tp1749
a(Vcomplains
VVBZ
tp1750
a(Vthat
VIN
tp1751
a(Vpeople
VNNS
tp1752
a(V&quot;
VVBP
tp1753
a(Vwrongfully
VRB
tp1754
a(Vlay
VJJ
tp1755
a(Vclaim
VNN
tp1756
a(V&quot;
VNN
tp1757
a(Vto
VTO
tp1758
a(Vthe
VDT
tp1759
a(Vright
VNN
tp1760
a(Vof
VIN
tp1761
a(Vasylum
VNN
tp1762
a(Vin
VIN
tp1763
a(VEurope
VNNP
tp1764
a(V.
V.
tp1765
aa(lp1766
(V.
V.
tp1767
a(VI
VPRP
tp1768
a(Vdo
VVBP
tp1769
a(Vnot
VRB
tp1770
a(Vsee
VVB
tp1771
a(Vit
VPRP
tp1772
a(Vlike
VIN
tp1773
a(Vthat
VDT
tp1774
a(V.
V.
tp1775
aa(lp1776
(VA
VDT
tp1777
a(Vgreat
VJJ
tp1778
a(Vmany
VJJ
tp1779
a(Vnew
VJJ
tp1780
a(Vtypes
VNNS
tp1781
a(Vof
VIN
tp1782
a(Vcrime
VNN
tp1783
a(Vhave
VVBP
tp1784
a(Vappeared
VVBN
tp1785
a(V,
V,
tp1786
a(Vfor
VIN
tp1787
a(Vexample
VNN
tp1788
a(Vthe
VDT
tp1789
a(Vwell-publicised
VJJ
tp1790
a(Vproblem
VNN
tp1791
a(Vof
VIN
tp1792
a(VInternet
VNN
tp1793
a(Vcrime
VNN
tp1794
a(V,
V,
tp1795
a(Vand
VCC
tp1796
a(Vall
VPDT
tp1797
a(Vthese
VDT
tp1798
a(Vdevelopments
VNNS
tp1799
a(Vmean
VVBP
tp1800
a(Vthat
VIN
tp1801
a(Vnew
VJJ
tp1802
a(Vregulations
VNNS
tp1803
a(Vare
VVBP
tp1804
a(Vrequired
VVBN
tp1805
a(V.
V.
tp1806
aa(lp1807
(VFor
VIN
tp1808
a(Vthe
VDT
tp1809
a(Vlast
VJJ
tp1810
a(V22
VCD
tp1811
a(Vyears
VNNS
tp1812
a(V,
V,
tp1813
a(Vthe
VDT
tp1814
a(Vauthorities
VNNS
tp1815
a(Vin
VIN
tp1816
a(VNorthern
VJJ
tp1817
a(VCyprus
VNNP
tp1818
a(Vhave
VVBP
tp1819
a(Vbeen
VVBN
tp1820
a(Vdenying
VVBG
tp1821
a(Veven
VRB
tp1822
a(Vthe
VDT
tp1823
a(Vmost
VJJS
tp1824
a(Vbasic
VJJ
tp1825
a(Vhuman
VJJ
tp1826
a(Vrights
VNNS
tp1827
a(Vto
VTO
tp1828
a(VGreek
VJJ
tp1829
a(VCypriots
VNNS
tp1830
a(Vthere
VRB
tp1831
a(V.
V.
tp1832
aa(lp1833
(VThe
VDT
tp1834
a(VEU
VNNP
tp1835
a(V&apos;s
VNNS
tp1836
a(Vbehaviour
VNN
tp1837
a(Vis
VVBZ
tp1838
a(V,
V,
tp1839
a(Vhowever
VRB
tp1840
a(V,
V,
tp1841
a(Vdouble-edged
VJJ
tp1842
a(V.
V.
tp1843
aa(lp1844
(VFor
VIN
tp1845
a(Vme
VPRP
tp1846
a(V,
V,
tp1847
a(VCITES
VVBZ
tp1848
a(Vand
VCC
tp1849
a(V,
V,
tp1850
a(Vin
VIN
tp1851
a(Vparticular
VJJ
tp1852
a(V,
V,
tp1853
a(Vthe
VDT
tp1854
a(Vbluefin
VNN
tp1855
a(Vtuna
VNN
tp1856
a(V,
V,
tp1857
a(Vis
VVBZ
tp1858
a(Va
VDT
tp1859
a(Vtest
VNN
tp1860
a(Vcase
VNN
tp1861
a(V.
V.
tp1862
aa(lp1863
(VIsrael
VNNP
tp1864
a(V:
V:
tp1865
a(Vyou
VPRP
tp1866
a(Vhave
VVBP
tp1867
a(Vthe
VDT
tp1868
a(Vright
VNN
tp1869
a(Vto
VTO
tp1870
a(Vlive
VVB
tp1871
a(Vin
VIN
tp1872
a(Vpeace
VNN
tp1873
a(V.
V.
tp1874
aa(lp1875
(VThe
VDT
tp1876
a(Vlabel
VNN
tp1877
a(Vshould
VMD
tp1878
a(Vcontain
VVB
tp1879
a(Vinformation
VNN
tp1880
a(Von
VIN
tp1881
a(Vthe
VDT
tp1882
a(Vanimal
VNN
tp1883
a(V&apos;
VNN
tp1884
a(Vs
VVBZ
tp1885
a(Vregion
VNN
tp1886
a(Vof
VIN
tp1887
a(Vorigin
VNN
tp1888
a(V,
V,
tp1889
a(Vwhere
VWRB
tp1890
a(Vit
VPRP
tp1891
a(Vis
VVBZ
tp1892
a(Vborn
VVBN
tp1893
a(V,
V,
tp1894
a(Vfattened
VVBN
tp1895
a(Vup
VRB
tp1896
a(Vand
VCC
tp1897
a(Vslaughtered
VVBN
tp1898
a(V.
V.
tp1899
aa(lp1900
(VThat
VDT
tp1901
a(Vis
VVBZ
tp1902
a(Vwhy
VWRB
tp1903
a(VI
VPRP
tp1904
a(Vlike
VVBP
tp1905
a(Vyou
VPRP
tp1906
a(V,
V,
tp1907
a(Vand
VCC
tp1908
a(Vwhy
VWRB
tp1909
a(VI
VPRP
tp1910
a(Vwish
VVBP
tp1911
a(Vto
VTO
tp1912
a(Vdo
VVB
tp1913
a(Vyou
VPRP
tp1914
a(Va
VDT
tp1915
a(Vfavour
VNN
tp1916
a(V.
V.
tp1917
aa(lp1918
(VWords
VNNS
tp1919
a(Vwere
VVBD
tp1920
a(Vat
VIN
tp1921
a(Vthe
VDT
tp1922
a(Vbeginning
VNN
tp1923
a(Vof
VIN
tp1924
a(Vhuman
VJJ
tp1925
a(Vcommunication
VNN
tp1926
a(V.
V.
tp1927
aa(lp1928
(VSometimes
VRB
tp1929
a(Vvery
VRB
tp1930
a(Vsmall
VJJ
tp1931
a(Vquantities
VNNS
tp1932
a(Vof
VIN
tp1933
a(Vsoya
VNN
tp1934
a(Vare
VVBP
tp1935
a(Vused
VVBN
tp1936
a(V,
V,
tp1937
a(Vfor
VIN
tp1938
a(Vexample
VNN
tp1939
a(Vin
VIN
tp1940
a(Vsauces
VNNS
tp1941
a(Vand
VCC
tp1942
a(Vsoups
VNNS
tp1943
a(V.
V.
tp1944
aa(lp1945
(VOn
VIN
tp1946
a(VMonday
VNNP
tp1947
a(Vevening
VNN
tp1948
a(Vthe
VDT
tp1949
a(VSocialist
VNNP
tp1950
a(VGroup
VNNP
tp1951
a(Vexpressed
VVBD
tp1952
a(Va
VDT
tp1953
a(Vreservation
VNN
tp1954
a(Vabout
VIN
tp1955
a(Vone
VCD
tp1956
a(Vof
VIN
tp1957
a(Vthe
VDT
tp1958
a(Vcandidates
VNNS
tp1959
a(V.
V.
tp1960
aa(lp1961
(VThat
VDT
tp1962
a(Vis
VVBZ
tp1963
a(Vnot
VRB
tp1964
a(Vthe
VDT
tp1965
a(Vsolution
VNN
tp1966
a(V.
V.
tp1967
aa(lp1968
(VI
VPRP
tp1969
a(Vwould
VMD
tp1970
a(Vlike
VVB
tp1971
a(Vto
VTO
tp1972
a(Vdraw
VVB
tp1973
a(Vthe
VDT
tp1974
a(VHouse
VNNP
tp1975
a(V\u2019
VNN
tp1976
a(Vs
VVBZ
tp1977
a(Vattention
VNN
tp1978
a(Vto
VTO
tp1979
a(Vone
VCD
tp1980
a(Vstatement
VNN
tp1981
a(Vin
VIN
tp1982
a(Vparticular
VJJ
tp1983
a(V:
V:
tp1984
a(VZimbabwe
VNNP
tp1985
a(V\u2019
VCD
tp1986
a(Vs
VNNS
tp1987
a(Vpolice
VNN
tp1988
a(Vchief
VNN
tp1989
a(Vsaid
VVBD
tp1990
a(Vyesterday
VNN
tp1991
a(Vthat
VIN
tp1992
a(Vthey
VPRP
tp1993
a(Vmust
VMD
tp1994
a(Vrid
VVB
tp1995
a(Vtheir
VPRP$
tp1996
a(Vcountry
VNN
tp1997
a(Vof
VIN
tp1998
a(V\u2018
VCD
tp1999
a(Vthe
VDT
tp2000
a(Vcrawling
VVBG
tp2001
a(Vmass
VNN
tp2002
a(Vof
VIN
tp2003
a(Vmaggots
VNNS
tp2004
a(V\u2019
VCD
tp2005
a(V.
V.
tp2006
aa(lp2007
(VWe
VPRP
tp2008
a(Vare
VVBP
tp2009
a(Valso
VRB
tp2010
a(Vof
VIN
tp2011
a(Vthe
VDT
tp2012
a(Vopinion
VNN
tp2013
a(Vthat
VWDT
tp2014
a(Vpreference
VNN
tp2015
a(Vshould
VMD
tp2016
a(Vbe
VVB
tp2017
a(Vgiven
VVBN
tp2018
a(Vto
VTO
tp2019
a(Vthe
VDT
tp2020
a(Vout-ofcourt
VNN
tp2021
a(Vsettlement
VNN
tp2022
a(Vof
VIN
tp2023
a(Vdisputes
VNNS
tp2024
a(V,
V,
tp2025
a(Vconducted
VVBN
tp2026
a(Von
VIN
tp2027
a(Va
VDT
tp2028
a(Vtransfrontier
VJJ
tp2029
a(Vbasis
VNN
tp2030
a(Vby
VIN
tp2031
a(Vmeans
VNNS
tp2032
a(Vof
VIN
tp2033
a(Va
VDT
tp2034
a(Vstandard
VJJ
tp2035
a(Vform
VNN
tp2036
a(Vand
VCC
tp2037
a(Vin
VIN
tp2038
a(Vcollaboration
VNN
tp2039
a(Vwith
VIN
tp2040
a(Vconsumer
VNN
tp2041
a(Vcomplaints
VNNS
tp2042
a(Vbodies
VNNS
tp2043
a(Vnominated
VVBN
tp2044
a(Vby
VIN
tp2045
a(Vthe
VDT
tp2046
a(VMember
VNNP
tp2047
a(VStates
VNNPS
tp2048
a(V.
V.
tp2049
aa(lp2050
(VNine
VCD
tp2051
a(Vyears
VNNS
tp2052
a(Vlater
VRB
tp2053
a(V,
V,
tp2054
a(Vin
VIN
tp2055
a(V2006
VCD
tp2056
a(V,
V,
tp2057
a(Vin
VIN
tp2058
a(Vthe
VDT
tp2059
a(Venlarged
VJJ
tp2060
a(VEuropean
VNNP
tp2061
a(VUnion
VNNP
tp2062
a(V,
V,
tp2063
a(V64.3
VCD
tp2064
a(V%
VNN
tp2065
a(Vof
VIN
tp2066
a(Vpeople
VNNS
tp2067
a(Vof
VIN
tp2068
a(Vworking
VVBG
tp2069
a(Vage
VNN
tp2070
a(Vwere
VVBD
tp2071
a(Vin
VIN
tp2072
a(Vemployment
VNN
tp2073
a(V.
V.
tp2074
aa(lp2075
(VFour
VCD
tp2076
a(V,
V,
tp2077
a(Vthe
VDT
tp2078
a(VCommission
VNNP
tp2079
a(Vdoes
VVBZ
tp2080
a(Vnot
VRB
tp2081
a(Vclearly
VRB
tp2082
a(Vlay
VVBD
tp2083
a(Vdown
VRP
tp2084
a(Va
VDT
tp2085
a(Vdesignation
VNN
tp2086
a(Venabling
VVBG
tp2087
a(Vthe
VDT
tp2088
a(Vconsumer
VNN
tp2089
a(Vto
VTO
tp2090
a(Vmake
VVB
tp2091
a(Van
VDT
tp2092
a(Venlightened
VVBN
tp2093
a(Vchoice
VNN
tp2094
a(V,
V,
tp2095
a(Vbased
VVBN
tp2096
a(Von
VIN
tp2097
a(Vconcrete
VJJ
tp2098
a(Vinformation
VNN
tp2099
a(V.
V.
tp2100
aa(lp2101
(VIt
VPRP
tp2102
a(Vis
VVBZ
tp2103
a(Vup
VRB
tp2104
a(Vto
VTO
tp2105
a(VParliament
VNNP
tp2106
a(Vto
VTO
tp2107
a(Vbe
VVB
tp2108
a(Vquite
VRB
tp2109
a(Vclear
VJJ
tp2110
a(Von
VIN
tp2111
a(Vhow
VWRB
tp2112
a(Vit
VPRP
tp2113
a(Vwill
VMD
tp2114
a(Vcarry
VVB
tp2115
a(Vout
VRP
tp2116
a(Vcontrol
VNN
tp2117
a(V.
V.
tp2118
aa(lp2119
(VIt
VPRP
tp2120
a(Vhas
VVBZ
tp2121
a(Vcome
VVBN
tp2122
a(Vback
VRB
tp2123
a(Vto
VTO
tp2124
a(Vus
VPRP
tp2125
a(Vfrom
VIN
tp2126
a(Vconciliation
VNN
tp2127
a(Vquite
VRB
tp2128
a(Vsatisfactorily
VRB
tp2129
a(V.
V.
tp2130
aa(lp2131
(VMr
VNNP
tp2132
a(VPresident
VNNP
tp2133
a(V,
V,
tp2134
a(VCommissioner
VNNP
tp2135
a(V,
V,
tp2136
a(Vthe
VDT
tp2137
a(Vvast
VJJ
tp2138
a(Vmajority
VNN
tp2139
a(Vof
VIN
tp2140
a(Vmy
VPRP$
tp2141
a(Vgroup
VNN
tp2142
a(Vdoes
VVBZ
tp2143
a(Vnot
VRB
tp2144
a(Vsupport
VVB
tp2145
a(Vthis
VDT
tp2146
a(Vinitiative
VNN
tp2147
a(Vof
VIN
tp2148
a(Va
VDT
tp2149
a(Vmotion
VNN
tp2150
a(Vof
VIN
tp2151
a(Vcensure
VNN
tp2152
a(Von
VIN
tp2153
a(Vthe
VDT
tp2154
a(VCommission
VNNP
tp2155
a(V.
V.
tp2156
aa(lp2157
(VMilosevic
VNNP
tp2158
a(Vis
VVBZ
tp2159
a(Vresponsible
VJJ
tp2160
a(Vfor
VIN
tp2161
a(Vthis
VDT
tp2162
a(Vwar
VNN
tp2163
a(V,
V,
tp2164
a(Vwhich
VWDT
tp2165
a(VI
VPRP
tp2166
a(Vhope
VVBP
tp2167
a(Vwill
VMD
tp2168
a(Vbe
VVB
tp2169
a(Vthe
VDT
tp2170
a(Vlast
VJJ
tp2171
a(Vround
VNN
tp2172
a(Vof
VIN
tp2173
a(Vviolence
VNN
tp2174
a(V.
V.
tp2175
aa(lp2176
(VTo
VTO
tp2177
a(Vreply
VVB
tp2178
a(Vto
VTO
tp2179
a(Vthe
VDT
tp2180
a(Vdouble
VJJ
tp2181
a(Vquestion
VNN
tp2182
a(Vraised
VVBD
tp2183
a(V,
V,
tp2184
a(VI
VPRP
tp2185
a(Vwould
VMD
tp2186
a(Vsay
VVB
tp2187
a(Vthat
VIN
tp2188
a(Von
VIN
tp2189
a(Vits
VPRP$
tp2190
a(Vmeeting
VNN
tp2191
a(Vof
VIN
tp2192
a(V16
VCD
tp2193
a(VOctober
VNNP
tp2194
a(V1997
VCD
tp2195
a(V,
V,
tp2196
a(Vsix
VCD
tp2197
a(Vdays
VNNS
tp2198
a(Vago
VRB
tp2199
a(V,
V,
tp2200
a(Vthe
VDT
tp2201
a(VCommittee
VNNP
tp2202
a(Vof
VIN
tp2203
a(VPermanent
VNNP
tp2204
a(VRepresentatives
VNNP
tp2205
a(Vset
VVBD
tp2206
a(Vup
VRP
tp2207
a(Va
VDT
tp2208
a(Vworking
VVBG
tp2209
a(Vgroup
VNN
tp2210
a(Vwith
VIN
tp2211
a(Vresponsibility
VNN
tp2212
a(Vfor
VIN
tp2213
a(Vexamining
VVBG
tp2214
a(Vquestions
VNNS
tp2215
a(Vrelating
VVBG
tp2216
a(Vto
VTO
tp2217
a(Vthe
VDT
tp2218
a(VSchengen
VNNP
tp2219
a(Vmanuals
VNNS
tp2220
a(Vand
VCC
tp2221
a(Vtheir
VPRP$
tp2222
a(Vassignment
VNN
tp2223
a(Vto
VTO
tp2224
a(Vthe
VDT
tp2225
a(Vfirst
VJJ
tp2226
a(Vand
VCC
tp2227
a(Vthird
VJJ
tp2228
a(Vpillars
VNNS
tp2229
a(V.
V.
tp2230
aa(lp2231
(VTheir
VPRP$
tp2232
a(Vaccess
VNN
tp2233
a(Vto
VTO
tp2234
a(Vthe
VDT
tp2235
a(Vmarket
VNN
tp2236
a(Vhas
VVBZ
tp2237
a(Vnot
VRB
tp2238
a(Vgone
VVBN
tp2239
a(Vdown
VRB
tp2240
a(Vsince
VIN
tp2241
a(V1993
VCD
tp2242
a(V.
V.
tp2243
aa(lp2244
(VCurrently
VRB
tp2245
a(V,
V,
tp2246
a(Vfree
VJJ
tp2247
a(Vmovement
VNN
tp2248
a(Vis
VVBZ
tp2249
a(Vguaranteed
VVBN
tp2250
a(Von
VIN
tp2251
a(Va
VDT
tp2252
a(Vterritory
VNN
tp2253
a(Vwith
VIN
tp2254
a(V42
VCD
tp2255
a(V673
VCD
tp2256
a(Vkm
VNN
tp2257
a(Vof
VIN
tp2258
a(Vexternal
VJJ
tp2259
a(Vsea
VNN
tp2260
a(Vand
VCC
tp2261
a(V7
VCD
tp2262
a(V721
VCD
tp2263
a(Vkm
VNN
tp2264
a(Vof
VIN
tp2265
a(Vland
VNN
tp2266
a(Vborders
VNNS
tp2267
a(V,
V,
tp2268
a(Vcovering
VVBG
tp2269
a(V25
VCD
tp2270
a(Vcountries
VNNS
tp2271
a(Vand
VCC
tp2272
a(V400
VCD
tp2273
a(Vmillion
VCD
tp2274
a(Vcitizens
VNNS
tp2275
a(V.
V.
tp2276
aa(lp2277
(VIn
VIN
tp2278
a(Vthe
VDT
tp2279
a(VCouncil
VNNP
tp2280
a(V,
V,
tp2281
a(Vthe
VDT
tp2282
a(Vissue
VNN
tp2283
a(Vof
VIN
tp2284
a(Vwho
VWP
tp2285
a(Vpublishes
VVBZ
tp2286
a(Vthe
VDT
tp2287
a(Vinformation
VNN
tp2288
a(Vwas
VVBD
tp2289
a(Vvery
VRB
tp2290
a(Vcontroversial
VJJ
tp2291
a(V.
V.
tp2292
aa.