(lp1
(lp2
(VIn
VIN
tp3
a(Vthe
VDT
tp4
a(Vlast
VJJ
tp5
a(Vhours
VNNS
tp6
a(Vthere
VRB
tp7
a(V,
V,
tp8
a(VI
VPRP
tp9
a(Vsat
VVBD
tp10
a(Vwith
VIN
tp11
a(Va
VDT
tp12
a(Vcheck
VNN
tp13
a(Vlist
VNN
tp14
a(V.
V.
tp15
aa(lp16
(VIt
VPRP
tp17
a(Vis
VVBZ
tp18
a(Vexactly
VRB
tp19
a(Vthis
VDT
tp20
a(Vdisposition
VNN
tp21
a(Vamong
VIN
tp22
a(Vboth
VCC
tp23
a(Vthe
VDT
tp24
a(VAlbanians
VNNS
tp25
a(Vand
VCC
tp26
a(VSerbs
VNNS
tp27
a(Vthat
VWDT
tp28
a(Vjustifies
VVBZ
tp29
a(Vand
VCC
tp30
a(Vinspires
VVBZ
tp31
a(Vthe
VDT
tp32
a(VEuropean
VJJ
tp33
a(Vefforts
VNNS
tp34
a(Vwithin
VIN
tp35
a(Vthe
VDT
tp36
a(VWestern
VJJ
tp37
a(VBalkans
VNN
tp38
a(V.
V.
tp39
aa(lp40
(VAs
VIN
tp41
a(Va
VDT
tp42
a(Vresult
VNN
tp43
a(Vof
VIN
tp44
a(Vthis
VDT
tp45
a(Vwork
VNN
tp46
a(V,
V,
tp47
a(Vin
VIN
tp48
a(Vfull
VJJ
tp49
a(Vcooperation
VNN
tp50
a(Vwith
VIN
tp51
a(VMember
VNNP
tp52
a(VStates
VNNPS
tp53
a(Vand
VCC
tp54
a(Vthe
VDT
tp55
a(Vindustry
VNN
tp56
a(V,
V,
tp57
a(Vnew
VJJ
tp58
a(Vprocedures
VNNS
tp59
a(Vwere
VVBD
tp60
a(Vdefined
VVBN
tp61
a(V.
V.
tp62
aa(lp63
(VAfter
VIN
tp64
a(Vthat
VDT
tp65
a(V,
V,
tp66
a(Veveryone
VNN
tp67
a(Vwent
VVBD
tp68
a(Vhome
VNN
tp69
a(V.
V.
tp70
aa(lp71
(V36
VCD
tp72
a(V.
V.
tp73
aa(lp74
(VMr
VNNP
tp75
a(VPresident
VNNP
tp76
a(V,
V,
tp77
a(VFidel
VNNP
tp78
a(VCastro
VNNP
tp79
a(Vlies
VVBZ
tp80
a(Vin
VIN
tp81
a(Vhis
VPRP$
tp82
a(Vsick
VJJ
tp83
a(Vbed
VNN
tp84
a(Vin
VIN
tp85
a(Vhis
VPRP$
tp86
a(Vsultry
VJJ
tp87
a(VCaribbean
VNNP
tp88
a(Visland
VNN
tp89
a(V,
V,
tp90
a(Vfading
VJJ
tp91
a(Vaway
VRB
tp92
a(V-
V:
tp93
a(Vand
VCC
tp94
a(Vnot
VRB
tp95
a(Vbefore
VIN
tp96
a(Vtime
VNN
tp97
a(V.
V.
tp98
aa(lp99
(VSince
VIN
tp100
a(Vthis
VDT
tp101
a(Vhas
VVBZ
tp102
a(Vbeen
VVBN
tp103
a(Va
VDT
tp104
a(Vpositive
VJJ
tp105
a(Vexperience
VNN
tp106
a(V,
V,
tp107
a(Vit
VPRP
tp108
a(Vis
VVBZ
tp109
a(Vnot
VRB
tp110
a(Venough
VRB
tp111
a(Vnow
VRB
tp112
a(Vjust
VRB
tp113
a(Vto
VTO
tp114
a(Vtop
VVB
tp115
a(Vit
VPRP
tp116
a(Vup
VRP
tp117
a(Vor
VCC
tp118
a(Vmake
VVB
tp119
a(Va
VDT
tp120
a(Vfew
VJJ
tp121
a(Vadjustments
VNNS
tp122
a(V.
V.
tp123
aa(lp124
(VA
VDT
tp125
a(Vgroup
VNN
tp126
a(Vof
VIN
tp127
a(Vextremist
VNN
tp128
a(Vsettlers
VNNS
tp129
a(V-
V:
tp130
a(Vnot
VRB
tp131
a(Vpoor
VJJ
tp132
a(VJews
VNNPS
tp133
a(Vwho
VWP
tp134
a(Vwere
VVBD
tp135
a(Vpersecuted
VVBN
tp136
a(Vand
VCC
tp137
a(Vescaped
VVBN
tp138
a(Vfrom
VIN
tp139
a(Vthe
VDT
tp140
a(Vdreadful
VJJ
tp141
a(Vtragedy
VNN
tp142
a(Vof
VIN
tp143
a(Vthe
VDT
tp144
a(VHolocaust
VNNP
tp145
a(V,
V,
tp146
a(Vbut
VCC
tp147
a(Vfundamentalists
VNNS
tp148
a(Vwho
VWP
tp149
a(Vbelieve
VVBP
tp150
a(Vthat
VIN
tp151
a(Vthat
VDT
tp152
a(Vland
VNN
tp153
a(Vis
VVBZ
tp154
a(Vtheirs
VJJ
tp155
a(Vby
VIN
tp156
a(Vdivine
VJJ
tp157
a(Vright
VNN
tp158
a(V-
V:
tp159
a(Vis
VVBZ
tp160
a(Vclaiming
VVBG
tp161
a(Vownership
VNN
tp162
a(Vof
VIN
tp163
a(Vthe
VDT
tp164
a(Vhouse
VNN
tp165
a(Vand
VCC
tp166
a(V26
VCD
tp167
a(Vother
VJJ
tp168
a(Vhomes
VNNS
tp169
a(Vin
VIN
tp170
a(Vthe
VDT
tp171
a(Vsame
VJJ
tp172
a(Vdistrict
VNN
tp173
a(V,
V,
tp174
a(Von
VIN
tp175
a(Vthe
VDT
tp176
a(Vbasis
VNN
tp177
a(V,
V,
tp178
a(Vas
VIN
tp179
a(VMr
VNNP
tp180
a(VMatsakis
VNNP
tp181
a(Vsaid
VVBD
tp182
a(V,
V,
tp183
a(Vof
VIN
tp184
a(Van
VDT
tp185
a(VOttoman
VNNP
tp186
a(Vcode
VNN
tp187
a(Vdating
VVBG
tp188
a(Vfrom
VIN
tp189
a(Vthe
VDT
tp190
a(Vnineteenth
VJJ
tp191
a(Vcentury
VNN
tp192
a(Vof
VIN
tp193
a(Vundoubted
VJJ
tp194
a(Vauthenticity
VNN
tp195
a(V,
V,
tp196
a(Vdisputed
VVBN
tp197
a(Veven
VRB
tp198
a(Vby
VIN
tp199
a(Vthe
VDT
tp200
a(VUS
VNNP
tp201
a(Vauthorities
VNNS
tp202
a(V.
V.
tp203
aa(lp204
(VThus
VRB
tp205
a(Vfar
VRB
tp206
a(V,
V,
tp207
a(Vits
VPRP$
tp208
a(Vresponse
VNN
tp209
a(Vhas
VVBZ
tp210
a(Vbeen
VVBN
tp211
a(Vpromising
VVBG
tp212
a(V.
V.
tp213
aa(lp214
(VUse
VVB
tp215
a(Vthe
VDT
tp216
a(Vpasserelle
VNN
tp217
a(Vclause
VNN
tp218
a(Vto
VTO
tp219
a(Vspeed
VVB
tp220
a(Vup
VRP
tp221
a(VEurope
VNNP
tp222
a(V&apos;s
VNNS
tp223
a(Vproblem-solving
VJJ
tp224
a(Vpotential
VNN
tp225
a(V.
V.
tp226
aa(lp227
(VAs
VIN
tp228
a(Vthe
VDT
tp229
a(Vmarket
VNN
tp230
a(Vcontinues
VVBZ
tp231
a(Vto
VTO
tp232
a(Vgrow
VVB
tp233
a(Vand
VCC
tp234
a(Vinnovation
VNN
tp235
a(Vcycles
VNNS
tp236
a(Vbecome
VVBP
tp237
a(Vincreasingly
VRB
tp238
a(Vshorter
VJJR
tp239
a(V,
V,
tp240
a(Vthe
VDT
tp241
a(Vreplacement
VNN
tp242
a(Vof
VIN
tp243
a(Vequipment
VNN
tp244
a(Vaccelerates
VVBZ
tp245
a(V,
V,
tp246
a(Vmaking
VVBG
tp247
a(Vwaste
VNN
tp248
a(Velectrical
VJJ
tp249
a(Vand
VCC
tp250
a(Velectronic
VJJ
tp251
a(Vequipment
VNN
tp252
a(V(
VCD
tp253
a(VWEEE
VNNP
tp254
a(V)
VVBD
tp255
a(Vthe
VDT
tp256
a(Vfastest
VJJS
tp257
a(Vgrowing
VVBG
tp258
a(Vwaste
VNN
tp259
a(Vstream
VNN
tp260
a(V.
V.
tp261
aa(lp262
(VFirst
VRB
tp263
a(V,
V,
tp264
a(Vthe
VDT
tp265
a(Vrevision
VNN
tp266
a(Vof
VIN
tp267
a(Vthe
VDT
tp268
a(VGlobalisation
VNNP
tp269
a(VAdjustment
VNNP
tp270
a(VFund
VNNP
tp271
a(V,
V,
tp272
a(Vwhich
VWDT
tp273
a(Vhelps
VVBZ
tp274
a(Vpeople
VNNS
tp275
a(Vwho
VWP
tp276
a(Vhave
VVBP
tp277
a(Vlost
VVBN
tp278
a(Vtheir
VPRP$
tp279
a(Vjobs
VNNS
tp280
a(Vto
VTO
tp281
a(Vfind
VVB
tp282
a(Vnew
VJJ
tp283
a(Vones
VNNS
tp284
a(V.
V.
tp285
aa(lp286
(VThere
VEX
tp287
a(Vare
VVBP
tp288
a(Va
VDT
tp289
a(Vfew
VJJ
tp290
a(Vamendments
VNNS
tp291
a(Vseeking
VVBG
tp292
a(Vto
VTO
tp293
a(Vchange
VVB
tp294
a(Vthis
VDT
tp295
a(Vand
VCC
tp296
a(Vwe
VPRP
tp297
a(Vwill
VMD
tp298
a(Voppose
VVB
tp299
a(Vthem
VPRP
tp300
a(V.
V.
tp301
aa(lp302
(VThis
VDT
tp303
a(Vis
VVBZ
tp304
a(Va
VDT
tp305
a(Vkey
VJJ
tp306
a(Vissue
VNN
tp307
a(Vin
VIN
tp308
a(Vthe
VDT
tp309
a(Vnew
VJJ
tp310
a(VMember
VNNP
tp311
a(VStates
VNNPS
tp312
a(V,
V,
tp313
a(Vwhere
VWRB
tp314
a(V20
VCD
tp315
a(Vor
VCC
tp316
a(Veven
VRB
tp317
a(V30-year-old
VJJ
tp318
a(Vcars
VNNS
tp319
a(Vin
VIN
tp320
a(Van
VDT
tp321
a(Vappalling
VJJ
tp322
a(Vcondition
VNN
tp323
a(Vare
VVBP
tp324
a(Vcontinuing
VVBG
tp325
a(Vto
VTO
tp326
a(Vpollute
VVB
tp327
a(Vthe
VDT
tp328
a(Venvironment
VNN
tp329
a(V.
V.
tp330
aa(lp331
(VThis
VDT
tp332
a(Vis
VVBZ
tp333
a(Va
VDT
tp334
a(Vscandal
VNN
tp335
a(V,
V,
tp336
a(Vand
VCC
tp337
a(Vthis
VDT
tp338
a(Vscandal
VNN
tp339
a(Vmust
VMD
tp340
a(Vstop
VVB
tp341
a(V.
V.
tp342
aa(lp343
(VWe
VPRP
tp344
a(Vnow
VRB
tp345
a(Vhave
VVBP
tp346
a(Va
VDT
tp347
a(Vprocedure
VNN
tp348
a(Vwhereby
VWRB
tp349
a(Vnew
VJJ
tp350
a(Vregulations
VNNS
tp351
a(Vare
VVBP
tp352
a(Vvery
VRB
tp353
a(Voften
VRB
tp354
a(Vadopted
VVBN
tp355
a(Vby
VIN
tp356
a(Vthe
VDT
tp357
a(VCouncil
VNNP
tp358
a(Vwithout
VIN
tp359
a(Vthe
VDT
tp360
a(Vold
VJJ
tp361
a(Vregulation
VNN
tp362
a(Vhaving
VVBG
tp363
a(Vbeen
VVBN
tp364
a(Vevaluated
VVBN
tp365
a(V.
V.
tp366
aa(lp367
(VHowever
VRB
tp368
a(V,
V,
tp369
a(Vthey
VPRP
tp370
a(Valso
VRB
tp371
a(Vtell
VVBP
tp372
a(Vme
VPRP
tp373
a(Vthat
VIN
tp374
a(Vthe
VDT
tp375
a(Vgrants
VNNS
tp376
a(Vare
VVBP
tp377
a(Vtoo
VRB
tp378
a(Vsmall
VJJ
tp379
a(V.
V.
tp380
aa(lp381
(VImagine
VVB
tp382
a(Vif
VIN
tp383
a(Vwe
VPRP
tp384
a(Vcould
VMD
tp385
a(Vunderstand
VVB
tp386
a(Vhow
VWRB
tp387
a(Valgae
VNNS
tp388
a(Vproduce
VVBP
tp389
a(Voxygen
VNN
tp390
a(Vfrom
VIN
tp391
a(Vsunlight
VNN
tp392
a(V.
V.
tp393
a(VSuch
VJJ
tp394
a(Vthings
VNNS
tp395
a(Vexist
VVBP
tp396
a(V.
V.
tp397
aa(lp398
(VChange
VNNP
tp399
a(Vdoes
VVBZ
tp400
a(Vnot
VRB
tp401
a(Vnecessarily
VRB
tp402
a(Vensure
VVB
tp403
a(Vprogress
VNN
tp404
a(V,
V,
tp405
a(Vbut
VCC
tp406
a(Vprogress
VNN
tp407
a(Vabsolutely
VRB
tp408
a(Vrequires
VVBZ
tp409
a(Vchange
VNN
tp410
a(V.
V.
tp411
aa(lp412
(VIn
VIN
tp413
a(Vother
VJJ
tp414
a(Vwords
VNNS
tp415
a(V,
V,
tp416
a(Veverybody
VNN
tp417
a(Vmust
VMD
tp418
a(Vfulfil
VVB
tp419
a(Vtheir
VPRP$
tp420
a(Vresponsibilities
VNNS
tp421
a(V.
V.
tp422
aa(lp423
(VOur
VPRP$
tp424
a(Vtask
VNN
tp425
a(Vis
VVBZ
tp426
a(Vto
VTO
tp427
a(Vdefend
VVB
tp428
a(Vthe
VDT
tp429
a(Vliberty
VNN
tp430
a(Vand
VCC
tp431
a(Vdemocracy
VNN
tp432
a(Vin
VIN
tp433
a(Vthe
VDT
tp434
a(Vhearts
VNNS
tp435
a(Vof
VIN
tp436
a(Vthose
VDT
tp437
a(Vwho
VWP
tp438
a(Vare
VVBP
tp439
a(Vtoday
VNN
tp440
a(Vdefending
VVBG
tp441
a(Vit
VPRP
tp442
a(Vin
VIN
tp443
a(Vthe
VDT
tp444
a(Vstreets
VNNS
tp445
a(V.
V.
tp446
aa(lp447
(VThe
VDT
tp448
a(Vgovernment
VNN
tp449
a(Vwhich
VWDT
tp450
a(Vwas
VVBD
tp451
a(Vsubsequently
VRB
tp452
a(Vformed
VVBN
tp453
a(Vwas
VVBD
tp454
a(Valso
VRB
tp455
a(Vsomething
VNN
tp456
a(Vnew
VJJ
tp457
a(Vfor
VIN
tp458
a(VAlbania
VNNP
tp459
a(V.
V.
tp460
aa(lp461
(VIf
VIN
tp462
a(VI
VPRP
tp463
a(Vwere
VVBD
tp464
a(Vthe
VDT
tp465
a(Vperson
VNN
tp466
a(Vinvolved
VVBN
tp467
a(V,
V,
tp468
a(VI
VPRP
tp469
a(Vwould
VMD
tp470
a(Vtake
VVB
tp471
a(Vthe
VDT
tp472
a(Vmatter
VNN
tp473
a(Vto
VTO
tp474
a(Vthe
VDT
tp475
a(Vcourts
VNNS
tp476
a(V.
V.
tp477
aa(lp478
(VWe
VPRP
tp479
a(Vthen
VRB
tp480
a(Vwent
VVBD
tp481
a(Vfurther
VRB
tp482
a(V,
V,
tp483
a(Vand
VCC
tp484
a(VI
VPRP
tp485
a(Vagreed
VVBD
tp486
a(Vto
VTO
tp487
a(Vput
VVB
tp488
a(Van
VDT
tp489
a(Voral
VJJ
tp490
a(Vamendment
VNN
tp491
a(Vstating
VVBG
tp492
a(Vit
VPRP
tp493
a(Vshould
VMD
tp494
a(Vbe
VVB
tp495
a(V&quot;
VJJ
tp496
a(Vadequate
VJJ
tp497
a(Vdefence
VNN
tp498
a(Vexpenditure
VNN
tp499
a(V&quot;
VNN
tp500
a(V.
V.
tp501
aa(lp502
(VAt
VIN
tp503
a(Vthe
VDT
tp504
a(Vsame
VJJ
tp505
a(Vtime
VNN
tp506
a(Vthere
VEX
tp507
a(Vwere
VVBD
tp508
a(Vdevelopments
VNNS
tp509
a(Vtaking
VVBG
tp510
a(Vplace
VNN
tp511
a(Vin
VIN
tp512
a(Vthe
VDT
tp513
a(Vinternational
VJJ
tp514
a(Vsystem
VNN
tp515
a(Vfor
VIN
tp516
a(Vmarks
VNNS
tp517
a(Vwith
VIN
tp518
a(Vthe
VDT
tp519
a(Vsetting
VVBG
tp520
a(Vup
VRP
tp521
a(Von
VIN
tp522
a(Vthe
VDT
tp523
a(Vone
VCD
tp524
a(Vhand
VNN
tp525
a(Vof
VIN
tp526
a(Vthe
VDT
tp527
a(VStockholm
VNNP
tp528
a(VAgreement
VNNP
tp529
a(V,
V,
tp530
a(Vwhich
VWDT
tp531
a(Vamended
VVBD
tp532
a(Vthe
VDT
tp533
a(VMadrid
VNNP
tp534
a(VAgreement
VNNP
tp535
a(Vabove
VIN
tp536
a(Vall
VDT
tp537
a(Vby
VIN
tp538
a(Vsetting
VVBG
tp539
a(Vup
VRP
tp540
a(Vthe
VDT
tp541
a(VWorld
VNNP
tp542
a(VIndustrial
VNNP
tp543
a(VProperty
VNNP
tp544
a(VOrganization
VNNP
tp545
a(Vwith
VIN
tp546
a(Vits
VPRP$
tp547
a(Vhead
VNN
tp548
a(Voffice
VNN
tp549
a(Vin
VIN
tp550
a(VGeneva
VNNP
tp551
a(Vwith
VIN
tp552
a(Va
VDT
tp553
a(Vnumber
VNN
tp554
a(Vof
VIN
tp555
a(Vregistration
VNN
tp556
a(Voffices
VNNS
tp557
a(Vallowing
VVBG
tp558
a(Vfor
VIN
tp559
a(Va
VDT
tp560
a(Vcertain
VJJ
tp561
a(Vdegree
VNN
tp562
a(Vof
VIN
tp563
a(Vinternational
VJJ
tp564
a(Vcollaboration
VNN
tp565
a(Vand
VCC
tp566
a(Va
VDT
tp567
a(Vcertain
VJJ
tp568
a(Vefficiency
VNN
tp569
a(Vin
VIN
tp570
a(Vinternational
VJJ
tp571
a(Vmechanisms
VNNS
tp572
a(Vwhich
VWDT
tp573
a(Vdid
VVBD
tp574
a(Vnot
VRB
tp575
a(Vexist
VVB
tp576
a(Vpreviously
VRB
tp577
a(V.
V.
tp578
aa(lp579
(VThus
VRB
tp580
a(V,
V,
tp581
a(VI
VPRP
tp582
a(Vwanted
VVBD
tp583
a(Vto
VTO
tp584
a(Vexplore
VVB
tp585
a(Vmany
VJJ
tp586
a(Vlines
VNNS
tp587
a(Vof
VIN
tp588
a(Vaction
VNN
tp589
a(Vto
VTO
tp590
a(Vsupport
VVB
tp591
a(Vthe
VDT
tp592
a(Vgrowth
VNN
tp593
a(Vof
VIN
tp594
a(Vthese
VDT
tp595
a(Vindustries
VNNS
tp596
a(V.
V.
tp597
aa(lp598
(VA
VDT
tp599
a(Vwoman
VNN
tp600
a(Vwho
VWP
tp601
a(Vis
VVBZ
tp602
a(Vphysically
VRB
tp603
a(Vabused
VVBN
tp604
a(Vby
VIN
tp605
a(Vher
VPRP$
tp606
a(Vhusband
VNN
tp607
a(V,
V,
tp608
a(Vwho
VWP
tp609
a(Vcalls
VVBZ
tp610
a(Vthe
VDT
tp611
a(Vpolice
VNN
tp612
a(Vonly
VRB
tp613
a(Vto
VTO
tp614
a(Vbe
VVB
tp615
a(Vtold
VVBN
tp616
a(Vthat
VIN
tp617
a(Vthis
VDT
tp618
a(Vis
VVBZ
tp619
a(Va
VDT
tp620
a(Vfamily
VNN
tp621
a(Vaffair
VNN
tp622
a(Vand
VCC
tp623
a(Vthey
VPRP
tp624
a(Vcannot
VVBP
tp625
a(Vintervene
VVB
tp626
a(V,
V,
tp627
a(Vneeds
VVBZ
tp628
a(Vto
VTO
tp629
a(Vfind
VVB
tp630
a(Vout
VRP
tp631
a(Vif
VIN
tp632
a(Vthe
VDT
tp633
a(Vofficers
VNNS
tp634
a(Vare
VVBP
tp635
a(Vright
VJJ
tp636
a(Vor
VCC
tp637
a(Vif
VIN
tp638
a(Vshe
VPRP
tp639
a(Vcan
VMD
tp640
a(Vfind
VVB
tp641
a(Vhelp
VNN
tp642
a(V,
V,
tp643
a(Vand
VCC
tp644
a(Vfrom
VIN
tp645
a(Vwhom
VWP
tp646
a(V.
V.
tp647
aa(lp648
(VThis
VDT
tp649
a(Vreport
VNN
tp650
a(Vemphasises
VVBZ
tp651
a(Vthe
VDT
tp652
a(Vneed
VNN
tp653
a(Vto
VTO
tp654
a(Vmeasure
VVB
tp655
a(Vthe
VDT
tp656
a(Vquality
VNN
tp657
a(Vof
VIN
tp658
a(Vlife
VNN
tp659
a(Vin
VIN
tp660
a(Vsocieties
VNNS
tp661
a(V.
V.
tp662
aa(lp663
(VIt
VPRP
tp664
a(Vis
VVBZ
tp665
a(Vthis
VDT
tp666
a(VEurope
VNNP
tp667
a(Vthat
VIN
tp668
a(Vwe
VPRP
tp669
a(Vcriticize
VVBP
tp670
a(V,
V,
tp671
a(Vwhile
VIN
tp672
a(Vwe
VPRP
tp673
a(Vwork
VVBP
tp674
a(Vtowards
VIN
tp675
a(Va
VDT
tp676
a(Vdifferent
VJJ
tp677
a(VEurope
VNNP
tp678
a(V.
V.
tp679
aa(lp680
(VIt
VPRP
tp681
a(Vis
VVBZ
tp682
a(Vto
VTO
tp683
a(Vno
VDT
tp684
a(Vavail
VNN
tp685
a(Vand
VCC
tp686
a(V,
V,
tp687
a(Vfurthermore
VRB
tp688
a(V,
V,
tp689
a(Vwe
VPRP
tp690
a(Vcooperate
VVBP
tp691
a(Vfar
VRB
tp692
a(Vtoo
VRB
tp693
a(Vlittle
VJJ
tp694
a(Vto
VTO
tp695
a(Vmake
VVB
tp696
a(Vcommon
VJJ
tp697
a(Vcause
VNN
tp698
a(Vagainst
VIN
tp699
a(Vinternational
VJJ
tp700
a(Vcrime
VNN
tp701
a(V.
V.
tp702
aa(lp703
(VSome
VDT
tp704
a(Vpolicemen
VNNS
tp705
a(Vkilled
VVBD
tp706
a(Vher
VPRP
tp707
a(Vin
VIN
tp708
a(Va
VDT
tp709
a(VSabena
VNNP
tp710
a(Vaeroplane
VNN
tp711
a(V.
V.
tp712
aa(lp713
(VThe
VDT
tp714
a(VCouncil
VNNP
tp715
a(Vof
VIN
tp716
a(VEurope
VNNP
tp717
a(Valso
VRB
tp718
a(Vhighlighted
VVBD
tp719
a(Vthe
VDT
tp720
a(Vdanger
VNN
tp721
a(Vof
VIN
tp722
a(Vleaving
VVBG
tp723
a(Vout
VRP
tp724
a(Vsafeguard
VVB
tp725
a(Vclauses
VNNS
tp726
a(V.
V.
tp727
aa(lp728
(VWe
VPRP
tp729
a(Vnot
VRB
tp730
a(Vonly
VRB
tp731
a(Vdid
VVBD
tp732
a(Vthat
VDT
tp733
a(V,
V,
tp734
a(Vwe
VPRP
tp735
a(Vstayed
VVBD
tp736
a(Vwithin
VIN
tp737
a(Vthe
VDT
tp738
a(V75
VCD
tp739
a(V%
VNN
tp740
a(Vof
VIN
tp741
a(Vgrowth
VNN
tp742
a(Vthat
VIN
tp743
a(VMrs
VNNP
tp744
a(VThatcher
VNNP
tp745
a(Vinsisted
VVBD
tp746
a(Von
VIN
tp747
a(V.
V.
tp748
aa(lp749
(VMy
VPRP$
tp750
a(Vquestion
VNN
tp751
a(Vis
VVBZ
tp752
a(Vas
VIN
tp753
a(Vfollows
VVBZ
tp754
a(V:
V:
tp755
a(Vis
VVBZ
tp756
a(Vthere
VEX
tp757
a(Valready
VRB
tp758
a(Va
VDT
tp759
a(Vstudy
VNN
tp760
a(Vor
VCC
tp761
a(Va
VDT
tp762
a(Vsimulation
VNN
tp763
a(Vmodel
VNN
tp764
a(Vof
VIN
tp765
a(Vthe
VDT
tp766
a(Vimpact
VNN
tp767
a(Vof
VIN
tp768
a(Vthe
VDT
tp769
a(Vproposals
VNNS
tp770
a(Vor
VCC
tp771
a(Videas
VNNS
tp772
a(Vput
VVBD
tp773
a(Vforward
VRB
tp774
a(V?
V.
tp775
aa(lp776
(VThis
VDT
tp777
a(Vseems
VVBZ
tp778
a(Vto
VTO
tp779
a(Vthe
VDT
tp780
a(VBritish
VJJ
tp781
a(VLabour
VNN
tp782
a(Vdelegation
VNN
tp783
a(Va
VDT
tp784
a(Vrecipe
VNN
tp785
a(Vfor
VIN
tp786
a(Vfurther
VJJ
tp787
a(Vdelay
VNN
tp788
a(V.
V.
tp789
aa(lp790
(VIn
VIN
tp791
a(Vlarge
VJJ
tp792
a(Vareas
VNNS
tp793
a(V,
V,
tp794
a(Vminority
VNN
tp795
a(Vpeoples
VNNS
tp796
a(Vare
VVBP
tp797
a(Vin
VIN
tp798
a(Vthe
VDT
tp799
a(Vmajority
VNN
tp800
a(V.
V.
tp801
aa(lp802
(VThe
VDT
tp803
a(Vsame
VJJ
tp804
a(Vapplies
VVBZ
tp805
a(Vto
VTO
tp806
a(VMr
VNNP
tp807
a(VErdogan
VNNP
tp808
a(V,
V,
tp809
a(Vthe
VDT
tp810
a(Vmayor
VNN
tp811
a(Vof
VIN
tp812
a(VIstanbul
VNNP
tp813
a(V,
V,
tp814
a(Vwho
VWP
tp815
a(Vwas
VVBD
tp816
a(Vgiven
VVBN
tp817
a(Va
VDT
tp818
a(V10
VCD
tp819
a(Vmonth
VNN
tp820
a(Vprison
VNN
tp821
a(Vsentence
VNN
tp822
a(Vfor
VIN
tp823
a(Vexpressing
VVBG
tp824
a(Vhis
VPRP$
tp825
a(Vpolitical
VJJ
tp826
a(Vviews
VNNS
tp827
a(V.
V.
tp828
aa(lp829
(VThe
VDT
tp830
a(Vestablishment
VNN
tp831
a(Vof
VIN
tp832
a(Va
VDT
tp833
a(VUN
VNNP
tp834
a(VHuman
VNNP
tp835
a(VRights
VNNP
tp836
a(VCouncil
VNNP
tp837
a(Vis
VVBZ
tp838
a(Va
VDT
tp839
a(Vgood
VJJ
tp840
a(Vthing
VNN
tp841
a(V,
V,
tp842
a(Veven
VRB
tp843
a(Vif
VIN
tp844
a(Vits
VPRP$
tp845
a(Vcomposition
VNN
tp846
a(Vis
VVBZ
tp847
a(Vnot
VRB
tp848
a(Vyet
VRB
tp849
a(Vclear
VJJ
tp850
a(V.
V.
tp851
aa(lp852
(VAs
VIN
tp853
a(Vmaintaining
VVBG
tp854
a(Va
VDT
tp855
a(Vlist
VNN
tp856
a(Vof
VIN
tp857
a(Vundesirable
VJJ
tp858
a(Vpersons
VNNS
tp859
a(Vconstitutes
VVBZ
tp860
a(Van
VDT
tp861
a(Vunacceptable
VJJ
tp862
a(Vand
VCC
tp863
a(Vundemocratic
VJJ
tp864
a(Vact
VNN
tp865
a(Von
VIN
tp866
a(Vthe
VDT
tp867
a(Vpart
VNN
tp868
a(Vof
VIN
tp869
a(Vthe
VDT
tp870
a(VTurkish
VJJ
tp871
a(VGovernment
VNN
tp872
a(V,
V,
tp873
a(Vdoes
VVBZ
tp874
a(Vthe
VDT
tp875
a(VCouncil
VNNP
tp876
a(Vintend
VVBP
tp877
a(Vto
VTO
tp878
a(Vlook
VVB
tp879
a(Vinto
VIN
tp880
a(Vthe
VDT
tp881
a(Vissue
VNN
tp882
a(Vand
VCC
tp883
a(Vto
VTO
tp884
a(Vintervene
VVB
tp885
a(Vwith
VIN
tp886
a(Vthe
VDT
tp887
a(VTurkish
VJJ
tp888
a(VGovernment
VNN
tp889
a(Vat
VIN
tp890
a(Vonce
VRB
tp891
a(Vto
VTO
tp892
a(Vask
VVB
tp893
a(Vfor
VIN
tp894
a(Vthe
VDT
tp895
a(Vlist
VNN
tp896
a(Vto
VTO
tp897
a(Vbe
VVB
tp898
a(Vscrapped
VVBN
tp899
a(V?
V.
tp900
aa(lp901
(VThe
VDT
tp902
a(VUnion
VNNP
tp903
a(Vmust
VMD
tp904
a(Vspeak
VVB
tp905
a(Vwith
VIN
tp906
a(Va
VDT
tp907
a(Vsingle
VJJ
tp908
a(Vvoice
VNN
tp909
a(Vin
VIN
tp910
a(Vthe
VDT
tp911
a(Vworld
VNN
tp912
a(V-
V:
tp913
a(Va
VDT
tp914
a(Vstrong
VJJ
tp915
a(V,
V,
tp916
a(Vauthoritative
VJJ
tp917
a(V,
V,
tp918
a(Vpeaceable
VJJ
tp919
a(Vvoice
VNN
tp920
a(V.
V.
tp921
aa(lp922
(VIt
VPRP
tp923
a(Vinvestigated
VVBD
tp924
a(Vthose
VDT
tp925
a(Vconcerns
VNNS
tp926
a(V,
V,
tp927
a(Vwent
VVBD
tp928
a(Vto
VTO
tp929
a(VRomania
VNNP
tp930
a(V,
V,
tp931
a(Vspoke
VVBD
tp932
a(Vto
VTO
tp933
a(Vwomen
VNNS
tp934
a(Vand
VCC
tp935
a(Vlooked
VVBD
tp936
a(Vat
VIN
tp937
a(Vthe
VDT
tp938
a(Vissues
VNNS
tp939
a(V.
V.
tp940
aa(lp941
(VRecently
VRB
tp942
a(VI
VPRP
tp943
a(Vwas
VVBD
tp944
a(Vat
VIN
tp945
a(Va
VDT
tp946
a(Vnuclear
VJJ
tp947
a(Vpower
VNN
tp948
a(Vstation
VNN
tp949
a(Vwhere
VWRB
tp950
a(Vthey
VPRP
tp951
a(Vhave
VVBP
tp952
a(Va
VDT
tp953
a(Vbattery
VNN
tp954
a(Vthe
VDT
tp955
a(Vsize
VNN
tp956
a(Vof
VIN
tp957
a(Va
VDT
tp958
a(Vbuilding
VNN
tp959
a(Vwhich
VWDT
tp960
a(Vprovides
VVBZ
tp961
a(Vthe
VDT
tp962
a(Vback-up
VJJ
tp963
a(Vpower
VNN
tp964
a(Vin
VIN
tp965
a(Vthe
VDT
tp966
a(Vevent
VNN
tp967
a(Vof
VIN
tp968
a(Va
VDT
tp969
a(Vpower
VNN
tp970
a(Vcut
VNN
tp971
a(V.
V.
tp972
aa(lp973
(VThere
VEX
tp974
a(Vis
VVBZ
tp975
a(Va
VDT
tp976
a(Vlarge
VJJ
tp977
a(Vmajority
VNN
tp978
a(Vin
VIN
tp979
a(Vfavour
VNN
tp980
a(Vof
VIN
tp981
a(Vthis
VDT
tp982
a(V.
V.
tp983
aa(lp984
(VIf
VIN
tp985
a(Vthe
VDT
tp986
a(VADFL
VNNP
tp987
a(Vwere
VVBD
tp988
a(Vto
VTO
tp989
a(Vproceed
VVB
tp990
a(Vwith
VIN
tp991
a(Van
VDT
tp992
a(Vattack
VNN
tp993
a(Von
VIN
tp994
a(Vthe
VDT
tp995
a(Vcapital
VNN
tp996
a(V,
V,
tp997
a(Vthis
VDT
tp998
a(Vcould
VMD
tp999
a(Vlead
VVB
tp1000
a(Vto
VTO
tp1001
a(Vfurther
VJJ
tp1002
a(Vserious
VJJ
tp1003
a(Vbloodshed
VNN
tp1004
a(V,
V,
tp1005
a(Vwith
VIN
tp1006
a(Vheavy
VJJ
tp1007
a(Vcasualties
VNNS
tp1008
a(Vamong
VIN
tp1009
a(Vthe
VDT
tp1010
a(Vcivilian
VJJ
tp1011
a(Vpopulation
VNN
tp1012
a(V.
V.
tp1013
aa(lp1014
(VIn
VIN
tp1015
a(Vreality
VNN
tp1016
a(V,
V,
tp1017
a(VGermany
VNNP
tp1018
a(Vhas
VVBZ
tp1019
a(Vbuilt
VVBN
tp1020
a(Vup
VRP
tp1021
a(Vits
VPRP$
tp1022
a(Vstrong
VJJ
tp1023
a(Vperformance
VNN
tp1024
a(Vover
VIN
tp1025
a(Vthe
VDT
tp1026
a(Vpast
VJJ
tp1027
a(V10
VCD
tp1028
a(Vyears
VNNS
tp1029
a(Vby
VIN
tp1030
a(Vpractising
VVBG
tp1031
a(Va
VDT
tp1032
a(Vwage
VNN
tp1033
a(Vpolicy
VNN
tp1034
a(Vthat
VIN
tp1035
a(V,
V,
tp1036
a(Vin
VIN
tp1037
a(Vview
VNN
tp1038
a(Vof
VIN
tp1039
a(Vthe
VDT
tp1040
a(Vsize
VNN
tp1041
a(Vof
VIN
tp1042
a(Vthe
VDT
tp1043
a(VGerman
VJJ
tp1044
a(Veconomy
VNN
tp1045
a(V,
V,
tp1046
a(Vis
VVBZ
tp1047
a(Vresponsible
VJJ
tp1048
a(Vfor
VIN
tp1049
a(Vthe
VDT
tp1050
a(Voverall
VJJ
tp1051
a(Vmomentum
VNN
tp1052
a(Vof
VIN
tp1053
a(Vthe
VDT
tp1054
a(VEuro
VNNP
tp1055
a(VZone
VNNP
tp1056
a(V.
V.
tp1057
aa(lp1058
(VIs
VVBZ
tp1059
a(Vthe
VDT
tp1060
a(VEuropean
VNNP
tp1061
a(VParliament
VNNP
tp1062
a(Vplanning
VVBG
tp1063
a(Vsome
VDT
tp1064
a(Vspectacular
VJJ
tp1065
a(Vlast-minute
VJJ
tp1066
a(Vaction
VNN
tp1067
a(Vto
VTO
tp1068
a(Vpersuade
VVB
tp1069
a(Vpeople
VNNS
tp1070
a(Vto
VTO
tp1071
a(Vvote
VVB
tp1072
a(V?
V.
tp1073
aa(lp1074
(VThank
VVB
tp1075
a(Vyou
VPRP
tp1076
a(Vvery
VRB
tp1077
a(Vmuch
VRB
tp1078
a(Vfor
VIN
tp1079
a(Vcoming
VVBG
tp1080
a(V!
V.
tp1081
aa(lp1082
(VThat
VDT
tp1083
a(Vwas
VVBD
tp1084
a(Vthe
VDT
tp1085
a(Vofficial
VJJ
tp1086
a(Vreasoning
VNN
tp1087
a(V.
V.
tp1088
aa(lp1089
(VThe
VDT
tp1090
a(V96
VCD
tp1091
a(Vmillion
VCD
tp1092
a(Vyoung
VJJ
tp1093
a(VEuropeans
VNNPS
tp1094
a(Vaged
VJJ
tp1095
a(Vbetween
VIN
tp1096
a(V15
VCD
tp1097
a(Vand
VCC
tp1098
a(V29
VCD
tp1099
a(Vaccount
VNN
tp1100
a(Vfor
VIN
tp1101
a(Vapproximately
VRB
tp1102
a(V20
VCD
tp1103
a(V%
VNN
tp1104
a(Vof
VIN
tp1105
a(Vthe
VDT
tp1106
a(VEuropean
VNNP
tp1107
a(VUnion
VNNP
tp1108
a(V&apos;s
VNNS
tp1109
a(Vpopulation
VNN
tp1110
a(V.
V.
tp1111
aa(lp1112
(VSince
VIN
tp1113
a(VI
VPRP
tp1114
a(Vtook
VVBD
tp1115
a(Voffice
VNN
tp1116
a(VI
VPRP
tp1117
a(Vhave
VVBP
tp1118
a(Vmade
VVBN
tp1119
a(Vthis
VDT
tp1120
a(Vmy
VPRP$
tp1121
a(Vfirst
VJJ
tp1122
a(Vpriority
VNN
tp1123
a(V.
V.
tp1124
aa(lp1125
(VToo
VRB
tp1126
a(Vmany
VJJ
tp1127
a(Vabuses
VNNS
tp1128
a(Vand
VCC
tp1129
a(Vserious
VJJ
tp1130
a(Vviolations
VNNS
tp1131
a(Vhave
VVBP
tp1132
a(Vbeen
VVBN
tp1133
a(Vperpetrated
VVBN
tp1134
a(Vby
VIN
tp1135
a(Vthe
VDT
tp1136
a(VGaddafi
VNNP
tp1137
a(Vregime
VNN
tp1138
a(Vagainst
VIN
tp1139
a(Vthe
VDT
tp1140
a(Vpopulation
VNN
tp1141
a(Vand
VCC
tp1142
a(VI
VPRP
tp1143
a(Vthink
VVBP
tp1144
a(Vit
VPRP
tp1145
a(Vis
VVBZ
tp1146
a(Vour
VPRP$
tp1147
a(Vduty
VNN
tp1148
a(Vto
VTO
tp1149
a(Vadopt
VVB
tp1150
a(Va
VDT
tp1151
a(Vcommon
VJJ
tp1152
a(Vstrong
VJJ
tp1153
a(VEuropean
VJJ
tp1154
a(Vstance
VNN
tp1155
a(V.
V.
tp1156
aa(lp1157
(VEveryone
VNN
tp1158
a(Vis
VVBZ
tp1159
a(Vaffected
VVBN
tp1160
a(Vby
VIN
tp1161
a(Vthis
VDT
tp1162
a(V:
V:
tp1163
a(Vmothers
VNNS
tp1164
a(Vor
VCC
tp1165
a(Vfathers
VNNS
tp1166
a(Vwho
VWP
tp1167
a(Vhave
VVBP
tp1168
a(Vchildren
VNNS
tp1169
a(Vstudying
VVBG
tp1170
a(Vor
VCC
tp1171
a(Vundergoing
VVBG
tp1172
a(Vtraining
VNN
tp1173
a(Vabroad
VRB
tp1174
a(V;
V:
tp1175
a(Vthose
VDT
tp1176
a(Vof
VIN
tp1177
a(Vus
VPRP
tp1178
a(Vwho
VWP
tp1179
a(Vorder
VVBP
tp1180
a(Vbooks
VNNS
tp1181
a(Vor
VCC
tp1182
a(Vwish
VNN
tp1183
a(Vto
VTO
tp1184
a(Vpay
VVB
tp1185
a(Vfor
VIN
tp1186
a(Va
VDT
tp1187
a(Vjourney
VNN
tp1188
a(Vor
VCC
tp1189
a(Va
VDT
tp1190
a(Vhotel
VNN
tp1191
a(Vin
VIN
tp1192
a(Vanother
VDT
tp1193
a(VEuropean
VJJ
tp1194
a(Vcountry
VNN
tp1195
a(V.
V.
tp1196
aa(lp1197
(VWe
VPRP
tp1198
a(Vhave
VVBP
tp1199
a(Vstruck
VVBN
tp1200
a(Va
VDT
tp1201
a(Vdeal
VNN
tp1202
a(Vwith
VIN
tp1203
a(VPhilip
VNNP
tp1204
a(VMorris
VNNP
tp1205
a(V,
V,
tp1206
a(Vand
VCC
tp1207
a(Vthe
VDT
tp1208
a(Vmoney
VNN
tp1209
a(Vthat
VIN
tp1210
a(Vwe
VPRP
tp1211
a(Vgenerate
VVBP
tp1212
a(Vfrom
VIN
tp1213
a(Vthis
VDT
tp1214
a(Vdeal
VNN
tp1215
a(Vshould
VMD
tp1216
a(Vbe
VVB
tp1217
a(Vploughed
VVBN
tp1218
a(Vback
VRB
tp1219
a(Vinto
VIN
tp1220
a(Vanti-fraud
VJJ
tp1221
a(Vpolicy
VNN
tp1222
a(V.
V.
tp1223
aa(lp1224
(VThe
VDT
tp1225
a(Vcountries
VNNS
tp1226
a(Vmost
VRBS
tp1227
a(Vaffected
VVBN
tp1228
a(V,
V,
tp1229
a(VHonduras
VNNP
tp1230
a(Vand
VCC
tp1231
a(VNicaragua
VNNP
tp1232
a(V,
V,
tp1233
a(Vare
VVBP
tp1234
a(Vthe
VDT
tp1235
a(Vpoorest
VJJS
tp1236
a(Vin
VIN
tp1237
a(Vthe
VDT
tp1238
a(Vregion
VNN
tp1239
a(V.
V.
tp1240
aa(lp1241
(VIn
VIN
tp1242
a(Vabout
VRB
tp1243
a(V100
VCD
tp1244
a(Vyears
VNNS
tp1245
a(Vthe
VDT
tp1246
a(Vworld
VNN
tp1247
a(Vpopulation
VNN
tp1248
a(Vwill
VMD
tp1249
a(Vhave
VVB
tp1250
a(Vmultiplied
VVBN
tp1251
a(Vabout
VIN
tp1252
a(Vsevenfold
VRB
tp1253
a(V,
V,
tp1254
a(Vfrom
VIN
tp1255
a(V1
VCD
tp1256
a(Vbillion
VCD
tp1257
a(Vto
VTO
tp1258
a(V7
VCD
tp1259
a(Vbillion
VCD
tp1260
a(Vpeople
VNNS
tp1261
a(V.
V.
tp1262
aa(lp1263
(VThese
VDT
tp1264
a(Vmust
VMD
tp1265
a(Valso
VRB
tp1266
a(Vbe
VVB
tp1267
a(Vlinked
VVBN
tp1268
a(Vto
VTO
tp1269
a(Vroad
VNN
tp1270
a(Vnetworks
VNNS
tp1271
a(Vin
VIN
tp1272
a(Veffective
VJJ
tp1273
a(Vtransport
VNN
tp1274
a(Vhubs
VNNS
tp1275
a(V.
V.
tp1276
aa(lp1277
(VMany
VJJ
tp1278
a(Vof
VIN
tp1279
a(Vthem
VPRP
tp1280
a(V,
V,
tp1281
a(Vas
VIN
tp1282
a(Vthose
VDT
tp1283
a(Vfigures
VNNS
tp1284
a(Vshow
VVBP
tp1285
a(V,
V,
tp1286
a(Vare
VVBP
tp1287
a(Vchildren
VNNS
tp1288
a(V.
V.
tp1289
aa(lp1290
(VHowever
VRB
tp1291
a(V,
V,
tp1292
a(Vit
VPRP
tp1293
a(Vis
VVBZ
tp1294
a(Valso
VRB
tp1295
a(Vtopical
VJJ
tp1296
a(Vowing
VNN
tp1297
a(Vto
VTO
tp1298
a(Vthe
VDT
tp1299
a(Vproblem
VNN
tp1300
a(Vcreated
VVBN
tp1301
a(Vby
VIN
tp1302
a(Vthe
VDT
tp1303
a(Vemergence
VNN
tp1304
a(Vof
VIN
tp1305
a(Vavian
VJJ
tp1306
a(Vinfluenza
VNN
tp1307
a(Vand
VCC
tp1308
a(Vthe
VDT
tp1309
a(Vrisks
VNNS
tp1310
a(Vcreated
VVBN
tp1311
a(Vby
VIN
tp1312
a(Vits
VPRP$
tp1313
a(Vtransmission
VNN
tp1314
a(Vto
VTO
tp1315
a(VEurope
VNNP
tp1316
a(V.
V.
tp1317
aa(lp1318
(VIn
VIN
tp1319
a(Vno
VDT
tp1320
a(Vway
VNN
tp1321
a(Vwill
VMD
tp1322
a(Vwe
VPRP
tp1323
a(Vuse
VVB
tp1324
a(Vthe
VDT
tp1325
a(Vbudget
VNN
tp1326
a(Vor
VCC
tp1327
a(Vits
VPRP$
tp1328
a(Vimplementation
VNN
tp1329
a(Vas
VIN
tp1330
a(Vpressure
VNN
tp1331
a(Vor
VCC
tp1332
a(Vas
VIN
tp1333
a(Va
VDT
tp1334
a(Vform
VNN
tp1335
a(Vof
VIN
tp1336
a(Vblackmail
VVB
tp1337
a(Vto
VTO
tp1338
a(Vget
VVB
tp1339
a(Vthem
VPRP
tp1340
a(Vto
VTO
tp1341
a(Vsign
VVB
tp1342
a(Van
VDT
tp1343
a(VEPA
VNNP
tp1344
a(V.
V.
tp1345
aa(lp1346
(VMr
VNNP
tp1347
a(VPresident
VNNP
tp1348
a(V,
V,
tp1349
a(Vadvertising
VNN
tp1350
a(Vis
VVBZ
tp1351
a(Vdominated
VVBN
tp1352
a(Vby
VIN
tp1353
a(Vthe
VDT
tp1354
a(Vbig
VJJ
tp1355
a(Vcompanies
VNNS
tp1356
a(Vand
VCC
tp1357
a(Vmultilateral
VJJ
tp1358
a(Vcorporations
VNNS
tp1359
a(V.
V.
tp1360
aa(lp1361
(VI
VPRP
tp1362
a(Vwant
VVBP
tp1363
a(Vto
VTO
tp1364
a(Vbegin
VVB
tp1365
a(Vin
VIN
tp1366
a(Va
VDT
tp1367
a(Vpositive
VJJ
tp1368
a(Vmood
VNN
tp1369
a(Vand
VCC
tp1370
a(Vsay
VVBP
tp1371
a(Vthat
VIN
tp1372
a(VI
VPRP
tp1373
a(Vfully
VRB
tp1374
a(Vagree
VVBP
tp1375
a(Vwith
VIN
tp1376
a(Vthe
VDT
tp1377
a(VCommission
VNNP
tp1378
a(Vand
VCC
tp1379
a(Vthe
VDT
tp1380
a(VCouncil
VNNP
tp1381
a(Vthat
VIN
tp1382
a(Vwe
VPRP
tp1383
a(Vshould
VMD
tp1384
a(Vnot
VRB
tp1385
a(Vbe
VVB
tp1386
a(Vtoo
VRB
tp1387
a(Vcritical
VJJ
tp1388
a(Vand
VCC
tp1389
a(Vnegative
VJJ
tp1390
a(Vabout
VIN
tp1391
a(Vthe
VDT
tp1392
a(Vresult
VNN
tp1393
a(Vof
VIN
tp1394
a(Vthe
VDT
tp1395
a(VJohannesburg
VNNP
tp1396
a(VSummit
VNNP
tp1397
a(V.
V.
tp1398
aa(lp1399
(VIt
VPRP
tp1400
a(Vis
VVBZ
tp1401
a(Vjust
VRB
tp1402
a(Vas
VRB
tp1403
a(Vlikely
VJJ
tp1404
a(Vthat
VIN
tp1405
a(Va
VDT
tp1406
a(Vmarketing
VNN
tp1407
a(Vban
VNN
tp1408
a(Vwill
VMD
tp1409
a(Vprove
VVB
tp1410
a(Vto
VTO
tp1411
a(Vbe
VVB
tp1412
a(V&quot;
VJJ
tp1413
a(VWTO-secure
VJJ
tp1414
a(V&quot;
VNN
tp1415
a(Vas
VIN
tp1416
a(Vit
VPRP
tp1417
a(Vwill
VMD
tp1418
a(V&quot;
VVB
tp1419
a(VWTO-insecure
VJJ
tp1420
a(V&quot;
VNN
tp1421
a(V.
V.
tp1422
aa(lp1423
(VThe
VDT
tp1424
a(VConnecticut
VNNP
tp1425
a(VYankee
VNNP
tp1426
a(Vwas
VVBD
tp1427
a(Va
VDT
tp1428
a(Vtelephone
VNN
tp1429
a(Vengineer
VNN
tp1430
a(Vin
VIN
tp1431
a(VAmerica
VNNP
tp1432
a(Vwho
VWP
tp1433
a(Vsustained
VVBD
tp1434
a(Va
VDT
tp1435
a(Vblow
VNN
tp1436
a(Vto
VTO
tp1437
a(Vhis
VPRP$
tp1438
a(Vhead
VNN
tp1439
a(Vand
VCC
tp1440
a(Vwas
VVBD
tp1441
a(Vtransported
VVBN
tp1442
a(Vback
VRB
tp1443
a(Vto
VTO
tp1444
a(Vthe
VDT
tp1445
a(Vtime
VNN
tp1446
a(Vof
VIN
tp1447
a(VKing
VNNP
tp1448
a(VArthur
VNNP
tp1449
a(V.
V.
tp1450
aa(lp1451
(VIt
VPRP
tp1452
a(Vtook
VVBD
tp1453
a(Vall
VDT
tp1454
a(Vof
VIN
tp1455
a(Vus
VPRP
tp1456
a(Vtwo
VCD
tp1457
a(Vyears
VNNS
tp1458
a(Vto
VTO
tp1459
a(Vmake
VVB
tp1460
a(Vthe
VDT
tp1461
a(Vpolitical
VJJ
tp1462
a(Vchoices
VNNS
tp1463
a(Vand
VCC
tp1464
a(Vto
VTO
tp1465
a(Vformulate
VVB
tp1466
a(Vthem
VPRP
tp1467
a(Vin
VIN
tp1468
a(Va
VDT
tp1469
a(Vtechnically
VRB
tp1470
a(Vcorrect
VJJ
tp1471
a(Vmanner
VNN
tp1472
a(V.
V.
tp1473
aa(lp1474
(VThis
VDT
tp1475
a(Vyear
VNN
tp1476
a(V&apos;s
VVBZ
tp1477
a(Vprogramme
VNN
tp1478
a(Vdoes
VVBZ
tp1479
a(Vnot
VRB
tp1480
a(V,
V,
tp1481
a(Vin
VIN
tp1482
a(Vfact
VNN
tp1483
a(V,
V,
tp1484
a(Vhave
VVBP
tp1485
a(Va
VDT
tp1486
a(Vtitle
VNN
tp1487
a(V.
V.
tp1488
aa(lp1489
(VA
VDT
tp1490
a(Vshort
VJJ
tp1491
a(Vand
VCC
tp1492
a(Vcomprehensible
VJJ
tp1493
a(VEU
VNNP
tp1494
a(Vconstitution
VNN
tp1495
a(V.
V.
tp1496
aa(lp1497
(VHowever
VRB
tp1498
a(V,
V,
tp1499
a(VNiger
VNNP
tp1500
a(V,
V,
tp1501
a(Vwhich
VWDT
tp1502
a(Vranks
VVBZ
tp1503
a(V174th
VNN
tp1504
a(Vin
VIN
tp1505
a(Vthat
VDT
tp1506
a(Vindex
VNN
tp1507
a(V,
V,
tp1508
a(Vreceives
VVBZ
tp1509
a(Vonly
VRB
tp1510
a(VUSD
VNNP
tp1511
a(V48
VCD
tp1512
a(Vper
VIN
tp1513
a(Vcapita
VNN
tp1514
a(Vrelief
VNN
tp1515
a(V.
V.
tp1516
aa(lp1517
(VNobody
VNN
tp1518
a(Vin
VIN
tp1519
a(Vsmall
VJJ
tp1520
a(Vand
VCC
tp1521
a(Vmedium-sized
VJJ
tp1522
a(Venterprises
VNNS
tp1523
a(Vhas
VVBZ
tp1524
a(Vever
VRB
tp1525
a(Vheard
VVBN
tp1526
a(Vof
VIN
tp1527
a(Vthese
VDT
tp1528
a(Vinterest
VNN
tp1529
a(Vgroups
VNNS
tp1530
a(V,
V,
tp1531
a(Vwhich
VWDT
tp1532
a(Vhave
VVBP
tp1533
a(Vafter
VIN
tp1534
a(Vall
VDT
tp1535
a(Vbeen
VVBN
tp1536
a(Vin
VIN
tp1537
a(Vexistence
VNN
tp1538
a(Vsince
VIN
tp1539
a(V1989
VCD
tp1540
a(V.
V.
tp1541
aa(lp1542
(VThat
VDT
tp1543
a(Vis
VVBZ
tp1544
a(Vnot
VRB
tp1545
a(Vto
VTO
tp1546
a(Vsay
VVB
tp1547
a(Vthat
VIN
tp1548
a(Vmatters
VNNS
tp1549
a(Vcannot
VVBP
tp1550
a(Vbe
VVB
tp1551
a(Vimproved
VVBN
tp1552
a(V.
V.
tp1553
aa(lp1554
(VOn
VIN
tp1555
a(Vthe
VDT
tp1556
a(Vone
VCD
tp1557
a(Vhand
VNN
tp1558
a(V,
V,
tp1559
a(Vthe
VDT
tp1560
a(Vreport
VNN
tp1561
a(Vsays
VVBZ
tp1562
a(Vthat
VIN
tp1563
a(Vthe
VDT
tp1564
a(Vmilitary
VJJ
tp1565
a(Vactivities
VNNS
tp1566
a(Vof
VIN
tp1567
a(Vthe
VDT
tp1568
a(VTaliban
VNNP
tp1569
a(Vdo
VVBP
tp1570
a(Vnot
VRB
tp1571
a(Vpose
VVB
tp1572
a(Va
VDT
tp1573
a(Vdirect
VJJ
tp1574
a(Vthreat
VNN
tp1575
a(Vto
VTO
tp1576
a(VAfghanistan
VNNP
tp1577
a(V&apos;s
VNNS
tp1578
a(Vsovereignty
VNN
tp1579
a(V,
V,
tp1580
a(Vand
VCC
tp1581
a(Von
VIN
tp1582
a(Vthe
VDT
tp1583
a(Vother
VJJ
tp1584
a(Vhand
VNN
tp1585
a(Vthere
VEX
tp1586
a(Vis
VVBZ
tp1587
a(Vthe
VDT
tp1588
a(Vwarning
VNN
tp1589
a(Vthat
VWDT
tp1590
a(VAfghanistan
VNNP
tp1591
a(Vis
VVBZ
tp1592
a(Vnow
VRB
tp1593
a(Vat
VIN
tp1594
a(Va
VDT
tp1595
a(Vcritical
VJJ
tp1596
a(Vcrossroads
VNNS
tp1597
a(V.
V.
tp1598
aa(lp1599
(VI
VPRP
tp1600
a(Vwant
VVBP
tp1601
a(Vto
VTO
tp1602
a(Vstart
VVB
tp1603
a(Vwith
VIN
tp1604
a(Va
VDT
tp1605
a(Vquote
VNN
tp1606
a(Vfrom
VIN
tp1607
a(Va
VDT
tp1608
a(VHungarian
VJJ
tp1609
a(Vdiplomat
VNN
tp1610
a(Vin
VIN
tp1611
a(Vthe
VDT
tp1612
a(VUnited
VNNP
tp1613
a(VStates
VNNPS
tp1614
a(V,
V,
tp1615
a(VMr
VNNP
tp1616
a(VSimonyi
VNNP
tp1617
a(V,
V,
tp1618
a(Vwho
VWP
tp1619
a(Vsaid
VVBD
tp1620
a(Vthat
VIN
tp1621
a(V&apos;
VJJ
tp1622
a(Vrock
VNN
tp1623
a(Vand
VCC
tp1624
a(Vroll
VNN
tp1625
a(V,
V,
tp1626
a(Vculturally
VRB
tp1627
a(Vspeaking
VVBG
tp1628
a(V,
V,
tp1629
a(Vwas
VVBD
tp1630
a(Va
VDT
tp1631
a(Vdecisive
VJJ
tp1632
a(Velement
VNN
tp1633
a(Vin
VIN
tp1634
a(Vloosening
VVBG
tp1635
a(Vup
VRP
tp1636
a(Vcommunist
VJJ
tp1637
a(Vsocieties
VNNS
tp1638
a(Vand
VCC
tp1639
a(Vbringing
VVBG
tp1640
a(Vthem
VPRP
tp1641
a(Vcloser
VJJR
tp1642
a(Vto
VTO
tp1643
a(Vthe
VDT
tp1644
a(Vworld
VNN
tp1645
a(Vof
VIN
tp1646
a(Vfreedom
VNN
tp1647
a(V&apos;
VNN
tp1648
a(V.
V.
tp1649
aa(lp1650
(VSo
VRB
tp1651
a(V,
V,
tp1652
a(Vwe
VPRP
tp1653
a(Vwill
VMD
tp1654
a(Vnot
VRB
tp1655
a(Vaccept
VVB
tp1656
a(Vthat
VIN
tp1657
a(V,
V,
tp1658
a(Vunder
VIN
tp1659
a(Vthe
VDT
tp1660
a(Vguise
VNN
tp1661
a(Vof
VIN
tp1662
a(Vecotaxes
VNNS
tp1663
a(V,
V,
tp1664
a(Van
VDT
tp1665
a(Vattempt
VNN
tp1666
a(Vis
VVBZ
tp1667
a(Vin
VIN
tp1668
a(Vactual
VJJ
tp1669
a(Vfact
VNN
tp1670
a(Vmade
VVBN
tp1671
a(Vto
VTO
tp1672
a(Vcreate
VVB
tp1673
a(Va
VDT
tp1674
a(VEuropean
VJJ
tp1675
a(Vtax
VNN
tp1676
a(V.
V.
tp1677
aa(lp1678
(VInnovation
VNN
tp1679
a(Vis
VVBZ
tp1680
a(Vnot
VRB
tp1681
a(Vjust
VRB
tp1682
a(Vnew
VJJ
tp1683
a(Vproduction
VNN
tp1684
a(Vmethods
VNNS
tp1685
a(Vor
VCC
tp1686
a(Vnew
VJJ
tp1687
a(Vuses
VNNS
tp1688
a(V,
V,
tp1689
a(Vfor
VIN
tp1690
a(Vexample
VNN
tp1691
a(V,
V,
tp1692
a(Vof
VIN
tp1693
a(Vlocal
VJJ
tp1694
a(Vproducts
VNNS
tp1695
a(V.
V.
tp1696
aa(lp1697
(VSmall
VJJ
tp1698
a(Vand
VCC
tp1699
a(Vmedium-sized
VJJ
tp1700
a(Venterprises
VNNS
tp1701
a(Vare
VVBP
tp1702
a(Vshutting
VVBG
tp1703
a(Vdown
VRP
tp1704
a(Ven
VIN
tp1705
a(Vmasse
VNN
tp1706
a(V.
V.
tp1707
aa(lp1708
(VIt
VPRP
tp1709
a(Vis
VVBZ
tp1710
a(Vnot
VRB
tp1711
a(Ventirely
VRB
tp1712
a(Vconvincing
VVBG
tp1713
a(Vwith
VIN
tp1714
a(Vregard
VNN
tp1715
a(Vto
VTO
tp1716
a(Vthe
VDT
tp1717
a(V&apos;
VNN
tp1718
a(Vguarantee
VNN
tp1719
a(Vof
VIN
tp1720
a(Vorigin
VNN
tp1721
a(V&apos;
VNN
tp1722
a(V,
V,
tp1723
a(Vintended
VVBN
tp1724
a(Vto
VTO
tp1725
a(Videntify
VVB
tp1726
a(Vgreen
VJJ
tp1727
a(Velectricity
VNN
tp1728
a(Vin
VIN
tp1729
a(Vparticular
VJJ
tp1730
a(V,
V,
tp1731
a(Vwhen
VWRB
tp1732
a(Vwe
VPRP
tp1733
a(Vare
VVBP
tp1734
a(Vaware
VJJ
tp1735
a(Vof
VIN
tp1736
a(Vthe
VDT
tp1737
a(Vreality
VNN
tp1738
a(Vof
VIN
tp1739
a(Velectricity
VNN
tp1740
a(Vsupply
VNN
tp1741
a(V,
V,
tp1742
a(Vdubious
VJJ
tp1743
a(Vadvertisements
VNNS
tp1744
a(Von
VIN
tp1745
a(Vthe
VDT
tp1746
a(Vsubject
VJJ
tp1747
a(Vand
VCC
tp1748
a(Vthe
VDT
tp1749
a(Vsignificant
VJJ
tp1750
a(Vadditional
VJJ
tp1751
a(Vcost
VNN
tp1752
a(Vfor
VIN
tp1753
a(Vconsumers
VNNS
tp1754
a(V.
V.
tp1755
aa(lp1756
(VFor
VIN
tp1757
a(Vexample
VNN
tp1758
a(V,
V,
tp1759
a(Vit
VPRP
tp1760
a(Vis
VVBZ
tp1761
a(Vvery
VRB
tp1762
a(Vdifficult
VJJ
tp1763
a(Vfor
VIN
tp1764
a(Vpublic
VJJ
tp1765
a(Vbroadcasting
VNN
tp1766
a(Vto
VTO
tp1767
a(Vsurvive
VVB
tp1768
a(Vin
VIN
tp1769
a(Van
VDT
tp1770
a(Vincreasingly
VRB
tp1771
a(Vcommercialised
VJJ
tp1772
a(Venvironment
VNN
tp1773
a(V.
V.
tp1774
aa(lp1775
(VIn
VIN
tp1776
a(Vthis
VDT
tp1777
a(Vspirit
VNN
tp1778
a(V,
V,
tp1779
a(Vthe
VDT
tp1780
a(Vnomination
VNN
tp1781
a(Vof
VIN
tp1782
a(Vthe
VDT
tp1783
a(Vindividuals
VNNS
tp1784
a(Vof
VIN
tp1785
a(Vwhich
VWDT
tp1786
a(Vit
VPRP
tp1787
a(Vis
VVBZ
tp1788
a(Vcomposed
VVBN
tp1789
a(Vmust
VMD
tp1790
a(Vbe
VVB
tp1791
a(Vgoverned
VVBN
tp1792
a(Vby
VIN
tp1793
a(Vcapability
VNN
tp1794
a(Vand
VCC
tp1795
a(Vindependence
VNN
tp1796
a(Vcriteria
VNNS
tp1797
a(V.
V.
tp1798
aa(lp1799
(VWe
VPRP
tp1800
a(Vhave
VVBP
tp1801
a(Vto
VTO
tp1802
a(Vlearn
VVB
tp1803
a(Vsomething
VNN
tp1804
a(Vfrom
VIN
tp1805
a(Veach
VDT
tp1806
a(Vsuch
VJJ
tp1807
a(Vincident
VNN
tp1808
a(V.
V.
tp1809
aa(lp1810
(VWe
VPRP
tp1811
a(Vhave
VVBP
tp1812
a(Vvoted
VVBN
tp1813
a(Vagainst
VIN
tp1814
a(Vthe
VDT
tp1815
a(Vproposal
VNN
tp1816
a(Vfor
VIN
tp1817
a(Va
VDT
tp1818
a(Vregulation
VNN
tp1819
a(Von
VIN
tp1820
a(Vcross-border
VJJ
tp1821
a(Vpayments
VNNS
tp1822
a(Vin
VIN
tp1823
a(Veuro
VNN
tp1824
a(V,
V,
tp1825
a(Vwhich
VWDT
tp1826
a(Vis
VVBZ
tp1827
a(Vdesigned
VVBN
tp1828
a(Vto
VTO
tp1829
a(Vprevent
VVB
tp1830
a(Vbanks
VNNS
tp1831
a(Vfrom
VIN
tp1832
a(Vimposing
VVBG
tp1833
a(Vcharges
VNNS
tp1834
a(V,
V,
tp1835
a(Vfalsely
VRB
tp1836
a(Vgiving
VVBG
tp1837
a(Vthe
VDT
tp1838
a(Vimpression
VNN
tp1839
a(Vthat
VIN
tp1840
a(Vsuch
VJJ
tp1841
a(Vpayments
VNNS
tp1842
a(Vare
VVBP
tp1843
a(Vfree
VJJ
tp1844
a(V.
V.
tp1845
aa(lp1846
(VThese
VDT
tp1847
a(Vprojects
VNNS
tp1848
a(Vmust
VMD
tp1849
a(Vbe
VVB
tp1850
a(Vaddressed
VVBN
tp1851
a(V.
V.
tp1852
aa(lp1853
(VIt
VPRP
tp1854
a(Vaims
VVBZ
tp1855
a(Vto
VTO
tp1856
a(Vafford
VVB
tp1857
a(Vthe
VDT
tp1858
a(VBoard
VNNP
tp1859
a(Vof
VIN
tp1860
a(Vthe
VDT
tp1861
a(Vtarget
VNN
tp1862
a(Vpartnership
VNN
tp1863
a(Vthe
VDT
tp1864
a(Vopportunity
VNN
tp1865
a(Vof
VIN
tp1866
a(Vweighing
VVBG
tp1867
a(Vup
VRP
tp1868
a(Vall
VPDT
tp1869
a(Vthe
VDT
tp1870
a(Vvested
VJJ
tp1871
a(Vinterests
VNNS
tp1872
a(Vin
VIN
tp1873
a(Vthe
VDT
tp1874
a(Vevent
VNN
tp1875
a(Vof
VIN
tp1876
a(Va
VDT
tp1877
a(Vhostile
VJJ
tp1878
a(Vbid
VNN
tp1879
a(V.
V.
tp1880
aa(lp1881
(VWe
VPRP
tp1882
a(Vcannot
VVBP
tp1883
a(Vgo
VVB
tp1884
a(Vahead
VRB
tp1885
a(Vwith
VIN
tp1886
a(Vpreparing
VVBG
tp1887
a(Va
VDT
tp1888
a(Vmacrofinancial
VJJ
tp1889
a(Vassistance
VNN
tp1890
a(Vprogramme
VNN
tp1891
a(Vbefore
VIN
tp1892
a(Vlaunching
VVBG
tp1893
a(Vthe
VDT
tp1894
a(Vprogramme
VNN
tp1895
a(Vwith
VIN
tp1896
a(Vthe
VDT
tp1897
a(VIMF
VNNP
tp1898
a(V.
V.
tp1899
aa(lp1900
(VMany
VJJ
tp1901
a(Vof
VIN
tp1902
a(Vtheir
VPRP$
tp1903
a(Vinhabitants
VNNS
tp1904
a(Vare
VVBP
tp1905
a(Vstill
VRB
tp1906
a(Vliving
VVBG
tp1907
a(Vin
VIN
tp1908
a(Vabject
VJJ
tp1909
a(Vpoverty
VNN
tp1910
a(V.
V.
tp1911
aa(lp1912
(VThis
VDT
tp1913
a(Vis
VVBZ
tp1914
a(Va
VDT
tp1915
a(Vdisappointing
VJJ
tp1916
a(Vresult
VNN
tp1917
a(V,
V,
tp1918
a(Vbut
VCC
tp1919
a(V,
V,
tp1920
a(Vin
VIN
tp1921
a(Vspite
VNN
tp1922
a(Vof
VIN
tp1923
a(Vthat
VDT
tp1924
a(V,
V,
tp1925
a(VI
VPRP
tp1926
a(Vshould
VMD
tp1927
a(Vlike
VVB
tp1928
a(Vto
VTO
tp1929
a(Vthank
VVB
tp1930
a(Veveryone
VNN
tp1931
a(Vinvolved
VVBN
tp1932
a(V.
V.
tp1933
aa(lp1934
(VThe
VDT
tp1935
a(Vtragic
VJJ
tp1936
a(Vfact
VNN
tp1937
a(V,
V,
tp1938
a(Vhowever
VRB
tp1939
a(V,
V,
tp1940
a(Vis
VVBZ
tp1941
a(Vthat
VIN
tp1942
a(Vthose
VDT
tp1943
a(Vpeople
VNNS
tp1944
a(Vwho
VWP
tp1945
a(Vare
VVBP
tp1946
a(Vaffected
VVBN
tp1947
a(Vtoday
VNN
tp1948
a(Vwere
VVBD
tp1949
a(Vmost
VRBS
tp1950
a(Vprobably
VRB
tp1951
a(Vinfected
VVBN
tp1952
a(Vin
VIN
tp1953
a(Vthe
VDT
tp1954
a(Vmid
VJJ
tp1955
a(Veighties
VNNS
tp1956
a(Vto
VTO
tp1957
a(Vearly
VJJ
tp1958
a(Vnineties
VNNS
tp1959
a(V.
V.
tp1960
aa(lp1961
(VThe
VDT
tp1962
a(VEU
VNNP
tp1963
a(Vhas
VVBZ
tp1964
a(Valready
VRB
tp1965
a(Vstarted
VVBN
tp1966
a(Vto
VTO
tp1967
a(Vengage
VVB
tp1968
a(Vin
VIN
tp1969
a(Vactive
VJJ
tp1970
a(Voutreach
VNN
tp1971
a(V,
V,
tp1972
a(Vnot
VRB
tp1973
a(Vonly
VRB
tp1974
a(Vwith
VIN
tp1975
a(Vkey
VJJ
tp1976
a(Vnegotiating
VVBG
tp1977
a(Vpartners
VNNS
tp1978
a(Vand
VCC
tp1979
a(Vthe
VDT
tp1980
a(Vmain
VJJ
tp1981
a(Vemerging
VVBG
tp1982
a(Veconomies
VNNS
tp1983
a(V,
V,
tp1984
a(Vbut
VCC
tp1985
a(Valso
VRB
tp1986
a(Vwith
VIN
tp1987
a(Vthe
VDT
tp1988
a(Vnew
VJJ
tp1989
a(VUS
VNNP
tp1990
a(VAdministration
VNN
tp1991
a(V,
V,
tp1992
a(Vwhich
VWDT
tp1993
a(Vhas
VVBZ
tp1994
a(Valready
VRB
tp1995
a(Vsignalled
VVBN
tp1996
a(Vits
VPRP$
tp1997
a(Vreadiness
VNN
tp1998
a(Vto
VTO
tp1999
a(Vengage
VVB
tp2000
a(Vagain
VRB
tp2001
a(Vin
VIN
tp2002
a(Va
VDT
tp2003
a(Vmeaningful
VJJ
tp2004
a(Vway
VNN
tp2005
a(V.
V.
tp2006
aa(lp2007
(VI
VPRP
tp2008
a(Vsuggest
VVBP
tp2009
a(Vyou
VPRP
tp2010
a(Vdo
VVB
tp2011
a(Vthe
VDT
tp2012
a(Vsame
VJJ
tp2013
a(V.
V.
tp2014
aa(lp2015
(VThe
VDT
tp2016
a(Vatmosphere
VNN
tp2017
a(Vat
VIN
tp2018
a(Vthe
VDT
tp2019
a(Vsummit
VNN
tp2020
a(Vwas
VVBD
tp2021
a(Vintimate
VJJ
tp2022
a(V,
V,
tp2023
a(Vfriendly
VJJ
tp2024
a(V,
V,
tp2025
a(Vand
VCC
tp2026
a(Vfocused
VVBD
tp2027
a(V.
V.
tp2028
aa(lp2029
(VIt
VPRP
tp2030
a(Vis
VVBZ
tp2031
a(Vclear
VJJ
tp2032
a(Vthat
VIN
tp2033
a(Van
VDT
tp2034
a(Vescalating
VVBG
tp2035
a(Vsituation
VNN
tp2036
a(Vof
VIN
tp2037
a(Vconflict
VNN
tp2038
a(Vhas
VVBZ
tp2039
a(Vtaken
VVBN
tp2040
a(Vover
VRP
tp2041
a(Vfrom
VIN
tp2042
a(Vthe
VDT
tp2043
a(Vpeace
VNN
tp2044
a(Vagreement
VNN
tp2045
a(Vand
VCC
tp2046
a(Vthe
VDT
tp2047
a(Vway
VNN
tp2048
a(Vto
VTO
tp2049
a(Vpeace
VNN
tp2050
a(V.
V.
tp2051
aa(lp2052
(VShe
VPRP
tp2053
a(Vwas
VVBD
tp2054
a(Vvery
VRB
tp2055
a(Vpleased
VJJ
tp2056
a(Vto
VTO
tp2057
a(Vbe
VVB
tp2058
a(Vhere
VRB
tp2059
a(Vin
VIN
tp2060
a(Vsuch
VPDT
tp2061
a(Va
VDT
tp2062
a(Vshort
VJJ
tp2063
a(Vtime
VNN
tp2064
a(V.
V.
tp2065
aa(lp2066
(VIn
VIN
tp2067
a(VLesotho
VNNP
tp2068
a(Vin
VIN
tp2069
a(VAfrica
VNNP
tp2070
a(V,
V,
tp2071
a(Vher
VPRP$
tp2072
a(Vlife
VNN
tp2073
a(Vexpectancy
VNN
tp2074
a(Vwould
VMD
tp2075
a(Vbe
VVB
tp2076
a(V42
VCD
tp2077
a(V.
V.
tp2078
aa(lp2079
(VYou
VPRP
tp2080
a(Vhad
VVBD
tp2081
a(Vremarked
VVBN
tp2082
a(Vearlier
VRBR
tp2083
a(Vin
VIN
tp2084
a(Vthe
VDT
tp2085
a(VHouse
VNNP
tp2086
a(Vthat
VIN
tp2087
a(Vyou
VPRP
tp2088
a(Vlikened
VVBD
tp2089
a(Vyourself
VPRP
tp2090
a(Vto
VTO
tp2091
a(Va
VDT
tp2092
a(Vdiesel
VNN
tp2093
a(Vengine
VNN
tp2094
a(V.
V.
tp2095
aa(lp2096
(VWhat
VWDT
tp2097
a(Vbegan
VVBD
tp2098
a(Vas
VIN
tp2099
a(Va
VDT
tp2100
a(Vgood-natured
VJJ
tp2101
a(Vevent
VNN
tp2102
a(Vdegenerated
VVBD
tp2103
a(Vinto
VIN
tp2104
a(Va
VDT
tp2105
a(Vstate
VNN
tp2106
a(Vof
VIN
tp2107
a(Vsiege
VNN
tp2108
a(Vwith
VIN
tp2109
a(Va
VDT
tp2110
a(Vhigh
VJJ
tp2111
a(Vdegree
VNN
tp2112
a(Vof
VIN
tp2113
a(Vaggression
VNN
tp2114
a(Vand
VCC
tp2115
a(Vviolence
VNN
tp2116
a(V.
V.
tp2117
aa(lp2118
(VIn
VIN
tp2119
a(Vrecent
VJJ
tp2120
a(Vyears
VNNS
tp2121
a(V,
V,
tp2122
a(Vair
VNN
tp2123
a(Vtransport
VNN
tp2124
a(Vhas
VVBZ
tp2125
a(Vhad
VVBN
tp2126
a(Va
VDT
tp2127
a(Vclear
VJJ
tp2128
a(Vlead
VNN
tp2129
a(Vover
VIN
tp2130
a(Vother
VJJ
tp2131
a(Vmeans
VNNS
tp2132
a(Vof
VIN
tp2133
a(Vtransport
VNN
tp2134
a(V.
V.
tp2135
aa(lp2136
(VWe
VPRP
tp2137
a(Vreally
VRB
tp2138
a(Vhave
VVBP
tp2139
a(Vto
VTO
tp2140
a(Vthink
VVB
tp2141
a(Vabout
VIN
tp2142
a(Vwhere
VWRB
tp2143
a(Vthe
VDT
tp2144
a(Vmoney
VNN
tp2145
a(Vcould
VMD
tp2146
a(Vcome
VVB
tp2147
a(Vfrom
VIN
tp2148
a(V.
V.
tp2149
aa(lp2150
(VWhen
VWRB
tp2151
a(Vone
VCD
tp2152
a(Vconsiders
VVBZ
tp2153
a(Vthe
VDT
tp2154
a(Vforces
VNNS
tp2155
a(Vcurrently
VRB
tp2156
a(Vinvolved
VVBN
tp2157
a(Vin
VIN
tp2158
a(Vtaking
VVBG
tp2159
a(Vover
VRP
tp2160
a(Vpower
VNN
tp2161
a(Vin
VIN
tp2162
a(VSerbia
VNNP
tp2163
a(V,
V,
tp2164
a(Vit
VPRP
tp2165
a(Vis
VVBZ
tp2166
a(Va
VDT
tp2167
a(Vquestion
VNN
tp2168
a(Vof
VIN
tp2169
a(Vout
VIN
tp2170
a(Vof
VIN
tp2171
a(Vthe
VDT
tp2172
a(Vfrying
VJJ
tp2173
a(Vpan
VNN
tp2174
a(V,
V,
tp2175
a(Vinto
VIN
tp2176
a(Vthe
VDT
tp2177
a(Vfire
VNN
tp2178
a(V,
V,
tp2179
a(Vand
VCC
tp2180
a(Vthere
VEX
tp2181
a(Vis
VVBZ
tp2182
a(Va
VDT
tp2183
a(Vrisk
VNN
tp2184
a(Vof
VIN
tp2185
a(Vrenewed
VVBN
tp2186
a(Vmassive
VJJ
tp2187
a(Vconflict
VNN
tp2188
a(V.
V.
tp2189
aa(lp2190
(VNow
VRB
tp2191
a(Vthat
VDT
tp2192
a(Vis
VVBZ
tp2193
a(Vall
VDT
tp2194
a(Vold
VJJ
tp2195
a(Vhat
VNN
tp2196
a(V.
V.
tp2197
aa(lp2198
(VNational
VNNP
tp2199
a(Vindependence
VNN
tp2200
a(Vhad
VVBD
tp2201
a(Vbecome
VVBN
tp2202
a(Vsomething
VNN
tp2203
a(Vof
VIN
tp2204
a(Valmost
VRB
tp2205
a(Vintrinsic
VJJ
tp2206
a(Vvalue
VNN
tp2207
a(V.
V.
tp2208
aa(lp2209
(VYou
VPRP
tp2210
a(Vhave
VVBP
tp2211
a(Vour
VPRP$
tp2212
a(Vgreatest
VJJS
tp2213
a(Vrespect
VNN
tp2214
a(Vfor
VIN
tp2215
a(Vthat
VDT
tp2216
a(V.
V.
tp2217
aa(lp2218
(Vin
VIN
tp2219
a(Vwriting
VVBG
tp2220
a(V.
V.
tp2221
a(V-
V:
tp2222
a(V(
VCD
tp2223
a(VLT
VNN
tp2224
a(V)
VCD
tp2225
a(VThe
VDT
tp2226
a(Vnew
VJJ
tp2227
a(Vrules
VNNS
tp2228
a(Vintended
VVBN
tp2229
a(Vto
VTO
tp2230
a(Vrenew
VVB
tp2231
a(Vcurrent
VJJ
tp2232
a(VEU
VNNP
tp2233
a(Vlegislation
VNN
tp2234
a(Von
VIN
tp2235
a(Vconsumer
VNN
tp2236
a(Vrights
VNNS
tp2237
a(Vneed
VVBP
tp2238
a(Vto
VTO
tp2239
a(Vcover
VVB
tp2240
a(Vall
VDT
tp2241
a(Vtypes
VNNS
tp2242
a(Vof
VIN
tp2243
a(Vpurchases
VNNS
tp2244
a(V,
V,
tp2245
a(Vwhether
VIN
tp2246
a(Vthey
VPRP
tp2247
a(Vare
VVBP
tp2248
a(Vmade
VVBN
tp2249
a(Vover
VIN
tp2250
a(Vthe
VDT
tp2251
a(Vtelephone
VNN
tp2252
a(V,
V,
tp2253
a(Vonline
VNN
tp2254
a(V,
V,
tp2255
a(Vin
VIN
tp2256
a(Va
VDT
tp2257
a(Vshop
VNN
tp2258
a(Vor
VCC
tp2259
a(Vat
VIN
tp2260
a(Vhome
VNN
tp2261
a(V.
V.
tp2262
aa.