(lp1
(lp2
(VThe
VDT
tp3
a(VInternet
VNN
tp4
a(Vhas
VVBZ
tp5
a(Vcreated
VVBN
tp6
a(Van
VDT
tp7
a(Ventirely
VRB
tp8
a(Vnew
VJJ
tp9
a(Vsituation
VNN
tp10
a(Vwhere
VWRB
tp11
a(Vthe
VDT
tp12
a(Vduplication
VNN
tp13
a(V,
V,
tp14
a(Vsale
VNN
tp15
a(Vand
VCC
tp16
a(Vdistribution
VNN
tp17
a(Vof
VIN
tp18
a(Vchild
VNN
tp19
a(Vpornography
VNN
tp20
a(Vis
VVBZ
tp21
a(Vconcerned
VVBN
tp22
a(V.
V.
tp23
aa(lp24
(VTo
VTO
tp25
a(Vdo
VVB
tp26
a(Vthis
VDT
tp27
a(V,
V,
tp28
a(Vwe
VPRP
tp29
a(Vwould
VMD
tp30
a(Vneed
VVB
tp31
a(Vto
VTO
tp32
a(Vteach
VVB
tp33
a(Vthe
VDT
tp34
a(Vpoor
VJJ
tp35
a(Vnot
VRB
tp36
a(Vto
VTO
tp37
a(Vborrow
VVB
tp38
a(Vmoney
VNN
tp39
a(Vwhen
VWRB
tp40
a(Vthey
VPRP
tp41
a(Vhave
VVBP
tp42
a(Vnone
VNN
tp43
a(V.
V.
tp44
aa(lp45
(VIt
VPRP
tp46
a(Vis
VVBZ
tp47
a(Va
VDT
tp48
a(Vfairly
VRB
tp49
a(Vinsignificant
VJJ
tp50
a(Vlength
VNN
tp51
a(Vof
VIN
tp52
a(Vnet
VNN
tp53
a(Vin
VIN
tp54
a(Vthat
VDT
tp55
a(Vsituation
VNN
tp56
a(V.
V.
tp57
aa(lp58
(VIt
VPRP
tp59
a(Vwould
VMD
tp60
a(Vbe
VVB
tp61
a(Vworth
VJJ
tp62
a(Vit
VPRP
tp63
a(V!
V.
tp64
aa(lp65
(VThe
VDT
tp66
a(Vsituation
VNN
tp67
a(Vis
VVBZ
tp68
a(Vanalogous
VJJ
tp69
a(Vto
VTO
tp70
a(Vthe
VDT
tp71
a(Vone
VCD
tp72
a(Vfrom
VIN
tp73
a(Vlast
VJJ
tp74
a(Vyear
VNN
tp75
a(V.
V.
tp76
aa(lp77
(VI
VPRP
tp78
a(Vdo
VVBP
tp79
a(Vnot
VRB
tp80
a(Vwant
VVB
tp81
a(Vhim
VPRP
tp82
a(Vto
VTO
tp83
a(Vcome
VVB
tp84
a(Vback
VRB
tp85
a(Vtwice
VRB
tp86
a(Vmore
VJJR
tp87
a(Vto
VTO
tp88
a(Vpaint
VVB
tp89
a(Vsome
VDT
tp90
a(Vof
VIN
tp91
a(Vthe
VDT
tp92
a(Vbits
VNNS
tp93
a(Vhe
VPRP
tp94
a(Vhas
VVBZ
tp95
a(Vmissed
VVBN
tp96
a(V.
V.
tp97
aa(lp98
(VIn
VIN
tp99
a(Vactual
VJJ
tp100
a(Vfact
VNN
tp101
a(V,
V,
tp102
a(Vof
VIN
tp103
a(Vcourse
VNN
tp104
a(V,
V,
tp105
a(Vwe
VPRP
tp106
a(Vdo
VVBP
tp107
a(Vneed
VVB
tp108
a(Vto
VTO
tp109
a(Vdiscuss
VVB
tp110
a(Vhuman
VJJ
tp111
a(Vrights
VNNS
tp112
a(Vwith
VIN
tp113
a(VChina
VNNP
tp114
a(V.
V.
tp115
aa(lp116
(VThe
VDT
tp117
a(Vbaton
VNN
tp118
a(Vhas
VVBZ
tp119
a(Vnow
VRB
tp120
a(Vbeen
VVBN
tp121
a(Vhanded
VVBN
tp122
a(Vover
VIN
tp123
a(Vto
VTO
tp124
a(VFrance
VNNP
tp125
a(V.
V.
tp126
aa(lp127
(VIn
VIN
tp128
a(Vthe
VDT
tp129
a(Vabsence
VNN
tp130
a(Vof
VIN
tp131
a(Vuseable
VJJ
tp132
a(Vdata
VNNS
tp133
a(Von
VIN
tp134
a(Vthese
VDT
tp135
a(Vchemicals
VNNS
tp136
a(V,
V,
tp137
a(Vhowever
VRB
tp138
a(V,
V,
tp139
a(Vonly
VRB
tp140
a(Va
VDT
tp141
a(Vtiny
VJJ
tp142
a(Vproportion
VNN
tp143
a(Vof
VIN
tp144
a(Vthese
VDT
tp145
a(Vcancers
VNNS
tp146
a(Vare
VVBP
tp147
a(Vrecognised
VVBN
tp148
a(Vas
VIN
tp149
a(Voccupational
VJJ
tp150
a(Vdiseases
VNNS
tp151
a(Vand
VCC
tp152
a(Vdealt
VVBN
tp153
a(Vwith
VIN
tp154
a(Vas
VIN
tp155
a(Vsuch
VJJ
tp156
a(V.
V.
tp157
aa(lp158
(VWhat
VWP
tp159
a(Vis
VVBZ
tp160
a(Vimportant
VJJ
tp161
a(Vis
VVBZ
tp162
a(Vthat
VIN
tp163
a(Vhe
VPRP
tp164
a(Vor
VCC
tp165
a(Vshe
VPRP
tp166
a(Vshould
VMD
tp167
a(Vnot
VRB
tp168
a(Vbe
VVB
tp169
a(Va
VDT
tp170
a(Vpaper
VNN
tp171
a(Vtiger
VNN
tp172
a(V,
V,
tp173
a(Vbut
VCC
tp174
a(Vhave
VVBP
tp175
a(Va
VDT
tp176
a(Vclear
VJJ
tp177
a(Vand
VCC
tp178
a(Vstrong
VJJ
tp179
a(Vmandate
VNN
tp180
a(V.
V.
tp181
aa(lp182
(VAfter
VIN
tp183
a(Vall
VDT
tp184
a(V,
V,
tp185
a(VMr
VNNP
tp186
a(VPresident-in-Office
VNNP
tp187
a(V,
V,
tp188
a(Vwe
VPRP
tp189
a(Vhave
VVBP
tp190
a(Vto
VTO
tp191
a(Vaccept
VVB
tp192
a(Vthat
VIN
tp193
a(Vthe
VDT
tp194
a(Vshort-term
VJJ
tp195
a(Veconomic
VJJ
tp196
a(Vforecasts
VNNS
tp197
a(Vhave
VVBP
tp198
a(Vbeen
VVBN
tp199
a(Vrevised
VVBN
tp200
a(Vworldwide
VRB
tp201
a(V.
V.
tp202
a(VEurope
VNNP
tp203
a(Vis
VVBZ
tp204
a(Vstill
VRB
tp205
a(Vin
VIN
tp206
a(Va
VDT
tp207
a(Vgood
VJJ
tp208
a(Vposition
VNN
tp209
a(Vhere
VRB
tp210
a(V.
V.
tp211
aa(lp212
(VWe
VPRP
tp213
a(Vwould
VMD
tp214
a(Vlike
VVB
tp215
a(Vto
VTO
tp216
a(Vknow
VVB
tp217
a(Vwhat
VWP
tp218
a(Vexactly
VRB
tp219
a(Vis
VVBZ
tp220
a(Vbeing
VVBG
tp221
a(Vdone
VVBN
tp222
a(V.
V.
tp223
aa(lp224
(VInstead
VRB
tp225
a(Vof
VIN
tp226
a(Vmoaning
VVBG
tp227
a(Vincessantly
VRB
tp228
a(V,
V,
tp229
a(Vas
VIN
tp230
a(Vthough
VIN
tp231
a(Vwe
VPRP
tp232
a(Vwere
VVBD
tp233
a(Vat
VIN
tp234
a(Vthe
VDT
tp235
a(VWailing
VNNP
tp236
a(VWall
VNNP
tp237
a(V,
V,
tp238
a(Vwe
VPRP
tp239
a(Vwould
VMD
tp240
a(Vbe
VVB
tp241
a(Vbetter
VRBR
tp242
a(Vadvised
VVBN
tp243
a(Vto
VTO
tp244
a(Venter
VVB
tp245
a(Vheadlong
VRB
tp246
a(Vinto
VIN
tp247
a(Vthe
VDT
tp248
a(Vdebate
VNN
tp249
a(V.
V.
tp250
aa(lp251
(VHIV
VNN
tp252
a(V/
V:
tp253
a(VAids
VNNP
tp254
a(Vrates
VNNS
tp255
a(Vhad
VVBD
tp256
a(Vsoared
VVBN
tp257
a(V.
V.
tp258
aa(lp259
(VThe
VDT
tp260
a(Vsafety
VNN
tp261
a(Vof
VIN
tp262
a(Vthe
VDT
tp263
a(Vrolling
VJJ
tp264
a(Vstock
VNN
tp265
a(Vmust
VMD
tp266
a(Vbe
VVB
tp267
a(Vimproved
VVBN
tp268
a(V,
V,
tp269
a(Vas
VRB
tp270
a(Vwell
VRB
tp271
a(Vas
VIN
tp272
a(Vthe
VDT
tp273
a(Vsafety
VNN
tp274
a(Vof
VIN
tp275
a(Vthe
VDT
tp276
a(Vsignalling
VNN
tp277
a(Vsystems
VNNS
tp278
a(V.
V.
tp279
aa(lp280
(VRisk
VNN
tp281
a(Vreduction
VNN
tp282
a(Vmeasures
VNNS
tp283
a(Vin
VIN
tp284
a(Vaddition
VNN
tp285
a(Vto
VTO
tp286
a(Vthose
VDT
tp287
a(Vmentioned
VVBN
tp288
a(Vabove
VIN
tp289
a(Vmay
VMD
tp290
a(V,
V,
tp291
a(Vif
VIN
tp292
a(Vnecessary
VJJ
tp293
a(V,
V,
tp294
a(Vbe
VVB
tp295
a(Vproposed
VVBN
tp296
a(Vin
VIN
tp297
a(Vthe
VDT
tp298
a(Vfuture
VNN
tp299
a(V.
V.
tp300
aa(lp301
(VWe
VPRP
tp302
a(Vsee
VVBP
tp303
a(Va
VDT
tp304
a(Vcrippled
VVBN
tp305
a(Vindustry
VNN
tp306
a(V.
V.
tp307
aa(lp308
(VThey
VPRP
tp309
a(Vmay
VMD
tp310
a(Vfeel
VVB
tp311
a(Vthat
VIN
tp312
a(Vwithin
VIN
tp313
a(Vtheir
VPRP$
tp314
a(Vown
VJJ
tp315
a(VMember
VNNP
tp316
a(VState
VNNP
tp317
a(Vthey
VPRP
tp318
a(Vwill
VMD
tp319
a(Vbe
VVB
tp320
a(Vprotected
VVBN
tp321
a(V,
V,
tp322
a(Vbut
VCC
tp323
a(Vthey
VPRP
tp324
a(Vare
VVBP
tp325
a(Vnot
VRB
tp326
a(Vsure
VJJ
tp327
a(Vwhat
VWP
tp328
a(Vhappens
VVBZ
tp329
a(Vin
VIN
tp330
a(Vanother
VDT
tp331
a(VMember
VNNP
tp332
a(VState
VNNP
tp333
a(V.
V.
tp334
aa(lp335
(VThe
VDT
tp336
a(VCzech
VNNP
tp337
a(VPrime
VNNP
tp338
a(VMinister
VNNP
tp339
a(Vaffirmed
VVBD
tp340
a(Vthe
VDT
tp341
a(Vneed
VNN
tp342
a(Vto
VTO
tp343
a(Vrespect
VVB
tp344
a(Vthe
VDT
tp345
a(Vsovereignty
VNN
tp346
a(Vof
VIN
tp347
a(Vthe
VDT
tp348
a(VIrish
VJJ
tp349
a(Vcitizens
VNNS
tp350
a(V.
V.
tp351
aa(lp352
(VThe
VDT
tp353
a(Vtaxpayer
VNN
tp354
a(Vmust
VMD
tp355
a(Valways
VRB
tp356
a(Vhave
VVB
tp357
a(Vaccurate
VJJ
tp358
a(Vand
VCC
tp359
a(Vproper
VJJ
tp360
a(Vknowledge
VNN
tp361
a(Vof
VIN
tp362
a(Vwhat
VWP
tp363
a(Vtheir
VPRP$
tp364
a(Vmoney
VNN
tp365
a(Vis
VVBZ
tp366
a(Vbeing
VVBG
tp367
a(Vspent
VVBN
tp368
a(Von
VIN
tp369
a(V.
V.
tp370
aa(lp371
(VThey
VPRP
tp372
a(Vneed
VVBP
tp373
a(Vto
VTO
tp374
a(Vthink
VVB
tp375
a(Vagain
VRB
tp376
a(V.
V.
tp377
aa(lp378
(VThe
VDT
tp379
a(Velections
VNNS
tp380
a(Vof
VIN
tp381
a(VSaturday
VNNP
tp382
a(V21
VCD
tp383
a(VApril
VNNP
tp384
a(V,
V,
tp385
a(Vwhich
VWDT
tp386
a(Vwere
VVBD
tp387
a(Vmarked
VVBN
tp388
a(Vby
VIN
tp389
a(Vfraud
VNN
tp390
a(V,
V,
tp391
a(Vviolence
VNN
tp392
a(Vand
VCC
tp393
a(Vdeaths
VNNS
tp394
a(V,
V,
tp395
a(Vwill
VMD
tp396
a(Vnot
VRB
tp397
a(Vhave
VVB
tp398
a(Vbeen
VVBN
tp399
a(Vfree
VJJ
tp400
a(Vor
VCC
tp401
a(Vfair
VJJ
tp402
a(V.
V.
tp403
aa(lp404
(VToday
VNN
tp405
a(Vnearly
VRB
tp406
a(V100
VCD
tp407
a(Vmillion
VCD
tp408
a(Vpeople
VNNS
tp409
a(Vlive
VVBP
tp410
a(Vin
VIN
tp411
a(Vprefabricated
VJJ
tp412
a(Vbuildings
VNNS
tp413
a(V.
V.
tp414
aa(lp415
(VAnd
VCC
tp416
a(Vthese
VDT
tp417
a(Vare
VVBP
tp418
a(Vusually
VRB
tp419
a(Vmembers
VNNS
tp420
a(Vof
VIN
tp421
a(Vthe
VDT
tp422
a(Varistocracy
VNN
tp423
a(Vor
VCC
tp424
a(Vroyalty
VNN
tp425
a(V.
V.
tp426
aa(lp427
(VIn
VIN
tp428
a(VHong
VNNP
tp429
a(VKong
VNNP
tp430
a(Vsome
VDT
tp431
a(V450
VCD
tp432
a(Vmeetings
VNNS
tp433
a(Vwere
VVBD
tp434
a(Vorganised
VVBN
tp435
a(V,
V,
tp436
a(Vyet
VRB
tp437
a(Velected
VVBN
tp438
a(Vobservers
VNNS
tp439
a(Vwere
VVBD
tp440
a(Vinvited
VVBN
tp441
a(Vto
VTO
tp442
a(Vjust
VRB
tp443
a(Va
VDT
tp444
a(Vhandful
VNN
tp445
a(Vof
VIN
tp446
a(Vthem
VPRP
tp447
a(V.
V.
tp448
aa(lp449
(VWe
VPRP
tp450
a(Vcannot
VVBP
tp451
a(Vspoil
VVB
tp452
a(Vit
VPRP
tp453
a(V.
V.
tp454
aa(lp455
(VEvidence
VNN
tp456
a(Vof
VIN
tp457
a(Vthis
VDT
tp458
a(Vis
VVBZ
tp459
a(Vthe
VDT
tp460
a(Vdesignation
VNN
tp461
a(Vof
VIN
tp462
a(Vthe
VDT
tp463
a(Vareas
VNNS
tp464
a(Vfor
VIN
tp465
a(Vthe
VDT
tp466
a(VNatura
VNNP
tp467
a(V2000
VCD
tp468
a(VNetwork
VNNP
tp469
a(V,
V,
tp470
a(Vwhich
VWDT
tp471
a(Vhas
VVBZ
tp472
a(Vbeen
VVBN
tp473
a(Vdelayed
VVBN
tp474
a(Vby
VIN
tp475
a(Vat
VIN
tp476
a(Vleast
VJJS
tp477
a(Vtwelve
VCD
tp478
a(Vyears
VNNS
tp479
a(V,
V,
tp480
a(Vsince
VIN
tp481
a(Vthe
VDT
tp482
a(Vadoption
VNN
tp483
a(Vof
VIN
tp484
a(Vthe
VDT
tp485
a(Vdirective
VNN
tp486
a(Von
VIN
tp487
a(Vhabitats
VNNS
tp488
a(V.
V.
tp489
aa(lp490
(VMarc
VNNP
tp491
a(VDutroux
VNNP
tp492
a(Vwas
VVBD
tp493
a(Vpaid
VVBN
tp494
a(VBEF
VNN
tp495
a(V80
VCD
tp496
a(V000
VCD
tp497
a(Vnet
VJJ
tp498
a(Vmonthly
VNN
tp499
a(Vin
VIN
tp500
a(Vbenefit
VNN
tp501
a(V,
V,
tp502
a(Van
VDT
tp503
a(Vamount
VNN
tp504
a(Vwhich
VWDT
tp505
a(Vmany
VJJ
tp506
a(Vwell-behaved
VJJ
tp507
a(V,
V,
tp508
a(Vneedy
VJJ
tp509
a(Vpeople
VNNS
tp510
a(Vwho
VWP
tp511
a(Vhave
VVBP
tp512
a(Vnever
VRB
tp513
a(Vdone
VVBN
tp514
a(Vanyone
VNN
tp515
a(Vany
VDT
tp516
a(Vharm
VNN
tp517
a(Vcan
VMD
tp518
a(Vonly
VRB
tp519
a(Vdream
VNN
tp520
a(Vof
VIN
tp521
a(V.
V.
tp522
aa(lp523
(VIt
VPRP
tp524
a(Vis
VVBZ
tp525
a(Vworth
VJJ
tp526
a(Vremembering
VVBG
tp527
a(V,
V,
tp528
a(Vin
VIN
tp529
a(Vfact
VNN
tp530
a(V,
V,
tp531
a(Vthat
VIN
tp532
a(Vevery
VDT
tp533
a(Vyear
VNN
tp534
a(Vin
VIN
tp535
a(VEurope
VNNP
tp536
a(V,
V,
tp537
a(Vthousands
VNNS
tp538
a(Vand
VCC
tp539
a(Vthousands
VNNS
tp540
a(Vof
VIN
tp541
a(Vchildren
VNNS
tp542
a(Vdisappear
VVBP
tp543
a(Vwithout
VIN
tp544
a(Vtrace
VNN
tp545
a(V.
V.
tp546
aa(lp547
(VOn
VIN
tp548
a(Vhealth
VNN
tp549
a(Vcare
VNN
tp550
a(V,
V,
tp551
a(Vthe
VDT
tp552
a(Vpopulation
VNN
tp553
a(Vis
VVBZ
tp554
a(Vvirtually
VRB
tp555
a(Vat
VIN
tp556
a(Vthe
VDT
tp557
a(Vlowest
VJJS
tp558
a(Vebb
VNN
tp559
a(V.
V.
tp560
aa(lp561
(VThe
VDT
tp562
a(Vmatter
VNN
tp563
a(Vhas
VVBZ
tp564
a(Vnow
VRB
tp565
a(Varrived
VVBN
tp566
a(V,
V,
tp567
a(Vunbidden
VJJ
tp568
a(V,
V,
tp569
a(Vat
VIN
tp570
a(VParliament
VNNP
tp571
a(V&apos;s
VNNS
tp572
a(Vdoor
VNN
tp573
a(V.
V.
tp574
aa(lp575
(VThey
VPRP
tp576
a(Vwant
VVBP
tp577
a(Vto
VTO
tp578
a(Vwork
VVB
tp579
a(Vwith
VIN
tp580
a(Vus
VPRP
tp581
a(V.
V.
tp582
aa(lp583
(VNobody
VNN
tp584
a(Vbut
VCC
tp585
a(Va
VDT
tp586
a(Vfantasist
VNN
tp587
a(Vwould
VMD
tp588
a(Vsuggest
VVB
tp589
a(Vsuch
VPDT
tp590
a(Va
VDT
tp591
a(Vthing
VNN
tp592
a(V.
V.
tp593
aa(lp594
(VIn
VIN
tp595
a(Vthis
VDT
tp596
a(Vrespect
VNN
tp597
a(V,
V,
tp598
a(Vthe
VDT
tp599
a(VNATO
VNNP
tp600
a(Vpress
VNN
tp601
a(Vrelease
VNN
tp602
a(Vof
VIN
tp603
a(V31
VCD
tp604
a(VMarch
VNNP
tp605
a(Vdeserves
VVBZ
tp606
a(Vattention
VNN
tp607
a(V.
V.
tp608
aa(lp609
(VWe
VPRP
tp610
a(Vtry
VVBP
tp611
a(Vto
VTO
tp612
a(Vcoordinate
VVB
tp613
a(Vbut
VCC
tp614
a(Vdo
VVB
tp615
a(Vlittle
VJJ
tp616
a(Velse
VRB
tp617
a(V.
V.
tp618
aa(lp619
(VThe
VDT
tp620
a(Vsingle
VJJ
tp621
a(Vmarket
VNN
tp622
a(Vis
VVBZ
tp623
a(Vhome
VNN
tp624
a(Vto
VTO
tp625
a(V500
VCD
tp626
a(Vmillion
VCD
tp627
a(Vcitizens
VNNS
tp628
a(Vand
VCC
tp629
a(Vover
VIN
tp630
a(V20
VCD
tp631
a(Vmillion
VCD
tp632
a(Vbusinesses
VNNS
tp633
a(V.
V.
tp634
aa(lp635
(VAnd
VCC
tp636
a(Vyet
VRB
tp637
a(Vthe
VDT
tp638
a(Vspreads
VNNS
tp639
a(Vincreased
VVBD
tp640
a(V.
V.
tp641
aa(lp642
(VOn
VIN
tp643
a(Vthe
VDT
tp644
a(Vsubject
VNN
tp645
a(Vof
VIN
tp646
a(Vyoung
VJJ
tp647
a(Vpeople
VNNS
tp648
a(V,
V,
tp649
a(Vresearch
VNN
tp650
a(Vhas
VVBZ
tp651
a(Vshown
VVBN
tp652
a(Vthat
VIN
tp653
a(V90
VCD
tp654
a(V%
VNN
tp655
a(Vof
VIN
tp656
a(Vsmokers
VNNS
tp657
a(Vstart
VVBP
tp658
a(Vsmoking
VNN
tp659
a(Vas
VIN
tp660
a(Vchildren
VNNS
tp661
a(V,
V,
tp662
a(Vas
VIN
tp663
a(Vunder
VIN
tp664
a(V18s
VNNS
tp665
a(V.
V.
tp666
aa(lp667
(VFor
VIN
tp668
a(Vme
VPRP
tp669
a(V,
V,
tp670
a(Vit
VPRP
tp671
a(Vis
VVBZ
tp672
a(Vfascinating
VJJ
tp673
a(Vwhat
VWP
tp674
a(Vthe
VDT
tp675
a(Vcar
VNN
tp676
a(Vindustry
VNN
tp677
a(Vis
VVBZ
tp678
a(Valready
VRB
tp679
a(Vcapable
VJJ
tp680
a(Vof
VIN
tp681
a(V.
V.
tp682
aa(lp683
(VThere
VEX
tp684
a(Vmust
VMD
tp685
a(Vof
VIN
tp686
a(Vcourse
VNN
tp687
a(Vbe
VVB
tp688
a(Veffective
VJJ
tp689
a(Vtests
VNNS
tp690
a(Vthat
VWDT
tp691
a(Vinfluence
VVBP
tp692
a(Vcar
VNN
tp693
a(Vdesign
VNN
tp694
a(V.
V.
tp695
aa(lp696
(VYou
VPRP
tp697
a(Vstill
VRB
tp698
a(Vhave
VVBP
tp699
a(Vanother
VDT
tp700
a(Vopportunity
VNN
tp701
a(V.
V.
tp702
aa(lp703
(VAccording
VVBG
tp704
a(Vto
VTO
tp705
a(Vmy
VPRP$
tp706
a(Vcalculation
VNN
tp707
a(V,
V,
tp708
a(Vunless
VIN
tp709
a(Vthere
VEX
tp710
a(Vare
VVBP
tp711
a(Vnew
VJJ
tp712
a(Vmembers
VNNS
tp713
a(Vof
VIN
tp714
a(Vthe
VDT
tp715
a(VConservative
VNNP
tp716
a(VParty
VNNP
tp717
a(V,
V,
tp718
a(Vthe
VDT
tp719
a(Vproportion
VNN
tp720
a(Vof
VIN
tp721
a(VMembers
VNNS
tp722
a(Vfrom
VIN
tp723
a(Vour
VPRP$
tp724
a(Vside
VNN
tp725
a(Vand
VCC
tp726
a(Vtheir
VPRP$
tp727
a(Vside
VNN
tp728
a(Vare
VVBP
tp729
a(Valmost
VRB
tp730
a(Vthe
VDT
tp731
a(Vsame
VJJ
tp732
a(V.
V.
tp733
aa(lp734
(VThis
VDT
tp735
a(Vis
VVBZ
tp736
a(Vthe
VDT
tp737
a(Vfirst
VJJ
tp738
a(Vsuch
VJJ
tp739
a(Vcommittee
VNN
tp740
a(Vof
VIN
tp741
a(Vinquiry
VNN
tp742
a(Vin
VIN
tp743
a(Vten
VCD
tp744
a(Vyears
VNNS
tp745
a(V.
V.
tp746
aa(lp747
(VEvery
VDT
tp748
a(Vday
VNN
tp749
a(V,
V,
tp750
a(Vmines
VNNS
tp751
a(Vare
VVBP
tp752
a(Vremoved
VVBN
tp753
a(Vand
VCC
tp754
a(Vevery
VDT
tp755
a(Vday
VNN
tp756
a(Vnew
VJJ
tp757
a(Vones
VNNS
tp758
a(Vare
VVBP
tp759
a(Vlaid
VVBN
tp760
a(V.
V.
tp761
aa(lp762
(VNo
VDT
tp763
a(Vlegislative
VJJ
tp764
a(Vprocedure
VNN
tp765
a(Vis
VVBZ
tp766
a(Vtherefore
VRB
tp767
a(Vrequired
VVBN
tp768
a(V.
V.
tp769
aa(lp770
(VOn
VIN
tp771
a(Vthat
VDT
tp772
a(Vday
VNN
tp773
a(Vvisits
VNNS
tp774
a(Vto
VTO
tp775
a(Vexhibitions
VNNS
tp776
a(Vand
VCC
tp777
a(Vmuseums
VNNS
tp778
a(Vare
VVBP
tp779
a(Vfree
VJJ
tp780
a(V,
V,
tp781
a(Vand
VCC
tp782
a(Vnumerous
VJJ
tp783
a(Vcultural
VJJ
tp784
a(Vevents
VNNS
tp785
a(Vtake
VVBP
tp786
a(Vplace
VNN
tp787
a(Varound
VIN
tp788
a(Vthe
VDT
tp789
a(Vholiday
VNN
tp790
a(V.
V.
tp791
aa(lp792
(VFirst
VNNP
tp793
a(Vof
VIN
tp794
a(Vall
VDT
tp795
a(V,
V,
tp796
a(VQuestion
VNNP
tp797
a(VTime
VNNP
tp798
a(Vwas
VVBD
tp799
a(Vput
VVBN
tp800
a(Vback
VRB
tp801
a(Vto
VTO
tp802
a(V6
VCD
tp803
a(V:
V:
tp804
a(V30
VCD
tp805
a(Vp.m.
VRB
tp806
a(V,
V,
tp807
a(Vthen
VRB
tp808
a(Vit
VPRP
tp809
a(Vwas
VVBD
tp810
a(Vannounced
VVBN
tp811
a(Von
VIN
tp812
a(Vthe
VDT
tp813
a(Vscreen
VNN
tp814
a(Vthat
VIN
tp815
a(Vit
VPRP
tp816
a(Vwould
VMD
tp817
a(Vbegin
VVB
tp818
a(Vat
VIN
tp819
a(V6
VCD
tp820
a(V:
V:
tp821
a(V50
VCD
tp822
a(Vp.m.
VNN
tp823
aa(lp824
(VLast
VJJ
tp825
a(Vweek
VNN
tp826
a(V&apos;s
VNNS
tp827
a(Vmeeting
VNN
tp828
a(Vwas
VVBD
tp829
a(Valso
VRB
tp830
a(Vabout
VIN
tp831
a(Vthe
VDT
tp832
a(Veconomic
VJJ
tp833
a(Vand
VCC
tp834
a(Vfinancial
VJJ
tp835
a(Vsituation
VNN
tp836
a(V.
V.
tp837
aa(lp838
(VWe
VPRP
tp839
a(Vare
VVBP
tp840
a(Vin
VIN
tp841
a(Vthe
VDT
tp842
a(Vmiddle
VNN
tp843
a(Vof
VIN
tp844
a(VNovember
VNNP
tp845
a(V.
V.
tp846
aa(lp847
(VThis
VDT
tp848
a(Vis
VVBZ
tp849
a(Va
VDT
tp850
a(Vdelicate
VJJ
tp851
a(Vand
VCC
tp852
a(Vdifficult
VJJ
tp853
a(Vmatter
VNN
tp854
a(Vwhich
VWDT
tp855
a(Vconcerns
VVBZ
tp856
a(Vthe
VDT
tp857
a(Vreputation
VNN
tp858
a(Vof
VIN
tp859
a(Va
VDT
tp860
a(VMember
VNNP
tp861
a(Vof
VIN
tp862
a(Vthe
VDT
tp863
a(VHouse
VNNP
tp864
a(Vand
VCC
tp865
a(Vthat
VDT
tp866
a(Vof
VIN
tp867
a(Vthis
VDT
tp868
a(VHouse
VNNP
tp869
a(Vas
VIN
tp870
a(Va
VDT
tp871
a(Vwhole
VNN
tp872
a(V.
V.
tp873
aa(lp874
(VSome
VDT
tp875
a(Vcountries
VNNS
tp876
a(Vare
VVBP
tp877
a(Vused
VVBN
tp878
a(Vto
VTO
tp879
a(Vhaving
VVBG
tp880
a(Vincreased
VVBN
tp881
a(Vnumbers
VNNS
tp882
a(Vof
VIN
tp883
a(Vforeigners
VNNS
tp884
a(Vin
VIN
tp885
a(Vthe
VDT
tp886
a(Vlocal
VJJ
tp887
a(Vpopulation
VNN
tp888
a(V,
V,
tp889
a(Vbut
VCC
tp890
a(Vfor
VIN
tp891
a(Vothers
VNNS
tp892
a(Vof
VIN
tp893
a(Vcourse
VNN
tp894
a(V,
V,
tp895
a(Vit
VPRP
tp896
a(Vis
VVBZ
tp897
a(Vsomething
VNN
tp898
a(Vnew
VJJ
tp899
a(V.
V.
tp900
aa(lp901
(VWe
VPRP
tp902
a(Vworked
VVBD
tp903
a(Vvery
VRB
tp904
a(Vhard
VRB
tp905
a(V,
V,
tp906
a(Vtogether
VRB
tp907
a(Vwith
VIN
tp908
a(Vthe
VDT
tp909
a(VMexican
VJJ
tp910
a(VPresidency
VNNP
tp911
a(V.
V.
tp912
aa(lp913
(VWe
VPRP
tp914
a(Vshould
VMD
tp915
a(Vbe
VVB
tp916
a(Vprepared
VVBN
tp917
a(Vto
VTO
tp918
a(Vlisten
VVB
tp919
a(Vto
VTO
tp920
a(Vdifferent
VJJ
tp921
a(Vpoints
VNNS
tp922
a(Vof
VIN
tp923
a(Vview
VNN
tp924
a(V.
V.
tp925
aa(lp926
(VThe
VDT
tp927
a(Vmove
VNN
tp928
a(Vto
VTO
tp929
a(Vthe
VDT
tp930
a(VBologna
VNNP
tp931
a(Vmodel
VNN
tp932
a(Vthroughout
VIN
tp933
a(Vthe
VDT
tp934
a(Ventire
VJJ
tp935
a(Vuniversity
VNN
tp936
a(Vsystem
VNN
tp937
a(Vin
VIN
tp938
a(VEurope
VNNP
tp939
a(Vhas
VVBZ
tp940
a(Vmade
VVBN
tp941
a(Vit
VPRP
tp942
a(Vdifficult
VJJ
tp943
a(Venough
VRB
tp944
a(Vfor
VIN
tp945
a(Vstudents
VNNS
tp946
a(Vwith
VIN
tp947
a(Va
VDT
tp948
a(Vmaster
VNN
tp949
a(V&apos;s
VVBZ
tp950
a(Vdegree
VNN
tp951
a(Vto
VTO
tp952
a(Vfind
VVB
tp953
a(Va
VDT
tp954
a(VPhD
VNN
tp955
a(Vplace
VNN
tp956
a(V.
V.
tp957
aa(lp958
(VThat
VDT
tp959
a(Vis
VVBZ
tp960
a(Va
VDT
tp961
a(Vfeature
VNN
tp962
a(Vwe
VPRP
tp963
a(Vwould
VMD
tp964
a(Vhope
VVB
tp965
a(Vto
VTO
tp966
a(Vcontinue
VVB
tp967
a(Vwith
VIN
tp968
a(V.
V.
tp969
aa(lp970
(VWe
VPRP
tp971
a(Vagree
VVBP
tp972
a(V.
V.
tp973
aa(lp974
(VIf
VIN
tp975
a(V,
V,
tp976
a(Vin
VIN
tp977
a(V2007
VCD
tp978
a(V,
V,
tp979
a(Vcitizens
VNNS
tp980
a(Vover
VIN
tp981
a(V65
VCD
tp982
a(Vyears
VNNS
tp983
a(Vof
VIN
tp984
a(Vage
VNN
tp985
a(Vrepresented
VVBD
tp986
a(V17
VCD
tp987
a(V%
VNN
tp988
a(Vof
VIN
tp989
a(Vthe
VDT
tp990
a(VUnion
VNNP
tp991
a(V&apos;s
VNNS
tp992
a(Vpopulation
VNN
tp993
a(V,
V,
tp994
a(Vin
VIN
tp995
a(V2030
VCD
tp996
a(Vthis
VDT
tp997
a(Vpercentage
VNN
tp998
a(Vwill
VMD
tp999
a(Vreach
VVB
tp1000
a(V24.6
VCD
tp1001
a(V%
VNN
tp1002
a(V.
V.
tp1003
aa(lp1004
(VThank
VVB
tp1005
a(Vyou
VPRP
tp1006
a(V,
V,
tp1007
a(Vthat
VDT
tp1008
a(Vis
VVBZ
tp1009
a(Vexactly
VRB
tp1010
a(Vwhat
VWP
tp1011
a(VI
VPRP
tp1012
a(Vwanted
VVBD
tp1013
a(Vto
VTO
tp1014
a(Vunderline
VVB
tp1015
a(V.
V.
tp1016
aa(lp1017
(VWe
VPRP
tp1018
a(Vcannot
VVBP
tp1019
a(Vgive
VVB
tp1020
a(Vup
VRP
tp1021
a(Von
VIN
tp1022
a(Vour
VPRP$
tp1023
a(Vdesires
VNNS
tp1024
a(Vand
VCC
tp1025
a(Vhopes
VVBZ
tp1026
a(Vto
VTO
tp1027
a(Vmake
VVB
tp1028
a(Vprogress
VNN
tp1029
a(Vand
VCC
tp1030
a(Vsimply
VRB
tp1031
a(Vrelinquish
VVB
tp1032
a(Vsuch
VPDT
tp1033
a(Va
VDT
tp1034
a(Vfundamentally
VRB
tp1035
a(Vimportant
VJJ
tp1036
a(Vmatter
VNN
tp1037
a(V,
V,
tp1038
a(Vbased
VVBN
tp1039
a(Von
VIN
tp1040
a(Vour
VPRP$
tp1041
a(Vvalues
VNNS
tp1042
a(V,
V,
tp1043
a(Vto
VTO
tp1044
a(Vthe
VDT
tp1045
a(Vcategory
VNN
tp1046
a(Vof
VIN
tp1047
a(Vhopes
VNNS
tp1048
a(Vand
VCC
tp1049
a(Vdreams
VNNS
tp1050
a(V.
V.
tp1051
aa(lp1052
(VThe
VDT
tp1053
a(Vonly
VJJ
tp1054
a(Vreason
VNN
tp1055
a(Vpeople
VNNS
tp1056
a(Vwant
VVBP
tp1057
a(Vto
VTO
tp1058
a(Vbe
VVB
tp1059
a(Vmasters
VNNS
tp1060
a(Vof
VIN
tp1061
a(Vthe
VDT
tp1062
a(Vfuture
VNN
tp1063
a(Vis
VVBZ
tp1064
a(Vto
VTO
tp1065
a(Vchange
VVB
tp1066
a(Vthe
VDT
tp1067
a(Vpast
VNN
tp1068
a(V.
V.
tp1069
a(V&quot;
VNN
tp1070
aa(lp1071
(VFirst
VRB
tp1072
a(V,
V,
tp1073
a(Vin
VIN
tp1074
a(Vmy
VPRP$
tp1075
a(Vview
VNN
tp1076
a(V,
V,
tp1077
a(Vwe
VPRP
tp1078
a(Vmust
VMD
tp1079
a(Vrespect
VVB
tp1080
a(Vthe
VDT
tp1081
a(Vrules
VNNS
tp1082
a(Vof
VIN
tp1083
a(Vdemocracy
VNN
tp1084
a(V.
V.
tp1085
aa(lp1086
(VWe
VPRP
tp1087
a(Vhave
VVBP
tp1088
a(Vno
VDT
tp1089
a(Videa
VNN
tp1090
a(Vwhat
VWP
tp1091
a(Vis
VVBZ
tp1092
a(Vhappening
VVBG
tp1093
a(Vin
VIN
tp1094
a(VNigeria
VNNP
tp1095
a(V.
V.
tp1096
aa(lp1097
(VIt
VPRP
tp1098
a(Vis
VVBZ
tp1099
a(Vnot
VRB
tp1100
a(Valways
VRB
tp1101
a(Veasy
VJJ
tp1102
a(V.
V.
tp1103
aa(lp1104
(VLet
VVB
tp1105
a(Vus
VPRP
tp1106
a(Vtry
VVB
tp1107
a(Vto
VTO
tp1108
a(Vcome
VVB
tp1109
a(Vto
VTO
tp1110
a(Van
VDT
tp1111
a(Vagreement
VNN
tp1112
a(V.
V.
tp1113
aa(lp1114
(VAs
VIN
tp1115
a(Vmentioned
VVBN
tp1116
a(Vin
VIN
tp1117
a(Vthe
VDT
tp1118
a(Vreport
VNN
tp1119
a(V,
V,
tp1120
a(Vwe
VPRP
tp1121
a(Vmust
VMD
tp1122
a(Valso
VRB
tp1123
a(Vraise
VVB
tp1124
a(Vthe
VDT
tp1125
a(Vlevel
VNN
tp1126
a(Vof
VIN
tp1127
a(Vour
VPRP$
tp1128
a(Vambitions
VNNS
tp1129
a(Vprior
VRB
tp1130
a(Vto
VTO
tp1131
a(Vthe
VDT
tp1132
a(Vconference
VNN
tp1133
a(Vin
VIN
tp1134
a(VNew
VNNP
tp1135
a(VYork
VNNP
tp1136
a(V.
V.
tp1137
aa(lp1138
(VYou
VPRP
tp1139
a(Vare
VVBP
tp1140
a(Vhere
VRB
tp1141
a(Vto
VTO
tp1142
a(Vsurvey
VVB
tp1143
a(Vthe
VDT
tp1144
a(Vshattered
VJJ
tp1145
a(Vwreckage
VNN
tp1146
a(Vof
VIN
tp1147
a(Vyour
VPRP$
tp1148
a(Vbroken
VJJ
tp1149
a(VEuropean
VJJ
tp1150
a(Vdreams
VNNS
tp1151
a(V.
V.
tp1152
aa(lp1153
(VDangerous
VJJ
tp1154
a(Vproducts
VNNS
tp1155
a(Vhave
VVBP
tp1156
a(Vlost
VVBN
tp1157
a(Vnothing
VNN
tp1158
a(Vin
VIN
tp1159
a(Vchildren
VNNS
tp1160
a(V&apos;s
VNNS
tp1161
a(Vhands
VNNS
tp1162
a(V!
V.
tp1163
aa(lp1164
(VFour
VCD
tp1165
a(Vamendments
VNNS
tp1166
a(Vhave
VVBP
tp1167
a(Vbeen
VVBN
tp1168
a(Vvoted
VVBN
tp1169
a(Vwhich
VWDT
tp1170
a(Vare
VVBP
tp1171
a(Vin
VIN
tp1172
a(Vaddition
VNN
tp1173
a(Vto
VTO
tp1174
a(Vwhat
VWP
tp1175
a(Vthe
VDT
tp1176
a(Vcommittee
VNN
tp1177
a(Vvoted
VVBD
tp1178
a(V.
V.
tp1179
aa(lp1180
(VHelicopters
VNNPS
tp1181
a(Vare
VVBP
tp1182
a(Vtherefore
VRB
tp1183
a(Vneeded
VVBN
tp1184
a(V.
V.
tp1185
aa(lp1186
(VIts
VPRP$
tp1187
a(Vactivity
VNN
tp1188
a(Vis
VVBZ
tp1189
a(Vcoming
VVBG
tp1190
a(Vto
VTO
tp1191
a(Van
VDT
tp1192
a(Vend
VNN
tp1193
a(V,
V,
tp1194
a(Vwith
VIN
tp1195
a(Vthe
VDT
tp1196
a(Vadoption
VNN
tp1197
a(Vin
VIN
tp1198
a(Vplenary
VNN
tp1199
a(Vof
VIN
tp1200
a(Va
VDT
tp1201
a(Vresolution
VNN
tp1202
a(Vaimed
VVBN
tp1203
a(Vat
VIN
tp1204
a(Vsumming
VVBG
tp1205
a(Vup
VRP
tp1206
a(Vthe
VDT
tp1207
a(Vapproximately
VRB
tp1208
a(Vsix
VCD
tp1209
a(Vmonths
VNNS
tp1210
a(Vof
VIN
tp1211
a(Vits
VPRP$
tp1212
a(Vduration
VNN
tp1213
a(V.
V.
tp1214
aa(lp1215
(VAmongst
VIN
tp1216
a(Vthe
VDT
tp1217
a(Vdocuments
VNNS
tp1218
a(Vconfiscated
VVBN
tp1219
a(Vwere
VVBD
tp1220
a(Vdeeds
VNNS
tp1221
a(Vcovered
VVBN
tp1222
a(Vby
VIN
tp1223
a(Vthe
VDT
tp1224
a(VSeal
VNNP
tp1225
a(Vof
VIN
tp1226
a(VConfession
VNNP
tp1227
a(V,
V,
tp1228
a(Vsubmitted
VVBN
tp1229
a(Vby
VIN
tp1230
a(Vcitizens
VNNS
tp1231
a(Vwho
VWP
tp1232
a(Vhad
VVBD
tp1233
a(Vexpressly
VRB
tp1234
a(Vasked
VVBN
tp1235
a(Vto
VTO
tp1236
a(Vremain
VVB
tp1237
a(Vanonymous
VJJ
tp1238
a(V.
V.
tp1239
aa(lp1240
(VThe
VDT
tp1241
a(Vdispute
VNN
tp1242
a(Vover
VIN
tp1243
a(VMacedonia
VNNP
tp1244
a(V&apos;s
VNNS
tp1245
a(Vname
VNN
tp1246
a(Vwould
VMD
tp1247
a(Vnot
VRB
tp1248
a(Vbe
VVB
tp1249
a(Vthe
VDT
tp1250
a(Vfirst
VJJ
tp1251
a(Vtime
VNN
tp1252
a(Va
VDT
tp1253
a(Vnew
VJJ
tp1254
a(VMember
VNNP
tp1255
a(VState
VNNP
tp1256
a(Vbrought
VVBD
tp1257
a(Vinsoluble
VJJ
tp1258
a(Vproblems
VNNS
tp1259
a(Vwith
VIN
tp1260
a(Vit
VPRP
tp1261
a(V.
V.
tp1262
aa(lp1263
(VI
VPRP
tp1264
a(Vwill
VMD
tp1265
a(Vtry
VVB
tp1266
a(Vto
VTO
tp1267
a(Vcontinue
VVB
tp1268
a(Vsitting
VVBG
tp1269
a(Vdown
VRB
tp1270
a(V.
V.
tp1271
aa(lp1272
(VThe
VDT
tp1273
a(Vaeroplane
VNN
tp1274
a(Vcrashed
VVBD
tp1275
a(Vin
VIN
tp1276
a(Vthe
VDT
tp1277
a(Vmountainous
VJJ
tp1278
a(Vregion
VNN
tp1279
a(Vnear
VIN
tp1280
a(VThessaloniki
VNNP
tp1281
a(V,
V,
tp1282
a(Vfollowing
VVBG
tp1283
a(Va
VDT
tp1284
a(Vfailed
VJJ
tp1285
a(Vattempt
VNN
tp1286
a(Vto
VTO
tp1287
a(Vland
VNN
tp1288
a(V.
V.
tp1289
aa(lp1290
(VIt
VPRP
tp1291
a(Vwas
VVBD
tp1292
a(Vbelieved
VVBN
tp1293
a(Vto
VTO
tp1294
a(Vbe
VVB
tp1295
a(Von
VIN
tp1296
a(Vthe
VDT
tp1297
a(Vfast
VJJ
tp1298
a(Vtrack
VNN
tp1299
a(Vto
VTO
tp1300
a(Vdevelopment
VNN
tp1301
a(V.
V.
tp1302
aa(lp1303
(VBravo
VNNP
tp1304
a(V.
V.
tp1305
aa(lp1306
(VI
VPRP
tp1307
a(Vshall
VMD
tp1308
a(Vtherefore
VRB
tp1309
a(Vvote
VVB
tp1310
a(Vagainst
VIN
tp1311
a(Vthis
VDT
tp1312
a(Vamendment
VNN
tp1313
a(V.
V.
tp1314
aa(lp1315
(VThe
VDT
tp1316
a(V2004
VCD
tp1317
a(Venlargement
VNN
tp1318
a(Vwas
VVBD
tp1319
a(Va
VDT
tp1320
a(Vsuccess
VNN
tp1321
a(V.
V.
tp1322
aa(lp1323
(VYou
VPRP
tp1324
a(Vmust
VMD
tp1325
a(Vdo
VVB
tp1326
a(Vone
VCD
tp1327
a(Vor
VCC
tp1328
a(Vthe
VDT
tp1329
a(Vother
VJJ
tp1330
a(V.
V.
tp1331
aa(lp1332
(VWe
VPRP
tp1333
a(Vhave
VVBP
tp1334
a(Vfound
VVBN
tp1335
a(Va
VDT
tp1336
a(Vcompromise
VNN
tp1337
a(Vbetween
VIN
tp1338
a(Vthe
VDT
tp1339
a(Vregatta
VNN
tp1340
a(Vmodel
VNN
tp1341
a(Vand
VCC
tp1342
a(Vfive
VCD
tp1343
a(Vplus
VCC
tp1344
a(Vone
VCD
tp1345
a(V.
V.
tp1346
aa(lp1347
(VIf
VIN
tp1348
a(Vwe
VPRP
tp1349
a(Vare
VVBP
tp1350
a(Vlucky
VJJ
tp1351
a(V,
V,
tp1352
a(Vwe
VPRP
tp1353
a(Vwill
VMD
tp1354
a(Vbe
VVB
tp1355
a(Vable
VJJ
tp1356
a(Vto
VTO
tp1357
a(Vdo
VVB
tp1358
a(Vthat
VDT
tp1359
a(Vby
VIN
tp1360
a(V2006
VCD
tp1361
a(Vat
VIN
tp1362
a(Vthe
VDT
tp1363
a(Vearliest
VJJS
tp1364
a(V.
V.
tp1365
aa(lp1366
(VI
VPRP
tp1367
a(Vhave
VVBP
tp1368
a(Vno
VDT
tp1369
a(Vother
VJJ
tp1370
a(Voption
VNN
tp1371
a(V.
V.
tp1372
aa(lp1373
(VThe
VDT
tp1374
a(Vchair
VNN
tp1375
a(Vof
VIN
tp1376
a(VDeutsche
VNNP
tp1377
a(VBank
VNNP
tp1378
a(V,
V,
tp1379
a(VDr
VNNP
tp1380
a(VAckermann
VNNP
tp1381
a(V,
V,
tp1382
a(Vis
VVBZ
tp1383
a(Va
VDT
tp1384
a(Vdifficult
VJJ
tp1385
a(Vman
VNN
tp1386
a(Vto
VTO
tp1387
a(Vmake
VVB
tp1388
a(Van
VDT
tp1389
a(Vimpression
VNN
tp1390
a(Von
VIN
tp1391
a(V.
V.
tp1392
aa(lp1393
(VFirst
VNNP
tp1394
a(Vof
VIN
tp1395
a(Vall
VDT
tp1396
a(V,
V,
tp1397
a(Vthis
VDT
tp1398
a(Vis
VVBZ
tp1399
a(Va
VDT
tp1400
a(Vcall
VNN
tp1401
a(Vfor
VIN
tp1402
a(Vaction
VNN
tp1403
a(V.
V.
tp1404
aa(lp1405
(VThis
VDT
tp1406
a(Vmakes
VVBZ
tp1407
a(Vlong-term
VJJ
tp1408
a(Vlife
VNN
tp1409
a(Vplanning
VNN
tp1410
a(Vdifficult
VJJ
tp1411
a(V.
V.
tp1412
aa(lp1413
(VIn
VIN
tp1414
a(Vdeveloping
VVBG
tp1415
a(Vthe
VDT
tp1416
a(Vtrans-European
VJJ
tp1417
a(Venergy
VNN
tp1418
a(Vnetworks
VNNS
tp1419
a(V,
V,
tp1420
a(Vaccount
VNN
tp1421
a(Vmust
VMD
tp1422
a(Valso
VRB
tp1423
a(Vbe
VVB
tp1424
a(Vtaken
VVBN
tp1425
a(Vof
VIN
tp1426
a(Vsocial
VJJ
tp1427
a(Vand
VCC
tp1428
a(Veconomic
VJJ
tp1429
a(Vrapprochement
VNN
tp1430
a(V.
V.
tp1431
aa(lp1432
(VI
VPRP
tp1433
a(Vam
VVBP
tp1434
a(Vnot
VRB
tp1435
a(Vinterested
VJJ
tp1436
a(Vin
VIN
tp1437
a(Vseeing
VVBG
tp1438
a(Vsome
VDT
tp1439
a(Vkind
VNN
tp1440
a(Vof
VIN
tp1441
a(VEU-level
VJJ
tp1442
a(Vpublic
VJJ
tp1443
a(Vprosecution
VNN
tp1444
a(Vservice
VNN
tp1445
a(Vset
VVBD
tp1446
a(Vup
VRP
tp1447
a(V.
V.
tp1448
aa(lp1449
(VConcerning
VVBG
tp1450
a(Vnight
VNN
tp1451
a(Vflights
VNNS
tp1452
a(V,
V,
tp1453
a(Vthese
VDT
tp1454
a(Vwill
VMD
tp1455
a(Vbe
VVB
tp1456
a(Vdiscussed
VVBN
tp1457
a(Vin
VIN
tp1458
a(Va
VDT
tp1459
a(Vmoment
VNN
tp1460
a(V.
V.
tp1461
aa(lp1462
(VWe
VPRP
tp1463
a(Vare
VVBP
tp1464
a(Vnot
VRB
tp1465
a(Vtalking
VVBG
tp1466
a(Vabout
VIN
tp1467
a(Vministers
VNNS
tp1468
a(Vbut
VCC
tp1469
a(Vof
VIN
tp1470
a(Va
VDT
tp1471
a(Vcivil
VJJ
tp1472
a(Vservant
VNN
tp1473
a(Vfrom
VIN
tp1474
a(Vthe
VDT
tp1475
a(Vrepresentation
VNN
tp1476
a(Vof
VIN
tp1477
a(Vthe
VDT
tp1478
a(Vgovernment
VNN
tp1479
a(Vholding
VVBG
tp1480
a(Vthe
VDT
tp1481
a(Vpresidency
VNN
tp1482
a(Vat
VIN
tp1483
a(Vthat
VDT
tp1484
a(Vparticular
VJJ
tp1485
a(Vtime
VNN
tp1486
a(V.
V.
tp1487
aa(lp1488
(VIf
VIN
tp1489
a(Vthe
VDT
tp1490
a(Vadministration
VNN
tp1491
a(Vwants
VVBZ
tp1492
a(Vto
VTO
tp1493
a(Vcheck
VVB
tp1494
a(Vthe
VDT
tp1495
a(Vsignature
VNN
tp1496
a(V,
V,
tp1497
a(Vit
VPRP
tp1498
a(Vis
VVBZ
tp1499
a(Vpossible
VJJ
tp1500
a(Vto
VTO
tp1501
a(Vdo
VVB
tp1502
a(Vso
VRB
tp1503
a(V,
V,
tp1504
a(Virrespective
VRB
tp1505
a(Vof
VIN
tp1506
a(Vwhether
VIN
tp1507
a(Vit
VPRP
tp1508
a(Vhas
VVBZ
tp1509
a(Vbeen
VVBN
tp1510
a(Vsubmitted
VVBN
tp1511
a(Velectronically
VRB
tp1512
a(Vor
VCC
tp1513
a(Vin
VIN
tp1514
a(Vthe
VDT
tp1515
a(Vform
VNN
tp1516
a(Vof
VIN
tp1517
a(Van
VDT
tp1518
a(Vordinary
VJJ
tp1519
a(Vletter
VNN
tp1520
a(V.
V.
tp1521
aa(lp1522
(VThis
VDT
tp1523
a(Vis
VVBZ
tp1524
a(Va
VDT
tp1525
a(Vlong-standing
VJJ
tp1526
a(Vissue
VNN
tp1527
a(Vand
VCC
tp1528
a(Vit
VPRP
tp1529
a(Varouses
VVBZ
tp1530
a(Vunderstandable
VJJ
tp1531
a(Vemotions
VNNS
tp1532
a(V.
V.
tp1533
aa(lp1534
(VToday
VNN
tp1535
a(V,
V,
tp1536
a(Vwe
VPRP
tp1537
a(Vhave
VVBP
tp1538
a(Vto
VTO
tp1539
a(Vstate
VNN
tp1540
a(Vthat
VIN
tp1541
a(Vthese
VDT
tp1542
a(Vchanges
VNNS
tp1543
a(Vhave
VVBP
tp1544
a(Vnot
VRB
tp1545
a(Vtaken
VVBN
tp1546
a(Vplace
VNN
tp1547
a(V.
V.
tp1548
aa(lp1549
(VPreparations
VNNS
tp1550
a(Vare
VVBP
tp1551
a(Vunder
VIN
tp1552
a(Vway
VNN
tp1553
a(Vin
VIN
tp1554
a(Vall
VDT
tp1555
a(Vthree
VCD
tp1556
a(Vareas
VNNS
tp1557
a(V.
V.
tp1558
aa(lp1559
(VWe
VPRP
tp1560
a(Vhave
VVBP
tp1561
a(Van
VDT
tp1562
a(Vadditional
VJJ
tp1563
a(Vlayer
VNN
tp1564
a(Vof
VIN
tp1565
a(Vprotection
VNN
tp1566
a(Vby
VIN
tp1567
a(Vonly
VRB
tp1568
a(Vallowing
VVBG
tp1569
a(Vbone
VNN
tp1570
a(Vin
VIN
tp1571
a(Vmeat
VNN
tp1572
a(Vto
VTO
tp1573
a(Vcome
VVB
tp1574
a(Vfrom
VIN
tp1575
a(VAustralia
VNNP
tp1576
a(V,
V,
tp1577
a(VCanada
VNNP
tp1578
a(V,
V,
tp1579
a(VChile
VNNP
tp1580
a(V,
V,
tp1581
a(VNew
VNNP
tp1582
a(VZealand
VNNP
tp1583
a(Vand
VCC
tp1584
a(Vthe
VDT
tp1585
a(VUnited
VNNP
tp1586
a(VStates
VNNPS
tp1587
a(V.
V.
tp1588
aa(lp1589
(VThis
VDT
tp1590
a(Vhas
VVBZ
tp1591
a(Vbeen
VVBN
tp1592
a(Va
VDT
tp1593
a(Vfatal
VJJ
tp1594
a(Vtrend
VNN
tp1595
a(V,
V,
tp1596
a(Vespecially
VRB
tp1597
a(Vamong
VIN
tp1598
a(Vthe
VDT
tp1599
a(Vyoung
VJJ
tp1600
a(V.
V.
tp1601
aa(lp1602
(VThe
VDT
tp1603
a(Vrapporteur
VNN
tp1604
a(Vcould
VMD
tp1605
a(Vnot
VRB
tp1606
a(Vhave
VVB
tp1607
a(Vmade
VVBN
tp1608
a(Vherself
VPRP
tp1609
a(Vclearer
VJJR
tp1610
a(V.
V.
tp1611
aa(lp1612
(VConversely
VRB
tp1613
a(V,
V,
tp1614
a(Vnot
VRB
tp1615
a(Vall
VDT
tp1616
a(Vcountries
VNNS
tp1617
a(Vhave
VVBP
tp1618
a(Vpeople
VNNS
tp1619
a(Vwishing
VVBG
tp1620
a(Vto
VTO
tp1621
a(Vgo
VVB
tp1622
a(Vto
VTO
tp1623
a(Vthem
VPRP
tp1624
a(V.
V.
tp1625
aa(lp1626
(VThat
VDT
tp1627
a(Vis
VVBZ
tp1628
a(Vwhy
VWRB
tp1629
a(Vit
VPRP
tp1630
a(Vshould
VMD
tp1631
a(Vbe
VVB
tp1632
a(Vmore
VRBR
tp1633
a(Vactive
VJJ
tp1634
a(Vand
VCC
tp1635
a(Vresponsible
VJJ
tp1636
a(V.
V.
tp1637
aa(lp1638
(VMore
VRBR
tp1639
a(Vand
VCC
tp1640
a(Vmore
VRBR
tp1641
a(Vgirls
VNNS
tp1642
a(Vare
VVBP
tp1643
a(Vattending
VVBG
tp1644
a(Vschool
VNN
tp1645
a(Vand
VCC
tp1646
a(Vthey
VPRP
tp1647
a(Vare
VVBP
tp1648
a(Valso
VRB
tp1649
a(Vstudying
VVBG
tp1650
a(Vat
VIN
tp1651
a(Vhigher
VJJR
tp1652
a(Veducation
VNN
tp1653
a(Vinstitutes
VNN
tp1654
a(Vin
VIN
tp1655
a(Vthe
VDT
tp1656
a(Vlarger
VJJR
tp1657
a(Vtowns
VNNS
tp1658
a(V.
V.
tp1659
aa(lp1660
(VIn
VIN
tp1661
a(Vterms
VNNS
tp1662
a(Vof
VIN
tp1663
a(Vboth
VDT
tp1664
a(Vfreight
VNN
tp1665
a(Vand
VCC
tp1666
a(Vpassenger
VNN
tp1667
a(Vtransport
VNN
tp1668
a(VEuropean
VJJ
tp1669
a(Vintegration
VNN
tp1670
a(Vhas
VVBZ
tp1671
a(Vbeen
VVBN
tp1672
a(Va
VDT
tp1673
a(Vconsiderable
VJJ
tp1674
a(Vfactor
VNN
tp1675
a(Vof
VIN
tp1676
a(Vmobility
VNN
tp1677
a(V,
V,
tp1678
a(Vbut
VCC
tp1679
a(Vthe
VDT
tp1680
a(Vroads
VNNS
tp1681
a(Vhave
VVBP
tp1682
a(Vbeen
VVBN
tp1683
a(Vthe
VDT
tp1684
a(Vmajor
VJJ
tp1685
a(Vbeneficiaries
VNNS
tp1686
a(Vof
VIN
tp1687
a(Vthis
VDT
tp1688
a(Vparticularly
VRB
tp1689
a(V,
V,
tp1690
a(Vbut
VCC
tp1691
a(Vnot
VRB
tp1692
a(Vexclusively
VRB
tp1693
a(V,
V,
tp1694
a(Vdue
VJJ
tp1695
a(Vto
VTO
tp1696
a(Vthe
VDT
tp1697
a(Vfact
VNN
tp1698
a(Vthat
VIN
tp1699
a(Vthey
VPRP
tp1700
a(Vhave
VVBP
tp1701
a(Vbeen
VVBN
tp1702
a(Vfrontier
VNN
tp1703
a(Vfree
VJJ
tp1704
a(Vsince
VIN
tp1705
a(Vthe
VDT
tp1706
a(Vbeginning
VNN
tp1707
a(Vof
VIN
tp1708
a(Vthe
VDT
tp1709
a(V1990s
VCD
tp1710
a(V.
V.
tp1711
aa.