(lp1
(lp2
(VThe
VDT
tp3
a(VSpanish
VJJ
tp4
a(Vcostas
VNNS
tp5
a(Vare
VVBP
tp6
a(Vpeopled
VVBN
tp7
a(Vby
VIN
tp8
a(Vtens
VNNS
tp9
a(Vof
VIN
tp10
a(Vthousands
VNNS
tp11
a(Vof
VIN
tp12
a(Vbathers
VNNS
tp13
a(V,
V,
tp14
a(Vthe
VDT
tp15
a(VFinnish
VJJ
tp16
a(Vlakes
VNN
tp17
a(Vby
VIN
tp18
a(Va
VDT
tp19
a(Vfew
VJJ
tp20
a(Vindividuals
VNNS
tp21
a(V.
V.
tp22
aa(lp23
(VThe
VDT
tp24
a(VCaucasus
VNNP
tp25
a(Vis
VVBZ
tp26
a(Vnot
VRB
tp27
a(Vat
VIN
tp28
a(Vthe
VDT
tp29
a(Vends
VNNS
tp30
a(Vof
VIN
tp31
a(Vthe
VDT
tp32
a(Vearth
VNN
tp33
a(V-
V:
tp34
a(Vit
VPRP
tp35
a(Vis
VVBZ
tp36
a(Von
VIN
tp37
a(Vour
VPRP$
tp38
a(Vdoorsteps
VNNS
tp39
a(V,
V,
tp40
a(Vand
VCC
tp41
a(Vwhat
VWP
tp42
a(Vhappens
VVBZ
tp43
a(Vthere
VEX
tp44
a(Vhas
VVBZ
tp45
a(Va
VDT
tp46
a(Vdirect
VJJ
tp47
a(Vimpact
VNN
tp48
a(Von
VIN
tp49
a(Vour
VPRP$
tp50
a(Vsecurity
VNN
tp51
a(V.
V.
tp52
aa(lp53
(VMr
VNNP
tp54
a(VCappato
VNNP
tp55
a(Vhas
VVBZ
tp56
a(Vmentioned
VVBN
tp57
a(Vthat
VIN
tp58
a(Vin
VIN
tp59
a(Vthe
VDT
tp60
a(VEU
VNNP
tp61
a(V,
V,
tp62
a(Vwe
VPRP
tp63
a(Vmust
VMD
tp64
a(Vproceed
VVB
tp65
a(Vvery
VRB
tp66
a(Vcautiously
VRB
tp67
a(Vwhen
VWRB
tp68
a(Vit
VPRP
tp69
a(Vcomes
VVBZ
tp70
a(Vto
VTO
tp71
a(Vparticipating
VVBG
tp72
a(Vfinancially
VRB
tp73
a(V.
V.
tp74
aa(lp75
(VThe
VDT
tp76
a(VPresident
VNNP
tp77
a(Vof
VIN
tp78
a(Vthe
VDT
tp79
a(VCouncil
VNNP
tp80
a(Vis
VVBZ
tp81
a(Vappointed
VVBN
tp82
a(Vevery
VDT
tp83
a(Vsix
VCD
tp84
a(Vmonths
VNNS
tp85
a(V,
V,
tp86
a(Vand
VCC
tp87
a(Vthere
VEX
tp88
a(Vare
VVBP
tp89
a(Vmajor
VJJ
tp90
a(Vdifferences
VNNS
tp91
a(Vbetween
VIN
tp92
a(Vsuccessive
VJJ
tp93
a(Vpresidencies
VNNS
tp94
a(V.
V.
tp95
aa(lp96
(VAs
VIN
tp97
a(Vif
VIN
tp98
a(Vthis
VDT
tp99
a(V&apos;
VNN
tp100
a(Vclimate
VNN
tp101
a(V&apos;
VNN
tp102
a(Vcame
VVBD
tp103
a(Vout
VIN
tp104
a(Vof
VIN
tp105
a(Vnowhere
VRB
tp106
a(V!
V.
tp107
aa(lp108
(VAung
VNNP
tp109
a(VSan
VNNP
tp110
a(VSuu
VNNP
tp111
a(VKyi
VNNP
tp112
a(Vis
VVBZ
tp113
a(Va
VDT
tp114
a(VNobel
VNNP
tp115
a(VPeace
VNNP
tp116
a(VPrize
VNNP
tp117
a(Vwinner
VNN
tp118
a(Vand
VCC
tp119
a(Va
VDT
tp120
a(Vrecipient
VJJ
tp121
a(Vof
VIN
tp122
a(Vthe
VDT
tp123
a(VSakharov
VNNP
tp124
a(VPrize
VNNP
tp125
a(Vof
VIN
tp126
a(Vthis
VDT
tp127
a(VParliament
VNNP
tp128
a(V.
V.
tp129
aa(lp130
(VNew
VJJ
tp131
a(Vprovisions
VNNS
tp132
a(Vwill
VMD
tp133
a(Venter
VVB
tp134
a(Vinto
VIN
tp135
a(Vforce
VNN
tp136
a(Von
VIN
tp137
a(Vthe
VDT
tp138
a(Vfirst
VJJ
tp139
a(Vday
VNN
tp140
a(Vof
VIN
tp141
a(Vthe
VDT
tp142
a(Vnext
VJJ
tp143
a(Vpart-session
VNN
tp144
a(V,
V,
tp145
a(Vi.e.
VFW
tp146
a(V12
VCD
tp147
a(VNovember
VNNP
tp148
a(V.
V.
tp149
aa(lp150
(VPierre
VNNP
tp151
a(VWerner
VNNP
tp152
a(V,
V,
tp153
a(Vwhose
VWP$
tp154
a(Vplan
VNN
tp155
a(Vmay
VMD
tp156
a(Vbe
VVB
tp157
a(Vregarded
VVBN
tp158
a(Vas
VIN
tp159
a(Vthe
VDT
tp160
a(Vfundamental
VJJ
tp161
a(Vbasis
VNN
tp162
a(Vof
VIN
tp163
a(Vthe
VDT
tp164
a(Veuro
VNN
tp165
a(V,
V,
tp166
a(Vincluded
VVBD
tp167
a(Vin
VIN
tp168
a(Vhis
VPRP$
tp169
a(Vwork
VNN
tp170
a(Vthe
VDT
tp171
a(Vnotion
VNN
tp172
a(Vof
VIN
tp173
a(Va
VDT
tp174
a(VEuropean
VJJ
tp175
a(Veconomic
VJJ
tp176
a(Vdecision-making
VJJ
tp177
a(Vcentre
VNN
tp178
a(Vthat
VWDT
tp179
a(Vis
VVBZ
tp180
a(Vanswerable
VJJ
tp181
a(Vto
VTO
tp182
a(VParliament
VNNP
tp183
a(V.
V.
tp184
aa(lp185
(VExport
VNN
tp186
a(Vinterests
VNNS
tp187
a(Vwere
VVBD
tp188
a(Vplaced
VVBN
tp189
a(Vabove
VIN
tp190
a(Vall
VDT
tp191
a(Velse
VRB
tp192
a(V.
V.
tp193
aa(lp194
(VAusterity
VNN
tp195
a(V,
V,
tp196
a(Vhowever
VRB
tp197
a(V,
V,
tp198
a(Vcannot
VFW
tp199
a(Vmean
VVB
tp200
a(Vthat
VDT
tp201
a(Vexpenditure
VNN
tp202
a(Vrises
VVBZ
tp203
a(Vin
VIN
tp204
a(Vline
VNN
tp205
a(Vwith
VIN
tp206
a(Vinflation
VNN
tp207
a(V.
V.
tp208
aa(lp209
(VWe
VPRP
tp210
a(Vneed
VVBP
tp211
a(Vshared
VJJ
tp212
a(Vbudgetary
VJJ
tp213
a(Vdiscipline
VNN
tp214
a(V.
V.
tp215
aa(lp216
(VA
VDT
tp217
a(Vban
VNN
tp218
a(Vhas
VVBZ
tp219
a(Vbeen
VVBN
tp220
a(Vput
VVBN
tp221
a(Vin
VIN
tp222
a(Vplace
VNN
tp223
a(Vin
VIN
tp224
a(Vrespect
VNN
tp225
a(Vof
VIN
tp226
a(Vthe
VDT
tp227
a(Vimportation
VNN
tp228
a(Vof
VIN
tp229
a(Vpet
VNN
tp230
a(Vbirds
VNNS
tp231
a(V.
V.
tp232
aa(lp233
(VForty
VCD
tp234
a(Vthousand
VCD
tp235
a(Vpeople
VNNS
tp236
a(Vin
VIN
tp237
a(Vthe
VDT
tp238
a(VEuropean
VNNP
tp239
a(VUnion
VNNP
tp240
a(Vdie
VVB
tp241
a(Vfrom
VIN
tp242
a(Vair
VNN
tp243
a(Vpollution
VNN
tp244
a(Vevery
VDT
tp245
a(Vyear
VNN
tp246
a(V,
V,
tp247
a(Vso
VRB
tp248
a(Vthere
VRB
tp249
a(Vhas
VVBZ
tp250
a(Vbeen
VVBN
tp251
a(Van
VDT
tp252
a(Vunfortunate
VJJ
tp253
a(Vmisunderstanding
VVBG
tp254
a(Vsomewhere
VRB
tp255
a(V.
V.
tp256
aa(lp257
(VSince
VIN
tp258
a(V1967
VCD
tp259
a(V,
V,
tp260
a(Vwe
VPRP
tp261
a(Vhave
VVBP
tp262
a(Vlost
VVBN
tp263
a(Vour
VPRP$
tp264
a(Vway
VNN
tp265
a(Vin
VIN
tp266
a(Vmistakes
VNNS
tp267
a(Vand
VCC
tp268
a(Vinjustices
VNNS
tp269
a(V.
V.
tp270
aa(lp271
(VYet
VRB
tp272
a(Vwe
VPRP
tp273
a(Vare
VVBP
tp274
a(Vfaced
VVBN
tp275
a(Vwith
VIN
tp276
a(Vthe
VDT
tp277
a(Vfact
VNN
tp278
a(Vthat
VIN
tp279
a(Vnew
VJJ
tp280
a(Vinfections
VNNS
tp281
a(Vare
VVBP
tp282
a(Vrising
VVBG
tp283
a(Vdramatically
VRB
tp284
a(V,
V,
tp285
a(Vboth
VDT
tp286
a(Vwithin
VIN
tp287
a(Vthe
VDT
tp288
a(VEU
VNNP
tp289
a(Vand
VCC
tp290
a(Vin
VIN
tp291
a(Vother
VJJ
tp292
a(Vcountries
VNNS
tp293
a(V.
V.
tp294
aa(lp295
(VThere
VEX
tp296
a(Vis
VVBZ
tp297
a(Va
VDT
tp298
a(Vfundamental
VJJ
tp299
a(Vquestion
VNN
tp300
a(Vthat
VWDT
tp301
a(Varises
VVBZ
tp302
a(Vfrom
VIN
tp303
a(Vtime
VNN
tp304
a(Vto
VTO
tp305
a(Vtime
VNN
tp306
a(V.
V.
tp307
aa(lp308
(VThe
VDT
tp309
a(VEuropean
VNNP
tp310
a(VUnion
VNNP
tp311
a(Vis
VVBZ
tp312
a(Vthe
VDT
tp313
a(Vlargest
VJJS
tp314
a(Vgrouping
VNN
tp315
a(Vof
VIN
tp316
a(Vnations
VNNS
tp317
a(Vin
VIN
tp318
a(Vthe
VDT
tp319
a(Vworld
VNN
tp320
a(V,
V,
tp321
a(Vconsisting
VVBG
tp322
a(Vof
VIN
tp323
a(V27
VCD
tp324
a(Vnations
VNNS
tp325
a(Vwith
VIN
tp326
a(Valmost
VRB
tp327
a(V500
VCD
tp328
a(Vmillion
VCD
tp329
a(Vcitizens
VNNS
tp330
a(V.
V.
tp331
aa(lp332
(VThe
VDT
tp333
a(Vnew
VJJ
tp334
a(VEgyptian
VJJ
tp335
a(Vconstitution
VNN
tp336
a(Vmust
VMD
tp337
a(Vnot
VRB
tp338
a(Vbe
VVB
tp339
a(Vgiven
VVBN
tp340
a(Vover
VRP
tp341
a(Vto
VTO
tp342
a(Vsharia
VNN
tp343
a(V.
V.
tp344
aa(lp345
(VWith
VIN
tp346
a(Vregard
VNN
tp347
a(Vto
VTO
tp348
a(Vthe
VDT
tp349
a(Vtitle
VNN
tp350
a(V,
V,
tp351
a(VI
VPRP
tp352
a(Vfind
VVBP
tp353
a(V&apos;
VJJ
tp354
a(Veconomic
VJJ
tp355
a(Vpartnership
VNN
tp356
a(Vagreement
VNN
tp357
a(V&apos;
VVBZ
tp358
a(Vperfectly
VRB
tp359
a(Vappropriate
VJJ
tp360
a(V.
V.
tp361
aa(lp362
(VIn
VIN
tp363
a(Vaddition
VNN
tp364
a(V,
V,
tp365
a(Vthe
VDT
tp366
a(Vdecline
VNN
tp367
a(Vin
VIN
tp368
a(Vthe
VDT
tp369
a(Vgrowth
VNN
tp370
a(Vof
VIN
tp371
a(Vloans
VNNS
tp372
a(Vto
VTO
tp373
a(Vthe
VDT
tp374
a(Vprivate
VJJ
tp375
a(Vsector
VNN
tp376
a(Vhas
VVBZ
tp377
a(Vcome
VVBN
tp378
a(Vto
VTO
tp379
a(Va
VDT
tp380
a(Vhalt
VNN
tp381
a(Vand
VCC
tp382
a(Vcredit
VNN
tp383
a(Vdemand
VNN
tp384
a(Vhas
VVBZ
tp385
a(Vrecently
VRB
tp386
a(Vstrengthened
VVBN
tp387
a(V.
V.
tp388
aa(lp389
(VThis
VDT
tp390
a(Vmade
VVBD
tp391
a(Vhim
VPRP
tp392
a(Va
VDT
tp393
a(Vnational
VJJ
tp394
a(Vhero
VNN
tp395
a(V,
V,
tp396
a(Va
VDT
tp397
a(Vmartyr
VNN
tp398
a(Vof
VIN
tp399
a(Vthe
VDT
tp400
a(Vrevolution
VNN
tp401
a(V,
V,
tp402
a(Va
VDT
tp403
a(Vpolitician
VNN
tp404
a(Vof
VIN
tp405
a(VEuropean
VJJ
tp406
a(Vstanding
VNN
tp407
a(V.
V.
tp408
aa(lp409
(VAnti-discrimination
VJJ
tp410
a(Vlegislation
VNN
tp411
a(Vis
VVBZ
tp412
a(Vnot
VRB
tp413
a(Vsufficient
VJJ
tp414
a(Vto
VTO
tp415
a(Vtackle
VVB
tp416
a(Vsystemic
VJJ
tp417
a(Vdiscrimination
VNN
tp418
a(V.
V.
tp419
aa(lp420
(VMany
VJJ
tp421
a(Vyears
VNNS
tp422
a(Vago
VRB
tp423
a(V,
V,
tp424
a(Vthe
VDT
tp425
a(VUS
VNNP
tp426
a(VGovernment
VNN
tp427
a(Vdesignated
VVBN
tp428
a(Vthe
VDT
tp429
a(Vfight
VNN
tp430
a(Vagainst
VIN
tp431
a(Vcancer
VNN
tp432
a(Vas
VIN
tp433
a(Va
VDT
tp434
a(Vlighthouse
VNNP
tp435
a(Vproject
VNN
tp436
a(V.
V.
tp437
aa(lp438
(VThe
VDT
tp439
a(VCommission
VNNP
tp440
a(Vsaid
VVBD
tp441
a(Vthat
VIN
tp442
a(Vit
VPRP
tp443
a(Vcould
VMD
tp444
a(Vnot
VRB
tp445
a(Vagree
VVB
tp446
a(Vto
VTO
tp447
a(Vthe
VDT
tp448
a(Vamendments
VNNS
tp449
a(Vbecause
VIN
tp450
a(Vthey
VPRP
tp451
a(Vwere
VVBD
tp452
a(Vin
VIN
tp453
a(Vthe
VDT
tp454
a(Vwrong
VJJ
tp455
a(Vplace
VNN
tp456
a(V.
V.
tp457
aa(lp458
(VThis
VDT
tp459
a(Vis
VVBZ
tp460
a(Vmore
VRBR
tp461
a(Vimportant
VJJ
tp462
a(Vthan
VIN
tp463
a(Vsimply
VRB
tp464
a(Vtalking
VVBG
tp465
a(Vabout
VIN
tp466
a(Vraising
VVBG
tp467
a(Vthe
VDT
tp468
a(Vretirement
VNN
tp469
a(Vage
VNN
tp470
a(V.
V.
tp471
aa(lp472
(VMy
VPRP$
tp473
a(Vpriority
VNN
tp474
a(Vareas
VNNS
tp475
a(Vare
VVBP
tp476
a(Vthese
VDT
tp477
a(V:
V:
tp478
a(Vto
VTO
tp479
a(Vencourage
VVB
tp480
a(Vreform
VNN
tp481
a(Vand
VCC
tp482
a(Vto
VTO
tp483
a(Vaccelerate
VVB
tp484
a(Vthe
VDT
tp485
a(Vprocess
VNN
tp486
a(Vof
VIN
tp487
a(Vreform
VNN
tp488
a(V.
V.
tp489
aa(lp490
(VIf
VIN
tp491
a(Vthere
VEX
tp492
a(Vis
VVBZ
tp493
a(Vno
VDT
tp494
a(Vmonitoring
VNN
tp495
a(V,
V,
tp496
a(Vthere
VEX
tp497
a(Vis
VVBZ
tp498
a(Vno
VDT
tp499
a(Vpoint
VNN
tp500
a(Vin
VIN
tp501
a(Vhaving
VVBG
tp502
a(Vany
VDT
tp503
a(Vregulations
VNNS
tp504
a(V.
V.
tp505
aa(lp506
(VThe
VDT
tp507
a(Vservices
VNNS
tp508
a(Vsector
VNN
tp509
a(Vincludes
VVBZ
tp510
a(Va
VDT
tp511
a(Vwide
VJJ
tp512
a(Vrange
VNN
tp513
a(Vof
VIN
tp514
a(Vservices
VNNS
tp515
a(Vin
VIN
tp516
a(Vthe
VDT
tp517
a(Vpublic
VJJ
tp518
a(Vand
VCC
tp519
a(Vprivate
VJJ
tp520
a(Vsectors
VNNS
tp521
a(V.
V.
tp522
aa(lp523
(VAs
VIN
tp524
a(VI
VPRP
tp525
a(Vrepresent
VVBP
tp526
a(Va
VDT
tp527
a(VUnionist
VJJ
tp528
a(Vpoint
VNN
tp529
a(Vof
VIN
tp530
a(Vview
VNN
tp531
a(V,
V,
tp532
a(VI
VPRP
tp533
a(Vam
VVBP
tp534
a(Vnot
VRB
tp535
a(Vgoing
VVBG
tp536
a(Vto
VTO
tp537
a(Vmince
VVB
tp538
a(Vmy
VPRP$
tp539
a(Vwords
VNNS
tp540
a(Vwith
VIN
tp541
a(Vyou
VPRP
tp542
a(Vbecause
VIN
tp543
a(Vyou
VPRP
tp544
a(Vknow
VVBP
tp545
a(Vme
VPRP
tp546
a(Vwell
VRB
tp547
a(Venough
VRB
tp548
a(Vand
VCC
tp549
a(Vyou
VPRP
tp550
a(Vwould
VMD
tp551
a(Vnot
VRB
tp552
a(Vexpect
VVB
tp553
a(Vanything
VNN
tp554
a(Velse
VRB
tp555
a(V.
V.
tp556
aa(lp557
(VSome
VDT
tp558
a(Vweeks
VNNS
tp559
a(Vago
VRB
tp560
a(V,
V,
tp561
a(Vwhen
VWRB
tp562
a(VParliament
VNNP
tp563
a(Vproposed
VVBD
tp564
a(Vto
VTO
tp565
a(Vrecognise
VVB
tp566
a(V,
V,
tp567
a(Vor
VCC
tp568
a(Vrather
VRB
tp569
a(Vproposed
VVBD
tp570
a(Vthat
VIN
tp571
a(Vthe
VDT
tp572
a(VCommission
VNNP
tp573
a(Vshould
VMD
tp574
a(Vrecommend
VVB
tp575
a(Vto
VTO
tp576
a(Vthe
VDT
tp577
a(VCouncil
VNNP
tp578
a(Vthat
VIN
tp579
a(Vit
VPRP
tp580
a(Vrecognise
VVBP
tp581
a(Vthe
VDT
tp582
a(VProvisional
VNNP
tp583
a(VLibyan
VJJ
tp584
a(VCouncil
VNNP
tp585
a(V,
V,
tp586
a(VBaroness
VNNP
tp587
a(VAshton
VNNP
tp588
a(Vsaid
VVBD
tp589
a(Vthat
VIN
tp590
a(Vit
VPRP
tp591
a(Vwas
VVBD
tp592
a(Vnot
VRB
tp593
a(Vwithin
VIN
tp594
a(Vher
VPRP$
tp595
a(Vmandate
VNN
tp596
a(V.
V.
tp597
aa(lp598
(VHe
VPRP
tp599
a(Vis
VVBZ
tp600
a(Vconsidered
VVBN
tp601
a(Vto
VTO
tp602
a(Vbe
VVB
tp603
a(Va
VDT
tp604
a(Vpacifist
VNN
tp605
a(V.
V.
tp606
aa(lp607
(VNot
VRB
tp608
a(Vleast
VJJS
tp609
a(V,
V,
tp610
a(VI
VPRP
tp611
a(Vbelieve
VVBP
tp612
a(Vthat
VIN
tp613
a(Vthis
VDT
tp614
a(Vreport
VNN
tp615
a(Vhelps
VVBZ
tp616
a(Vto
VTO
tp617
a(Vsafeguard
VVB
tp618
a(Vthe
VDT
tp619
a(Vsocial
VJJ
tp620
a(Vrights
VNNS
tp621
a(Vof
VIN
tp622
a(Vcitizens
VNNS
tp623
a(Vworking
VVBG
tp624
a(Vin
VIN
tp625
a(Vanother
VDT
tp626
a(VMember
VNNP
tp627
a(VState
VNNP
tp628
a(V.
V.
tp629
aa(lp630
(VThese
VDT
tp631
a(Vagreements
VNNS
tp632
a(Vare
VVBP
tp633
a(Vtherefore
VRB
tp634
a(Va
VDT
tp635
a(Vsmall
VJJ
tp636
a(V,
V,
tp637
a(Vbut
VCC
tp638
a(Vpositive
VJJ
tp639
a(Vstep
VNN
tp640
a(Vin
VIN
tp641
a(Vthe
VDT
tp642
a(Vright
VJJ
tp643
a(Vdirection
VNN
tp644
a(V.
V.
tp645
aa(lp646
(VWe
VPRP
tp647
a(Vcannot
VVBP
tp648
a(Vpretend
VVB
tp649
a(Vit
VPRP
tp650
a(Vis
VVBZ
tp651
a(Vthe
VDT
tp652
a(Vauditors
VNNS
tp653
a(V&apos;
VVBP
tp654
a(Vfault
VNN
tp655
a(V.
V.
tp656
aa(lp657
(VYou
VPRP
tp658
a(Vtake
VVBP
tp659
a(Va
VDT
tp660
a(Vbus
VNN
tp661
a(V,
V,
tp662
a(Vtravel
VVB
tp663
a(Vfive
VCD
tp664
a(Vkilometres
VNNS
tp665
a(Vinto
VIN
tp666
a(Vthe
VDT
tp667
a(Vmountain
VNN
tp668
a(V,
V,
tp669
a(Vand
VCC
tp670
a(Vyou
VPRP
tp671
a(Vcan
VMD
tp672
a(Vsee
VVB
tp673
a(Vwhat
VWP
tp674
a(Vthey
VPRP
tp675
a(Vare
VVBP
tp676
a(Vdoing
VVBG
tp677
a(V.
V.
tp678
aa(lp679
(VThe
VDT
tp680
a(VJune
VNNP
tp681
a(VMovement
VNNP
tp682
a(Vis
VVBZ
tp683
a(Vnaturally
VRB
tp684
a(Vunable
VJJ
tp685
a(Vto
VTO
tp686
a(Vsupport
VVB
tp687
a(Vsuch
VPDT
tp688
a(Van
VDT
tp689
a(Vinitiative
VNN
tp690
a(V.
V.
tp691
aa(lp692
(VHe
VPRP
tp693
a(Vshares
VVBZ
tp694
a(Vcomplicity
VNN
tp695
a(Vin
VIN
tp696
a(Vthe
VDT
tp697
a(Vhighest
VJJS
tp698
a(Vdegree
VNN
tp699
a(V.
V.
tp700
aa(lp701
(VThis
VDT
tp702
a(Vdisease
VNN
tp703
a(Vconstitutes
VVBZ
tp704
a(Va
VDT
tp705
a(Vsevere
VJJ
tp706
a(Vthreat
VNN
tp707
a(Vto
VTO
tp708
a(Vthe
VDT
tp709
a(Vnatural
VJJ
tp710
a(Vsalmon
VNN
tp711
a(Vand
VCC
tp712
a(Vits
VPRP$
tp713
a(Vsurvival
VNN
tp714
a(V.
V.
tp715
aa(lp716
(VOur
VPRP$
tp717
a(Vfellow
VJJ
tp718
a(Vcitizens
VNNS
tp719
a(Vmust
VMD
tp720
a(Vbe
VVB
tp721
a(Vable
VJJ
tp722
a(Vto
VTO
tp723
a(Vunderstand
VVB
tp724
a(Vthe
VDT
tp725
a(VEuropean
VNNP
tp726
a(VUnion
VNNP
tp727
a(V&apos;s
VNNS
tp728
a(Vinstitutional
VJJ
tp729
a(Vsystem
VNN
tp730
a(V.
V.
tp731
a(VThis
VDT
tp732
a(Vis
VVBZ
tp733
a(Vdefinitely
VRB
tp734
a(Vnot
VRB
tp735
a(Vthe
VDT
tp736
a(Vcase
VNN
tp737
a(Vat
VIN
tp738
a(Vthe
VDT
tp739
a(Vmoment
VNN
tp740
a(V.
V.
tp741
aa(lp742
(VIt
VPRP
tp743
a(Vdoes
VVBZ
tp744
a(Vnot
VRB
tp745
a(Vrepresent
VVB
tp746
a(Vall
VDT
tp747
a(Vof
VIN
tp748
a(Vthe
VDT
tp749
a(VTamil
VNNP
tp750
a(Vpeople
VNNS
tp751
a(Vin
VIN
tp752
a(VSri
VNNP
tp753
a(VLanka
VNNP
tp754
a(V.
V.
tp755
aa(lp756
(VThe
VDT
tp757
a(Vsecond
VJJ
tp758
a(Vpoint
VNN
tp759
a(Vconcerns
VNNS
tp760
a(Valcohol
VNN
tp761
a(V.
V.
tp762
aa(lp763
(VThis
VDT
tp764
a(Vcompromise
VNN
tp765
a(Vretains
VVBZ
tp766
a(Vthe
VDT
tp767
a(Vessence
VNN
tp768
a(Vof
VIN
tp769
a(Vthe
VDT
tp770
a(VCommission
VNNP
tp771
a(V&apos;s
VNNS
tp772
a(Vproposal
VNN
tp773
a(V.
V.
tp774
aa(lp775
(VHe
VPRP
tp776
a(Vregards
VVBZ
tp777
a(Vthe
VDT
tp778
a(Vleadership
VNN
tp779
a(Vof
VIN
tp780
a(Vthe
VDT
tp781
a(VPalestinian
VJJ
tp782
a(VAuthority
VNNP
tp783
a(Vas
VIN
tp784
a(Villegitimate
VJJ
tp785
a(V;
V:
tp786
a(Vhe
VPRP
tp787
a(Vsupports
VVBZ
tp788
a(VHamas
VNNP
tp789
a(V.
V.
tp790
a(VHamas
VNNP
tp791
a(V,
V,
tp792
a(Vof
VIN
tp793
a(Vcourse
VNN
tp794
a(V,
V,
tp795
a(Vis
VVBZ
tp796
a(Van
VDT
tp797
a(Voffshoot
VNN
tp798
a(Vof
VIN
tp799
a(Vthe
VDT
tp800
a(VMuslim
VJJ
tp801
a(VBrotherhood
VNNP
tp802
a(V,
V,
tp803
a(Vthe
VDT
tp804
a(Vone
VCD
tp805
a(Vwell
VRB
tp806
a(Vorganised
VJJ
tp807
a(Vpolitical
VJJ
tp808
a(Vgroup
VNN
tp809
a(Vin
VIN
tp810
a(VEgypt
VNNP
tp811
a(V.
V.
tp812
aa(lp813
(VThis
VDT
tp814
a(Vis
VVBZ
tp815
a(Vwhy
VWRB
tp816
a(VI
VPRP
tp817
a(Vdecided
VVBD
tp818
a(Vto
VTO
tp819
a(Vcommit
VVB
tp820
a(Vto
VTO
tp821
a(Vproducing
VVBG
tp822
a(Va
VDT
tp823
a(Vsound
VJJ
tp824
a(Vproposal
VNN
tp825
a(Vand
VCC
tp826
a(Vcalled
VVBN
tp827
a(Von
VIN
tp828
a(Vall
VDT
tp829
a(Vmy
VPRP$
tp830
a(Vfellow
VNN
tp831
a(VMembers
VNNS
tp832
a(Vto
VTO
tp833
a(Vhelp
VVB
tp834
a(Vme
VPRP
tp835
a(Vin
VIN
tp836
a(Vthis
VDT
tp837
a(Vtask
VNN
tp838
a(V.
V.
tp839
aa(lp840
(VThe
VDT
tp841
a(VEuropean
VNNP
tp842
a(VParliament
VNNP
tp843
a(V,
V,
tp844
a(Vthe
VDT
tp845
a(VState
VNNP
tp846
a(VDuma
VNNP
tp847
a(V,
V,
tp848
a(Vcivil
VJJ
tp849
a(V,
V,
tp850
a(Vsocial
VJJ
tp851
a(Vand
VCC
tp852
a(Vhuman
VJJ
tp853
a(Vrights
VNNS
tp854
a(Vorganisations
VNNS
tp855
a(Vin
VIN
tp856
a(Vthe
VDT
tp857
a(VEU
VNNP
tp858
a(Vand
VCC
tp859
a(VRussia
VNNP
tp860
a(Vshould
VMD
tp861
a(Vmake
VVB
tp862
a(Van
VDT
tp863
a(Vactive
VJJ
tp864
a(Vcontribution
VNN
tp865
a(Vto
VTO
tp866
a(Vthese
VDT
tp867
a(Vconsultations
VNNS
tp868
a(V.
V.
tp869
aa(lp870
(VThis
VDT
tp871
a(Vis
VVBZ
tp872
a(Vhappening
VVBG
tp873
a(Vall
VDT
tp874
a(Vover
VIN
tp875
a(VEurope
VNNP
tp876
a(V.
V.
tp877
a(VIt
VPRP
tp878
a(Vshows
VVBZ
tp879
a(Vthat
VIN
tp880
a(Vthere
VEX
tp881
a(Vis
VVBZ
tp882
a(Va
VDT
tp883
a(Vhigh
VJJ
tp884
a(Vlevel
VNN
tp885
a(Vof
VIN
tp886
a(Vsupport
VNN
tp887
a(V.
V.
tp888
aa(lp889
(VA
VDT
tp890
a(Vword
VNN
tp891
a(Von
VIN
tp892
a(Vthe
VDT
tp893
a(Vstability
VNN
tp894
a(Vpact
VNN
tp895
a(V,
V,
tp896
a(Vnow
VRB
tp897
a(Vthe
VDT
tp898
a(Vsubject
VNN
tp899
a(Vof
VIN
tp900
a(Vdiscussion
VNN
tp901
a(Vfor
VIN
tp902
a(Vseveral
VJJ
tp903
a(Vdays
VNNS
tp904
a(V.
V.
tp905
aa(lp906
(VTwelve
VCD
tp907
a(Vyears
VNNS
tp908
a(Vago
VIN
tp909
a(Va
VDT
tp910
a(Vdictatorship
VNN
tp911
a(Vcrumbled
VVBD
tp912
a(V,
V,
tp913
a(Va
VDT
tp914
a(Vdictatorship
VNN
tp915
a(Vwhich
VWDT
tp916
a(Vfrom
VIN
tp917
a(Vthe
VDT
tp918
a(Voutset
VNN
tp919
a(Vdid
VVBD
tp920
a(Vnot
VRB
tp921
a(Vhave
VVB
tp922
a(Vthe
VDT
tp923
a(Vstandard
VNN
tp924
a(Vof
VIN
tp925
a(Vtechnical
VJJ
tp926
a(Vsafety
VNN
tp927
a(Vwhich
VWDT
tp928
a(Vwe
VPRP
tp929
a(Vhave
VVBP
tp930
a(Vin
VIN
tp931
a(Vthe
VDT
tp932
a(Vrest
VNN
tp933
a(Vof
VIN
tp934
a(Vthe
VDT
tp935
a(Vworld
VNN
tp936
a(Vor
VCC
tp937
a(V,
V,
tp938
a(Vmore
VJJR
tp939
a(Vto
VTO
tp940
a(Vthe
VDT
tp941
a(Vpoint
VNN
tp942
a(V,
V,
tp943
a(Vin
VIN
tp944
a(VEurope
VNNP
tp945
a(V.
V.
tp946
aa(lp947
(VIn
VIN
tp948
a(VKenya
VNNP
tp949
a(V,
V,
tp950
a(Vtherefore
VRB
tp951
a(V,
V,
tp952
a(V43
VCD
tp953
a(Vof
VIN
tp954
a(Vthe
VDT
tp955
a(V50
VCD
tp956
a(Vemployees
VNNS
tp957
a(Vof
VIN
tp958
a(Vthe
VDT
tp959
a(Vtax
VNN
tp960
a(Vdepartment
VNN
tp961
a(Vwho
VWP
tp962
a(Vdied
VVBD
tp963
a(Vlast
VJJ
tp964
a(Vyear
VNN
tp965
a(Vdied
VVBD
tp966
a(Vas
VIN
tp967
a(Va
VDT
tp968
a(Vresult
VNN
tp969
a(Vof
VIN
tp970
a(VAIDS
VNN
tp971
a(V.
V.
tp972
aa(lp973
(VMr
VNNP
tp974
a(VPresident
VNNP
tp975
a(V,
V,
tp976
a(VI
VPRP
tp977
a(Vgenerally
VRB
tp978
a(Vrefrain
VVBP
tp979
a(Vfrom
VIN
tp980
a(Vusing
VVBG
tp981
a(Vmy
VPRP$
tp982
a(Vprecious
VJJ
tp983
a(Vtime
VNN
tp984
a(Vto
VTO
tp985
a(Vcongratulate
VVB
tp986
a(Vthe
VDT
tp987
a(Vrapporteur
VNN
tp988
a(Vbecause
VIN
tp989
a(Vthis
VDT
tp990
a(Vhas
VVBZ
tp991
a(Vreally
VRB
tp992
a(Vjust
VRB
tp993
a(Vbecome
VVB
tp994
a(Va
VDT
tp995
a(Vhabit
VNN
tp996
a(V,
V,
tp997
a(Vbut
VCC
tp998
a(VI
VPRP
tp999
a(Vshould
VMD
tp1000
a(Vlike
VVB
tp1001
a(Vto
VTO
tp1002
a(Vdo
VVB
tp1003
a(Vso
VRB
tp1004
a(Von
VIN
tp1005
a(Vthis
VDT
tp1006
a(Voccasion
VNN
tp1007
a(V,
V,
tp1008
a(Vdespite
VIN
tp1009
a(Vthe
VDT
tp1010
a(Vfact
VNN
tp1011
a(Vthat
VIN
tp1012
a(Vshe
VPRP
tp1013
a(Vhas
VVBZ
tp1014
a(Vunfortunately
VRB
tp1015
a(Vleft
VVBN
tp1016
a(Vthe
VDT
tp1017
a(VChamber
VNNP
tp1018
a(V,
V,
tp1019
a(Vbecause
VIN
tp1020
a(VI
VPRP
tp1021
a(Vam
VVBP
tp1022
a(Vextremely
VRB
tp1023
a(Vpleased
VVBN
tp1024
a(Vwith
VIN
tp1025
a(Vher
VPRP$
tp1026
a(Vreport
VNN
tp1027
a(V.
V.
tp1028
aa(lp1029
(VThis
VDT
tp1030
a(Vwould
VMD
tp1031
a(Vbe
VVB
tp1032
a(Van
VDT
tp1033
a(Vincredibly
VRB
tp1034
a(Vbold
VJJ
tp1035
a(Vexperiment
VNN
tp1036
a(Vfor
VIN
tp1037
a(Vour
VPRP$
tp1038
a(Vinstitution
VNN
tp1039
a(Vto
VTO
tp1040
a(Vundertake
VVB
tp1041
a(V.
V.
tp1042
aa(lp1043
(VSuch
VPDT
tp1044
a(Va
VDT
tp1045
a(Vmove
VNN
tp1046
a(Vwould
VMD
tp1047
a(Vonly
VRB
tp1048
a(Vbenefit
VVB
tp1049
a(Vthe
VDT
tp1050
a(Vlarge
VJJ
tp1051
a(Vcompanies
VNNS
tp1052
a(Vthat
VWDT
tp1053
a(Vhave
VVBP
tp1054
a(Vrelocated
VVBN
tp1055
a(Vto
VTO
tp1056
a(VBrazil
VNNP
tp1057
a(V.
V.
tp1058
aa(lp1059
(VThe
VDT
tp1060
a(Veruption
VNN
tp1061
a(Vof
VIN
tp1062
a(Va
VDT
tp1063
a(Vvolcano
VNN
tp1064
a(Vhas
VVBZ
tp1065
a(Vturned
VVBN
tp1066
a(Vthe
VDT
tp1067
a(Vworld
VNN
tp1068
a(Vupside
VRB
tp1069
a(Vdown
VRB
tp1070
a(Vin
VIN
tp1071
a(Vfive
VCD
tp1072
a(Vdays
VNNS
tp1073
a(Vand
VCC
tp1074
a(Vmay
VMD
tp1075
a(Vtrigger
VVB
tp1076
a(Vanother
VDT
tp1077
a(Vcrisis
VNN
tp1078
a(V.
V.
tp1079
aa(lp1080
(VLastly
VRB
tp1081
a(V,
V,
tp1082
a(VI
VPRP
tp1083
a(Vwould
VMD
tp1084
a(Vlike
VVB
tp1085
a(Vto
VTO
tp1086
a(Vremember
VVB
tp1087
a(Vthe
VDT
tp1088
a(Vvictim
VNN
tp1089
a(Vof
VIN
tp1090
a(Van
VDT
tp1091
a(Vhorrific
VJJ
tp1092
a(Vreverse
VJJ
tp1093
a(Vrace
VNN
tp1094
a(Vmurder
VNN
tp1095
a(Vtwo
VCD
tp1096
a(Vyears
VNNS
tp1097
a(Vago
VIN
tp1098
a(V:
V:
tp1099
a(Va
VDT
tp1100
a(Vyoung
VJJ
tp1101
a(VSwede
VNN
tp1102
a(Vkilled
VVBN
tp1103
a(Vby
VIN
tp1104
a(Vracists
VNNS
tp1105
a(Vin
VIN
tp1106
a(VSalem
VNNP
tp1107
a(V,
V,
tp1108
a(Va
VDT
tp1109
a(Vsuburb
VNN
tp1110
a(Vof
VIN
tp1111
a(VStockholm
VNNP
tp1112
a(V.
V.
tp1113
aa(lp1114
(VThis
VDT
tp1115
a(Vmeans
VVBZ
tp1116
a(V,
V,
tp1117
a(Vtherefore
VRB
tp1118
a(V,
V,
tp1119
a(Vthat
VIN
tp1120
a(Vairlines
VNNS
tp1121
a(Vin
VIN
tp1122
a(Vthe
VDT
tp1123
a(VEuropean
VNNP
tp1124
a(VUnion
VNNP
tp1125
a(Vwill
VMD
tp1126
a(Vbe
VVB
tp1127
a(Vtreated
VVBN
tp1128
a(Vin
VIN
tp1129
a(Vexactly
VRB
tp1130
a(Vthe
VDT
tp1131
a(Vsame
VJJ
tp1132
a(Vway
VNN
tp1133
a(Vas
VIN
tp1134
a(Vtheir
VPRP$
tp1135
a(Vforeign
VJJ
tp1136
a(Vcompetitors
VNNS
tp1137
a(V.
V.
tp1138
aa(lp1139
(VPublicly
VRB
tp1140
a(Vaccessible
VJJ
tp1141
a(Vprivate
VJJ
tp1142
a(Vnetworks
VNNS
tp1143
a(Vhave
VVBP
tp1144
a(Valso
VRB
tp1145
a(Vbeen
VVBN
tp1146
a(Vincluded
VVBN
tp1147
a(V,
V,
tp1148
a(Vservices
VNNS
tp1149
a(Vlike
VIN
tp1150
a(VFacebook
VNNP
tp1151
a(V,
V,
tp1152
a(VBebo
VNNP
tp1153
a(V,
V,
tp1154
a(Vetc
VFW
tp1155
a(V.
V.
tp1156
a(V,
V,
tp1157
a(Vthat
VWDT
tp1158
a(Vhave
VVBP
tp1159
a(Vhitherto
VRB
tp1160
a(Vlain
VJJ
tp1161
a(Vcompletely
VRB
tp1162
a(Voutside
VIN
tp1163
a(Vthe
VDT
tp1164
a(Vscope
VNN
tp1165
a(Vof
VIN
tp1166
a(Vdirective
VNN
tp1167
a(V.
V.
tp1168
aa(lp1169
(VIn
VIN
tp1170
a(VMexico
VNNP
tp1171
a(Vthe
VDT
tp1172
a(Vimpact
VNN
tp1173
a(Von
VIN
tp1174
a(Vpublic
VJJ
tp1175
a(Vand
VCC
tp1176
a(Veconomic
VJJ
tp1177
a(Vlife
VNN
tp1178
a(Vhas
VVBZ
tp1179
a(Vgrown
VVBN
tp1180
a(Vto
VTO
tp1181
a(Va
VDT
tp1182
a(Vserious
VJJ
tp1183
a(Vscale
VNN
tp1184
a(V.
V.
tp1185
aa(lp1186
(VIt
VPRP
tp1187
a(Vis
VVBZ
tp1188
a(Vcreaking
VVBG
tp1189
a(Vunder
VIN
tp1190
a(Vthe
VDT
tp1191
a(Vstrain
VNN
tp1192
a(Vof
VIN
tp1193
a(Vthe
VDT
tp1194
a(Vmass
VNN
tp1195
a(Vmovement
VNN
tp1196
a(Vof
VIN
tp1197
a(V21
VCD
tp1198
a(Vmillion
VCD
tp1199
a(Vmigrants
VNNS
tp1200
a(Va
VDT
tp1201
a(Vyear
VNN
tp1202
a(V.
V.
tp1203
aa(lp1204
(VThat
VDT
tp1205
a(Vwould
VMD
tp1206
a(Vbe
VVB
tp1207
a(Vhealth-promoting
VJJ
tp1208
a(V!
V.
tp1209
aa(lp1210
(VDo
VVB
tp1211
a(Vwe
VPRP
tp1212
a(Vnot
VRB
tp1213
a(Vhave
VVB
tp1214
a(Venough
VJJ
tp1215
a(Vreligious
VJJ
tp1216
a(Vleaders
VNNS
tp1217
a(Vhere
VRB
tp1218
a(Vin
VIN
tp1219
a(VEurope
VNNP
tp1220
a(Vwho
VWP
tp1221
a(Vcan
VMD
tp1222
a(Vbe
VVB
tp1223
a(Vinvited
VVBN
tp1224
a(Vto
VTO
tp1225
a(Vaddress
VVB
tp1226
a(Vthis
VDT
tp1227
a(VHouse
VNNP
tp1228
a(V?
V.
tp1229
aa(lp1230
(VThe
VDT
tp1231
a(Vfirst
VJJ
tp1232
a(Vone
VCD
tp1233
a(Vis
VVBZ
tp1234
a(Vthe
VDT
tp1235
a(Vutilisation
VNN
tp1236
a(Vof
VIN
tp1237
a(Vrevenues
VNNS
tp1238
a(V,
V,
tp1239
a(Vand
VCC
tp1240
a(VI
VPRP
tp1241
a(Vwould
VMD
tp1242
a(Vlike
VVB
tp1243
a(Vto
VTO
tp1244
a(Vreturn
VVB
tp1245
a(Vto
VTO
tp1246
a(Vthe
VDT
tp1247
a(Vcomment
VNN
tp1248
a(Vmade
VVBN
tp1249
a(Vby
VIN
tp1250
a(VMr
VNNP
tp1251
a(VSterckx
VNNP
tp1252
a(V.
V.
tp1253
aa(lp1254
(VI
VPRP
tp1255
a(Vwould
VMD
tp1256
a(Vend
VVB
tp1257
a(Vwith
VIN
tp1258
a(Vthis
VDT
tp1259
a(Vquestion
VNN
tp1260
a(V:
V:
tp1261
a(Vare
VVBP
tp1262
a(Vthere
VEX
tp1263
a(Vperhaps
VRB
tp1264
a(Vfirst
VJJ
tp1265
a(Vclass
VNN
tp1266
a(Vvictims
VNNS
tp1267
a(Vand
VCC
tp1268
a(Vsecond
VJJ
tp1269
a(Vclass
VNN
tp1270
a(Vvictims
VNNS
tp1271
a(Vof
VIN
tp1272
a(Va
VDT
tp1273
a(Vdefective
VJJ
tp1274
a(Vpolicy
VNN
tp1275
a(V?
V.
tp1276
aa(lp1277
(VElectronic
VJJ
tp1278
a(Vsignatures
VNNS
tp1279
aa(lp1280
(VMr
VNNP
tp1281
a(VPresident
VNNP
tp1282
a(V,
V,
tp1283
a(Vour
VPRP$
tp1284
a(Vchildren
VNNS
tp1285
a(Vare
VVBP
tp1286
a(Vby
VIN
tp1287
a(Vfar
VRB
tp1288
a(Vthe
VDT
tp1289
a(Vmost
VRBS
tp1290
a(Vvaluable
VJJ
tp1291
a(Vof
VIN
tp1292
a(Vour
VPRP$
tp1293
a(Vassets
VNNS
tp1294
a(V.
V.
tp1295
aa(lp1296
(VWhen
VWRB
tp1297
a(Vwe
VPRP
tp1298
a(Vthink
VVBP
tp1299
a(Vof
VIN
tp1300
a(Varmed
VJJ
tp1301
a(Vconflict
VNN
tp1302
a(Vand
VCC
tp1303
a(Vmost
VRBS
tp1304
a(Vtraditional
VJJ
tp1305
a(Vwar
VNN
tp1306
a(Vscenarios
VNNS
tp1307
a(V,
V,
tp1308
a(Vwe
VPRP
tp1309
a(Vimagine
VVBP
tp1310
a(Vmen
VNNS
tp1311
a(Vas
VIN
tp1312
a(Vthe
VDT
tp1313
a(Vmain
VJJ
tp1314
a(Vvictims
VNNS
tp1315
a(V.
V.
tp1316
aa(lp1317
(VWith
VIN
tp1318
a(Vregard
VNN
tp1319
a(Vto
VTO
tp1320
a(Vpublishing
VVBG
tp1321
a(Vinformation
VNN
tp1322
a(Vin
VIN
tp1323
a(Vlocal
VJJ
tp1324
a(Vnewspapers
VNNS
tp1325
a(V,
V,
tp1326
a(Vthis
VDT
tp1327
a(Vpractice
VNN
tp1328
a(Vwill
VMD
tp1329
a(Vstill
VRB
tp1330
a(Vbe
VVB
tp1331
a(Vpossible
VJJ
tp1332
a(Vin
VIN
tp1333
a(Vthose
VDT
tp1334
a(VMember
VNNP
tp1335
a(VStates
VNNPS
tp1336
a(Vwhich
VWDT
tp1337
a(Vwill
VMD
tp1338
a(Vconsider
VVB
tp1339
a(Vthis
VDT
tp1340
a(Vto
VTO
tp1341
a(Vbe
VVB
tp1342
a(Vnecessary
VJJ
tp1343
a(V.
V.
tp1344
aa(lp1345
(VIf
VIN
tp1346
a(Vwe
VPRP
tp1347
a(Vreally
VRB
tp1348
a(Vend
VVB
tp1349
a(Vup
VRP
tp1350
a(Vwith
VIN
tp1351
a(V140
VCD
tp1352
a(Vg
VNN
tp1353
a(Vin
VIN
tp1354
a(V2008
VCD
tp1355
a(Vas
VIN
tp1356
a(Vintended
VVBN
tp1357
a(V,
V,
tp1358
a(Vthat
VWDT
tp1359
a(Vwould
VMD
tp1360
a(Vbe
VVB
tp1361
a(Vexcellent
VJJ
tp1362
a(V.
V.
tp1363
aa(lp1364
(VUntil
VIN
tp1365
a(Vnow
VRB
tp1366
a(V,
V,
tp1367
a(Vno
VDT
tp1368
a(Vconsumer
VNN
tp1369
a(Vhas
VVBZ
tp1370
a(Vever
VRB
tp1371
a(Vcomplained
VVBN
tp1372
a(Vthat
VIN
tp1373
a(Vthere
VEX
tp1374
a(Vwas
VVBD
tp1375
a(Van
VDT
tp1376
a(Vexcess
VNN
tp1377
a(Vof
VIN
tp1378
a(Vchoice
VNN
tp1379
a(V.
V.
tp1380
aa(lp1381
(VThe
VDT
tp1382
a(VNLA
VNNP
tp1383
a(Vhas
VVBZ
tp1384
a(Vbeen
VVBN
tp1385
a(Vdissolved
VVBN
tp1386
a(V,
V,
tp1387
a(Vso
VIN
tp1388
a(Vit
VPRP
tp1389
a(Vclaims
VVBZ
tp1390
a(V.
V.
tp1391
aa(lp1392
(VWhy
VWRB
tp1393
a(Vhere
VRB
tp1394
a(V,
V,
tp1395
a(Vand
VCC
tp1396
a(Vwhy
VWRB
tp1397
a(Vmake
VVB
tp1398
a(Vit
VPRP
tp1399
a(Vlook
VVB
tp1400
a(Vas
VIN
tp1401
a(Vthough
VIN
tp1402
a(VPoland
VNNP
tp1403
a(Vis
VVBZ
tp1404
a(Va
VDT
tp1405
a(Vthief
VNN
tp1406
a(V?
V.
tp1407
aa(lp1408
(VIn
VIN
tp1409
a(V2000
VCD
tp1410
a(V,
V,
tp1411
a(Vthe
VDT
tp1412
a(Vpotential
VJJ
tp1413
a(Voutput
VNN
tp1414
a(Vgap
VNN
tp1415
a(Vwas
VVBD
tp1416
a(V4.5
VCD
tp1417
a(V%
VNN
tp1418
a(V.
V.
tp1419
a(VIn
VIN
tp1420
a(Vother
VJJ
tp1421
a(Vwords
VNNS
tp1422
a(V,
V,
tp1423
a(VIreland
VNNP
tp1424
a(Vwas
VVBD
tp1425
a(Vdemanding
VVBG
tp1426
a(V4.5
VCD
tp1427
a(V%
VNN
tp1428
a(Vmore
VJJR
tp1429
a(Vthan
VIN
tp1430
a(Vwhat
VWP
tp1431
a(Vit
VPRP
tp1432
a(Vwas
VVBD
tp1433
a(Vproducing
VVBG
tp1434
a(V.
V.
tp1435
aa(lp1436
(VI
VPRP
tp1437
a(Vwould
VMD
tp1438
a(Vtherefore
VRB
tp1439
a(Vlike
VVB
tp1440
a(Vto
VTO
tp1441
a(Vpropose
VVB
tp1442
a(Vthat
VIN
tp1443
a(Vthe
VDT
tp1444
a(Vfirst
VJJ
tp1445
a(Vstep
VNN
tp1446
a(Vthe
VDT
tp1447
a(VCommission
VNNP
tp1448
a(Vcould
VMD
tp1449
a(Vtake
VVB
tp1450
a(Vis
VVBZ
tp1451
a(Vto
VTO
tp1452
a(Vgive
VVB
tp1453
a(Vthose
VDT
tp1454
a(Vcountries
VNNS
tp1455
a(Vin
VIN
tp1456
a(VNorth
VNNP
tp1457
a(VAfrica
VNNP
tp1458
a(Vthat
VWDT
tp1459
a(Vhave
VVBP
tp1460
a(Vbegun
VVBN
tp1461
a(Vthe
VDT
tp1462
a(Vjourney
VNN
tp1463
a(Vtowards
VIN
tp1464
a(Vdemocracy
VNN
tp1465
a(Vfree
VJJ
tp1466
a(Vmarket
VNN
tp1467
a(Vaccess
VNN
tp1468
a(Vin
VIN
tp1469
a(VEurope
VNNP
tp1470
a(V.
V.
tp1471
aa(lp1472
(VI
VPRP
tp1473
a(Vlived
VVBD
tp1474
a(Vthrough
VIN
tp1475
a(Vthe
VDT
tp1476
a(Ventire
VJJ
tp1477
a(Vcommunist
VNN
tp1478
a(Vera
VNN
tp1479
a(Vin
VIN
tp1480
a(Vmy
VPRP$
tp1481
a(Vcountry
VNN
tp1482
a(V,
V,
tp1483
a(Vduring
VIN
tp1484
a(Vwhich
VWDT
tp1485
a(Vour
VPRP$
tp1486
a(Vlives
VNNS
tp1487
a(Vwere
VVBD
tp1488
a(Vcarefully
VRB
tp1489
a(Vdivided
VVBN
tp1490
a(Vinto
VIN
tp1491
a(Vyears
VNNS
tp1492
a(V,
V,
tp1493
a(Vmonths
VNNS
tp1494
a(V,
V,
tp1495
a(Vweeks
VNNS
tp1496
a(Vand
VCC
tp1497
a(Vdays
VNNS
tp1498
a(V,
V,
tp1499
a(Veach
VDT
tp1500
a(Vdedicated
VVBN
tp1501
a(Vto
VTO
tp1502
a(Vsomeone
VNN
tp1503
a(Vor
VCC
tp1504
a(Vsomething
VNN
tp1505
a(V.
V.
tp1506
aa(lp1507
(VAll
VPDT
tp1508
a(Vthis
VDT
tp1509
a(Vhad
VVBD
tp1510
a(Valready
VRB
tp1511
a(Vbeen
VVBN
tp1512
a(Vmentioned
VVBN
tp1513
a(Vin
VIN
tp1514
a(Vprevious
VJJ
tp1515
a(Vreports
VNNS
tp1516
a(V.
V.
tp1517
aa(lp1518
(VCotton
VNN
tp1519
a(Vfarms
VNNS
tp1520
a(Vin
VIN
tp1521
a(VSpain
VNNP
tp1522
a(Vshrunk
VVBD
tp1523
a(Vby
VIN
tp1524
a(V25
VCD
tp1525
a(V%
VNN
tp1526
a(Vand
VCC
tp1527
a(Vin
VIN
tp1528
a(VGreece
VNNP
tp1529
a(Vby
VIN
tp1530
a(V11
VCD
tp1531
a(V%
VNN
tp1532
a(V.
V.
tp1533
aa(lp1534
(VResearch
VNN
tp1535
a(Vshows
VVBZ
tp1536
a(Vthat
VIN
tp1537
a(Vthe
VDT
tp1538
a(Vshortage
VNN
tp1539
a(Vof
VIN
tp1540
a(Vnurses
VNNS
tp1541
a(V,
V,
tp1542
a(Vlong
VRB
tp1543
a(Vworking
VVBG
tp1544
a(Vhours
VNNS
tp1545
a(Vand
VCC
tp1546
a(Vovertime
VNN
tp1547
a(V,
V,
tp1548
a(Vall
VDT
tp1549
a(Vincrease
VVBP
tp1550
a(Vthe
VDT
tp1551
a(Vrisk
VNN
tp1552
a(Vof
VIN
tp1553
a(Vdangerous
VJJ
tp1554
a(Verrors
VNNS
tp1555
a(Vlike
VIN
tp1556
a(Vneedlestick
VNN
tp1557
a(Vinjuries
VNNS
tp1558
a(V.
V.
tp1559
aa(lp1560
(VThere
VEX
tp1561
a(Vis
VVBZ
tp1562
a(Valso
VRB
tp1563
a(Vmuch
VJJ
tp1564
a(Vto
VTO
tp1565
a(Vdo
VVB
tp1566
a(Vwhen
VWRB
tp1567
a(Vit
VPRP
tp1568
a(Vcomes
VVBZ
tp1569
a(Vto
VTO
tp1570
a(VThailand
VNNP
tp1571
a(V,
V,
tp1572
a(Vthe
VDT
tp1573
a(VPhilippines
VNNPS
tp1574
a(Vand
VCC
tp1575
a(Vother
VJJ
tp1576
a(Vplaces
VNNS
tp1577
a(Varound
VIN
tp1578
a(Vthe
VDT
tp1579
a(Vworld
VNN
tp1580
a(V,
V,
tp1581
a(Vsomething
VNN
tp1582
a(Vthe
VDT
tp1583
a(Vpolice
VNN
tp1584
a(Vauthorities
VNNS
tp1585
a(Vare
VVBP
tp1586
a(Vworking
VVBG
tp1587
a(Von
VIN
tp1588
a(V.
V.
tp1589
aa(lp1590
(VHow
VWRB
tp1591
a(Vand
VCC
tp1592
a(Vwhen
VWRB
tp1593
a(Vwill
VMD
tp1594
a(Vthis
VDT
tp1595
a(Vinjustice
VNN
tp1596
a(Vand
VCC
tp1597
a(Vinequity
VNN
tp1598
a(Vbe
VVB
tp1599
a(Veliminated
VVBN
tp1600
a(V?
V.
tp1601
aa(lp1602
(VMobility
VNN
tp1603
a(Vis
VVBZ
tp1604
a(Vimportant
VJJ
tp1605
a(Vwithin
VIN
tp1606
a(Vthe
VDT
tp1607
a(VEU
VNNP
tp1608
a(Vand
VCC
tp1609
a(Vso
VRB
tp1610
a(Vis
VVBZ
tp1611
a(Vthe
VDT
tp1612
a(Vfight
VNN
tp1613
a(Vagainst
VIN
tp1614
a(Vprotectionism
VNN
tp1615
a(V.
V.
tp1616
aa(lp1617
(VThere
VEX
tp1618
a(Vare
VVBP
tp1619
a(Vsome
VDT
tp1620
a(Vworking
VVBG
tp1621
a(Vdocuments
VNNS
tp1622
a(Vin
VIN
tp1623
a(Vthe
VDT
tp1624
a(VCommission
VNNP
tp1625
a(V,
V,
tp1626
a(Vdrawn
VVBN
tp1627
a(Vup
VRP
tp1628
a(Vby
VIN
tp1629
a(Vall
VDT
tp1630
a(Vits
VPRP$
tp1631
a(Vservices
VNNS
tp1632
a(V,
V,
tp1633
a(Vbut
VCC
tp1634
a(Vthey
VPRP
tp1635
a(Vdo
VVBP
tp1636
a(Vnot
VRB
tp1637
a(Vreflect
VVB
tp1638
a(Vthe
VDT
tp1639
a(VCommission
VNNP
tp1640
a(V&apos;s
VNNS
tp1641
a(Vviews
VNNS
tp1642
a(V.
V.
tp1643
aa(lp1644
(VWe
VPRP
tp1645
a(Vmust
VMD
tp1646
a(Vtherefore
VRB
tp1647
a(Vcontinue
VVB
tp1648
a(Vour
VPRP$
tp1649
a(Vefforts
VNNS
tp1650
a(Vto
VTO
tp1651
a(Vmake
VVB
tp1652
a(Vit
VPRP
tp1653
a(Vwork
VVB
tp1654
a(Vin
VIN
tp1655
a(Vregard
VNN
tp1656
a(Vto
VTO
tp1657
a(Vthis
VDT
tp1658
a(Vmatter
VNN
tp1659
a(Vand
VCC
tp1660
a(Vin
VIN
tp1661
a(Vpreparation
VNN
tp1662
a(Vfor
VIN
tp1663
a(Vthe
VDT
tp1664
a(VWorld
VNNP
tp1665
a(VTrade
VNNP
tp1666
a(VConference
VNNP
tp1667
a(Vin
VIN
tp1668
a(VSingapore
VNNP
tp1669
a(V.
V.
tp1670
aa(lp1671
(VSectoral
VJJ
tp1672
a(Vanalyses
VNNS
tp1673
a(Vwill
VMD
tp1674
a(Vhelp
VVB
tp1675
a(Vto
VTO
tp1676
a(Vfacilitate
VVB
tp1677
a(Vgreater
VJJR
tp1678
a(Vcooperation
VNN
tp1679
a(Vbetween
VIN
tp1680
a(Vindustry
VNN
tp1681
a(V,
V,
tp1682
a(Vthe
VDT
tp1683
a(VCommission
VNNP
tp1684
a(Vand
VCC
tp1685
a(Vthe
VDT
tp1686
a(VMember
VNNP
tp1687
a(VStates
VNNPS
tp1688
a(V,
V,
tp1689
a(Vwhich
VWDT
tp1690
a(Vcould
VMD
tp1691
a(Vcreate
VVB
tp1692
a(Vnew
VJJ
tp1693
a(Vopportunities
VNNS
tp1694
a(V.
V.
tp1695
aa(lp1696
(VThe
VDT
tp1697
a(Vrules
VNNS
tp1698
a(Vwhich
VWDT
tp1699
a(Vwere
VVBD
tp1700
a(Vthen
VRB
tp1701
a(Vfinally
VRB
tp1702
a(Vdecided
VVBN
tp1703
a(Vare
VVBP
tp1704
a(Valso
VRB
tp1705
a(Vonly
VRB
tp1706
a(Vhalf-hearted
VJJ
tp1707
a(Vin
VIN
tp1708
a(Vmy
VPRP$
tp1709
a(Vopinion
VNN
tp1710
a(V.
V.
tp1711
aa(lp1712
(VIt
VPRP
tp1713
a(Vis
VVBZ
tp1714
a(Vpreparing
VVBG
tp1715
a(Vto
VTO
tp1716
a(Vmake
VVB
tp1717
a(Vfree
VJJ
tp1718
a(Vand
VCC
tp1719
a(Veasy
VJJ
tp1720
a(Vwith
VIN
tp1721
a(Vthe
VDT
tp1722
a(Vforthcoming
VJJ
tp1723
a(Velections
VNNS
tp1724
a(V,
V,
tp1725
a(Vwhich
VWDT
tp1726
a(Vhe
VPRP
tp1727
a(Vhas
VVBZ
tp1728
a(Vannounced
VVBN
tp1729
a(Vfor
VIN
tp1730
a(VMarch
VNNP
tp1731
a(V2010
VCD
tp1732
a(V,
V,
tp1733
a(Vat
VIN
tp1734
a(Vthe
VDT
tp1735
a(Vend
VNN
tp1736
a(Vof
VIN
tp1737
a(Va
VDT
tp1738
a(Vprocess
VNN
tp1739
a(Vwhich
VWDT
tp1740
a(Vhas
VVBZ
tp1741
a(Vnothing
VNN
tp1742
a(Vdemocratic
VJJ
tp1743
a(Vabout
VIN
tp1744
a(Vit
VPRP
tp1745
a(Vand
VCC
tp1746
a(Vwhich
VWDT
tp1747
a(Vis
VVBZ
tp1748
a(Vtaking
VVBG
tp1749
a(Vplace
VNN
tp1750
a(Voutside
VIN
tp1751
a(Vthe
VDT
tp1752
a(VMaputo
VNNP
tp1753
a(Vand
VCC
tp1754
a(VAddis
VNNP
tp1755
a(VAbaba
VNNP
tp1756
a(Vagreements
VNNS
tp1757
a(V.
V.
tp1758
aa(lp1759
(VI
VPRP
tp1760
a(Vshould
VMD
tp1761
a(Valso
VRB
tp1762
a(Vlike
VVB
tp1763
a(Vto
VTO
tp1764
a(Vpraise
VVB
tp1765
a(Vthe
VDT
tp1766
a(Vcourage
VNN
tp1767
a(Vof
VIN
tp1768
a(Vthe
VDT
tp1769
a(Vmembers
VNNS
tp1770
a(Vof
VIN
tp1771
a(Vthe
VDT
tp1772
a(Vcouncil
VNN
tp1773
a(Vwho
VWP
tp1774
a(Vmanaged
VVBD
tp1775
a(Vto
VTO
tp1776
a(Voverpower
VVB
tp1777
a(Vthe
VDT
tp1778
a(Vintruder
VNN
tp1779
a(V.
V.
tp1780
aa(lp1781
(VMost
VJJS
tp1782
a(Vyoung
VJJ
tp1783
a(Vadolescents
VNNS
tp1784
a(Vare
VVBP
tp1785
a(Vcurious
VJJ
tp1786
a(Vand
VCC
tp1787
a(Vthink
VVBP
tp1788
a(Vthat
VIN
tp1789
a(Vhaving
VVBG
tp1790
a(Vreached
VVBN
tp1791
a(Vpuberty
VNN
tp1792
a(Vthey
VPRP
tp1793
a(Vare
VVBP
tp1794
a(Vnow
VRB
tp1795
a(Vgrown
VVBN
tp1796
a(Vup
VRB
tp1797
a(V.
V.
tp1798
aa(lp1799
(VBut
VCC
tp1800
a(VI
VPRP
tp1801
a(Vthink
VVBP
tp1802
a(Vthat
VIN
tp1803
a(Vthey
VPRP
tp1804
a(Vshould
VMD
tp1805
a(Vbe
VVB
tp1806
a(Vpaid
VVBN
tp1807
a(Vmore
VJJR
tp1808
a(Vattention
VNN
tp1809
a(Vbecause
VIN
tp1810
a(V,
V,
tp1811
a(Vas
VIN
tp1812
a(Va
VDT
tp1813
a(Vrule
VNN
tp1814
a(V,
V,
tp1815
a(Vscience
VNN
tp1816
a(Vpays
VVBZ
tp1817
a(Vattention
VNN
tp1818
a(Vto
VTO
tp1819
a(Vthe
VDT
tp1820
a(Vrich
VJJ
tp1821
a(Vareas
VNNS
tp1822
a(Vbecause
VIN
tp1823
a(Vit
VPRP
tp1824
a(Vis
VVBZ
tp1825
a(Vpaid
VVBN
tp1826
a(Vto
VTO
tp1827
a(Vdo
VVB
tp1828
a(Vso
VRB
tp1829
a(V.
V.
tp1830
aa(lp1831
(VSubject
VNNP
tp1832
a(V:
V:
tp1833
a(VRelations
VNNS
tp1834
a(Vwith
VIN
tp1835
a(VIsrael
VNNP
tp1836
a(Vand
VCC
tp1837
a(VPalestine
VNNP
tp1838
aa(lp1839
(VMr
VNNP
tp1840
a(VSimpson
VNNP
tp1841
a(V,
V,
tp1842
a(VMr
VNNP
tp1843
a(VSeal
VNNP
tp1844
a(V,
V,
tp1845
a(VI
VPRP
tp1846
a(Vcannot
VVBP
tp1847
a(Vunderstand
VVB
tp1848
a(Vyou
VPRP
tp1849
a(Vat
VIN
tp1850
a(Vall
VDT
tp1851
a(V!
V.
tp1852
aa(lp1853
(VWe
VPRP
tp1854
a(Vare
VVBP
tp1855
a(Valso
VRB
tp1856
a(Vextending
VVBG
tp1857
a(VRAPEX-China
VNNP
tp1858
a(V,
V,
tp1859
a(Vwhich
VWDT
tp1860
a(Vis
VVBZ
tp1861
a(Vvery
VRB
tp1862
a(Vimportant
VJJ
tp1863
a(V.
V.
tp1864
aa(lp1865
(VWe
VPRP
tp1866
a(Vcan
VMD
tp1867
a(Vbe
VVB
tp1868
a(Vsatisfied
VVBN
tp1869
a(Vwith
VIN
tp1870
a(Vthe
VDT
tp1871
a(Vendorsement
VNN
tp1872
a(Vof
VIN
tp1873
a(Vthe
VDT
tp1874
a(VEuropean
VJJ
tp1875
a(Varrest
VNN
tp1876
a(Vwarrant
VNN
tp1877
a(V,
V,
tp1878
a(Va
VDT
tp1879
a(Vtool
VNN
tp1880
a(Vwhich
VWDT
tp1881
a(Vwill
VMD
tp1882
a(Vcertainly
VRB
tp1883
a(Vbe
VVB
tp1884
a(Veffective
VJJ
tp1885
a(Vin
VIN
tp1886
a(Vlegal
VJJ
tp1887
a(Vterms
VNNS
tp1888
a(Vin
VIN
tp1889
a(Vcombating
VVBG
tp1890
a(Vterrorism
VNN
tp1891
a(Vand
VCC
tp1892
a(Vinternational
VJJ
tp1893
a(Vorganised
VJJ
tp1894
a(Vcrime
VNN
tp1895
a(V,
V,
tp1896
a(Vreplacing
VVBG
tp1897
a(Vthe
VDT
tp1898
a(Vcomplex
VNN
tp1899
a(V,
V,
tp1900
a(Vexcessively
VRB
tp1901
a(Vbureaucratic
VJJ
tp1902
a(Vextradition
VNN
tp1903
a(Vprocedures
VNNS
tp1904
a(V.
V.
tp1905
aa(lp1906
(VHere
VRB
tp1907
a(Vwe
VPRP
tp1908
a(Vhave
VVBP
tp1909
a(Va
VDT
tp1910
a(Vreport
VNN
tp1911
a(Vwhich
VWDT
tp1912
a(Vcould
VMD
tp1913
a(Vhave
VVB
tp1914
a(Vbeen
VVBN
tp1915
a(Vmuch
VJJ
tp1916
a(Vanticipated
VVBN
tp1917
a(Vby
VIN
tp1918
a(Vthe
VDT
tp1919
a(Vpress
VNN
tp1920
a(Vand
VCC
tp1921
a(Vfeared
VVBN
tp1922
a(Vby
VIN
tp1923
a(Vthe
VDT
tp1924
a(VMember
VNNP
tp1925
a(VStates
VNNPS
tp1926
a(V,
V,
tp1927
a(Vwhich
VWDT
tp1928
a(Vcould
VMD
tp1929
a(Vhave
VVB
tp1930
a(Vserved
VVBN
tp1931
a(Vas
VIN
tp1932
a(Va
VDT
tp1933
a(Vbeacon
VNN
tp1934
a(Vto
VTO
tp1935
a(Vmark
VVB
tp1936
a(Vour
VPRP$
tp1937
a(Vposition
VNN
tp1938
a(V.
V.
tp1939
aa(lp1940
(VA
VDT
tp1941
a(Vwarm
VJJ
tp1942
a(Vwelcome
VJJ
tp1943
a(Vto
VTO
tp1944
a(Veveryone
VNN
tp1945
a(Vwhose
VWP$
tp1946
a(Vactions
VNNS
tp1947
a(Vand
VCC
tp1948
a(Vintentions
VNNS
tp1949
a(Vhave
VVBP
tp1950
a(Vbeen
VVBN
tp1951
a(Vfair
VJJ
tp1952
a(Vand
VCC
tp1953
a(Vsincere
VJJ
tp1954
a(V.
V.
tp1955
aa(lp1956
(VBecause
VIN
tp1957
a(Vyou
VPRP
tp1958
a(Vhad
VVBD
tp1959
a(Vto
VTO
tp1960
a(Vbelong
VVB
tp1961
a(Vto
VTO
tp1962
a(Vthe
VDT
tp1963
a(Vclub
VNN
tp1964
a(Vor
VCC
tp1965
a(Vyou
VPRP
tp1966
a(Vdid
VVBD
tp1967
a(Vnot
VRB
tp1968
a(Vget
VVB
tp1969
a(Va
VDT
tp1970
a(Vlook
VNN
tp1971
a(Vin
VIN
tp1972
a(V.
V.
tp1973
aa(lp1974
(VI
VPRP
tp1975
a(Vhope
VVBP
tp1976
a(Vwe
VPRP
tp1977
a(Vcan
VMD
tp1978
a(Vregard
VVB
tp1979
a(Vthis
VDT
tp1980
a(Vas
VIN
tp1981
a(Van
VDT
tp1982
a(Vepisode
VNN
tp1983
a(Vwhich
VWDT
tp1984
a(Vwas
VVBD
tp1985
a(Vthe
VDT
tp1986
a(Vresult
VNN
tp1987
a(Vof
VIN
tp1988
a(Va
VDT
tp1989
a(Vtemporary
VJJ
tp1990
a(Vattack
VNN
tp1991
a(Vof
VIN
tp1992
a(Vtemper
VNN
tp1993
a(V.
V.
tp1994
aa(lp1995
(VThese
VDT
tp1996
a(Vparties
VNNS
tp1997
a(Vhave
VVBP
tp1998
a(Vpreviously
VRB
tp1999
a(Vbeen
VVBN
tp2000
a(Vin
VIN
tp2001
a(Vgovernment
VNN
tp2002
a(Vin
VIN
tp2003
a(VItaly
VNNP
tp2004
a(Vbut
VCC
tp2005
a(Vnot
VRB
tp2006
a(Vsince
VIN
tp2007
a(Vthe
VDT
tp2008
a(Ventry
VNN
tp2009
a(Vinto
VIN
tp2010
a(Vforce
VNN
tp2011
a(Vof
VIN
tp2012
a(Vthe
VDT
tp2013
a(VAmsterdam
VNNP
tp2014
a(VTreaty
VNNP
tp2015
a(V.
V.
tp2016
aa(lp2017
(VThe
VDT
tp2018
a(VEuropean
VJJ
tp2019
a(VCommission
VNNP
tp2020
a(Vhas
VVBZ
tp2021
a(Vhad
VVBD
tp2022
a(Vthe
VDT
tp2023
a(Vcourage
VNN
tp2024
a(Vto
VTO
tp2025
a(Vpresent
VJJ
tp2026
a(Vself-regulatory
VJJ
tp2027
a(Vmeasures
VNNS
tp2028
a(Vin
VIN
tp2029
a(Vorder
VNN
tp2030
a(Vto
VTO
tp2031
a(Vget
VVB
tp2032
a(Vindustry
VNN
tp2033
a(Vand
VCC
tp2034
a(Vgovernments
VNNS
tp2035
a(Vto
VTO
tp2036
a(Vcommit
VVB
tp2037
a(Vto
VTO
tp2038
a(Vgreater
VJJR
tp2039
a(Vpedestrian
VNN
tp2040
a(Vsafety
VNN
tp2041
a(V,
V,
tp2042
a(Vwhich
VWDT
tp2043
a(Vis
VVBZ
tp2044
a(Valso
VRB
tp2045
a(Vnecessary
VJJ
tp2046
a(V,
V,
tp2047
a(Vin
VIN
tp2048
a(Vfact
VNN
tp2049
a(V.
V.
tp2050
aa(lp2051
(VI
VPRP
tp2052
a(Vwould
VMD
tp2053
a(Vvery
VRB
tp2054
a(Vmuch
VRB
tp2055
a(Vlike
VIN
tp2056
a(Vto
VTO
tp2057
a(Vknow
VVB
tp2058
a(Vwhether
VIN
tp2059
a(Vyou
VPRP
tp2060
a(Vactually
VRB
tp2061
a(Vmean
VVBP
tp2062
a(Vall
VDT
tp2063
a(Vof
VIN
tp2064
a(Vthis
VDT
tp2065
a(Vseriously
VRB
tp2066
a(Vor
VCC
tp2067
a(Vwhether
VIN
tp2068
a(Vother
VJJ
tp2069
a(Vhands
VNNS
tp2070
a(Vare
VVBP
tp2071
a(Vpulling
VVBG
tp2072
a(Vthe
VDT
tp2073
a(Vstrings
VNNS
tp2074
a(V.
V.
tp2075
aa(lp2076
(VThese
VDT
tp2077
a(Vare
VVBP
tp2078
a(Valso
VRB
tp2079
a(Vpeople
VNNS
tp2080
a(Vthat
VWDT
tp2081
a(Vcannot
VVBP
tp2082
a(Vbear
VNN
tp2083
a(Vto
VTO
tp2084
a(Vbe
VVB
tp2085
a(Vbeaten
VVBN
tp2086
a(Vin
VIN
tp2087
a(Vdemocratic
VJJ
tp2088
a(Velections
VNNS
tp2089
a(V,
V,
tp2090
a(Vand
VCC
tp2091
a(Vthen
VRB
tp2092
a(Vrefuse
VVBP
tp2093
a(Vany
VDT
tp2094
a(Vform
VNN
tp2095
a(Vof
VIN
tp2096
a(Vhandshake
VNN
tp2097
a(Vor
VCC
tp2098
a(Vcontact
VNN
tp2099
a(V.
V.
tp2100
aa(lp2101
(VThe
VDT
tp2102
a(Vonly
VJJ
tp2103
a(Vproblem
VNN
tp2104
a(Vthere
VEX
tp2105
a(Vis
VVBZ
tp2106
a(Vthat
VIN
tp2107
a(Vour
VPRP$
tp2108
a(Vbest
VJJS
tp2109
a(Vwarriors
VNNS
tp2110
a(Vemigrate
VVBP
tp2111
a(Vto
VTO
tp2112
a(VHollywood
VNNP
tp2113
a(V.
V.
tp2114
aa.