(lp1
(lp2
(VThat
VDT
tp3
a(Vwould
VMD
tp4
a(Vmake
VVB
tp5
a(Vit
VPRP
tp6
a(Vso
VRB
tp7
a(Vmuch
VRB
tp8
a(Vmore
VRBR
tp9
a(Vdifficult
VJJ
tp10
a(Vfor
VIN
tp11
a(Vother
VJJ
tp12
a(Vcountries
VNNS
tp13
a(Vin
VIN
tp14
a(Vthe
VDT
tp15
a(VLeague
VNNP
tp16
a(Vof
VIN
tp17
a(VDeath
VNNP
tp18
a(V.
V.
tp19
aa(lp20
(VFor
VIN
tp21
a(Vthe
VDT
tp22
a(Vsocialist
VJJ
tp23
a(Vthat
VIN
tp24
a(VI
VPRP
tp25
a(Vam
VVBP
tp26
a(V,
V,
tp27
a(Vthe
VDT
tp28
a(Vframework
VNN
tp29
a(Vexists
VVBZ
tp30
a(Vto
VTO
tp31
a(Vmove
VVB
tp32
a(Vin
VIN
tp33
a(Vthis
VDT
tp34
a(Vdirection
VNN
tp35
a(V,
V,
tp36
a(Von
VIN
tp37
a(Vthe
VDT
tp38
a(Vcondition
VNN
tp39
a(Vfirstly
VRB
tp40
a(Vthat
VIN
tp41
a(Vit
VPRP
tp42
a(Vis
VVBZ
tp43
a(Vwanted
VVBN
tp44
a(V,
V,
tp45
a(Vand
VCC
tp46
a(Vthen
VRB
tp47
a(Vto
VTO
tp48
a(Vdo
VVB
tp49
a(Veverything
VNN
tp50
a(Vpossible
VJJ
tp51
a(Vto
VTO
tp52
a(Vachieve
VVB
tp53
a(Vit
VPRP
tp54
a(V.
V.
tp55
aa(lp56
(VAs
VIN
tp57
a(Va
VDT
tp58
a(Vresult
VNN
tp59
a(V,
V,
tp60
a(Vit
VPRP
tp61
a(Vwould
VMD
tp62
a(Vmake
VVB
tp63
a(Vmore
VJJR
tp64
a(Vsense
VNN
tp65
a(Vto
VTO
tp66
a(Vvote
VVB
tp67
a(Von
VIN
tp68
a(Vit
VPRP
tp69
a(Vtomorrow
VNN
tp70
a(V.
V.
tp71
aa(lp72
(VHow
VWRB
tp73
a(Vdoes
VVBZ
tp74
a(Vthe
VDT
tp75
a(Vmarket
VNN
tp76
a(Vwork
VNN
tp77
a(Vfor
VIN
tp78
a(Vthem
VPRP
tp79
a(V?
V.
tp80
aa(lp81
(VWe
VPRP
tp82
a(Vare
VVBP
tp83
a(Vinside
VIN
tp84
a(Vthe
VDT
tp85
a(Vramparts
VNNS
tp86
a(V,
V,
tp87
a(Vable
VJJ
tp88
a(Vto
VTO
tp89
a(Vlook
VVB
tp90
a(Vdown
VRP
tp91
a(Vpatronisingly
VRB
tp92
a(Von
VIN
tp93
a(Vthe
VDT
tp94
a(Vnewcomers
VNNS
tp95
a(Vtrying
VVBG
tp96
a(Vto
VTO
tp97
a(Vget
VVB
tp98
a(Vinside
VIN
tp99
a(Vthe
VDT
tp100
a(VEU
VNNP
tp101
a(Vcastle
VNN
tp102
a(Vof
VIN
tp103
a(Vwhich
VWDT
tp104
a(Vthey
VPRP
tp105
a(Vhave
VVBP
tp106
a(Vbeen
VVBN
tp107
a(Vdreaming
VVBG
tp108
a(V.
V.
tp109
aa(lp110
(VAs
VIN
tp111
a(Va
VDT
tp112
a(Vresult
VNN
tp113
a(V,
V,
tp114
a(Vthe
VDT
tp115
a(Vdiscrepancy
VNN
tp116
a(Vbetween
VIN
tp117
a(Vamateur
VJJ
tp118
a(Vand
VCC
tp119
a(Vprofessional
VJJ
tp120
a(Vsport
VNN
tp121
a(Vhas
VVBZ
tp122
a(Vbecome
VVBN
tp123
a(Vfar
VRB
tp124
a(Vtoo
VRB
tp125
a(Vpronounced
VJJ
tp126
a(V.
V.
tp127
aa(lp128
(V(
VNN
tp129
a(VPT
VNN
tp130
a(V)
VCD
tp131
a(VMadam
VNNP
tp132
a(VPresident
VNNP
tp133
a(V,
V,
tp134
a(VRichard
VNNP
tp135
a(VHolbrooke
VNNP
tp136
a(V,
V,
tp137
a(Vto
VTO
tp138
a(Vwhom
VWP
tp139
a(VI
VPRP
tp140
a(Valso
VRB
tp141
a(Vpay
VVBP
tp142
a(Va
VDT
tp143
a(Vheartfelt
VJJ
tp144
a(Vtribute
VNN
tp145
a(V,
V,
tp146
a(Vsaid
VVBD
tp147
a(Vbefore
VIN
tp148
a(Vhe
VPRP
tp149
a(Vdied
VVBD
tp150
a(V,
V,
tp151
a(V&quot;
VJJ
tp152
a(VWe
VPRP
tp153
a(Vmust
VMD
tp154
a(Vend
VVB
tp155
a(Vthe
VDT
tp156
a(Vwar
VNN
tp157
a(Vin
VIN
tp158
a(VAfghanistan
VNNP
tp159
a(V\u201d
VCD
tp160
a(V.
V.
tp161
aa(lp162
(VEuropean
VJJ
tp163
a(Vstandards
VNNS
tp164
a(Vare
VVBP
tp165
a(Va
VDT
tp166
a(Vguarantee
VNN
tp167
a(Vof
VIN
tp168
a(Vrespect
VNN
tp169
a(Vfor
VIN
tp170
a(Vthe
VDT
tp171
a(Venvironment
VNN
tp172
a(Vand
VCC
tp173
a(Vthe
VDT
tp174
a(Vhealth
VNN
tp175
a(Vand
VCC
tp176
a(Vsafety
VNN
tp177
a(Vof
VIN
tp178
a(Vconsumers
VNNS
tp179
a(V,
V,
tp180
a(Vand
VCC
tp181
a(Vthis
VDT
tp182
a(Vaffects
VVBZ
tp183
a(Vthe
VDT
tp184
a(Vcompetitiveness
VNN
tp185
a(Vof
VIN
tp186
a(Vour
VPRP$
tp187
a(Vproducts
VNNS
tp188
a(V.
V.
tp189
aa(lp190
(VFor
VIN
tp191
a(Vtwo-thirds
VNNS
tp192
a(Vof
VIN
tp193
a(Vthe
VDT
tp194
a(Vyear
VNN
tp195
a(Vall
VDT
tp196
a(Vsurfaces
VNNS
tp197
a(Vare
VVBP
tp198
a(Vdamp
VJJ
tp199
a(V,
V,
tp200
a(Vhouses
VNNS
tp201
a(Vhave
VVBP
tp202
a(Vto
VTO
tp203
a(Vbe
VVB
tp204
a(Vstrong
VJJ
tp205
a(V,
V,
tp206
a(Vthe
VDT
tp207
a(Vcost
VNN
tp208
a(Vof
VIN
tp209
a(Vdistance
VNN
tp210
a(Vis
VVBZ
tp211
a(Venormous
VJJ
tp212
a(V.
V.
tp213
aa(lp214
(VNo
VDT
tp215
a(Vone
VNN
tp216
a(Vknows
VVBZ
tp217
a(Vany
VDT
tp218
a(Vlonger
VJJR
tp219
a(Vwhether
VIN
tp220
a(Vit
VPRP
tp221
a(Vis
VVBZ
tp222
a(Vthe
VDT
tp223
a(Vseventh
VJJ
tp224
a(V,
V,
tp225
a(Veighth
VJJ
tp226
a(Vor
VCC
tp227
a(Vninth
VJJ
tp228
a(V.
V.
tp229
aa(lp230
(VWhat
VWP
tp231
a(Vdo
VVBP
tp232
a(Vyou
VPRP
tp233
a(Vthink
VVB
tp234
a(Vabout
VIN
tp235
a(Va
VDT
tp236
a(Vban
VNN
tp237
a(Von
VIN
tp238
a(Vthe
VDT
tp239
a(Vrepackaging
VVBG
tp240
a(Vof
VIN
tp241
a(Vmedicines
VNNS
tp242
a(V?
V.
tp243
aa(lp244
(VThe
VDT
tp245
a(Vintroduction
VNN
tp246
a(Vof
VIN
tp247
a(Va
VDT
tp248
a(Vrecording
VNN
tp249
a(Vdevice
VNN
tp250
a(Vnow
VRB
tp251
a(Vhas
VVBZ
tp252
a(Vuniversal
VJJ
tp253
a(Vsupport
VNN
tp254
a(Vand
VCC
tp255
a(Vis
VVBZ
tp256
a(Vincluded
VVBN
tp257
a(Vin
VIN
tp258
a(Vmy
VPRP$
tp259
a(Vreport
VNN
tp260
a(V.
V.
tp261
aa(lp262
(VThere
VEX
tp263
a(Vis
VVBZ
tp264
a(Vno
VDT
tp265
a(Vdoubt
VNN
tp266
a(Vthat
VIN
tp267
a(Vthe
VDT
tp268
a(Vsuccess
VNN
tp269
a(Vof
VIN
tp270
a(Vthe
VDT
tp271
a(Vproject
VNN
tp272
a(Vdepended
VVBD
tp273
a(Von
VIN
tp274
a(Vit
VPRP
tp275
a(V.
V.
tp276
aa(lp277
(VShe
VPRP
tp278
a(Vextolls
VVBZ
tp279
a(Vthe
VDT
tp280
a(Vrationale
VNN
tp281
a(Vof
VIN
tp282
a(Vthe
VDT
tp283
a(VFederal
VNNP
tp284
a(VBank
VNNP
tp285
a(V.
V.
tp286
aa(lp287
(VIn
VIN
tp288
a(VMarch
VNNP
tp289
a(V,
V,
tp290
a(VIndia
VNNP
tp291
a(V&apos;s
VNNS
tp292
a(Vcricket
VNN
tp293
a(Vteam
VNN
tp294
a(Vwill
VMD
tp295
a(Vbe
VVB
tp296
a(Vvisiting
VVBG
tp297
a(VPakistan
VNNP
tp298
a(Vfor
VIN
tp299
a(Vthe
VDT
tp300
a(Vfirst
VJJ
tp301
a(Vtime
VNN
tp302
a(Vin
VIN
tp303
a(Va
VDT
tp304
a(Vdecade
VNN
tp305
a(V.
V.
tp306
aa(lp307
(VWithout
VIN
tp308
a(Vsuch
VJJ
tp309
a(Vteachers
VNNS
tp310
a(V,
V,
tp311
a(Vit
VPRP
tp312
a(Vis
VVBZ
tp313
a(Vdifficult
VJJ
tp314
a(Vto
VTO
tp315
a(Vachieve
VVB
tp316
a(Vany
VDT
tp317
a(Vimprovement
VNN
tp318
a(V.
V.
tp319
aa(lp320
(VAccording
VVBG
tp321
a(Vto
VTO
tp322
a(Vthe
VDT
tp323
a(Vlaw
VNN
tp324
a(Vof
VIN
tp325
a(Vlarge
VJJ
tp326
a(Vnumbers
VNNS
tp327
a(V,
V,
tp328
a(Vhowever
VRB
tp329
a(V,
V,
tp330
a(Vthe
VDT
tp331
a(Vpersistent
VJJ
tp332
a(Vdifferences
VNNS
tp333
a(Vin
VIN
tp334
a(Vgross
VJJ
tp335
a(Vhourly
VJJ
tp336
a(Vrates
VNNS
tp337
a(Vof
VIN
tp338
a(Vpay
VNN
tp339
a(Vare
VVBP
tp340
a(Vnot
VRB
tp341
a(Vexplainable
VJJ
tp342
a(V.
V.
tp343
aa(lp344
(VThere
VEX
tp345
a(Vare
VVBP
tp346
a(Vcases
VNNS
tp347
a(Vwhere
VWRB
tp348
a(Vwe
VPRP
tp349
a(Vneed
VVBP
tp350
a(Vmore
VRBR
tp351
a(Vlegislation
VNN
tp352
a(Vand
VCC
tp353
a(Vothers
VNNS
tp354
a(Vwhere
VWRB
tp355
a(Vwe
VPRP
tp356
a(Vneed
VVBP
tp357
a(Vless
VJJR
tp358
a(Vbureaucracy
VNN
tp359
a(Vand
VCC
tp360
a(Vless
VJJR
tp361
a(Vlegislation
VNN
tp362
a(V.
V.
tp363
aa(lp364
(VI
VPRP
tp365
a(Vwould
VMD
tp366
a(Vlike
VVB
tp367
a(Vto
VTO
tp368
a(Vask
VVB
tp369
a(Vyou
VPRP
tp370
a(V:
V:
tp371
a(VWhat
VWP
tp372
a(Vis
VVBZ
tp373
a(Vthe
VDT
tp374
a(Vsituation
VNN
tp375
a(Vwith
VIN
tp376
a(Vfinancial
VJJ
tp377
a(Vliabilities
VNNS
tp378
a(V?
V.
tp379
aa(lp380
(VBut
VCC
tp381
a(Vhave
VVBP
tp382
a(Vwe
VPRP
tp383
a(Vnot
VRB
tp384
a(Valways
VRB
tp385
a(Vhad
VVBD
tp386
a(Vmajor
VJJ
tp387
a(Vchanges
VNNS
tp388
a(Vin
VIN
tp389
a(Vworld
VNN
tp390
a(Vtrade
VNN
tp391
a(Vpatterns
VNNS
tp392
a(V?
V.
tp393
aa(lp394
(VFuture
VJJ
tp395
a(VCommissioners
VNNS
tp396
a(Vwill
VMD
tp397
a(Vhave
VVB
tp398
a(Vto
VTO
tp399
a(Vabstain
VVB
tp400
a(Vfrom
VIN
tp401
a(Vstanding
VNN
tp402
a(Vin
VIN
tp403
a(Vpolitical
VJJ
tp404
a(Velections
VNNS
tp405
a(Vduring
VIN
tp406
a(Vtheir
VPRP$
tp407
a(Vterm
VNN
tp408
a(Vof
VIN
tp409
a(Voffice
VNN
tp410
a(V.
V.
tp411
aa(lp412
(VThis
VDT
tp413
a(Vdoes
VVBZ
tp414
a(Vnot
VRB
tp415
a(Vaugur
VVB
tp416
a(Vwell
VRB
tp417
a(V.
V.
tp418
aa(lp419
(VHowever
VRB
tp420
a(V,
V,
tp421
a(Vwhat
VWDT
tp422
a(Varrangements
VNNS
tp423
a(Vwould
VMD
tp424
a(Vpertain
VVB
tp425
a(Vwhen
VWRB
tp426
a(Vchildren
VNNS
tp427
a(Vtravel
VVBP
tp428
a(Vby
VIN
tp429
a(Vtrain
VNN
tp430
a(V,
V,
tp431
a(Vcoach
VNN
tp432
a(Vor
VCC
tp433
a(Vother
VJJ
tp434
a(Vmeans
VNNS
tp435
a(Vof
VIN
tp436
a(Vpublic
VJJ
tp437
a(Vtransport
VNN
tp438
a(V?
V.
tp439
aa(lp440
(VMr
VNNP
tp441
a(VGahrton
VNNP
tp442
a(Vis
VVBZ
tp443
a(Vrenowned
VVBN
tp444
a(Vfor
VIN
tp445
a(Vhis
VPRP$
tp446
a(Vopposition
VNN
tp447
a(Vto
VTO
tp448
a(Vthe
VDT
tp449
a(VEuropean
VNNP
tp450
a(VUnion
VNNP
tp451
a(V.
V.
tp452
aa(lp453
(VThis
VDT
tp454
a(Vweekend
VNN
tp455
a(V,
V,
tp456
a(Vthe
VDT
tp457
a(Vprime
VJJ
tp458
a(Vministers
VNNS
tp459
a(Vare
VVBP
tp460
a(Vmeeting
VVBG
tp461
a(Vin
VIN
tp462
a(VBarcelona
VNNP
tp463
a(V.
V.
tp464
aa(lp465
(VOn
VIN
tp466
a(Vour
VPRP$
tp467
a(Vdoorstep
VNN
tp468
a(V,
V,
tp469
a(Von
VIN
tp470
a(Vthe
VDT
tp471
a(Vother
VJJ
tp472
a(Vside
VNN
tp473
a(Vof
VIN
tp474
a(Vthe
VDT
tp475
a(VMediterranean
VNNP
tp476
a(V,
V,
tp477
a(Va
VDT
tp478
a(Vwind
VNN
tp479
a(Vof
VIN
tp480
a(Vfreedom
VNN
tp481
a(Vhas
VVBZ
tp482
a(Vstarted
VVBN
tp483
a(Vto
VTO
tp484
a(Vblow
VVB
tp485
a(V.
V.
tp486
aa(lp487
(VThe
VDT
tp488
a(Voverall
VJJ
tp489
a(Vresult
VNN
tp490
a(Vmust
VMD
tp491
a(Vrepresent
VVB
tp492
a(Va
VDT
tp493
a(Vreal
VJJ
tp494
a(Vchange
VNN
tp495
a(Vfrom
VIN
tp496
a(Vthe
VDT
tp497
a(Vcurrent
VJJ
tp498
a(Vsituation
VNN
tp499
a(V.
V.
tp500
aa(lp501
(VWe
VPRP
tp502
a(Vtherefore
VRB
tp503
a(Vabstained
VVBD
tp504
a(Vin
VIN
tp505
a(Vthe
VDT
tp506
a(Vvote
VNN
tp507
a(Von
VIN
tp508
a(Vthe
VDT
tp509
a(Vresolution
VNN
tp510
a(Vas
VIN
tp511
a(Va
VDT
tp512
a(Vwhole
VNN
tp513
a(V.
V.
tp514
aa(lp515
(VWhat
VWP
tp516
a(Vis
VVBZ
tp517
a(Vneeded
VVBN
tp518
a(Vin
VIN
tp519
a(Vfact
VNN
tp520
a(Vis
VVBZ
tp521
a(Vintensive
VJJ
tp522
a(Vcollaboration
VNN
tp523
a(Vand
VCC
tp524
a(Vinteraction
VNN
tp525
a(Vat
VIN
tp526
a(Vlocal
VJJ
tp527
a(Vand
VCC
tp528
a(Vdistrict
VNN
tp529
a(Vlevels
VNNS
tp530
a(V.
V.
tp531
aa(lp532
(VSome
VDT
tp533
a(Vwill
VMD
tp534
a(Vhave
VVB
tp535
a(Vthe
VDT
tp536
a(Vopportunity
VNN
tp537
a(Vto
VTO
tp538
a(Vappeal
VVB
tp539
a(Vbut
VCC
tp540
a(Vothers
VNNS
tp541
a(Vwill
VMD
tp542
a(Vnot
VRB
tp543
a(V.
V.
tp544
aa(lp545
(VThe
VDT
tp546
a(VGerman
VJJ
tp547
a(Vand
VCC
tp548
a(Vthe
VDT
tp549
a(VBritish
VJJ
tp550
a(VGovernments
VNNS
tp551
a(Vare
VVBP
tp552
a(Vvery
VRB
tp553
a(Vsceptical
VJJ
tp554
a(V.
V.
tp555
aa(lp556
(VWho
VWP
tp557
a(Vcould
VMD
tp558
a(Vhave
VVB
tp559
a(Vpredicted
VVBN
tp560
a(Vthe
VDT
tp561
a(Vrate
VNN
tp562
a(Vof
VIN
tp563
a(Vchange
VNN
tp564
a(Vthat
VIN
tp565
a(Vwe
VPRP
tp566
a(Vhave
VVBP
tp567
a(Vseen
VVBN
tp568
a(Vin
VIN
tp569
a(Vthe
VDT
tp570
a(Vpast
VJJ
tp571
a(V20
VCD
tp572
a(Vyears
VNNS
tp573
a(V?
V.
tp574
aa(lp575
(VThese
VDT
tp576
a(Vare
VVBP
tp577
a(Vscenarios
VNNS
tp578
a(Vwhich
VWDT
tp579
a(Vrepeat
VVBP
tp580
a(Vthemselves
VPRP
tp581
a(V.
V.
tp582
aa(lp583
(VHow
VWRB
tp584
a(Vcould
VMD
tp585
a(Vwe
VPRP
tp586
a(Vexplain
VVB
tp587
a(Vthat
VDT
tp588
a(Vto
VTO
tp589
a(Vour
VPRP$
tp590
a(Vcitizens
VNNS
tp591
a(V?
V.
tp592
aa(lp593
(VIn
VIN
tp594
a(Vcertain
VJJ
tp595
a(Vcountries
VNNS
tp596
a(V,
V,
tp597
a(Vthe
VDT
tp598
a(Vgovernments
VNNS
tp599
a(Vare
VVBP
tp600
a(Vemploying
VVBG
tp601
a(Va
VDT
tp602
a(Vpure
VJJ
tp603
a(Vapartheid
VNN
tp604
a(Vpolicy
VNN
tp605
a(Vagainst
VIN
tp606
a(Vwomen
VNNS
tp607
a(V.
V.
tp608
aa(lp609
(VThere
VEX
tp610
a(Vis
VVBZ
tp611
a(Vno
VDT
tp612
a(Vmilitary
VJJ
tp613
a(Vsolution
VNN
tp614
a(Vto
VTO
tp615
a(Vthe
VDT
tp616
a(VIsraeli-Palestinian
VJJ
tp617
a(Vconflict
VNN
tp618
a(V.
V.
tp619
aa(lp620
(VI
VPRP
tp621
a(Vshould
VMD
tp622
a(Vlike
VVB
tp623
a(Vto
VTO
tp624
a(Vmake
VVB
tp625
a(Vsome
VDT
tp626
a(Vbrief
VJJ
tp627
a(Vcomments
VNNS
tp628
a(V.
V.
tp629
aa(lp630
(VMr
VNNP
tp631
a(VPresident
VNNP
tp632
a(V,
V,
tp633
a(Vthank
VVB
tp634
a(Vyou
VPRP
tp635
a(Vfor
VIN
tp636
a(Vall
VDT
tp637
a(Vof
VIN
tp638
a(Vyour
VPRP$
tp639
a(Vpoints
VNNS
tp640
a(Vof
VIN
tp641
a(Vview
VNN
tp642
a(V.
V.
tp643
aa(lp644
(VIt
VPRP
tp645
a(Vis
VVBZ
tp646
a(Vcrucial
VJJ
tp647
a(Vfor
VIN
tp648
a(Vthat
VDT
tp649
a(Vdividing
VVBG
tp650
a(Vline
VNN
tp651
a(Vto
VTO
tp652
a(Vbe
VVB
tp653
a(Vgot
VVBN
tp654
a(Vright
VRB
tp655
a(V.
V.
tp656
aa(lp657
(VNearly
VRB
tp658
a(V90
VCD
tp659
a(V%
VNN
tp660
a(Vof
VIN
tp661
a(Vschools
VNNS
tp662
a(Vare
VVBP
tp663
a(Vnow
VRB
tp664
a(Vconnected
VVBN
tp665
a(Vto
VTO
tp666
a(Vthe
VDT
tp667
a(VInternet
VNN
tp668
a(V.
V.
tp669
aa(lp670
(VIn
VIN
tp671
a(Vexchange
VNN
tp672
a(V,
V,
tp673
a(Vthey
VPRP
tp674
a(Vare
VVBP
tp675
a(Vgiven
VVBN
tp676
a(Vonly
VRB
tp677
a(Vlaughable
VJJ
tp678
a(Vbits
VNNS
tp679
a(Vand
VCC
tp680
a(Vpieces
VNNS
tp681
a(V.
V.
tp682
aa(lp683
(VOn
VIN
tp684
a(Vthis
VDT
tp685
a(Vbasis
VNN
tp686
a(VI
VPRP
tp687
a(Vbelieve
VVBP
tp688
a(Vwe
VPRP
tp689
a(Vcan
VMD
tp690
a(Vexpect
VVB
tp691
a(Vthe
VDT
tp692
a(Vpublic
VJJ
tp693
a(V&apos;s
VNNS
tp694
a(Vinclination
VNN
tp695
a(Vto
VTO
tp696
a(Vhave
VVB
tp697
a(Van
VDT
tp698
a(Vinfluence
VNN
tp699
a(Von
VIN
tp700
a(Venvironmental
VJJ
tp701
a(Vissues
VNNS
tp702
a(Vto
VTO
tp703
a(Vgrow
VVB
tp704
a(V.
V.
tp705
aa(lp706
(VThat
VDT
tp707
a(Vis
VVBZ
tp708
a(Vstill
VRB
tp709
a(Vthe
VDT
tp710
a(Vcase
VNN
tp711
a(V.
V.
tp712
aa(lp713
(VYou
VPRP
tp714
a(Vhave
VVBP
tp715
a(Vpresented
VVBN
tp716
a(Vyour
VPRP$
tp717
a(Vconclusions
VNNS
tp718
a(V.
V.
tp719
aa(lp720
(VThe
VDT
tp721
a(Varea
VNN
tp722
a(Vof
VIN
tp723
a(Vland
VNN
tp724
a(Vused
VVBN
tp725
a(Valone
VRB
tp726
a(Vis
VVBZ
tp727
a(Vimmense
VJJ
tp728
a(V.
V.
tp729
aa(lp730
(VFirst
VRB
tp731
a(V,
V,
tp732
a(Vthere
VEX
tp733
a(Vare
VVBP
tp734
a(Vthe
VDT
tp735
a(Vpartnerships
VNNS
tp736
a(Vfor
VIN
tp737
a(Vthe
VDT
tp738
a(Vprovision
VNN
tp739
a(Vof
VIN
tp740
a(Vprimary
VJJ
tp741
a(Vhealth
VNN
tp742
a(Vcare
VNN
tp743
a(V,
V,
tp744
a(Vincluding
VVBG
tp745
a(Vfor
VIN
tp746
a(VHIV
VNN
tp747
a(V/
V:
tp748
a(VAIDS
VNNP
tp749
a(V,
V,
tp750
a(Vwhich
VWDT
tp751
a(Vhave
VVBP
tp752
a(Vreceived
VVBN
tp753
a(VEUR
V$
tp754
a(V25
VCD
tp755
a(Vmillion
VCD
tp756
a(V:
V:
tp757
a(Vthis
VDT
tp758
a(Vprogramme
VNN
tp759
a(Vestablishes
VVBZ
tp760
a(Vpartnerships
VNNS
tp761
a(Vbetween
VIN
tp762
a(Vthe
VDT
tp763
a(VNGOs
VNNS
tp764
a(Vand
VCC
tp765
a(Vfive
VCD
tp766
a(Vof
VIN
tp767
a(Vthe
VDT
tp768
a(Vnine
VCD
tp769
a(Vprovincial
VJJ
tp770
a(Vhealth
VNN
tp771
a(Vministries
VNNS
tp772
a(V.
V.
tp773
aa(lp774
(VUnfortunately
VRB
tp775
a(V,
V,
tp776
a(Vthe
VDT
tp777
a(Vrestrictive
VJJ
tp778
a(Vtext
VNN
tp779
a(Vof
VIN
tp780
a(VAmendment
VNNP
tp781
a(VNo
VNNP
tp782
a(V322
VNN
tp783
a(Vhas
VVBZ
tp784
a(Vbeen
VVBN
tp785
a(Vadopted
VVBN
tp786
a(Vin
VIN
tp787
a(Vwhich
VWDT
tp788
a(Vtherapeutic
VJJ
tp789
a(Vcloning
VNN
tp790
a(Vhas
VVBZ
tp791
a(Vbeen
VVBN
tp792
a(Vruled
VVBN
tp793
a(Vout
VRP
tp794
a(V.
V.
tp795
aa(lp796
(VLet
VVB
tp797
a(Vme
VPRP
tp798
a(Vdo
VVB
tp799
a(Vmy
VPRP$
tp800
a(Vbest
VJJS
tp801
a(V.
V.
tp802
aa(lp803
(VIsrael
VNNP
tp804
a(Vliquidated
VVBD
tp805
a(VHamas
VNNP
tp806
a(Vleaders
VNNS
tp807
a(Vin
VIN
tp808
a(Vthe
VDT
tp809
a(Vstreet
VNN
tp810
a(V,
V,
tp811
a(Van
VDT
tp812
a(Vact
VNN
tp813
a(Vthat
VWDT
tp814
a(Vwas
VVBD
tp815
a(Vof
VIN
tp816
a(Vcourse
VNN
tp817
a(Vno
VRB
tp818
a(Vbetter
VRB
tp819
a(Vthan
VIN
tp820
a(Va
VDT
tp821
a(Vterrorist
VJJ
tp822
a(Vattack
VNN
tp823
a(V,
V,
tp824
a(Vfor
VIN
tp825
a(V,
V,
tp826
a(Vwhen
VWRB
tp827
a(VHamas
VNNP
tp828
a(Vleaders
VNNS
tp829
a(Vare
VVBP
tp830
a(Vliquidated
VVBN
tp831
a(V,
V,
tp832
a(Vtheir
VPRP$
tp833
a(Vwives
VNNS
tp834
a(Vand
VCC
tp835
a(Vchildren
VNNS
tp836
a(Vand
VCC
tp837
a(Vcasual
VJJ
tp838
a(Vpassers-by
VNNS
tp839
a(Vare
VVBP
tp840
a(Valso
VRB
tp841
a(Vkilled
VVBN
tp842
a(V.
V.
tp843
aa(lp844
(VWe
VPRP
tp845
a(Vwould
VMD
tp846
a(Vdo
VVB
tp847
a(Vwell
VRB
tp848
a(Vto
VTO
tp849
a(Vremember
VVB
tp850
a(Vthat
VIN
tp851
a(Vthe
VDT
tp852
a(Vgenuine
VJJ
tp853
a(Vfreedom
VNN
tp854
a(Vof
VIN
tp855
a(Vindividuals
VNNS
tp856
a(Vand
VCC
tp857
a(Vnations
VNNS
tp858
a(Varises
VVBZ
tp859
a(Vout
VIN
tp860
a(Vof
VIN
tp861
a(Vnational
VJJ
tp862
a(Vcultures
VNNS
tp863
a(Vwhere
VWRB
tp864
a(Vit
VPRP
tp865
a(Vhas
VVBZ
tp866
a(Vits
VPRP$
tp867
a(Vsource
VNN
tp868
a(V.
V.
tp869
aa(lp870
(VThere
VEX
tp871
a(Vis
VVBZ
tp872
a(Vno
VDT
tp873
a(Vthreat
VNN
tp874
a(V,
V,
tp875
a(Vthere
VEX
tp876
a(Vare
VVBP
tp877
a(Vjust
VRB
tp878
a(Vopportunities
VNNS
tp879
a(V.
V.
tp880
aa(lp881
(VI
VPRP
tp882
a(Vhave
VVBP
tp883
a(Vhad
VVBD
tp884
a(Vthe
VDT
tp885
a(Vsatisfaction
VNN
tp886
a(Vof
VIN
tp887
a(Vworking
VVBG
tp888
a(Von
VIN
tp889
a(VEIB
VNN
tp890
a(Vmatters
VNNS
tp891
a(Vfor
VIN
tp892
a(Vmany
VJJ
tp893
a(Vyears
VNNS
tp894
a(V,
V,
tp895
a(Vand
VCC
tp896
a(VI
VPRP
tp897
a(Voften
VRB
tp898
a(Vsay
VVBP
tp899
a(Vthat
VIN
tp900
a(Vit
VPRP
tp901
a(Vis
VVBZ
tp902
a(Vmore
VRBR
tp903
a(Vdifficult
VJJ
tp904
a(Vgetting
VVBG
tp905
a(Vinto
VIN
tp906
a(Vthe
VDT
tp907
a(VEIB
VNN
tp908
a(Vthan
VIN
tp909
a(Vinto
VIN
tp910
a(VFort
VNNP
tp911
a(VKnox
VNNP
tp912
a(V.
V.
tp913
aa(lp914
(VLadies
VNNP
tp915
a(Vand
VCC
tp916
a(Vgentlemen
VNNS
tp917
a(V,
V,
tp918
a(Vyou
VPRP
tp919
a(Vwill
VMD
tp920
a(Vat
VIN
tp921
a(Vsome
VDT
tp922
a(Vpoint
VNN
tp923
a(Vhear
VVB
tp924
a(Vthe
VDT
tp925
a(Vdigital
VJJ
tp926
a(Vtachograph
VNN
tp927
a(Vmentioned
VVBN
tp928
a(V.
V.
tp929
aa(lp930
(VHence
VRB
tp931
a(Vthe
VDT
tp932
a(Videa
VNN
tp933
a(Vof
VIN
tp934
a(Vmotivating
VVBG
tp935
a(Vresearchers
VNNS
tp936
a(Vso
VRB
tp937
a(Vas
VIN
tp938
a(Vto
VTO
tp939
a(Vmotivate
VVB
tp940
a(Vresearch
VNN
tp941
a(V.
V.
tp942
aa(lp943
(VIt
VPRP
tp944
a(Vhas
VVBZ
tp945
a(Vtried
VVBN
tp946
a(Vto
VTO
tp947
a(Vproject
VVB
tp948
a(Vthe
VDT
tp949
a(Vimage
VNN
tp950
a(Vof
VIN
tp951
a(V&apos;
VJJ
tp952
a(Vfortress
VNN
tp953
a(VEurope
VNNP
tp954
a(V&apos;
VNNP
tp955
a(V.
V.
tp956
aa(lp957
(VObviously
VRB
tp958
a(V,
V,
tp959
a(Vthere
VEX
tp960
a(Vare
VVBP
tp961
a(Vother
VJJ
tp962
a(Vmen
VNNS
tp963
a(Vwho
VWP
tp964
a(Vare
VVBP
tp965
a(V.
V.
tp966
aa(lp967
(VWe
VPRP
tp968
a(Vhave
VVBP
tp969
a(Vto
VTO
tp970
a(Vsay
VVB
tp971
a(V,
V,
tp972
a(Vbluntly
VRB
tp973
a(V,
V,
tp974
a(Vthat
VIN
tp975
a(Vwe
VPRP
tp976
a(Vare
VVBP
tp977
a(Vnow
VRB
tp978
a(Vusing
VVBG
tp979
a(Vmoney
VNN
tp980
a(Vfrom
VIN
tp981
a(Vthe
VDT
tp982
a(Vresearch
VNN
tp983
a(Vprogramme
VNN
tp984
a(Vto
VTO
tp985
a(Vpay
VVB
tp986
a(Vfor
VIN
tp987
a(Vthe
VDT
tp988
a(Vfunding
VNN
tp989
a(Vof
VIN
tp990
a(Vinnovation
VNN
tp991
a(V,
V,
tp992
a(Vand
VCC
tp993
a(Vso
VIN
tp994
a(Vwe
VPRP
tp995
a(Vfeel
VVBP
tp996
a(Vourselves
VPRP
tp997
a(Vunder
VIN
tp998
a(Van
VDT
tp999
a(Vobligation
VNN
tp1000
a(V.
V.
tp1001
aa(lp1002
(VUnfortunately
VRB
tp1003
a(V,
V,
tp1004
a(Vthe
VDT
tp1005
a(Vpeople
VNNS
tp1006
a(Vcontinue
VVBP
tp1007
a(Vto
VTO
tp1008
a(Vpay
VVB
tp1009
a(Vfor
VIN
tp1010
a(Vthe
VDT
tp1011
a(Vfecklessness
VNN
tp1012
a(Vof
VIN
tp1013
a(Vtheir
VPRP$
tp1014
a(Vleaders
VNNS
tp1015
a(Vand
VCC
tp1016
a(Vthe
VDT
tp1017
a(Vfolly
VNN
tp1018
a(Vof
VIN
tp1019
a(Vtheir
VPRP$
tp1020
a(Videologies
VNNS
tp1021
a(V.
V.
tp1022
aa(lp1023
(VAs
VIN
tp1024
a(Va
VDT
tp1025
a(Vresult
VNN
tp1026
a(V,
V,
tp1027
a(Vby
VIN
tp1028
a(Varound
VIN
tp1029
a(V2050
VCD
tp1030
a(V,
V,
tp1031
a(Varound
VIN
tp1032
a(V40
VCD
tp1033
a(V%
VNN
tp1034
a(Vof
VIN
tp1035
a(Vthe
VDT
tp1036
a(Vpopulation
VNN
tp1037
a(Vof
VIN
tp1038
a(VEurope
VNNP
tp1039
a(Vwill
VMD
tp1040
a(Vbe
VVB
tp1041
a(Vover
VIN
tp1042
a(V60
VCD
tp1043
a(V,
V,
tp1044
a(Vand
VCC
tp1045
a(V10
VCD
tp1046
a(V%
VNN
tp1047
a(Vof
VIN
tp1048
a(Vthese
VDT
tp1049
a(Vpeople
VNNS
tp1050
a(Vwill
VMD
tp1051
a(Vbe
VVB
tp1052
a(Vover
VIN
tp1053
a(V80
VCD
tp1054
a(Vyears
VNNS
tp1055
a(Vof
VIN
tp1056
a(Vage
VNN
tp1057
a(V.
V.
tp1058
aa(lp1059
(VIn
VIN
tp1060
a(Vmy
VPRP$
tp1061
a(Vview
VNN
tp1062
a(V,
V,
tp1063
a(Vhomosexuals
VNNS
tp1064
a(Vand
VCC
tp1065
a(Vdrug
VNN
tp1066
a(Vusers
VNNS
tp1067
a(V,
V,
tp1068
a(Vwho
VWP
tp1069
a(Vare
VVBP
tp1070
a(Vcurrently
VRB
tp1071
a(Vstill
VRB
tp1072
a(Vconsidered
VVBN
tp1073
a(Vto
VTO
tp1074
a(Vbe
VVB
tp1075
a(Vcriminals
VNNS
tp1076
a(V,
V,
tp1077
a(Vare
VVBP
tp1078
a(Valso
VRB
tp1079
a(Vpeople
VNNS
tp1080
a(Vwhose
VWP$
tp1081
a(Vrights
VNNS
tp1082
a(Vshould
VMD
tp1083
a(Vbe
VVB
tp1084
a(Vdefended
VVBN
tp1085
a(V.
V.
tp1086
aa(lp1087
(VShe
VPRP
tp1088
a(Vhas
VVBZ
tp1089
a(Vgot
VVBN
tp1090
a(Vto
VTO
tp1091
a(Vthe
VDT
tp1092
a(Vheart
VNN
tp1093
a(Vof
VIN
tp1094
a(Vthe
VDT
tp1095
a(Vmatter
VNN
tp1096
a(Vwith
VIN
tp1097
a(Vher
VPRP$
tp1098
a(Vwonted
VJJ
tp1099
a(Vprecision
VNN
tp1100
a(Vand
VCC
tp1101
a(Vcustomary
VJJ
tp1102
a(Vacuity
VNN
tp1103
a(V.
V.
tp1104
aa(lp1105
(VI
VPRP
tp1106
a(Vhave
VVBP
tp1107
a(Vno
VDT
tp1108
a(Vdoubt
VNN
tp1109
a(Vabout
VIN
tp1110
a(Vits
VPRP$
tp1111
a(Vability
VNN
tp1112
a(Vto
VTO
tp1113
a(Vstart
VVB
tp1114
a(Vagain
VRB
tp1115
a(V.
V.
tp1116
aa(lp1117
(VIt
VPRP
tp1118
a(Vturns
VVBZ
tp1119
a(Vout
VRP
tp1120
a(Vthat
VIN
tp1121
a(Vthey
VPRP
tp1122
a(Vpromise
VVBP
tp1123
a(Vone
VCD
tp1124
a(Vthing
VNN
tp1125
a(V,
V,
tp1126
a(Vand
VCC
tp1127
a(Vdo
VVBP
tp1128
a(Vanother
VDT
tp1129
a(V.
V.
tp1130
aa(lp1131
(VIt
VPRP
tp1132
a(Vis
VVBZ
tp1133
a(Vin
VIN
tp1134
a(Va
VDT
tp1135
a(Vmanner
VNN
tp1136
a(Vof
VIN
tp1137
a(Vspeaking
VVBG
tp1138
a(Vthe
VDT
tp1139
a(Vinternal
VJJ
tp1140
a(Vregulations
VNNS
tp1141
a(Vof
VIN
tp1142
a(Vthe
VDT
tp1143
a(Veuro
VNN
tp1144
a(Vzone
VNN
tp1145
a(V.
V.
tp1146
aa(lp1147
(VDo
VVB
tp1148
a(Vnot
VRB
tp1149
a(Vyour
VPRP$
tp1150
a(Vnon-EU
VJJ
tp1151
a(Vfriends
VNNS
tp1152
a(Vinclude
VVBP
tp1153
a(Vthe
VDT
tp1154
a(VArmenians
VNNPS
tp1155
a(V?
V.
tp1156
aa(lp1157
(VThen
VRB
tp1158
a(Vthere
VEX
tp1159
a(Vis
VVBZ
tp1160
a(Vthe
VDT
tp1161
a(Vquestion
VNN
tp1162
a(Vof
VIN
tp1163
a(Vanimal
VNN
tp1164
a(Vwaste
VNN
tp1165
a(Vto
VTO
tp1166
a(Vherbivores
VNNS
tp1167
a(V.
V.
tp1168
aa(lp1169
(VIt
VPRP
tp1170
a(Vis
VVBZ
tp1171
a(Vobvious
VJJ
tp1172
a(Vthat
VIN
tp1173
a(Vthe
VDT
tp1174
a(Vsums
VNNS
tp1175
a(Vto
VTO
tp1176
a(Vbe
VVB
tp1177
a(Vgiven
VVBN
tp1178
a(Vto
VTO
tp1179
a(VPalestine
VNNP
tp1180
a(Vand
VCC
tp1181
a(VKosovo
VNNP
tp1182
a(Vin
VIN
tp1183
a(V2009
VCD
tp1184
a(Vwill
VMD
tp1185
a(Vnot
VRB
tp1186
a(Vfit
VVB
tp1187
a(Vinto
VIN
tp1188
a(Vthe
VDT
tp1189
a(Vbudgetary
VJJ
tp1190
a(Vframework
VNN
tp1191
a(V.
V.
tp1192
aa(lp1193
(VThere
VEX
tp1194
a(Vare
VVBP
tp1195
a(Valso
VRB
tp1196
a(Vdifferences
VNNS
tp1197
a(V,
V,
tp1198
a(Vfor
VIN
tp1199
a(Vexample
VNN
tp1200
a(V,
V,
tp1201
a(Von
VIN
tp1202
a(Vthe
VDT
tp1203
a(Vmatter
VNN
tp1204
a(Vof
VIN
tp1205
a(Vnutritional
VJJ
tp1206
a(Vprofiles
VNNS
tp1207
a(V.
V.
tp1208
aa(lp1209
(VBut
VCC
tp1210
a(VI
VPRP
tp1211
a(Vam
VVBP
tp1212
a(Valso
VRB
tp1213
a(Vaware
VJJ
tp1214
a(Vthat
VIN
tp1215
a(Vthis
VDT
tp1216
a(Vis
VVBZ
tp1217
a(Va
VDT
tp1218
a(Vpoker
VNN
tp1219
a(Vgame
VNN
tp1220
a(Vand
VCC
tp1221
a(VI
VPRP
tp1222
a(Vam
VVBP
tp1223
a(Va
VDT
tp1224
a(Vrotten
VJJ
tp1225
a(Vpoker
VNN
tp1226
a(Vplayer
VNN
tp1227
a(V.
V.
tp1228
aa(lp1229
(VFleeing
VVBG
tp1230
a(Vfrom
VIN
tp1231
a(Vall
VDT
tp1232
a(Vquarters
VNNS
tp1233
a(V,
V,
tp1234
a(Vhundreds
VNNS
tp1235
a(Vof
VIN
tp1236
a(Vimmigrants
VNNS
tp1237
a(Vtook
VVBD
tp1238
a(Vrefuge
VNN
tp1239
a(Von
VIN
tp1240
a(Va
VDT
tp1241
a(Vhill
VNN
tp1242
a(Von
VIN
tp1243
a(Vthe
VDT
tp1244
a(Voutskirts
VNNS
tp1245
a(Vof
VIN
tp1246
a(Vthe
VDT
tp1247
a(Vtown
VNN
tp1248
a(V.
V.
tp1249
aa(lp1250
(VAll
VPDT
tp1251
a(Vthe
VDT
tp1252
a(Vrelevant
VJJ
tp1253
a(Vinformation
VNN
tp1254
a(Vis
VVBZ
tp1255
a(V,
V,
tp1256
a(Vof
VIN
tp1257
a(Vcourse
VNN
tp1258
a(V,
V,
tp1259
a(Vavailable
VJJ
tp1260
a(Von
VIN
tp1261
a(Vthe
VDT
tp1262
a(VInternet
VNN
tp1263
a(V,
V,
tp1264
a(Vat
VIN
tp1265
a(Vhttp
VNN
tp1266
a(V:
V:
tp1267
a(V/
V:
tp1268
a(V/
V:
tp1269
a(Vwww.interculturaldialog2008EU
VNN
tp1270
a(V&quot;
VNN
tp1271
aa(lp1272
(VNevertheless
VRB
tp1273
a(V,
V,
tp1274
a(VMahmoud
VNNP
tp1275
a(VAbbas
VNNP
tp1276
a(Vmust
VMD
tp1277
a(Vgo
VVB
tp1278
a(Vfor
VIN
tp1279
a(Vreal
VJJ
tp1280
a(Vdemocracy
VNN
tp1281
a(V,
V,
tp1282
a(Vfor
VIN
tp1283
a(Vpolitical
VJJ
tp1284
a(Vparty
VNN
tp1285
a(Vcongress
VNN
tp1286
a(Vand
VCC
tp1287
a(Vfor
VIN
tp1288
a(Vwork
VNN
tp1289
a(Vwith
VIN
tp1290
a(Vyoung
VJJ
tp1291
a(VFatah
VNNP
tp1292
a(V.
V.
tp1293
aa(lp1294
(VThis
VDT
tp1295
a(Vall
VDT
tp1296
a(Vmeans
VVBZ
tp1297
a(Vthat
VIN
tp1298
a(Vthe
VDT
tp1299
a(VIsraelis
VNNPS
tp1300
a(Vdo
VVBP
tp1301
a(Vnot
VRB
tp1302
a(Vmake
VVB
tp1303
a(Va
VDT
tp1304
a(Vlogical
VJJ
tp1305
a(Vconnection
VNN
tp1306
a(Vbetween
VIN
tp1307
a(Vthe
VDT
tp1308
a(Vpeace
VNN
tp1309
a(Vprocess
VNN
tp1310
a(Vand
VCC
tp1311
a(Vtheir
VPRP$
tp1312
a(Vown
VJJ
tp1313
a(Vpersonal
VJJ
tp1314
a(Vsecurity
VNN
tp1315
a(V.
V.
tp1316
aa(lp1317
(VThis
VDT
tp1318
a(Vshould
VMD
tp1319
a(Vbe
VVB
tp1320
a(Vguaranteed
VVBN
tp1321
a(Vby
VIN
tp1322
a(Vlaw
VNN
tp1323
a(V.
V.
tp1324
aa(lp1325
(VWe
VPRP
tp1326
a(Vhave
VVBP
tp1327
a(Va
VDT
tp1328
a(Vlot
VNN
tp1329
a(Vof
VIN
tp1330
a(Vprogrammes
VNNS
tp1331
a(Vin
VIN
tp1332
a(Vorder
VNN
tp1333
a(Vto
VTO
tp1334
a(Vachieve
VVB
tp1335
a(Vthat
VDT
tp1336
a(V.
V.
tp1337
aa(lp1338
(VHe
VPRP
tp1339
a(Vspoke
VVBD
tp1340
a(Vabout
VIN
tp1341
a(Vthe
VDT
tp1342
a(Vreal
VJJ
tp1343
a(Vculprits
VNNS
tp1344
a(V,
V,
tp1345
a(Vthe
VDT
tp1346
a(Vorganizers
VNNS
tp1347
a(V.
V.
tp1348
aa(lp1349
(VBecause
VIN
tp1350
a(Vthey
VPRP
tp1351
a(Vcannot
VVBP
tp1352
a(Vuse
VNN
tp1353
a(VSmoltine
VNN
tp1354
a(V,
V,
tp1355
a(Vwhich
VWDT
tp1356
a(Vdeals
VVBZ
tp1357
a(Vwith
VIN
tp1358
a(Vtransferring
VVBG
tp1359
a(Vthe
VDT
tp1360
a(Vfish
VNN
tp1361
a(Vfrom
VIN
tp1362
a(Vfresh
VJJ
tp1363
a(Vwater
VNN
tp1364
a(Vto
VTO
tp1365
a(Vsalt
VNN
tp1366
a(Vwater
VNN
tp1367
a(V,
V,
tp1368
a(Vthey
VPRP
tp1369
a(Vhave
VVBP
tp1370
a(Vto
VTO
tp1371
a(Vuse
VVB
tp1372
a(Vhydrogen
VNN
tp1373
a(Vperoxide
VNN
tp1374
a(V,
V,
tp1375
a(Vwhich
VWDT
tp1376
a(Vis
VVBZ
tp1377
a(Vvery
VRB
tp1378
a(Vcostly
VJJ
tp1379
a(Vand
VCC
tp1380
a(Vhas
VVBZ
tp1381
a(Vvery
VRB
tp1382
a(Vserious
VJJ
tp1383
a(Veffects
VNNS
tp1384
a(Von
VIN
tp1385
a(Vthe
VDT
tp1386
a(Vlife
VNN
tp1387
a(Vof
VIN
tp1388
a(Vthe
VDT
tp1389
a(Vfish
VNN
tp1390
a(V.
V.
tp1391
aa(lp1392
(VThere
VEX
tp1393
a(Vappears
VVBZ
tp1394
a(Vto
VTO
tp1395
a(Vbe
VVB
tp1396
a(Vthe
VDT
tp1397
a(Vpresumption
VNN
tp1398
a(Vthat
VIN
tp1399
a(Vit
VPRP
tp1400
a(Vis
VVBZ
tp1401
a(Valso
VRB
tp1402
a(Vpossible
VJJ
tp1403
a(Vto
VTO
tp1404
a(Vtrick
VVB
tp1405
a(Vone
VCD
tp1406
a(V\u2019
VCD
tp1407
a(Vs
VNNS
tp1408
a(Vway
VNN
tp1409
a(Vinto
VIN
tp1410
a(Vmembership
VNN
tp1411
a(Vof
VIN
tp1412
a(Vthe
VDT
tp1413
a(VEuropean
VNNP
tp1414
a(VUnion
VNNP
tp1415
a(V.
V.
tp1416
aa(lp1417
(VThe
VDT
tp1418
a(Vclimate
VNN
tp1419
a(Vis
VVBZ
tp1420
a(Vchanging
VVBG
tp1421
a(V.
V.
tp1422
aa(lp1423
(VEven
VRB
tp1424
a(Va
VDT
tp1425
a(Vtunnel
VNN
tp1426
a(Vunder
VIN
tp1427
a(VAustria
VNNP
tp1428
a(Vwould
VMD
tp1429
a(Vnot
VRB
tp1430
a(Vhelp
VVB
tp1431
a(Vif
VIN
tp1432
a(Vit
VPRP
tp1433
a(Vwere
VVBD
tp1434
a(Vcheaper
VJJR
tp1435
a(Vto
VTO
tp1436
a(Vtravel
VVB
tp1437
a(Vthrough
VIN
tp1438
a(Vthe
VDT
tp1439
a(Vcountry
VNN
tp1440
a(Vabove
VIN
tp1441
a(Vground
VNN
tp1442
a(V.
V.
tp1443
aa(lp1444
(VYou
VPRP
tp1445
a(Vare
VVBP
tp1446
a(Vgoing
VVBG
tp1447
a(Vto
VTO
tp1448
a(VChina
VNNP
tp1449
a(Vto
VTO
tp1450
a(Vattend
VVB
tp1451
a(Vthe
VDT
tp1452
a(Vopening
VNN
tp1453
a(Vof
VIN
tp1454
a(Vthe
VDT
tp1455
a(VOlympic
VNNP
tp1456
a(VGames
VNNPS
tp1457
a(Vwith
VIN
tp1458
a(Vthe
VDT
tp1459
a(VChinese
VNNP
tp1460
a(VPresident
VNNP
tp1461
a(V.
V.
tp1462
aa(lp1463
(VIn
VIN
tp1464
a(Vshort
VJJ
tp1465
a(V,
V,
tp1466
a(Vit
VPRP
tp1467
a(Vis
VVBZ
tp1468
a(Vunacceptable
VJJ
tp1469
a(Vto
VTO
tp1470
a(Vplay
VVB
tp1471
a(Von
VIN
tp1472
a(Vsocial
VJJ
tp1473
a(Vdisparities
VNNS
tp1474
a(V.
V.
tp1475
aa(lp1476
(VIf
VIN
tp1477
a(Vwe
VPRP
tp1478
a(Vdid
VVBD
tp1479
a(V,
V,
tp1480
a(Vwe
VPRP
tp1481
a(Vwould
VMD
tp1482
a(Vbe
VVB
tp1483
a(Vmuch
VRB
tp1484
a(Vbetter
VJJR
tp1485
a(Voff
VRP
tp1486
a(V!
V.
tp1487
aa(lp1488
(VBe
VVB
tp1489
a(Vrealistic
VJJ
tp1490
a(Vand
VCC
tp1491
a(Vcorrect
VJJ
tp1492
a(V,
V,
tp1493
a(Vthat
VDT
tp1494
a(Vis
VVBZ
tp1495
a(Vmy
VPRP$
tp1496
a(Vproposal
VNN
tp1497
a(V.
V.
tp1498
aa(lp1499
(VIf
VIN
tp1500
a(Vthey
VPRP
tp1501
a(Vare
VVBP
tp1502
a(Vsubjected
VVBN
tp1503
a(Vto
VTO
tp1504
a(Vhuman
VJJ
tp1505
a(Vrights
VNNS
tp1506
a(Vviolations
VNNS
tp1507
a(Vthese
VDT
tp1508
a(Voften
VRB
tp1509
a(Vgo
VVBP
tp1510
a(Vunpunished
VJJ
tp1511
a(V.
V.
tp1512
aa(lp1513
(VHowever
VRB
tp1514
a(V,
V,
tp1515
a(Vif
VIN
tp1516
a(Vthe
VDT
tp1517
a(Vmoney
VNN
tp1518
a(Vraised
VVBN
tp1519
a(Vis
VVBZ
tp1520
a(Vdistributed
VVBN
tp1521
a(Vto
VTO
tp1522
a(Vthe
VDT
tp1523
a(Vclubs
VNNS
tp1524
a(Vwhich
VWDT
tp1525
a(Vprovide
VVBP
tp1526
a(Veducation
VNN
tp1527
a(Vand
VCC
tp1528
a(Vtraining
VNN
tp1529
a(Vto
VTO
tp1530
a(Vyoungsters
VNNS
tp1531
a(V,
V,
tp1532
a(Vthis
VDT
tp1533
a(Vaction
VNN
tp1534
a(Vis
VVBZ
tp1535
a(Vin
VIN
tp1536
a(Vthe
VDT
tp1537
a(Vcollective
VJJ
tp1538
a(Vinterest
VNN
tp1539
a(Vand
VCC
tp1540
a(Van
VDT
tp1541
a(Vexemption
VNN
tp1542
a(Vfrom
VIN
tp1543
a(Vthe
VDT
tp1544
a(Vrules
VNNS
tp1545
a(Von
VIN
tp1546
a(Vcompetition
VNN
tp1547
a(Vis
VVBZ
tp1548
a(Vallowed
VVBN
tp1549
a(V.
V.
tp1550
aa(lp1551
(VI
VPRP
tp1552
a(Vwish
VVBP
tp1553
a(Vto
VTO
tp1554
a(Vmake
VVB
tp1555
a(Vthat
VDT
tp1556
a(Vvery
VRB
tp1557
a(Vclear
VJJ
tp1558
a(Vto
VTO
tp1559
a(Vyou
VPRP
tp1560
a(V.
V.
tp1561
aa(lp1562
(VWe
VPRP
tp1563
a(Vwould
VMD
tp1564
a(Veven
VRB
tp1565
a(Vgo
VVB
tp1566
a(Va
VDT
tp1567
a(Vstep
VNN
tp1568
a(Vfurther
VRBR
tp1569
a(Vin
VIN
tp1570
a(Vsome
VDT
tp1571
a(Vareas
VNNS
tp1572
a(V.
V.
tp1573
aa(lp1574
(VBefore
VIN
tp1575
a(Vthe
VDT
tp1576
a(Vrevolution
VNN
tp1577
a(Vof
VIN
tp1578
a(Vthe
VDT
tp1579
a(Vinformation
VNN
tp1580
a(Vsociety
VNN
tp1581
a(V,
V,
tp1582
a(Vknowledge
VNN
tp1583
a(Vand
VCC
tp1584
a(Vinformation
VNN
tp1585
a(Vwere
VVBD
tp1586
a(Valmost
VRB
tp1587
a(Ventirely
VRB
tp1588
a(Vgained
VVBN
tp1589
a(Vat
VIN
tp1590
a(Vschool
VNN
tp1591
a(V.
V.
tp1592
aa(lp1593
(VHow
VWRB
tp1594
a(Vare
VVBP
tp1595
a(Vwe
VPRP
tp1596
a(Vmeant
VVBD
tp1597
a(Vto
VTO
tp1598
a(Vfunction
VVB
tp1599
a(Vin
VIN
tp1600
a(Vthis
VDT
tp1601
a(Vway
VNN
tp1602
a(V?
V.
tp1603
aa(lp1604
(VWe
VPRP
tp1605
a(Vhave
VVBP
tp1606
a(V,
V,
tp1607
a(Vhowever
VRB
tp1608
a(V,
V,
tp1609
a(Vconcerns
VNNS
tp1610
a(Vabout
VIN
tp1611
a(Vsome
VDT
tp1612
a(Vof
VIN
tp1613
a(Vthe
VDT
tp1614
a(Vother
VJJ
tp1615
a(Vamendments
VNNS
tp1616
a(Vwhich
VWDT
tp1617
a(Vhave
VVBP
tp1618
a(Vbeen
VVBN
tp1619
a(Vvoted
VVBN
tp1620
a(V.
V.
tp1621
aa(lp1622
(VWe
VPRP
tp1623
a(Vwelcome
VVBP
tp1624
a(Vthe
VDT
tp1625
a(Vpostponement
VNN
tp1626
a(Vof
VIN
tp1627
a(Vthe
VDT
tp1628
a(Vtrial
VNN
tp1629
a(Vto
VTO
tp1630
a(V30
VCD
tp1631
a(VMarch
VNNP
tp1632
a(Vto
VTO
tp1633
a(Vgive
VVB
tp1634
a(Vthe
VDT
tp1635
a(Vdefence
VNN
tp1636
a(Vmore
VJJR
tp1637
a(Vtime
VNN
tp1638
a(Vto
VTO
tp1639
a(Vprepare
VVB
tp1640
a(Vits
VPRP$
tp1641
a(Vcase
VNN
tp1642
a(V.
V.
tp1643
aa(lp1644
(VThere
VEX
tp1645
a(Vare
VVBP
tp1646
a(Vnow
VRB
tp1647
a(V700
VCD
tp1648
a(Vmillion
VCD
tp1649
a(Vcars
VNNS
tp1650
a(Vin
VIN
tp1651
a(Vthe
VDT
tp1652
a(Vworld
VNN
tp1653
a(Vat
VIN
tp1654
a(Va
VDT
tp1655
a(Vtime
VNN
tp1656
a(Vwhen
VWRB
tp1657
a(Voil
VNN
tp1658
a(Vprices
VNNS
tp1659
a(Vare
VVBP
tp1660
a(Vat
VIN
tp1661
a(V100
VCD
tp1662
a(Vdollars
VNNS
tp1663
a(V.
V.
tp1664
aa(lp1665
(VIt
VPRP
tp1666
a(Vis
VVBZ
tp1667
a(Vbelieved
VVBN
tp1668
a(Vthat
VIN
tp1669
a(Vcosts
VNNS
tp1670
a(Vcan
VMD
tp1671
a(Vbe
VVB
tp1672
a(Vreduced
VVBN
tp1673
a(Vby
VIN
tp1674
a(Vthe
VDT
tp1675
a(Vuse
VNN
tp1676
a(Vof
VIN
tp1677
a(Vfewer
VJJR
tp1678
a(Vstaff
VNN
tp1679
a(V,
V,
tp1680
a(Vand
VCC
tp1681
a(Vunder
VIN
tp1682
a(Vpoorer
VJJR
tp1683
a(Vworking
VNN
tp1684
a(Vconditions
VNNS
tp1685
a(V.
V.
tp1686
aa(lp1687
(VMassive
VJJ
tp1688
a(Veconomic
VJJ
tp1689
a(Vopportunities
VNNS
tp1690
a(Vexist
VVBP
tp1691
a(Vfor
VIN
tp1692
a(Vboth
VDT
tp1693
a(Vparties
VNNS
tp1694
a(Vto
VTO
tp1695
a(Vgrow
VVB
tp1696
a(Vand
VCC
tp1697
a(Vtake
VVB
tp1698
a(Vadvantage
VNN
tp1699
a(Vof
VIN
tp1700
a(Vnew
VJJ
tp1701
a(Vmarkets
VNNS
tp1702
a(V.
V.
tp1703
aa(lp1704
(VAs
VIN
tp1705
a(Vwe
VPRP
tp1706
a(Vall
VDT
tp1707
a(Vknow
VVBP
tp1708
a(V,
V,
tp1709
a(Vin
VIN
tp1710
a(VJanuary
VNNP
tp1711
a(V2009
VCD
tp1712
a(Vthe
VDT
tp1713
a(VIraqi
VJJ
tp1714
a(VGovernment
VNN
tp1715
a(Vtook
VVBD
tp1716
a(Vback
VRB
tp1717
a(Vcontrol
VNN
tp1718
a(Vof
VIN
tp1719
a(Vthat
VDT
tp1720
a(Varea
VNN
tp1721
a(V.
V.
tp1722
aa(lp1723
(VBecause
VIN
tp1724
a(Vthere
VEX
tp1725
a(Vwere
VVBD
tp1726
a(V3
VCD
tp1727
a(V500
VCD
tp1728
a(Vmiscarriages
VNNS
tp1729
a(Vimmediately
VRB
tp1730
a(Vafter
VIN
tp1731
a(VChernobyl
VNNP
tp1732
a(Vand
VCC
tp1733
a(Vwe
VPRP
tp1734
a(Vlost
VVBD
tp1735
a(Va
VDT
tp1736
a(Vlot
VNN
tp1737
a(Vof
VIN
tp1738
a(Vchildren
VNNS
tp1739
a(Vwho
VWP
tp1740
a(Vcould
VMD
tp1741
a(Vhave
VVB
tp1742
a(Vbeen
VVBN
tp1743
a(Vin
VIN
tp1744
a(Vthe
VDT
tp1745
a(Varmy
VNN
tp1746
a(Vtoday
VNN
tp1747
a(V.
V.
tp1748
aa(lp1749
(VThe
VDT
tp1750
a(VCommission
VNNP
tp1751
a(Vagrees
VVBZ
tp1752
a(Vthat
VIN
tp1753
a(Vthey
VPRP
tp1754
a(Vcan
VMD
tp1755
a(Vgo
VVB
tp1756
a(Vhand-in-hand
VRB
tp1757
a(V,
V,
tp1758
a(Vthough
VIN
tp1759
a(Vthis
VDT
tp1760
a(Vdoes
VVBZ
tp1761
a(Vnot
VRB
tp1762
a(Vmean
VVB
tp1763
a(Vthat
VIN
tp1764
a(Vthey
VPRP
tp1765
a(Vhave
VVBP
tp1766
a(Vto
VTO
tp1767
a(Vbe
VVB
tp1768
a(Vintegrated
VVBN
tp1769
a(V.
V.
tp1770
aa(lp1771
(VIf
VIN
tp1772
a(Vit
VPRP
tp1773
a(Vgoes
VVBZ
tp1774
a(Vthrough
VIN
tp1775
a(V,
V,
tp1776
a(Vit
VPRP
tp1777
a(Vis
VVBZ
tp1778
a(Vbound
VVBN
tp1779
a(Vto
VTO
tp1780
a(Vhave
VVB
tp1781
a(Van
VDT
tp1782
a(Vimpact
VNN
tp1783
a(Von
VIN
tp1784
a(Vour
VPRP$
tp1785
a(Valready
VRB
tp1786
a(Vdifficult
VJJ
tp1787
a(Vrelationship
VNN
tp1788
a(Vwith
VIN
tp1789
a(VRussia
VNNP
tp1790
a(V.
V.
tp1791
aa(lp1792
(VOur
VPRP$
tp1793
a(Vcolleague
VNN
tp1794
a(Vtold
VVBD
tp1795
a(Vus
VPRP
tp1796
a(Vyesterday
VNN
tp1797
a(Vthat
VIN
tp1798
a(Vit
VPRP
tp1799
a(Vwas
VVBD
tp1800
a(Va
VDT
tp1801
a(Vprivate
VJJ
tp1802
a(Vphotograph
VNN
tp1803
a(V.
V.
tp1804
aa.