(lp1
(lp2
(VFinally
VRB
tp3
a(V,
V,
tp4
a(VI
VPRP
tp5
a(Vmust
VMD
tp6
a(Vmake
VVB
tp7
a(Vit
VPRP
tp8
a(Vclear
VJJ
tp9
a(Vthat
VIN
tp10
a(Vthis
VDT
tp11
a(Vamendment
VNN
tp12
a(Vhas
VVBZ
tp13
a(Vno
VDT
tp14
a(Vimpact
VNN
tp15
a(Von
VIN
tp16
a(Vthe
VDT
tp17
a(VEuropean
VNNP
tp18
a(VUnion
VNNP
tp19
a(Vbudget
VNN
tp20
a(V.
V.
tp21
aa(lp22
(VWe
VPRP
tp23
a(Vchallenge
VVBP
tp24
a(Vits
VPRP$
tp25
a(Videological
VJJ
tp26
a(Vfoundations
VNNS
tp27
a(V.
V.
tp28
aa(lp29
(VThis
VDT
tp30
a(Vis
VVBZ
tp31
a(Van
VDT
tp32
a(Varea
VNN
tp33
a(Vin
VIN
tp34
a(Vwhich
VWDT
tp35
a(VParliament
VNNP
tp36
a(Vhas
VVBZ
tp37
a(Vquite
VRB
tp38
a(Vrightly
VRB
tp39
a(Vtaken
VVBN
tp40
a(Va
VDT
tp41
a(Vparticularly
VRB
tp42
a(Vstrong
VJJ
tp43
a(Vinterest
VNN
tp44
a(V.
V.
tp45
aa(lp46
(VIt
VPRP
tp47
a(Vshows
VVBZ
tp48
a(Vhigher
VJJR
tp49
a(Vgrowth
VNN
tp50
a(Vthan
VIN
tp51
a(Vthe
VDT
tp52
a(Veconomy
VNN
tp53
a(Vin
VIN
tp54
a(Vgeneral
VJJ
tp55
a(Vand
VCC
tp56
a(Vover
VIN
tp57
a(Vfive
VCD
tp58
a(Vmillion
VCD
tp59
a(Vpeople
VNNS
tp60
a(Vare
VVBP
tp61
a(Vemployed
VVBN
tp62
a(Vin
VIN
tp63
a(Vit
VPRP
tp64
a(V.
V.
tp65
aa(lp66
(VNor
VCC
tp67
a(Vcan
VMD
tp68
a(Vwe
VPRP
tp69
a(Vsupport
VVB
tp70
a(Vduties
VNNS
tp71
a(Vaffording
VVBG
tp72
a(Vprotection
VNN
tp73
a(Vagainst
VIN
tp74
a(Vthe
VDT
tp75
a(Vdeveloping
VVBG
tp76
a(Vworld
VNN
tp77
a(V.
V.
tp78
aa(lp79
(VSadly
VRB
tp80
a(Vthe
VDT
tp81
a(Vpersecution
VNN
tp82
a(Vof
VIN
tp83
a(Vreligious
VJJ
tp84
a(Vminorities
VNNS
tp85
a(Vand
VCC
tp86
a(Vhuman
VJJ
tp87
a(Vrights
VNNS
tp88
a(Vdefenders
VNNS
tp89
a(Vin
VIN
tp90
a(VIndia
VNNP
tp91
a(Vcontinues
VVBZ
tp92
a(Vto
VTO
tp93
a(Vbe
VVB
tp94
a(Vreported
VVBN
tp95
a(Vby
VIN
tp96
a(Vthe
VDT
tp97
a(Vinternational
VJJ
tp98
a(Vpress
VNN
tp99
a(V.
V.
tp100
aa(lp101
(VLocal
VJJ
tp102
a(Vpeople
VNNS
tp103
a(Voften
VRB
tp104
a(Vask
VVBP
tp105
a(Vme
VPRP
tp106
a(Vwhat
VWP
tp107
a(Vthe
VDT
tp108
a(VEU
VNNP
tp109
a(Vis
VVBZ
tp110
a(Vgoing
VVBG
tp111
a(Vto
VTO
tp112
a(Vdo
VVB
tp113
a(Vabout
VIN
tp114
a(Vit
VPRP
tp115
a(V.
V.
tp116
aa(lp117
(VIt
VPRP
tp118
a(Vis
VVBZ
tp119
a(Vnot
VRB
tp120
a(Vvery
VRB
tp121
a(Vnormal
VJJ
tp122
a(Vin
VIN
tp123
a(Vdemocratic
VJJ
tp124
a(Vcountries
VNNS
tp125
a(Vfor
VIN
tp126
a(Va
VDT
tp127
a(Vconsultation
VNN
tp128
a(Vprocess
VNN
tp129
a(Vto
VTO
tp130
a(Vlast
VVB
tp131
a(Vonly
VRB
tp132
a(Vfive
VCD
tp133
a(Vweeks
VNNS
tp134
a(V.
V.
tp135
aa(lp136
(VThat
VDT
tp137
a(Vshould
VMD
tp138
a(Vgive
VVB
tp139
a(Vthe
VDT
tp140
a(Vother
VJJ
tp141
a(Vinstitutions
VNNS
tp142
a(Vsomething
VNN
tp143
a(Vto
VTO
tp144
a(Vthink
VVB
tp145
a(Vabout
VRB
tp146
a(V.
V.
tp147
aa(lp148
(VWhat
VWP
tp149
a(Vthe
VDT
tp150
a(VGovernment
VNN
tp151
a(Vleaders
VNNS
tp152
a(Vand
VCC
tp153
a(Vpoliticians
VNNS
tp154
a(Vneed
VVBP
tp155
a(Vis
VVBZ
tp156
a(Vto
VTO
tp157
a(Vaddress
VVB
tp158
a(Vthe
VDT
tp159
a(Vsituation
VNN
tp160
a(Vwith
VIN
tp161
a(Vimagination
VNN
tp162
a(Vand
VCC
tp163
a(Vconcrete
VJJ
tp164
a(Vmeasures
VNNS
tp165
a(V.
V.
tp166
aa(lp167
(VI
VPRP
tp168
a(Vhave
VVBP
tp169
a(Vbeen
VVBN
tp170
a(Vprevented
VVBN
tp171
a(Vfrom
VIN
tp172
a(Vtaking
VVBG
tp173
a(Vpart
VNN
tp174
a(Vin
VIN
tp175
a(Vat
VIN
tp176
a(Vleast
VJJS
tp177
a(Vfive
VCD
tp178
a(Vroll-call
VNN
tp179
a(Vvotes
VNNS
tp180
a(Vtoday
VNN
tp181
a(V,
V,
tp182
a(Vand
VCC
tp183
a(VI
VPRP
tp184
a(Vwant
VVBP
tp185
a(Vthis
VDT
tp186
a(Vto
VTO
tp187
a(Vbe
VVB
tp188
a(Vnoted
VVBN
tp189
a(Vspecifically
VRB
tp190
a(V.
V.
tp191
aa(lp192
(VSimilarly
VRB
tp193
a(V,
V,
tp194
a(Va
VDT
tp195
a(Vyear
VNN
tp196
a(Vago
VIN
tp197
a(Vthey
VPRP
tp198
a(Vcreated
VVBD
tp199
a(Vthe
VDT
tp200
a(VMexico
VNNP
tp201
a(Vcrisis
VNN
tp202
a(Veven
VRB
tp203
a(Vthough
VIN
tp204
a(VMexico
VNNP
tp205
a(Vimplemented
VVBD
tp206
a(Vall
VPDT
tp207
a(Vthe
VDT
tp208
a(Vrules
VNNS
tp209
a(Vthey
VPRP
tp210
a(Vhad
VVBD
tp211
a(Vdictated
VVBN
tp212
a(Vto
VTO
tp213
a(Vit
VPRP
tp214
a(V.
V.
tp215
aa(lp216
(VUnfortunately
VRB
tp217
a(V,
V,
tp218
a(Vtime
VNN
tp219
a(Vdoes
VVBZ
tp220
a(Vnot
VRB
tp221
a(Vpermit
VVB
tp222
a(Vme
VPRP
tp223
a(Vto
VTO
tp224
a(Vdo
VVB
tp225
a(Vso
VRB
tp226
a(V.
V.
tp227
aa(lp228
(VI
VPRP
tp229
a(Vcan
VMD
tp230
a(Vtell
VVB
tp231
a(Vyou
VPRP
tp232
a(Vthat
VIN
tp233
a(VI
VPRP
tp234
a(Vmyself
VPRP
tp235
a(Vam
VVBP
tp236
a(Vby
VIN
tp237
a(Vno
VDT
tp238
a(Vmeans
VNNS
tp239
a(Vany
VDT
tp240
a(Vsuch
VJJ
tp241
a(Vthing
VNN
tp242
a(V,
V,
tp243
a(Vand
VCC
tp244
a(VI
VPRP
tp245
a(Vcan
VMD
tp246
a(Vsay
VVB
tp247
a(Vthis
VDT
tp248
a(Vafter
VIN
tp249
a(Vhaving
VVBG
tp250
a(Vtried
VVBN
tp251
a(Von
VIN
tp252
a(Vmany
VJJ
tp253
a(Voccasions
VNNS
tp254
a(Vto
VTO
tp255
a(Vget
VVB
tp256
a(Vthings
VNNS
tp257
a(Vmoving
VVBG
tp258
a(Vin
VIN
tp259
a(VSouth
VNNP
tp260
a(VAfrica
VNNP
tp261
a(V.
V.
tp262
aa(lp263
(VYou
VPRP
tp264
a(Vare
VVBP
tp265
a(Vaware
VJJ
tp266
a(Vthat
VIN
tp267
a(V,
V,
tp268
a(Vfor
VIN
tp269
a(Vbeneficiaries
VNNS
tp270
a(Vto
VTO
tp271
a(Vtake
VVB
tp272
a(Vpossession
VNN
tp273
a(Vof
VIN
tp274
a(Van
VDT
tp275
a(Vestate
VNN
tp276
a(V,
V,
tp277
a(Vthey
VPRP
tp278
a(Vcurrently
VRB
tp279
a(Vhave
VVBP
tp280
a(Vto
VTO
tp281
a(Vstart
VVB
tp282
a(Vproceedings
VNNS
tp283
a(Vin
VIN
tp284
a(Vall
VPDT
tp285
a(Vthe
VDT
tp286
a(Vcountries
VNNS
tp287
a(Vwhere
VWRB
tp288
a(Vthe
VDT
tp289
a(Vproperty
VNN
tp290
a(Vis
VVBZ
tp291
a(Vlocated
VJJ
tp292
a(V.
V.
tp293
aa(lp294
(VIn
VIN
tp295
a(Vclosing
VNN
tp296
a(V,
V,
tp297
a(VI
VPRP
tp298
a(Vwould
VMD
tp299
a(Vlike
VVB
tp300
a(Vto
VTO
tp301
a(Vmention
VVB
tp302
a(Vthat
VIN
tp303
a(VMrs
VNNP
tp304
a(VGeringer
VNNP
tp305
a(V&apos;s
VVBZ
tp306
a(Vreport
VNN
tp307
a(Valso
VRB
tp308
a(Vsupports
VVBZ
tp309
a(Vcommon
VJJ
tp310
a(Vcontact
VNN
tp311
a(Vpoints
VNNS
tp312
a(Vto
VTO
tp313
a(Vguide
VVB
tp314
a(Vcitizens
VNNS
tp315
a(V.
V.
tp316
aa(lp317
(VGiven
VVBN
tp318
a(Vthe
VDT
tp319
a(Vincubation
VNN
tp320
a(Vperiod
VNN
tp321
a(Vof
VIN
tp322
a(Vthis
VDT
tp323
a(Vdisease
VNN
tp324
a(Vthe
VDT
tp325
a(Vimpact
VNN
tp326
a(Vof
VIN
tp327
a(Vthis
VDT
tp328
a(Vmeasure
VNN
tp329
a(Vis
VVBZ
tp330
a(Vnot
VRB
tp331
a(Vyet
VRB
tp332
a(Vfully
VRB
tp333
a(Vapparent
VJJ
tp334
a(V.
V.
tp335
aa(lp336
(VI
VPRP
tp337
a(Vam
VVBP
tp338
a(Va
VDT
tp339
a(VMember
VNNP
tp340
a(Vfrom
VIN
tp341
a(VEastern
VNNP
tp342
a(VSlovakia
VNNP
tp343
a(V,
V,
tp344
a(Vfrom
VIN
tp345
a(Vone
VCD
tp346
a(Vof
VIN
tp347
a(Vthe
VDT
tp348
a(Vregions
VNNS
tp349
a(Vthat
VWDT
tp350
a(Vare
VVBP
tp351
a(Vfar
VRB
tp352
a(Vbelow
VIN
tp353
a(Vthe
VDT
tp354
a(VEU
VNNP
tp355
a(Vaverage
VNN
tp356
a(V.
V.
tp357
aa(lp358
(VReports
VNNS
tp359
a(Vhave
VVBP
tp360
a(Vshown
VVBN
tp361
a(Vthat
VIN
tp362
a(Vup
VRB
tp363
a(Vto
VTO
tp364
a(V90
VCD
tp365
a(V%
VNN
tp366
a(Vof
VIN
tp367
a(Vthe
VDT
tp368
a(Vpeople
VNNS
tp369
a(Vdiagnosed
VVBD
tp370
a(Vwith
VIN
tp371
a(Vbreast
VNN
tp372
a(Vcancer
VNN
tp373
a(Vcan
VMD
tp374
a(Vbe
VVB
tp375
a(Vcured
VVBN
tp376
a(Vif
VIN
tp377
a(Vthey
VPRP
tp378
a(Vare
VVBP
tp379
a(Vdiagnosed
VVBN
tp380
a(Vearly
VRB
tp381
a(Venough
VRB
tp382
a(V.
V.
tp383
aa(lp384
(VHowever
VRB
tp385
a(V,
V,
tp386
a(VSwitzerland
VNNP
tp387
a(Vhas
VVBZ
tp388
a(V,
V,
tp389
a(Vfor
VIN
tp390
a(Va
VDT
tp391
a(Vlong
VJJ
tp392
a(Vtime
VNN
tp393
a(V,
V,
tp394
a(Vshown
VVBN
tp395
a(Vinterest
VNN
tp396
a(Vin
VIN
tp397
a(Vour
VPRP$
tp398
a(Veducation
VNN
tp399
a(Vand
VCC
tp400
a(Vyouth
VNN
tp401
a(Vprogrammes
VNNS
tp402
a(V.
V.
tp403
aa(lp404
(VDisplaying
VVBG
tp405
a(Vthese
VDT
tp406
a(Vsymbols
VNNS
tp407
a(Vat
VIN
tp408
a(Vall
VDT
tp409
a(Vlevels
VNNS
tp410
a(Vand
VCC
tp411
a(Vin
VIN
tp412
a(Vall
VDT
tp413
a(Vinstitutional
VJJ
tp414
a(Vareas
VNNS
tp415
a(Vwill
VMD
tp416
a(Vensure
VVB
tp417
a(Vthat
VIN
tp418
a(Vthere
VEX
tp419
a(Vis
VVBZ
tp420
a(Va
VDT
tp421
a(Vconstant
VJJ
tp422
a(Vreminder
VNN
tp423
a(Vof
VIN
tp424
a(Vthe
VDT
tp425
a(Vvalues
VNNS
tp426
a(Vthat
VWDT
tp427
a(Vinspire
VVBP
tp428
a(VEurope
VNNP
tp429
a(V.
V.
tp430
aa(lp431
(VEurope
VNNP
tp432
a(Vis
VVBZ
tp433
a(Vageing
VJJ
tp434
a(Vand
VCC
tp435
a(Vdue
VJJ
tp436
a(Vto
VTO
tp437
a(Vthe
VDT
tp438
a(Vworsening
VNN
tp439
a(Vof
VIN
tp440
a(Vthe
VDT
tp441
a(Vdemographic
VJJ
tp442
a(Vsituation
VNN
tp443
a(Vand
VCC
tp444
a(Vthe
VDT
tp445
a(Vdeclining
VVBG
tp446
a(Vbirth
VNN
tp447
a(Vrate
VNN
tp448
a(V,
V,
tp449
a(Vthe
VDT
tp450
a(Vnumber
VNN
tp451
a(Vof
VIN
tp452
a(Vpeople
VNNS
tp453
a(Vof
VIN
tp454
a(Vretirement
VNN
tp455
a(Vage
VNN
tp456
a(Vis
VVBZ
tp457
a(Vconstantly
VRB
tp458
a(Vrising
VVBG
tp459
a(V.
V.
tp460
aa(lp461
(VNow
VRB
tp462
a(V,
V,
tp463
a(VMr
VNNP
tp464
a(VSterckx
VNNP
tp465
a(Vwas
VVBD
tp466
a(Vdressed
VVBN
tp467
a(Vas
VIN
tp468
a(Va
VDT
tp469
a(Vcyclist
VNN
tp470
a(V.
V.
tp471
aa(lp472
(VThis
VDT
tp473
a(Vwas
VVBD
tp474
a(Valso
VRB
tp475
a(Vthe
VDT
tp476
a(Vcase
VNN
tp477
a(Vin
VIN
tp478
a(V1990
VCD
tp479
a(V,
V,
tp480
a(Vwhen
VWRB
tp481
a(Vyour
VPRP$
tp482
a(Vcurrent
VJJ
tp483
a(Vgroup
VNN
tp484
a(VPresident
VNNP
tp485
a(Vwas
VVBD
tp486
a(Vthe
VDT
tp487
a(VPresident
VNNP
tp488
a(Vof
VIN
tp489
a(VParliament
VNNP
tp490
a(V.
V.
tp491
aa(lp492
(VDid
VVBD
tp493
a(Vit
VPRP
tp494
a(Vcry
VVB
tp495
a(Vout
VRP
tp496
a(Vwhen
VWRB
tp497
a(VAlbanians
VNNS
tp498
a(Vwere
VVBD
tp499
a(Vtaken
VVBN
tp500
a(Vprisoner
VNN
tp501
a(Vevery
VDT
tp502
a(Vday
VNN
tp503
a(V,
V,
tp504
a(Vwhen
VWRB
tp505
a(VAlbanians
VNNS
tp506
a(Vwere
VVBD
tp507
a(Vtortured
VJJ
tp508
a(Vevery
VDT
tp509
a(Vday
VNN
tp510
a(V?
V.
tp511
aa(lp512
(VI
VPRP
tp513
a(Vam
VVBP
tp514
a(Valso
VRB
tp515
a(Vexpecting
VVBG
tp516
a(Va
VDT
tp517
a(Vprogress
VNN
tp518
a(Vreport
VNN
tp519
a(Vfrom
VIN
tp520
a(Vthe
VDT
tp521
a(VCommission
VNNP
tp522
a(V,
V,
tp523
a(Vpossibly
VRB
tp524
a(Vbehind
VIN
tp525
a(Vclosed
VJJ
tp526
a(Vdoors
VNNS
tp527
a(V,
V,
tp528
a(Vabout
VIN
tp529
a(Vthe
VDT
tp530
a(Vnegotiations
VNNS
tp531
a(Vwith
VIN
tp532
a(VBritish
VJJ
tp533
a(VAmerican
VJJ
tp534
a(VTobacco
VNN
tp535
a(Vand
VCC
tp536
a(VJapan
VNNP
tp537
a(VTobacco
VNN
tp538
a(V.
V.
tp539
aa(lp540
(VWhy
VWRB
tp541
a(Vmake
VVBP
tp542
a(Vthis
VDT
tp543
a(Vsort
VNN
tp544
a(Vof
VIN
tp545
a(Vproposal
VNN
tp546
a(V?
V.
tp547
aa(lp548
(VPatents
VNNP
tp549
a(Von
VIN
tp550
a(Vhuman
VJJ
tp551
a(Vcells
VNNS
tp552
a(V,
V,
tp553
a(Vgenes
VNNS
tp554
a(V,
V,
tp555
a(Vorgans
VNNS
tp556
a(Vand
VCC
tp557
a(Vbody
VNN
tp558
a(Vparts
VNNS
tp559
a(Vas
VRB
tp560
a(Vwell
VRB
tp561
a(Vas
VIN
tp562
a(Von
VIN
tp563
a(Vplant
VNN
tp564
a(Vtypes
VNNS
tp565
a(Vand
VCC
tp566
a(Vbreeds
VNNS
tp567
a(Vof
VIN
tp568
a(Vanimal
VNN
tp569
a(Vmust
VMD
tp570
a(Vbe
VVB
tp571
a(Vbanned
VVBN
tp572
a(V.
V.
tp573
aa(lp574
(VPerhaps
VRB
tp575
a(Vthe
VDT
tp576
a(Vsteps
VNNS
tp577
a(Vwere
VVBD
tp578
a(Vnot
VRB
tp579
a(Vtaken
VVBN
tp580
a(Vwhich
VWDT
tp581
a(Vshould
VMD
tp582
a(Vhave
VVB
tp583
a(Vbeen
VVBN
tp584
a(Vtaken
VVBN
tp585
a(V.
V.
tp586
aa(lp587
(VExperts
VNNS
tp588
a(Vsay
VVBP
tp589
a(Vthat
VIN
tp590
a(V,
V,
tp591
a(Vfor
VIN
tp592
a(Vreasons
VNNS
tp593
a(Vof
VIN
tp594
a(Vsafety
VNN
tp595
a(V,
V,
tp596
a(Vthe
VDT
tp597
a(Vdrops
VNNS
tp598
a(Vmust
VMD
tp599
a(Vbe
VVB
tp600
a(Vmade
VVBN
tp601
a(Vduring
VIN
tp602
a(Vthe
VDT
tp603
a(Vinitial
VJJ
tp604
a(Vphase
VNN
tp605
a(Vfrom
VIN
tp606
a(VHercules
VNNP
tp607
a(Vtransport
VNN
tp608
a(Vplanes
VNNS
tp609
a(Vfrom
VIN
tp610
a(Va
VDT
tp611
a(Vheight
VNN
tp612
a(Vof
VIN
tp613
a(Vone
VCD
tp614
a(Vand
VCC
tp615
a(Va
VDT
tp616
a(Vhalf
VNN
tp617
a(Vkilometres
VNNS
tp618
a(V,
V,
tp619
a(Vwhich
VWDT
tp620
a(Vmay
VMD
tp621
a(Vaffect
VVB
tp622
a(Vits
VPRP$
tp623
a(Vchances
VNNS
tp624
a(Vof
VIN
tp625
a(Vgetting
VVBG
tp626
a(Vto
VTO
tp627
a(Vthe
VDT
tp628
a(Vright
VJJ
tp629
a(Vplace
VNN
tp630
a(V.
V.
tp631
aa(lp632
(VThis
VDT
tp633
a(Vreport
VNN
tp634
a(Vincludes
VVBZ
tp635
a(Vminimum
VJJ
tp636
a(Vrules
VNNS
tp637
a(Vfor
VIN
tp638
a(Vcriminal
VJJ
tp639
a(Vsanctions
VNNS
tp640
a(Vagainst
VIN
tp641
a(Vemployers
VNNS
tp642
a(V,
V,
tp643
a(Vand
VCC
tp644
a(Vinspections
VNNS
tp645
a(Vare
VVBP
tp646
a(Vto
VTO
tp647
a(Vbe
VVB
tp648
a(Vmade
VVBN
tp649
a(Vin
VIN
tp650
a(Vthe
VDT
tp651
a(Vsectors
VNNS
tp652
a(Vof
VIN
tp653
a(Vactivity
VNN
tp654
a(Vmost
VRBS
tp655
a(Vopen
VJJ
tp656
a(Vto
VTO
tp657
a(Vabuse
VNN
tp658
a(V,
V,
tp659
a(Vthough
VIN
tp660
a(Vin
VIN
tp661
a(VScotland
VNNP
tp662
a(Vwe
VPRP
tp663
a(Vare
VVBP
tp664
a(Valready
VRB
tp665
a(Vprotected
VVBN
tp666
a(Vby
VIN
tp667
a(Vthe
VDT
tp668
a(VImmigration
VNNP
tp669
a(V,
V,
tp670
a(VAsylum
VNNP
tp671
a(Vand
VCC
tp672
a(VNationality
VNNP
tp673
a(Vact
VVBP
tp674
a(V2006
VCD
tp675
a(V.
V.
tp676
aa(lp677
(VIn
VIN
tp678
a(Vaddition
VNN
tp679
a(V,
V,
tp680
a(Vthere
VEX
tp681
a(Vis
VVBZ
tp682
a(Vthe
VDT
tp683
a(Vinfluence
VNN
tp684
a(Vexercised
VVBN
tp685
a(Vover
VIN
tp686
a(VLebanon
VNNP
tp687
a(Vby
VIN
tp688
a(Vthe
VDT
tp689
a(Vhierocracy
VNN
tp690
a(Vin
VIN
tp691
a(VTeheran
VNNP
tp692
a(V,
V,
tp693
a(Vincluding
VVBG
tp694
a(VHizbollah
VNNP
tp695
a(V.
V.
tp696
aa(lp697
(VFor
VIN
tp698
a(Vexample
VNN
tp699
a(V,
V,
tp700
a(Vwhat
VWP
tp701
a(Vis
VVBZ
tp702
a(Vthe
VDT
tp703
a(VPresidency
VNNP
tp704
a(V&apos;s
VVBZ
tp705
a(Vview
VNN
tp706
a(Vof
VIN
tp707
a(Vthe
VDT
tp708
a(Vproposal
VNN
tp709
a(Vto
VTO
tp710
a(Vinclude
VVB
tp711
a(Vthe
VDT
tp712
a(Vcriterion
VNN
tp713
a(Vof
VIN
tp714
a(Vrelative
VJJ
tp715
a(Vprosperity
VNN
tp716
a(Vin
VIN
tp717
a(Vthe
VDT
tp718
a(Vchapter
VNN
tp719
a(Von
VIN
tp720
a(Vrevenue
VNN
tp721
a(V?
V.
tp722
aa(lp723
(VMany
VJJ
tp724
a(Vof
VIN
tp725
a(Vthem
VPRP
tp726
a(Vdo
VVBP
tp727
a(Vnot
VRB
tp728
a(Vwish
VVB
tp729
a(Vto
VTO
tp730
a(Vbe
VVB
tp731
a(Vdependent
VJJ
tp732
a(Von
VIN
tp733
a(VRussia
VNNP
tp734
a(Vfor
VIN
tp735
a(Vsupplies
VNNS
tp736
a(Vof
VIN
tp737
a(Voil
VNN
tp738
a(Vand
VCC
tp739
a(Vgas
VNN
tp740
a(V.
V.
tp741
aa(lp742
(VYou
VPRP
tp743
a(Vhave
VVBP
tp744
a(Vspoken
VVBN
tp745
a(V,
V,
tp746
a(Vtoo
VRB
tp747
a(V,
V,
tp748
a(Vabout
VIN
tp749
a(Vterrorism
VNN
tp750
a(V,
V,
tp751
a(Vand
VCC
tp752
a(Vwe
VPRP
tp753
a(Vstand
VVBP
tp754
a(Vshoulder
VNN
tp755
a(Vto
VTO
tp756
a(Vshoulder
VVB
tp757
a(Vwith
VIN
tp758
a(Vyou
VPRP
tp759
a(V.
V.
tp760
aa(lp761
(VThis
VDT
tp762
a(VEurope
VNNP
tp763
a(Vwas
VVBD
tp764
a(Vcreated
VVBN
tp765
a(Vto
VTO
tp766
a(Vprevent
VVB
tp767
a(Vtotalitarianism
VNN
tp768
a(Vfrom
VIN
tp769
a(Vever
VRB
tp770
a(Vresurging
VVBG
tp771
a(V,
V,
tp772
a(Vwhether
VIN
tp773
a(Vfrom
VIN
tp774
a(Vthe
VDT
tp775
a(Vleft
VNN
tp776
a(Vor
VCC
tp777
a(Vthe
VDT
tp778
a(Vright
VNN
tp779
a(V.
V.
tp780
aa(lp781
(VI
VPRP
tp782
a(Vhave
VVBP
tp783
a(Vhad
VVBD
tp784
a(Vthe
VDT
tp785
a(Vhonour
VNN
tp786
a(Vof
VIN
tp787
a(Vbeing
VVBG
tp788
a(Vthe
VDT
tp789
a(VVice-President
VNNP
tp790
a(Vresponsible
VJJ
tp791
a(Vfor
VIN
tp792
a(Vthese
VDT
tp793
a(Vmatters
VNNS
tp794
a(V.
V.
tp795
aa(lp796
(VAt
VIN
tp797
a(Vleast
VJJS
tp798
a(Vthe
VDT
tp799
a(VChinese
VNNPS
tp800
a(Vhave
VVBP
tp801
a(Vone
VCD
tp802
a(Vgood
VJJ
tp803
a(Vquality
VNN
tp804
a(V:
V:
tp805
a(Vthey
VPRP
tp806
a(Vmake
VVBP
tp807
a(Vno
VDT
tp808
a(Vsecret
VNN
tp809
a(Vof
VIN
tp810
a(Vtheir
VPRP$
tp811
a(Vplans
VNNS
tp812
a(V.
V.
tp813
aa(lp814
(VThe
VDT
tp815
a(Vsame
VJJ
tp816
a(Vapplies
VVBZ
tp817
a(Vto
VTO
tp818
a(Vthe
VDT
tp819
a(Vdemand
VNN
tp820
a(Vto
VTO
tp821
a(Vestablish
VVB
tp822
a(Va
VDT
tp823
a(Vfair
VJJ
tp824
a(Vdistribution
VNN
tp825
a(Vof
VIN
tp826
a(Vwealth
VNN
tp827
a(V,
V,
tp828
a(Vsupport
VNN
tp829
a(Vfor
VIN
tp830
a(Vlocal
VJJ
tp831
a(Vsmallholdings
VNNS
tp832
a(Vand
VCC
tp833
a(Vmeasures
VNNS
tp834
a(Vto
VTO
tp835
a(Vfoster
VVB
tp836
a(Vaccess
VNN
tp837
a(Vto
VTO
tp838
a(Vland
VNN
tp839
a(V,
V,
tp840
a(Vwater
VNN
tp841
a(Vand
VCC
tp842
a(Vother
VJJ
tp843
a(Vbiodiversity
VNN
tp844
a(Vresources
VNNS
tp845
a(V.
V.
tp846
aa(lp847
(VThe
VDT
tp848
a(Vfourth
VJJ
tp849
a(Vworking
VVBG
tp850
a(Varea
VNN
tp851
a(Vis
VVBZ
tp852
a(Vunderstanding
VVBG
tp853
a(Vpublic
VJJ
tp854
a(Vopinion
VNN
tp855
a(V.
V.
tp856
aa(lp857
(VNot
VRB
tp858
a(Vonly
VRB
tp859
a(Vdoes
VVBZ
tp860
a(Vstirring
VVBG
tp861
a(Vup
VRP
tp862
a(Vtrouble
VNN
tp863
a(Vin
VIN
tp864
a(Vthe
VDT
tp865
a(Vrelationship
VNN
tp866
a(Vwith
VIN
tp867
a(Vthe
VDT
tp868
a(VUnited
VNNP
tp869
a(VStates
VNNPS
tp870
a(Vnot
VRB
tp871
a(Vmake
VVB
tp872
a(Vany
VDT
tp873
a(Vsense
VNN
tp874
a(V,
V,
tp875
a(Vit
VPRP
tp876
a(Vis
VVBZ
tp877
a(Valso
VRB
tp878
a(Vvery
VRB
tp879
a(Vdangerous
VJJ
tp880
a(V.
V.
tp881
aa(lp882
(VThe
VDT
tp883
a(VCouncil
VNNP
tp884
a(Vand
VCC
tp885
a(Vthe
VDT
tp886
a(VCommission
VNNP
tp887
a(Vshould
VMD
tp888
a(Vpush
VVB
tp889
a(Vfor
VIN
tp890
a(Vthis
VDT
tp891
a(Vpromptly
VRB
tp892
a(Vin
VIN
tp893
a(VGeneva
VNNP
tp894
a(Vtoo
VRB
tp895
a(V.
V.
tp896
aa(lp897
(VNonetheless
VRB
tp898
a(V,
V,
tp899
a(Vthere
VEX
tp900
a(Vare
VVBP
tp901
a(Vpeople
VNNS
tp902
a(Vwho
VWP
tp903
a(Vcontinue
VVBP
tp904
a(Vtheir
VPRP$
tp905
a(Vquest
VNN
tp906
a(Vfor
VIN
tp907
a(Vthe
VDT
tp908
a(Vtruth
VNN
tp909
a(V.
V.
tp910
aa(lp911
(VHowever
VRB
tp912
a(V,
V,
tp913
a(Vwe
VPRP
tp914
a(Vneed
VVBP
tp915
a(Vto
VTO
tp916
a(Vallow
VVB
tp917
a(Vbroad
VJJ
tp918
a(Vdiscretion
VNN
tp919
a(Vfor
VIN
tp920
a(Vthe
VDT
tp921
a(VMember
VNNP
tp922
a(VStates
VNNPS
tp923
a(Vto
VTO
tp924
a(Vmake
VVB
tp925
a(Vthis
VDT
tp926
a(Vlower
VJJR
tp927
a(V,
V,
tp928
a(Vtaking
VVBG
tp929
a(Vinto
VIN
tp930
a(Vaccount
VNN
tp931
a(Veconomic
VJJ
tp932
a(Vand
VCC
tp933
a(Vsocial
VJJ
tp934
a(Vdifferences
VNNS
tp935
a(V.
V.
tp936
aa(lp937
(VYou
VPRP
tp938
a(Vare
VVBP
tp939
a(Vimmediately
VRB
tp940
a(Vcategorized
VVBN
tp941
a(Vas
VIN
tp942
a(Va
VDT
tp943
a(Vterrorist
VJJ
tp944
a(Vand
VCC
tp945
a(Vseparatist
VJJ
tp946
a(Vsympathizer
VNN
tp947
a(V.
V.
tp948
aa(lp949
(VAccording
VVBG
tp950
a(Vto
VTO
tp951
a(VMr
VNNP
tp952
a(VOostlander
VNNP
tp953
a(V&apos;s
VVBZ
tp954
a(Vinterpretation
VNN
tp955
a(V,
V,
tp956
a(Vnegotiations
VNNS
tp957
a(Vare
VVBP
tp958
a(Vinevitable
VJJ
tp959
a(V,
V,
tp960
a(Vbut
VCC
tp961
a(Vwe
VPRP
tp962
a(Vwill
VMD
tp963
a(Vnot
VRB
tp964
a(Venter
VVB
tp965
a(Vinto
VIN
tp966
a(Vreal
VJJ
tp967
a(Vnegotiations
VNNS
tp968
a(V.
V.
tp969
aa(lp970
(VI
VPRP
tp971
a(Vdo
VVBP
tp972
a(Vnot
VRB
tp973
a(Vhave
VVB
tp974
a(Vinformation
VNN
tp975
a(Vin
VIN
tp976
a(Vthe
VDT
tp977
a(Vbrief
VNN
tp978
a(Vto
VTO
tp979
a(Vassist
VVB
tp980
a(Vme
VPRP
tp981
a(Vin
VIN
tp982
a(Vanswering
VVBG
tp983
a(Vthe
VDT
tp984
a(Vquestion
VNN
tp985
a(V.
V.
tp986
aa(lp987
(VIn
VIN
tp988
a(Vthe
VDT
tp989
a(Vtradition
VNN
tp990
a(Vof
VIN
tp991
a(Vour
VPRP$
tp992
a(Vcontinent
VNN
tp993
a(V,
V,
tp994
a(Vthis
VDT
tp995
a(Vrealisation
VNN
tp996
a(Vis
VVBZ
tp997
a(Van
VDT
tp998
a(Vimportant
VJJ
tp999
a(Vone
VCD
tp1000
a(Vwhich
VWDT
tp1001
a(Vmerits
VNNS
tp1002
a(Vrecognition
VNN
tp1003
a(V.
V.
tp1004
aa(lp1005
(VMarriage
VNN
tp1006
a(V-
V:
tp1007
a(Vwe
VPRP
tp1008
a(Vthink
VVBP
tp1009
a(Vthat
VIN
tp1010
a(Vthis
VDT
tp1011
a(Vis
VVBZ
tp1012
a(Vlogical
VJJ
tp1013
a(V;
V:
tp1014
a(Vthe
VDT
tp1015
a(Vperson
VNN
tp1016
a(V&apos;s
VNNS
tp1017
a(Vspouse
VNN
tp1018
a(Vmust
VMD
tp1019
a(Vbe
VVB
tp1020
a(Vallowed
VVBN
tp1021
a(Vto
VTO
tp1022
a(Vaccompany
VVB
tp1023
a(Vthem
VPRP
tp1024
a(V.
V.
tp1025
aa(lp1026
(VOur
VPRP$
tp1027
a(Vbusiness
VNN
tp1028
a(Vcommunities
VNNS
tp1029
a(Vare
VVBP
tp1030
a(Valso
VRB
tp1031
a(Vlooking
VVBG
tp1032
a(Vfor
VIN
tp1033
a(Vnew
VJJ
tp1034
a(Vmarkets
VNNS
tp1035
a(Vand
VCC
tp1036
a(Vare
VVBP
tp1037
a(Vready
VJJ
tp1038
a(Vto
VTO
tp1039
a(Vcompete
VVB
tp1040
a(Vhonestly
VRB
tp1041
a(V.
V.
tp1042
aa(lp1043
(VSo
VIN
tp1044
a(Vwe
VPRP
tp1045
a(Vwould
VMD
tp1046
a(Vbe
VVB
tp1047
a(Vwell
VRB
tp1048
a(Vadvised
VVBN
tp1049
a(Vto
VTO
tp1050
a(Vrespect
VVB
tp1051
a(Vthe
VDT
tp1052
a(Vinstitutions
VNNS
tp1053
a(Von
VIN
tp1054
a(Vthe
VDT
tp1055
a(Vbasis
VNN
tp1056
a(Vof
VIN
tp1057
a(Vwhich
VWDT
tp1058
a(Vthe
VDT
tp1059
a(Vfifteen
VCD
tp1060
a(VMember
VNNP
tp1061
a(VStates
VNNPS
tp1062
a(Vwork
VVB
tp1063
a(Vtogether
VRB
tp1064
a(V,
V,
tp1065
a(Vto
VTO
tp1066
a(Vrespect
VVB
tp1067
a(Vthe
VDT
tp1068
a(Vindependence
VNN
tp1069
a(Vof
VIN
tp1070
a(Vthe
VDT
tp1071
a(Vjudiciary
VNN
tp1072
a(Vand
VCC
tp1073
a(Vto
VTO
tp1074
a(Vrespect
VVB
tp1075
a(Vthe
VDT
tp1076
a(Vlaws
VNNS
tp1077
a(Vwhich
VWDT
tp1078
a(Vapply
VVBP
tp1079
a(Vin
VIN
tp1080
a(Vthe
VDT
tp1081
a(Vfifteen
VCD
tp1082
a(VMember
VNNP
tp1083
a(VStates
VNNPS
tp1084
a(V.
V.
tp1085
aa(lp1086
(VIt
VPRP
tp1087
a(Vis
VVBZ
tp1088
a(Vclearly
VRB
tp1089
a(Vthe
VDT
tp1090
a(Vcase
VNN
tp1091
a(Vthat
VIN
tp1092
a(Vif
VIN
tp1093
a(Va
VDT
tp1094
a(Vperson
VNN
tp1095
a(Vchooses
VVBZ
tp1096
a(Vto
VTO
tp1097
a(Vsmoke
VVB
tp1098
a(Vat
VIN
tp1099
a(Va
VDT
tp1100
a(Vyounger
VJJR
tp1101
a(Vage
VNN
tp1102
a(V,
V,
tp1103
a(Vthen
VRB
tp1104
a(Vit
VPRP
tp1105
a(Vis
VVBZ
tp1106
a(Vmore
VRBR
tp1107
a(Vdifficult
VJJ
tp1108
a(Vto
VTO
tp1109
a(Vkick
VVB
tp1110
a(Vthe
VDT
tp1111
a(Vhabit
VNN
tp1112
a(Vof
VIN
tp1113
a(Vcigarette
VNN
tp1114
a(Vsmoking
VNN
tp1115
a(Vat
VIN
tp1116
a(Va
VDT
tp1117
a(Vlater
VJJ
tp1118
a(Vage
VNN
tp1119
a(V.
V.
tp1120
aa(lp1121
(VI
VPRP
tp1122
a(Vask
VVBP
tp1123
a(Vthem
VPRP
tp1124
a(Vto
VTO
tp1125
a(Vthink
VVB
tp1126
a(Vthat
VIN
tp1127
a(Vin
VIN
tp1128
a(Vthe
VDT
tp1129
a(Vlast
VJJ
tp1130
a(V50
VCD
tp1131
a(Vyears
VNNS
tp1132
a(Valmost
VRB
tp1133
a(V400
VCD
tp1134
a(Vmillion
VCD
tp1135
a(Vworldwide
VJJ
tp1136
a(Vhave
VVBP
tp1137
a(Vdied
VVBN
tp1138
a(Vfrom
VIN
tp1139
a(Vhunger
VNN
tp1140
a(Vand
VCC
tp1141
a(Vpoor
VJJ
tp1142
a(Vsanitation
VNN
tp1143
a(V.
V.
tp1144
aa(lp1145
(VAnd
VCC
tp1146
a(Vis
VVBZ
tp1147
a(Vit
VPRP
tp1148
a(Vnot
VRB
tp1149
a(Vevident
VJJ
tp1150
a(V,
V,
tp1151
a(Vthat
VIN
tp1152
a(Vthe
VDT
tp1153
a(Varmy
VNN
tp1154
a(Vand
VCC
tp1155
a(Vthe
VDT
tp1156
a(Varmed
VJJ
tp1157
a(Vforces
VNNS
tp1158
a(Vwill
VMD
tp1159
a(Vkeep
VVB
tp1160
a(Va
VDT
tp1161
a(Vtight
VJJ
tp1162
a(Vhold
VNN
tp1163
a(Von
VIN
tp1164
a(Vor
VCC
tp1165
a(Vcontrol
VJJ
tp1166
a(Vpower
VNN
tp1167
a(V?
V.
tp1168
aa(lp1169
(VOtherwise
VRB
tp1170
a(V,
V,
tp1171
a(Vthe
VDT
tp1172
a(Vaccumulation
VNN
tp1173
a(Vof
VIN
tp1174
a(Vexperiences
VNNS
tp1175
a(Vof
VIN
tp1176
a(Vviolation
VNN
tp1177
a(Vof
VIN
tp1178
a(Vthe
VDT
tp1179
a(Vrules
VNNS
tp1180
a(Vof
VIN
tp1181
a(Vinternational
VJJ
tp1182
a(Vtrade
VNN
tp1183
a(V,
V,
tp1184
a(Vwith
VIN
tp1185
a(Vthe
VDT
tp1186
a(VUnion
VNNP
tp1187
a(Vreacting
VVBG
tp1188
a(Vafter
VIN
tp1189
a(Vthe
VDT
tp1190
a(Vevent
VNN
tp1191
a(V,
V,
tp1192
a(Vmay
VMD
tp1193
a(Vjeopardise
VVB
tp1194
a(Vthe
VDT
tp1195
a(Vconfidence
VNN
tp1196
a(Vof
VIN
tp1197
a(VEuropean
VJJ
tp1198
a(Vcitizens
VNNS
tp1199
a(Vin
VIN
tp1200
a(Vthe
VDT
tp1201
a(Vfundamental
VJJ
tp1202
a(Vprinciple
VNN
tp1203
a(Vof
VIN
tp1204
a(Vthe
VDT
tp1205
a(Vliberalisation
VNN
tp1206
a(Vof
VIN
tp1207
a(Vthe
VDT
tp1208
a(Vworld
VNN
tp1209
a(Vtrade
VNN
tp1210
a(Vsystem
VNN
tp1211
a(V.
V.
tp1212
aa(lp1213
(VI
VPRP
tp1214
a(Vcan
VMD
tp1215
a(Vonly
VRB
tp1216
a(Vhope
VVB
tp1217
a(Vthat
VIN
tp1218
a(Vthe
VDT
tp1219
a(Vparties
VNNS
tp1220
a(Vwill
VMD
tp1221
a(Vreturn
VVB
tp1222
a(Vto
VTO
tp1223
a(Vthe
VDT
tp1224
a(Vnegotiating
VNN
tp1225
a(Vtable
VNN
tp1226
a(V,
V,
tp1227
a(Vbut
VCC
tp1228
a(Vin
VIN
tp1229
a(Vsituations
VNNS
tp1230
a(Vof
VIN
tp1231
a(Vthis
VDT
tp1232
a(Vkind
VNN
tp1233
a(Vit
VPRP
tp1234
a(Vis
VVBZ
tp1235
a(Vfairly
VRB
tp1236
a(Vrare
VJJ
tp1237
a(V.
V.
tp1238
aa(lp1239
(VNo
VRB
tp1240
a(Vlonger
VRBR
tp1241
a(Vis
VVBZ
tp1242
a(Vautonomy
VNN
tp1243
a(Veven
VRB
tp1244
a(Vmentioned
VVBN
tp1245
a(V.
V.
tp1246
aa(lp1247
(VI
VPRP
tp1248
a(Vhope
VVBP
tp1249
a(V,
V,
tp1250
a(Vwhen
VWRB
tp1251
a(VKorea
VNNP
tp1252
a(Vchanges
VNNS
tp1253
a(Vpresident
VNN
tp1254
a(Vat
VIN
tp1255
a(Vthe
VDT
tp1256
a(Vbeginning
VNN
tp1257
a(Vof
VIN
tp1258
a(Vnext
VJJ
tp1259
a(Vyear
VNN
tp1260
a(V,
V,
tp1261
a(Vthat
VIN
tp1262
a(Vthe
VDT
tp1263
a(Vnew
VJJ
tp1264
a(Vpresident
VNN
tp1265
a(Vwill
VMD
tp1266
a(Vinstruct
VVB
tp1267
a(Vhis
VPRP$
tp1268
a(Vadministration
VNN
tp1269
a(Vto
VTO
tp1270
a(Vwork
VVB
tp1271
a(Vtirelessly
VRB
tp1272
a(Vto
VTO
tp1273
a(Vreach
VVB
tp1274
a(Vthis
VDT
tp1275
a(Vagreement
VNN
tp1276
a(Vbefore
VIN
tp1277
a(Vthe
VDT
tp1278
a(Vsummer
VNN
tp1279
a(V.
V.
tp1280
aa(lp1281
(VWe
VPRP
tp1282
a(Vare
VVBP
tp1283
a(Vnot
VRB
tp1284
a(Vthere
VRB
tp1285
a(Vyet
VRB
tp1286
a(V.
V.
tp1287
aa(lp1288
(VGetting
VVBG
tp1289
a(Vall
VDT
tp1290
a(Vlorries
VNNS
tp1291
a(Vand
VCC
tp1292
a(Vcourier
VNN
tp1293
a(Vservices
VNNS
tp1294
a(Vthat
VWDT
tp1295
a(Vdrive
VVBP
tp1296
a(Vwithin
VIN
tp1297
a(Vthe
VDT
tp1298
a(VEU
VNNP
tp1299
a(V,
V,
tp1300
a(Veven
VRB
tp1301
a(Vthose
VDT
tp1302
a(Vdriven
VVBN
tp1303
a(Vby
VIN
tp1304
a(Vself-employed
VJJ
tp1305
a(Vdrivers
VNNS
tp1306
a(Vor
VCC
tp1307
a(Vthose
VDT
tp1308
a(Vfrom
VIN
tp1309
a(Voutside
VIN
tp1310
a(Vthe
VDT
tp1311
a(VEU
VNNP
tp1312
a(V,
V,
tp1313
a(Vto
VTO
tp1314
a(Vcomply
VVB
tp1315
a(Vwith
VIN
tp1316
a(Vthe
VDT
tp1317
a(Vstandard
VNN
tp1318
a(Vof
VIN
tp1319
a(Vnot
VRB
tp1320
a(Vless
VJJR
tp1321
a(Vthan
VIN
tp1322
a(V12
VCD
tp1323
a(Vhours
VNNS
tp1324
a(V&apos;
VJJ
tp1325
a(Vrest
VNN
tp1326
a(Va
VDT
tp1327
a(Vday
VNN
tp1328
a(Vand
VCC
tp1329
a(Vworking
VVBG
tp1330
a(Vnot
VRB
tp1331
a(Vmore
VJJR
tp1332
a(Vthan
VIN
tp1333
a(V9
VCD
tp1334
a(Vhours
VNNS
tp1335
a(Va
VDT
tp1336
a(Vday
VNN
tp1337
a(Vand
VCC
tp1338
a(V90
VCD
tp1339
a(Vhours
VNNS
tp1340
a(Vover
VIN
tp1341
a(Vtwo
VCD
tp1342
a(Vweeks
VNNS
tp1343
a(Vis
VVBZ
tp1344
a(Vtherefore
VRB
tp1345
a(Van
VDT
tp1346
a(Vimportant
VJJ
tp1347
a(Vstep
VNN
tp1348
a(Vin
VIN
tp1349
a(Vthe
VDT
tp1350
a(Vright
VJJ
tp1351
a(Vdirection
VNN
tp1352
a(V.
V.
tp1353
aa(lp1354
(VAnd
VCC
tp1355
a(Vthis
VDT
tp1356
a(Vcould
VMD
tp1357
a(Vnever
VRB
tp1358
a(Vbe
VVB
tp1359
a(Vthe
VDT
tp1360
a(Vintention
VNN
tp1361
a(V.
V.
tp1362
aa(lp1363
(VThis
VDT
tp1364
a(Vwould
VMD
tp1365
a(Vallow
VVB
tp1366
a(Vthe
VDT
tp1367
a(Vrepatriation
VNN
tp1368
a(Vof
VIN
tp1369
a(Vpassengers
VNNS
tp1370
a(Vleft
VVBD
tp1371
a(Vstranded
VVBN
tp1372
a(Vin
VIN
tp1373
a(Vforeign
VJJ
tp1374
a(Vairports
VNNS
tp1375
a(V.
V.
tp1376
aa(lp1377
(VI
VPRP
tp1378
a(Vdo
VVBP
tp1379
a(Vnot
VRB
tp1380
a(Vdraw
VVB
tp1381
a(Vthe
VDT
tp1382
a(Vconclusion
VNN
tp1383
a(Vthat
VIN
tp1384
a(Vwe
VPRP
tp1385
a(Vmust
VMD
tp1386
a(Vsay
VVB
tp1387
a(V&apos;
VJJ
tp1388
a(Vno
VDT
tp1389
a(V&apos;
VNN
tp1390
a(V.
V.
tp1391
aa(lp1392
(VPolitics
VNNS
tp1393
a(Vhas
VVBZ
tp1394
a(Vbeen
VVBN
tp1395
a(Vconcerned
VVBN
tp1396
a(Vfor
VIN
tp1397
a(Vyears
VNNS
tp1398
a(Vwith
VIN
tp1399
a(Vmass
VNN
tp1400
a(Vunemployment
VNN
tp1401
a(Vand
VCC
tp1402
a(Vgrowing
VVBG
tp1403
a(Vpoverty
VNN
tp1404
a(V.
V.
tp1405
aa(lp1406
(VHe
VPRP
tp1407
a(Vpaid
VVBD
tp1408
a(VEUR
V$
tp1409
a(V7
VCD
tp1410
a(V000
VCD
tp1411
a(Vfor
VIN
tp1412
a(Vit
VPRP
tp1413
a(Vin
VIN
tp1414
a(VGermany
VNNP
tp1415
a(Vand
VCC
tp1416
a(Vin
VIN
tp1417
a(VFinland
VNNP
tp1418
a(Vjust
VRB
tp1419
a(Va
VDT
tp1420
a(Vmonth
VNN
tp1421
a(Vago
VIN
tp1422
a(Vhe
VPRP
tp1423
a(Vpaid
VVBD
tp1424
a(VEUR
V$
tp1425
a(V12
VCD
tp1426
a(V000
VCD
tp1427
a(Vin
VIN
tp1428
a(Vtax
VNN
tp1429
a(V.
V.
tp1430
aa(lp1431
(VThis
VDT
tp1432
a(Vcan
VMD
tp1433
a(Vlead
VVB
tp1434
a(Vto
VTO
tp1435
a(Vextra
VJJ
tp1436
a(Vproblems
VNNS
tp1437
a(V.
V.
tp1438
aa(lp1439
(VWhat
VWP
tp1440
a(Vis
VVBZ
tp1441
a(Vthe
VDT
tp1442
a(Vyardstick
VNN
tp1443
a(V;
V:
tp1444
a(Vwhat
VWP
tp1445
a(Vare
VVBP
tp1446
a(Vthe
VDT
tp1447
a(Vterms
VNNS
tp1448
a(Vof
VIN
tp1449
a(Vreference
VNN
tp1450
a(V?
V.
tp1451
aa(lp1452
(VI
VPRP
tp1453
a(Vbelieve
VVBP
tp1454
a(Vthey
VPRP
tp1455
a(Vexpect
VVBP
tp1456
a(Vthings
VNNS
tp1457
a(Vof
VIN
tp1458
a(Vus
VPRP
tp1459
a(V.
V.
tp1460
aa(lp1461
(VAs
VIN
tp1462
a(Va
VDT
tp1463
a(Vresult
VNN
tp1464
a(V,
V,
tp1465
a(Vparasitic
VJJ
tp1466
a(Vinfection
VNN
tp1467
a(Vis
VVBZ
tp1468
a(Vrife
VJJ
tp1469
a(Vand
VCC
tp1470
a(Vthe
VDT
tp1471
a(Vthird
VJJ
tp1472
a(Vcause
VNN
tp1473
a(Vof
VIN
tp1474
a(Vinfant
VNN
tp1475
a(Vdeaths
VNNS
tp1476
a(Vis
VVBZ
tp1477
a(Vdiarrhoeal
VJJ
tp1478
a(Vdisease
VNN
tp1479
a(V.
V.
tp1480
aa(lp1481
(VIt
VPRP
tp1482
a(Vwas
VVBD
tp1483
a(Vnever
VRB
tp1484
a(Va
VDT
tp1485
a(Vcomfortable
VJJ
tp1486
a(Vdirective
VNN
tp1487
a(V.
V.
tp1488
aa(lp1489
(VIt
VPRP
tp1490
a(Valso
VRB
tp1491
a(Venables
VVBZ
tp1492
a(Vus
VPRP
tp1493
a(Vto
VTO
tp1494
a(Vwork
VVB
tp1495
a(Vtogether
VRB
tp1496
a(Vto
VTO
tp1497
a(Vcombat
VVB
tp1498
a(VAIDS
VNN
tp1499
a(Vand
VCC
tp1500
a(Vterrorist
VJJ
tp1501
a(Vattacks
VNNS
tp1502
a(V.
V.
tp1503
aa(lp1504
(VWhy
VWRB
tp1505
a(Vthen
VRB
tp1506
a(Vare
VVBP
tp1507
a(Vmillions
VNNS
tp1508
a(Vof
VIN
tp1509
a(Vpeople
VNNS
tp1510
a(Vdying
VVBG
tp1511
a(Vof
VIN
tp1512
a(Vstarvation
VNN
tp1513
a(Vtoday
VNN
tp1514
a(V?
V.
tp1515
aa(lp1516
(VI
VPRP
tp1517
a(Vhope
VVBP
tp1518
a(Vthe
VDT
tp1519
a(Vexperiment
VNN
tp1520
a(Vbeing
VVBG
tp1521
a(Vlaunched
VVBN
tp1522
a(Vhere
VRB
tp1523
a(Vwill
VMD
tp1524
a(Vprove
VVB
tp1525
a(Vhelpful
VJJ
tp1526
a(Vin
VIN
tp1527
a(Vcreating
VVBG
tp1528
a(Vjobs
VNNS
tp1529
a(V.
V.
tp1530
aa(lp1531
(VThe
VDT
tp1532
a(VCouncil
VNNP
tp1533
a(V&apos;s
VNNS
tp1534
a(Vdeclaration
VNN
tp1535
a(Valso
VRB
tp1536
a(Vcalled
VVBN
tp1537
a(Vupon
VIN
tp1538
a(Vboth
VDT
tp1539
a(VIndia
VNNP
tp1540
a(Vand
VCC
tp1541
a(VPakistan
VNNP
tp1542
a(Vto
VTO
tp1543
a(Vtake
VVB
tp1544
a(Vadvantage
VNN
tp1545
a(Vof
VIN
tp1546
a(Vthe
VDT
tp1547
a(Vopportunities
VNNS
tp1548
a(Vfollowing
VVBG
tp1549
a(Vthe
VDT
tp1550
a(Velections
VNNS
tp1551
a(Vto
VTO
tp1552
a(Vimprove
VVB
tp1553
a(Vtheir
VPRP$
tp1554
a(Vbilateral
VJJ
tp1555
a(Vrelationship
VNN
tp1556
a(V.
V.
tp1557
aa(lp1558
(VGiven
VVBN
tp1559
a(Vthat
VIN
tp1560
a(Vthe
VDT
tp1561
a(VCouncil
VNNP
tp1562
a(Vrepresentative
VNN
tp1563
a(Vhas
VVBZ
tp1564
a(Vnow
VRB
tp1565
a(Varrived
VVBN
tp1566
a(V,
V,
tp1567
a(Vwe
VPRP
tp1568
a(Vcan
VMD
tp1569
a(Vresume
VVB
tp1570
a(Vproceedings
VNNS
tp1571
a(V.
V.
tp1572
aa(lp1573
(Vin
VIN
tp1574
a(Vwriting
VVBG
tp1575
a(V.
V.
tp1576
a(V-
V:
tp1577
a(V(
VCD
tp1578
a(VPT
VNN
tp1579
a(V)
VCD
tp1580
a(VIn
VIN
tp1581
a(Vthe
VDT
tp1582
a(Vspace
VNN
tp1583
a(Vavailable
VJJ
tp1584
a(Vin
VIN
tp1585
a(Van
VDT
tp1586
a(Vexplanation
VNN
tp1587
a(Vof
VIN
tp1588
a(Vvote
VNN
tp1589
a(V,
V,
tp1590
a(Vthere
VEX
tp1591
a(Vare
VVBP
tp1592
a(Vtwo
VCD
tp1593
a(Vpoints
VNNS
tp1594
a(Vthat
VWDT
tp1595
a(Vdeserve
VVBP
tp1596
a(Vto
VTO
tp1597
a(Vbe
VVB
tp1598
a(Vhighlighted
VVBN
tp1599
a(V.
V.
tp1600
aa(lp1601
(VWe
VPRP
tp1602
a(Vsupport
VVBP
tp1603
a(VJean-Claude
VNNP
tp1604
a(VJuncker
VNNP
tp1605
a(V&apos;s
VNNS
tp1606
a(Vemployment
VNN
tp1607
a(Vconference
VNN
tp1608
a(Vand
VCC
tp1609
a(Vhope
VNN
tp1610
a(Vthat
VIN
tp1611
a(Vit
VPRP
tp1612
a(Vtoo
VRB
tp1613
a(Vwill
VMD
tp1614
a(Vproduce
VVB
tp1615
a(Vresults
VNNS
tp1616
a(V.
V.
tp1617
aa(lp1618
(V(
VNN
tp1619
a(VFR
VNN
tp1620
a(V)
VCD
tp1621
a(VMr
VNNP
tp1622
a(VPresident
VNNP
tp1623
a(V,
V,
tp1624
a(VI
VPRP
tp1625
a(Vregret
VVBP
tp1626
a(Vthat
VIN
tp1627
a(Vparagraphs
VNNS
tp1628
a(V18
VCD
tp1629
a(Vand
VCC
tp1630
a(V44
VCD
tp1631
a(Vof
VIN
tp1632
a(Vthe
VDT
tp1633
a(VGrech
VNNP
tp1634
a(Vreport
VNN
tp1635
a(Vwere
VVBD
tp1636
a(Vnot
VRB
tp1637
a(Vsubject
VJJ
tp1638
a(Vto
VTO
tp1639
a(Va
VDT
tp1640
a(Vsplit
VNN
tp1641
a(Vvote
VNN
tp1642
a(V,
V,
tp1643
a(Vas
VIN
tp1644
a(VI
VPRP
tp1645
a(Vwould
VMD
tp1646
a(Vhave
VVB
tp1647
a(Vvoted
VVBN
tp1648
a(Vagainst
VIN
tp1649
a(Vthem
VPRP
tp1650
a(V.
V.
tp1651
aa(lp1652
(VThe
VDT
tp1653
a(Vshare
VNN
tp1654
a(Vprices
VNNS
tp1655
a(Vdemonstrated
VVBD
tp1656
a(Vvery
VRB
tp1657
a(Vclearly
VRB
tp1658
a(Vwhat
VWP
tp1659
a(Vhad
VVBD
tp1660
a(Vhappened
VVBN
tp1661
a(V.
V.
tp1662
aa(lp1663
(VIt
VPRP
tp1664
a(Vencourages
VVBZ
tp1665
a(Vus
VPRP
tp1666
a(V,
V,
tp1667
a(Vbecause
VIN
tp1668
a(Vthis
VDT
tp1669
a(Vis
VVBZ
tp1670
a(Vthe
VDT
tp1671
a(Vfirst
VJJ
tp1672
a(Vtime
VNN
tp1673
a(Vin
VIN
tp1674
a(Va
VDT
tp1675
a(Vlong
VJJ
tp1676
a(Vtime
VNN
tp1677
a(Vthat
VIN
tp1678
a(Va
VDT
tp1679
a(VEuropean
VJJ
tp1680
a(Vnation
VNN
tp1681
a(Vhas
VVBZ
tp1682
a(Vexpressed
VVBN
tp1683
a(Vwith
VIN
tp1684
a(Vsuch
VJJ
tp1685
a(Vforce
VNN
tp1686
a(Vits
VPRP$
tp1687
a(Vwill
VMD
tp1688
a(Vto
VTO
tp1689
a(Vparticipate
VVB
tp1690
a(Vin
VIN
tp1691
a(Vthe
VDT
tp1692
a(VEuropean
VJJ
tp1693
a(Vadventure
VNN
tp1694
a(Vdespite
VIN
tp1695
a(V-
V:
tp1696
a(Vor
VCC
tp1697
a(Vrather
VRB
tp1698
a(Vbecause
VIN
tp1699
a(Vof
VIN
tp1700
a(V-
V:
tp1701
a(Vthe
VDT
tp1702
a(Vcrisis
VNN
tp1703
a(V.
V.
tp1704
aa(lp1705
(VSome
VDT
tp1706
a(V-
V:
tp1707
a(Vthough
VIN
tp1708
a(Vnot
VRB
tp1709
a(Vyet
VRB
tp1710
a(Vall
VDT
tp1711
a(V-
V:
tp1712
a(Vof
VIN
tp1713
a(Vthese
VDT
tp1714
a(Vdemands
VNNS
tp1715
a(Vhave
VVBP
tp1716
a(Vbeen
VVBN
tp1717
a(Vmet
VVBN
tp1718
a(V.
V.
tp1719
aa(lp1720
(VI
VPRP
tp1721
a(Vthink
VVBP
tp1722
a(Vit
VPRP
tp1723
a(Vis
VVBZ
tp1724
a(Vextremely
VRB
tp1725
a(Vimportant
VJJ
tp1726
a(Vto
VTO
tp1727
a(Vhave
VVB
tp1728
a(Vthis
VDT
tp1729
a(Videa
VNN
tp1730
a(Vat
VIN
tp1731
a(Vthat
VDT
tp1732
a(Vlevel
VNN
tp1733
a(V.
V.
tp1734
aa(lp1735
(VOver
VIN
tp1736
a(Vthose
VDT
tp1737
a(Vyears
VNNS
tp1738
a(V,
V,
tp1739
a(VNorthern
VNNP
tp1740
a(VIreland
VNNP
tp1741
a(Vhas
VVBZ
tp1742
a(Vhad
VVBN
tp1743
a(Vmany
VJJ
tp1744
a(Vdifficulties
VNNS
tp1745
a(V,
V,
tp1746
a(Vas
VIN
tp1747
a(Vit
VPRP
tp1748
a(Vhas
VVBZ
tp1749
a(Vover
VIN
tp1750
a(Vthe
VDT
tp1751
a(Vpast
VJJ
tp1752
a(V30
VCD
tp1753
a(Vyears
VNNS
tp1754
a(V,
V,
tp1755
a(Vbut
VCC
tp1756
a(Vduring
VIN
tp1757
a(Vall
VDT
tp1758
a(Vthat
VDT
tp1759
a(Vtime
VNN
tp1760
a(V,
V,
tp1761
a(Vsoccer
VNN
tp1762
a(Vwas
VVBD
tp1763
a(Vable
VJJ
tp1764
a(Vto
VTO
tp1765
a(Vbring
VVB
tp1766
a(Vthe
VDT
tp1767
a(Vpeople
VNNS
tp1768
a(Vtogether
VRB
tp1769
a(V.
V.
tp1770
aa(lp1771
(VIn
VIN
tp1772
a(Vthe
VDT
tp1773
a(Vevent
VNN
tp1774
a(Vthat
VWDT
tp1775
a(Vboundaries
VNNS
tp1776
a(Vwere
VVBD
tp1777
a(Voverstepped
VVBN
tp1778
a(V,
V,
tp1779
a(Vin
VIN
tp1780
a(Vthe
VDT
tp1781
a(Vevent
VNN
tp1782
a(Vthat
VIN
tp1783
a(Vthe
VDT
tp1784
a(Vattorney
VNN
tp1785
a(Vdid
VVBD
tp1786
a(Vnot
VRB
tp1787
a(Vkeep
VVB
tp1788
a(Vto
VTO
tp1789
a(Vthe
VDT
tp1790
a(Vlimits
VNNS
tp1791
a(Vof
VIN
tp1792
a(Vtheir
VPRP$
tp1793
a(Vmandate
VNN
tp1794
a(V,
V,
tp1795
a(Vwe
VPRP
tp1796
a(Vwanted
VVBD
tp1797
a(Va
VDT
tp1798
a(Vcall-back
VNN
tp1799
a(V.
V.
tp1800
aa(lp1801
(VIt
VPRP
tp1802
a(Vis
VVBZ
tp1803
a(Vhigh
VJJ
tp1804
a(Vtime
VNN
tp1805
a(Vto
VTO
tp1806
a(Vrekindle
VVB
tp1807
a(Vthe
VDT
tp1808
a(Vstars
VNNS
tp1809
a(V.
V.
tp1810
aa(lp1811
(VWhere
VWRB
tp1812
a(Vtheir
VPRP$
tp1813
a(Vreactors
VNNS
tp1814
a(Vmeet
VVBP
tp1815
a(Vcertain
VJJ
tp1816
a(Vsafety
VNN
tp1817
a(Vrequirements
VNNS
tp1818
a(V,
V,
tp1819
a(Vthese
VDT
tp1820
a(VStates
VNNS
tp1821
a(Vshould
VMD
tp1822
a(Vbe
VVB
tp1823
a(Vallowed
VVBN
tp1824
a(Vto
VTO
tp1825
a(Vuse
VVB
tp1826
a(Vnuclear
VJJ
tp1827
a(Venergy
VNN
tp1828
a(V,
V,
tp1829
a(Vfor
VIN
tp1830
a(Vthey
VPRP
tp1831
a(Vdo
VVBP
tp1832
a(Vnot
VRB
tp1833
a(Vhave
VVB
tp1834
a(Vthe
VDT
tp1835
a(Veconomic
VJJ
tp1836
a(Vresources
VNNS
tp1837
a(Vto
VTO
tp1838
a(Vsustain
VVB
tp1839
a(Van
VDT
tp1840
a(Vadditional
VJJ
tp1841
a(Vunnecessary
VJJ
tp1842
a(Vcost
VNN
tp1843
a(Vjust
VRB
tp1844
a(Vso
VRB
tp1845
a(Vthey
VPRP
tp1846
a(Vcan
VMD
tp1847
a(Vreplace
VVB
tp1848
a(Vone
VCD
tp1849
a(Vtype
VNN
tp1850
a(Vof
VIN
tp1851
a(Venergy
VNN
tp1852
a(Vwith
VIN
tp1853
a(Vanother
VDT
tp1854
a(V.
V.
tp1855
aa(lp1856
(VFor
VIN
tp1857
a(Vthat
VDT
tp1858
a(Vmatter
VNN
tp1859
a(V,
V,
tp1860
a(Vit
VPRP
tp1861
a(Vdoes
VVBZ
tp1862
a(Vnot
VRB
tp1863
a(Vgo
VVB
tp1864
a(Vas
VRB
tp1865
a(Vfar
VRB
tp1866
a(Vas
VIN
tp1867
a(Vsome
VDT
tp1868
a(Vof
VIN
tp1869
a(Vthe
VDT
tp1870
a(Vpioneers
VNNS
tp1871
a(Vin
VIN
tp1872
a(Vthis
VDT
tp1873
a(Varea
VNN
tp1874
a(V,
V,
tp1875
a(Vin
VIN
tp1876
a(Vsome
VDT
tp1877
a(Vof
VIN
tp1878
a(Vthe
VDT
tp1879
a(VNGOs
VNNS
tp1880
a(V,
V,
tp1881
a(Vwould
VMD
tp1882
a(Vlike
VVB
tp1883
a(V,
V,
tp1884
a(Vlike
VIN
tp1885
a(VTony
VNNP
tp1886
a(VBunyan
VNNP
tp1887
a(Vof
VIN
tp1888
a(VStatewatch
VNNP
tp1889
a(V.
V.
tp1890
aa(lp1891
(VIt
VPRP
tp1892
a(Vwould
VMD
tp1893
a(Vmean
VVB
tp1894
a(Vhaving
VVBG
tp1895
a(Vto
VTO
tp1896
a(Vmention
VVB
tp1897
a(Vthe
VDT
tp1898
a(V3
VCD
tp1899
a(V000
VCD
tp1900
a(VFrench
VJJ
tp1901
a(Vwomen
VNNS
tp1902
a(Vwho
VWP
tp1903
a(Vwere
VVBD
tp1904
a(Vdeported
VVBN
tp1905
a(Vto
VTO
tp1906
a(VAlgeria
VNNP
tp1907
a(Vin
VIN
tp1908
a(V1962
VCD
tp1909
a(Vamidst
VIN
tp1910
a(Vtotal
VJJ
tp1911
a(Vindifference
VNN
tp1912
a(V.
V.
tp1913
aa(lp1914
(VHence
VRB
tp1915
a(Vthe
VDT
tp1916
a(Vneed
VNN
tp1917
a(Vto
VTO
tp1918
a(Vensure
VVB
tp1919
a(Vthat
VIN
tp1920
a(Vwe
VPRP
tp1921
a(Vhave
VVBP
tp1922
a(Vstatistics
VNNS
tp1923
a(Vthat
VWDT
tp1924
a(Vgive
VVBP
tp1925
a(Vus
VPRP
tp1926
a(Va
VDT
tp1927
a(Vtrue
VJJ
tp1928
a(Vpicture
VNN
tp1929
a(Vof
VIN
tp1930
a(Vthe
VDT
tp1931
a(Vsituation
VNN
tp1932
a(Vand
VCC
tp1933
a(Vwhich
VWDT
tp1934
a(Vcan
VMD
tp1935
a(Vprovide
VVB
tp1936
a(Va
VDT
tp1937
a(Vbasis
VNN
tp1938
a(Vfor
VIN
tp1939
a(Vthe
VDT
tp1940
a(Vcreation
VNN
tp1941
a(Vof
VIN
tp1942
a(Vaction
VNN
tp1943
a(Vprogrammes
VNNS
tp1944
a(Vand
VCC
tp1945
a(Vthe
VDT
tp1946
a(Vdrafting
VVBG
tp1947
a(Vof
VIN
tp1948
a(Vevaluation
VNN
tp1949
a(Vreports
VNNS
tp1950
a(V;
V:
tp1951
aa(lp1952
(VAs
VIN
tp1953
a(Vyou
VPRP
tp1954
a(Vare
VVBP
tp1955
a(Vaware
VJJ
tp1956
a(V,
V,
tp1957
a(Vin
VIN
tp1958
a(V2007
VCD
tp1959
a(Vwe
VPRP
tp1960
a(Valso
VRB
tp1961
a(Vlaunched
VVBD
tp1962
a(Vnegotiations
VNNS
tp1963
a(Vfor
VIN
tp1964
a(Va
VDT
tp1965
a(Vpartnership
VNN
tp1966
a(Vand
VCC
tp1967
a(Vcooperation
VNN
tp1968
a(Vagreement
VNN
tp1969
a(V.
V.
tp1970
aa(lp1971
(VHowever
VRB
tp1972
a(V,
V,
tp1973
a(Vthe
VDT
tp1974
a(Vproblem
VNN
tp1975
a(Vis
VVBZ
tp1976
a(Vnot
VRB
tp1977
a(Vthat
VIN
tp1978
a(Vthere
VEX
tp1979
a(Vis
VVBZ
tp1980
a(Vinsufficient
VJJ
tp1981
a(Vfood
VNN
tp1982
a(V,
V,
tp1983
a(Vbut
VCC
tp1984
a(Vthat
VIN
tp1985
a(Vit
VPRP
tp1986
a(Vis
VVBZ
tp1987
a(Vnot
VRB
tp1988
a(Vdistributed
VVBN
tp1989
a(Veffectively
VRB
tp1990
a(V.
V.
tp1991
aa(lp1992
(VThe
VDT
tp1993
a(Vbrutality
VNN
tp1994
a(Vagainst
VIN
tp1995
a(Vpeaceful
VJJ
tp1996
a(Vdemonstrations
VNNS
tp1997
a(Vby
VIN
tp1998
a(Vresidents
VNNS
tp1999
a(Vin
VIN
tp2000
a(VMoscow
VNNP
tp2001
a(V,
V,
tp2002
a(VSaint
VNNP
tp2003
a(VPetersburg
VNNP
tp2004
a(Vand
VCC
tp2005
a(VNizhny
VNNP
tp2006
a(VNovgorod
VNNP
tp2007
a(Vexpose
VVB
tp2008
a(Vthe
VDT
tp2009
a(VRussian
VJJ
tp2010
a(VGovernment
VNN
tp2011
a(V&apos;s
VNNS
tp2012
a(Vintolerance
VNN
tp2013
a(Vand
VCC
tp2014
a(Vfear
VNN
tp2015
a(Vof
VIN
tp2016
a(Vindependent
VJJ
tp2017
a(Vthinkers
VNNS
tp2018
a(V,
V,
tp2019
a(Vespecially
VRB
tp2020
a(Vas
VIN
tp2021
a(Vthe
VDT
tp2022
a(Vpresidential
VJJ
tp2023
a(Velections
VNNS
tp2024
a(Vof
VIN
tp2025
a(V2008
VCD
tp2026
a(Vapproach
VNN
tp2027
a(V.
V.
tp2028
aa(lp2029
(VThis
VDT
tp2030
a(Varea
VNN
tp2031
a(Vleaves
VVBZ
tp2032
a(Vmuch
VJJ
tp2033
a(Vto
VTO
tp2034
a(Vbe
VVB
tp2035
a(Vdesired
VVBN
tp2036
a(V,
V,
tp2037
a(Veven
VRB
tp2038
a(Vin
VIN
tp2039
a(Vcountries
VNNS
tp2040
a(Vthat
VWDT
tp2041
a(Vthink
VVBP
tp2042
a(Vof
VIN
tp2043
a(Vthemselves
VPRP
tp2044
a(Vas
VIN
tp2045
a(Vthe
VDT
tp2046
a(V&apos;
VJJ
tp2047
a(Vengines
VNNS
tp2048
a(V&apos;
VNN
tp2049
a(Vof
VIN
tp2050
a(Vintegration
VNN
tp2051
a(V,
V,
tp2052
a(Vparticularly
VRB
tp2053
a(Vwhen
VWRB
tp2054
a(Vthey
VPRP
tp2055
a(Vcan
VMD
tp2056
a(Vcount
VVB
tp2057
a(Von
VIN
tp2058
a(Va
VDT
tp2059
a(Vlenient
VJJ
tp2060
a(Vtariff
VNN
tp2061
a(Vfrom
VIN
tp2062
a(Vthe
VDT
tp2063
a(VEuropean
VJJ
tp2064
a(VCommission
VNNP
tp2065
a(V.
V.
tp2066
aa(lp2067
(VIf
VIN
tp2068
a(Vthey
VPRP
tp2069
a(Vare
VVBP
tp2070
a(Vunlucky
VJJ
tp2071
a(V,
V,
tp2072
a(Vthey
VPRP
tp2073
a(Vreceive
VVBP
tp2074
a(Vnone
VNN
tp2075
a(Vat
VIN
tp2076
a(Vall
VDT
tp2077
a(V.
V.
tp2078
aa(lp2079
(VThe
VDT
tp2080
a(VEuropean
VNNP
tp2081
a(VUnion
VNNP
tp2082
a(Vmust
VMD
tp2083
a(Vplay
VVB
tp2084
a(Va
VDT
tp2085
a(Vvital
VJJ
tp2086
a(Vrole
VNN
tp2087
a(Vin
VIN
tp2088
a(Vrebuilding
VVBG
tp2089
a(Vpeace
VNN
tp2090
a(V.
V.
tp2091
aa(lp2092
(VAs
VIN
tp2093
a(VI
VPRP
tp2094
a(Vsaid
VVBD
tp2095
a(V,
V,
tp2096
a(Vthis
VDT
tp2097
a(Vis
VVBZ
tp2098
a(Vafter
VIN
tp2099
a(Vall
VDT
tp2100
a(Vabout
VIN
tp2101
a(Vthe
VDT
tp2102
a(Vfirst
VJJ
tp2103
a(VCopenhagen
VNNP
tp2104
a(Vcriterion
VNN
tp2105
a(V,
V,
tp2106
a(Vthe
VDT
tp2107
a(Vpolitical
VJJ
tp2108
a(Vcriterion
VNN
tp2109
a(V.
V.
tp2110
aa(lp2111
(VThen
VRB
tp2112
a(Vthe
VDT
tp2113
a(Vnewspaper
VNN
tp2114
a(Vheadlines
VNNS
tp2115
a(Vread
VVBD
tp2116
a(V:
V:
tp2117
a(V&apos;
VVB
tp2118
a(Vmore
VJJR
tp2119
a(Vnuclear
VJJ
tp2120
a(Vmaterial
VNN
tp2121
a(Vfind
VVB
tp2122
a(V,
V,
tp2123
a(Vanother
VDT
tp2124
a(Vcase
VNN
tp2125
a(Vof
VIN
tp2126
a(Vsmuggling
VNN
tp2127
a(V!
V.
tp2128
a(V&apos;
VIN
tp2129
aa(lp2130
(VI
VPRP
tp2131
a(Vtrust
VVBP
tp2132
a(Vthat
VIN
tp2133
a(Vyou
VPRP
tp2134
a(Vwill
VMD
tp2135
a(Vall
VRB
tp2136
a(Vnow
VRB
tp2137
a(Vgo
VVB
tp2138
a(Vand
VCC
tp2139
a(Venjoy
VVB
tp2140
a(Va
VDT
tp2141
a(Vnice
VJJ
tp2142
a(Vjuicy
VNN
tp2143
a(Vsteak
VNN
tp2144
a(V!
V.
tp2145
aa(lp2146
(V(
VNN
tp2147
a(VLT
VNN
tp2148
a(V)
VCD
tp2149
a(VThe
VDT
tp2150
a(VEuropean
VJJ
tp2151
a(VCentral
VNNP
tp2152
a(VBank
VNNP
tp2153
a(Vhas
VVBZ
tp2154
a(Vits
VPRP$
tp2155
a(Vown
VJJ
tp2156
a(Vstable
VJJ
tp2157
a(Vinflation
VNN
tp2158
a(Vindicator
VNN
tp2159
a(V,
V,
tp2160
a(Vwhich
VWDT
tp2161
a(Vis
VVBZ
tp2162
a(Vjust
VRB
tp2163
a(Vnearing
VVBG
tp2164
a(V2
VCD
tp2165
a(V%
VNN
tp2166
a(V.
V.
tp2167
aa(lp2168
(VIt
VPRP
tp2169
a(Vcan
VMD
tp2170
a(Vbring
VVB
tp2171
a(Vtogether
VRB
tp2172
a(VFrance
VNNP
tp2173
a(V,
V,
tp2174
a(VGermany
VNNP
tp2175
a(Vand
VCC
tp2176
a(Veven
VRB
tp2177
a(Vneo-conservatives
VNNS
tp2178
a(Vin
VIN
tp2179
a(Vthe
VDT
tp2180
a(VUS
VNNP
tp2181
a(V.
V.
tp2182
aa.