(lp1
(lp2
(VThe
VDT
tp3
a(VSupreme
VNNP
tp4
a(VCourt
VNNP
tp5
a(Vof
VIN
tp6
a(Vthe
VDT
tp7
a(VUnited
VNNP
tp8
a(VStates
VNNPS
tp9
a(Vhas
VVBZ
tp10
a(Vmade
VVBN
tp11
a(Vclear
VJJ
tp12
a(Vthat
VIN
tp13
a(Vprivacy
VNN
tp14
a(Vis
VVBZ
tp15
a(Va
VDT
tp16
a(Vconstitutionally
VRB
tp17
a(Vprotected
VVBN
tp18
a(Vand
VCC
tp19
a(Vfundamental
VJJ
tp20
a(Vright
VNN
tp21
a(V.
V.
tp22
aa(lp23
(VThey
VPRP
tp24
a(Vcould
VMD
tp25
a(Valso
VRB
tp26
a(Vget
VVB
tp27
a(Vthe
VDT
tp28
a(Vsearch
VNN
tp29
a(Vfunctions
VVBZ
tp30
a(Vto
VTO
tp31
a(Vwork
VVB
tp32
a(V.
V.
tp33
aa(lp34
(VThe
VDT
tp35
a(Vquestion
VNN
tp36
a(Vcontains
VVBZ
tp37
a(Va
VDT
tp38
a(Vsuggestion
VNN
tp39
a(Vthat
VIN
tp40
a(Vthe
VDT
tp41
a(Vsituation
VNN
tp42
a(Vis
VVBZ
tp43
a(Vextremely
VRB
tp44
a(Vserious
VJJ
tp45
a(Vacross
VIN
tp46
a(VEurope
VNNP
tp47
a(V.
V.
tp48
aa(lp49
(VSome
VDT
tp50
a(V70
VCD
tp51
a(V%
VNN
tp52
a(Vof
VIN
tp53
a(Vmonies
VNNS
tp54
a(Vwrongly
VRB
tp55
a(Vpaid
VVBN
tp56
a(Vout
VRP
tp57
a(Vhave
VVBP
tp58
a(Vnever
VRB
tp59
a(Vfound
VVBN
tp60
a(Vtheir
VPRP$
tp61
a(Vway
VNN
tp62
a(Vback
VRB
tp63
a(Vto
VTO
tp64
a(Vthe
VDT
tp65
a(VEU
VNNP
tp66
a(Vbudget
VNN
tp67
a(V.
V.
tp68
aa(lp69
(VThe
VDT
tp70
a(Voccupying
VVBG
tp71
a(Varmy
VNN
tp72
a(Vneeds
VVBZ
tp73
a(Vto
VTO
tp74
a(Vleave
VVB
tp75
a(V,
V,
tp76
a(Vcalm
VJJ
tp77
a(Vneeds
VNNS
tp78
a(Vto
VTO
tp79
a(Vbe
VVB
tp80
a(Vrestored
VVBN
tp81
a(Vto
VTO
tp82
a(Vthe
VDT
tp83
a(Visland
VNN
tp84
a(V,
V,
tp85
a(Vthe
VDT
tp86
a(V1960
VCD
tp87
a(VConstitution
VNNP
tp88
a(Vneeds
VVBZ
tp89
a(Vto
VTO
tp90
a(Vbe
VVB
tp91
a(Vapplied
VVBN
tp92
a(Vand
VCC
tp93
a(Veconomic
VJJ
tp94
a(Vprosperity
VNN
tp95
a(Vwill
VMD
tp96
a(Vfollow
VVB
tp97
a(Vin
VIN
tp98
a(Vnorthern
VJJ
tp99
a(VCyprus
VNNP
tp100
a(Vautomatically
VRB
tp101
a(V.
V.
tp102
aa(lp103
(VSome
VDT
tp104
a(Vpeople
VNNS
tp105
a(Vmaintain
VVBP
tp106
a(Vthat
VIN
tp107
a(Vthey
VPRP
tp108
a(Vtook
VVBD
tp109
a(Vpart
VNN
tp110
a(Vin
VIN
tp111
a(Vthe
VDT
tp112
a(Vmassacre
VNN
tp113
a(V.
V.
tp114
aa(lp115
(VNo
VDT
tp116
a(Vone
VNN
tp117
a(Vhas
VVBZ
tp118
a(Vthe
VDT
tp119
a(Vkey
VJJ
tp120
a(Vto
VTO
tp121
a(Vliberalisation
VNN
tp122
a(Vas
VIN
tp123
a(Vsuch
VJJ
tp124
a(V.
V.
tp125
aa(lp126
(VIsrael
VNNP
tp127
a(V,
V,
tp128
a(VJordan
VNNP
tp129
a(Vand
VCC
tp130
a(Vthe
VDT
tp131
a(VPalestinians
VNNPS
tp132
a(Vfind
VVBP
tp133
a(Vit
VPRP
tp134
a(Vdifficult
VJJ
tp135
a(Vto
VTO
tp136
a(Vshare
VVB
tp137
a(Vthe
VDT
tp138
a(VRiver
VNN
tp139
a(VJordan
VNNP
tp140
a(V.
V.
tp141
aa(lp142
(VIf
VIN
tp143
a(Vthe
VDT
tp144
a(Vprocedures
VNNS
tp145
a(Vhave
VVBP
tp146
a(Vbeen
VVBN
tp147
a(Vwrong
VJJ
tp148
a(Vin
VIN
tp149
a(Vthe
VDT
tp150
a(Vpast
VNN
tp151
a(Vthat
VWDT
tp152
a(Vis
VVBZ
tp153
a(Vno
VDT
tp154
a(Vexcuse
VNN
tp155
a(Vfor
VIN
tp156
a(Vnot
VRB
tp157
a(Vreforming
VVBG
tp158
a(Vthem
VPRP
tp159
a(V.
V.
tp160
aa(lp161
(VWe
VPRP
tp162
a(Vsee
VVBP
tp163
a(Vwinners
VNNS
tp164
a(Vand
VCC
tp165
a(Vlosers
VNNS
tp166
a(V,
V,
tp167
a(Vthe
VDT
tp168
a(Vlosers
VNNS
tp169
a(Vbeing
VVBG
tp170
a(Vthe
VDT
tp171
a(Vtens
VNNS
tp172
a(Vof
VIN
tp173
a(Vthousands
VNNS
tp174
a(Vof
VIN
tp175
a(Vlocal
VJJ
tp176
a(Vcivilians
VNNS
tp177
a(Vwho
VWP
tp178
a(Vare
VVBP
tp179
a(Vwithdrawing
VVBG
tp180
a(Vor
VCC
tp181
a(Vfleeing
VVBG
tp182
a(Vin
VIN
tp183
a(Vfear
VNN
tp184
a(Vof
VIN
tp185
a(Vgovernment
VNN
tp186
a(Vunits
VNNS
tp187
a(V.
V.
tp188
aa(lp189
(VThis
VDT
tp190
a(Vwill
VMD
tp191
a(Vpose
VVB
tp192
a(Va
VDT
tp193
a(Vthreat
VNN
tp194
a(Vto
VTO
tp195
a(Vthe
VDT
tp196
a(Vwhole
VJJ
tp197
a(Vworld
VNN
tp198
a(V.
V.
tp199
aa(lp200
(VIf
VIN
tp201
a(Vthere
VEX
tp202
a(Vis
VVBZ
tp203
a(Va
VDT
tp204
a(Vrequest
VNN
tp205
a(Von
VIN
tp206
a(Va
VDT
tp207
a(Vpoint
VNN
tp208
a(Vof
VIN
tp209
a(Vorder
VNN
tp210
a(V,
V,
tp211
a(VI
VPRP
tp212
a(Vcan
VMD
tp213
a(Vgive
VVB
tp214
a(Vthe
VDT
tp215
a(Vfloor
VNN
tp216
a(V.
V.
tp217
aa(lp218
(VThis
VDT
tp219
a(Vwas
VVBD
tp220
a(Valso
VRB
tp221
a(Vthe
VDT
tp222
a(Vconclusion
VNN
tp223
a(Varrived
VVBD
tp224
a(Vat
VIN
tp225
a(Vby
VIN
tp226
a(Vthe
VDT
tp227
a(VCourt
VNNP
tp228
a(Vin
VIN
tp229
a(Vthe
VDT
tp230
a(VLaval
VNNP
tp231
a(Vcase
VNN
tp232
a(V,
V,
tp233
a(Vfor
VIN
tp234
a(Vexample
VNN
tp235
a(V.
V.
tp236
aa(lp237
(VMore
VJJR
tp238
a(Vof
VIN
tp239
a(Vthis
VDT
tp240
a(Vlater
VRBR
tp241
a(V.
V.
tp242
aa(lp243
(VThis
VDT
tp244
a(Vtalk
VNN
tp245
a(Vis
VVBZ
tp246
a(Vintellectually
VRB
tp247
a(Vinvalid
VJJ
tp248
a(Vbecause
VIN
tp249
a(Vthe
VDT
tp250
a(Vterms
VNNS
tp251
a(Vused
VVBN
tp252
a(Vare
VVBP
tp253
a(Vnot
VRB
tp254
a(Veven
VRB
tp255
a(Vdefined
VVBN
tp256
a(V.
V.
tp257
aa(lp258
(VI
VPRP
tp259
a(Vam
VVBP
tp260
a(Vafraid
VJJ
tp261
a(Vtheir
VPRP$
tp262
a(Vbank
VNN
tp263
a(Vmanagers
VNNS
tp264
a(Vare
VVBP
tp265
a(Vnot
VRB
tp266
a(Vso
VRB
tp267
a(Vready
VJJ
tp268
a(Vto
VTO
tp269
a(Vaccept
VVB
tp270
a(Vthat
VIN
tp271
a(Vexcuse
VNN
tp272
a(V.
V.
tp273
aa(lp274
(VWe
VPRP
tp275
a(Vhave
VVBP
tp276
a(Vlived
VVBN
tp277
a(Vthrough
VIN
tp278
a(Vit
VPRP
tp279
a(V.
V.
tp280
aa(lp281
(VWe
VPRP
tp282
a(Vshall
VMD
tp283
a(Vdo
VVB
tp284
a(Veverything
VNN
tp285
a(Vwe
VPRP
tp286
a(Vcan
VMD
tp287
a(Vin
VIN
tp288
a(Vthe
VDT
tp289
a(Vfollowing
VJJ
tp290
a(Vdays
VNNS
tp291
a(Vto
VTO
tp292
a(Vimprove
VVB
tp293
a(Vthis
VDT
tp294
a(Vsituation
VNN
tp295
a(V.
V.
tp296
aa(lp297
(VAlso
VRB
tp298
a(Vwe
VPRP
tp299
a(Vare
VVBP
tp300
a(Vnot
VRB
tp301
a(Vso
VRB
tp302
a(Vsure
VJJ
tp303
a(Vthat
VIN
tp304
a(Vcold-start
VJJ
tp305
a(Vtesting
VNN
tp306
a(Vwas
VVBD
tp307
a(Vnot
VRB
tp308
a(Vincluded
VVBN
tp309
a(Vin
VIN
tp310
a(Vthis
VDT
tp311
a(Vdirective
VNN
tp312
a(Vanyway
VRB
tp313
a(V.
V.
tp314
aa(lp315
(VThat
VDT
tp316
a(Vis
VVBZ
tp317
a(Vnot
VRB
tp318
a(Venough
VRB
tp319
a(V,
V,
tp320
a(Vhowever
VRB
tp321
a(V.
V.
tp322
aa(lp323
(VEverybody
VNN
tp324
a(Vcomplains
VVBZ
tp325
a(Vabout
VIN
tp326
a(Vit
VPRP
tp327
a(V.
V.
tp328
aa(lp329
(VDevelopment
VNNP
tp330
a(Vfunds
VNNS
tp331
a(Vmust
VMD
tp332
a(Vbe
VVB
tp333
a(Vchannelled
VVBN
tp334
a(Vto
VTO
tp335
a(Vthis
VDT
tp336
a(Vsector
VNN
tp337
a(Vbecause
VIN
tp338
a(Vthere
VEX
tp339
a(Vis
VVBZ
tp340
a(Vhuge
VJJ
tp341
a(Vpotential
VNN
tp342
a(Vfor
VIN
tp343
a(Vinvestment
VNN
tp344
a(V.
V.
tp345
aa(lp346
(VIn
VIN
tp347
a(Vaddition
VNN
tp348
a(V,
V,
tp349
a(Vthe
VDT
tp350
a(VOffice
VNNP
tp351
a(Vof
VIN
tp352
a(Vthe
VDT
tp353
a(VRepresentative
VNNP
tp354
a(Vof
VIN
tp355
a(Vthe
VDT
tp356
a(VDalai
VNNP
tp357
a(VLama
VNNP
tp358
a(V,
V,
tp359
a(Vwhich
VWDT
tp360
a(Vwas
VVBD
tp361
a(Vestablished
VVBN
tp362
a(Vin
VIN
tp363
a(V1959
VCD
tp364
a(V,
V,
tp365
a(Vhas
VVBZ
tp366
a(Vbeen
VVBN
tp367
a(Vclosed
VVBN
tp368
a(V.
V.
tp369
aa(lp370
(VThe
VDT
tp371
a(Vproblem
VNN
tp372
a(Vaffects
VVBZ
tp373
a(Va
VDT
tp374
a(Vlot
VNN
tp375
a(Vof
VIN
tp376
a(Vjobs
VNNS
tp377
a(Vin
VIN
tp378
a(Vthe
VDT
tp379
a(Ventertainment
VNN
tp380
a(Vindustry
VNN
tp381
a(V.
V.
tp382
aa(lp383
(VWe
VPRP
tp384
a(Vin
VIN
tp385
a(Vmy
VPRP$
tp386
a(Vgroup
VNN
tp387
a(Vvery
VRB
tp388
a(Vmuch
VJJ
tp389
a(Vbelieve
VVBP
tp390
a(Vthat
VIN
tp391
a(V.
V.
tp392
aa(lp393
(VThe
VDT
tp394
a(VParliament
VNNP
tp395
a(Vtook
VVBD
tp396
a(Vits
VPRP$
tp397
a(Vtime
VNN
tp398
a(Vand
VCC
tp399
a(Vcompleted
VVBD
tp400
a(Vits
VPRP$
tp401
a(Vfirst
VJJ
tp402
a(Vreport
VNN
tp403
a(Vin
VIN
tp404
a(V1992
VCD
tp405
a(V.
V.
tp406
aa(lp407
(VKenny
VNNP
tp408
a(VRichey
VNNP
tp409
a(Vwas
VVBD
tp410
a(Vconvicted
VVBN
tp411
a(V16
VCD
tp412
a(Vyears
VNNS
tp413
a(Vago
VIN
tp414
a(Vof
VIN
tp415
a(Varson
VNN
tp416
a(Vand
VCC
tp417
a(Vthe
VDT
tp418
a(Vmurder
VNN
tp419
a(Vof
VIN
tp420
a(Va
VDT
tp421
a(Vtwo-year
VJJ
tp422
a(Vold
VJJ
tp423
a(Vgirl
VNN
tp424
a(Vwho
VWP
tp425
a(Vdied
VVBD
tp426
a(Vin
VIN
tp427
a(Vthe
VDT
tp428
a(Vfire
VNN
tp429
a(V.
V.
tp430
aa(lp431
(VI
VPRP
tp432
a(Vwould
VMD
tp433
a(Vprefer
VVB
tp434
a(Vto
VTO
tp435
a(Vsee
VVB
tp436
a(Vthis
VDT
tp437
a(Vachieved
VVBN
tp438
a(Vby
VIN
tp439
a(V2012
VCD
tp440
a(V.
V.
tp441
aa(lp442
(VThe
VDT
tp443
a(VBrussels
VNNP
tp444
a(Vproposals
VNNS
tp445
a(Vare
VVBP
tp446
a(Vtangible
VJJ
tp447
a(Vand
VCC
tp448
a(Vinteresting
VJJ
tp449
a(V.
V.
tp450
aa(lp451
(VWe
VPRP
tp452
a(Vare
VVBP
tp453
a(Vnow
VRB
tp454
a(Vdiscussing
VVBG
tp455
a(VTurkey
VNNP
tp456
a(V&apos;
VNN
tp457
a(Vs
VVBZ
tp458
a(Vcandidate
VNN
tp459
a(Vstatus
VNN
tp460
a(V.
V.
tp461
aa(lp462
(VMexico
VNNP
tp463
a(Vhas
VVBZ
tp464
a(Vnone
VNN
tp465
a(V!
V.
tp466
aa(lp467
(VThey
VPRP
tp468
a(Vare
VVBP
tp469
a(Valso
VRB
tp470
a(Vbeing
VVBG
tp471
a(Vimported
VVBN
tp472
a(Vinto
VIN
tp473
a(VGermany
VNNP
tp474
a(V.
V.
tp475
aa(lp476
(VThese
VDT
tp477
a(Vpreconditions
VNNS
tp478
a(Vare
VVBP
tp479
a(Vgenerally
VRB
tp480
a(Vnot
VRB
tp481
a(Vmet
VVBN
tp482
a(Vin
VIN
tp483
a(Vthe
VDT
tp484
a(VEU
VNNP
tp485
a(V,
V,
tp486
a(Vdespite
VIN
tp487
a(Vthe
VDT
tp488
a(VLisbon
VNNP
tp489
a(VDeclaration
VNNP
tp490
a(V.
V.
tp491
aa(lp492
(VOnce
VRB
tp493
a(Vagain
VRB
tp494
a(V,
V,
tp495
a(Vwe
VPRP
tp496
a(Vhave
VVBP
tp497
a(Vseen
VVBN
tp498
a(Vthat
VIN
tp499
a(Vimperialist
VJJ
tp500
a(Vpeace
VNN
tp501
a(Vis
VVBZ
tp502
a(Vas
VIN
tp503
a(Vbloody
VJJ
tp504
a(Vas
VIN
tp505
a(Vimperialist
VJJ
tp506
a(Vwar
VNN
tp507
a(V.
V.
tp508
aa(lp509
(VThey
VPRP
tp510
a(Vwant
VVBP
tp511
a(Vto
VTO
tp512
a(Vreduce
VVB
tp513
a(VParliamentary
VJJ
tp514
a(Vsittings
VNNS
tp515
a(Vin
VIN
tp516
a(Vthis
VDT
tp517
a(Vtown
VNN
tp518
a(V.
V.
tp519
aa(lp520
(VSo
VIN
tp521
a(Vwe
VPRP
tp522
a(Vknow
VVBP
tp523
a(Vwhat
VWP
tp524
a(Vthis
VDT
tp525
a(Vmay
VMD
tp526
a(Vmean
VVB
tp527
a(V.
V.
tp528
aa(lp529
(VThe
VDT
tp530
a(Vrest
VNN
tp531
a(Vis
VVBZ
tp532
a(Vof
VIN
tp533
a(Vtrifling
VJJ
tp534
a(Vimportance
VNN
tp535
a(V.
V.
tp536
aa(lp537
(VMore
VJJR
tp538
a(Vthan
VIN
tp539
a(VEUR
V$
tp540
a(V650
VCD
tp541
a(Vmillion
VCD
tp542
a(Vhas
VVBZ
tp543
a(Vbeen
VVBN
tp544
a(Vgiven
VVBN
tp545
a(Vin
VIN
tp546
a(Vaid
VNN
tp547
a(Vthrough
VIN
tp548
a(Vvarious
VJJ
tp549
a(Vchannels
VNNS
tp550
a(Vthis
VDT
tp551
a(Vyear
VNN
tp552
a(V,
V,
tp553
a(Vand
VCC
tp554
a(Vthat
VDT
tp555
a(Vis
VVBZ
tp556
a(Varound
VIN
tp557
a(V25
VCD
tp558
a(V%
VNN
tp559
a(Vmore
VJJR
tp560
a(Vthan
VIN
tp561
a(Vlast
VJJ
tp562
a(Vyear
VNN
tp563
a(V.
V.
tp564
aa(lp565
(VHe
VPRP
tp566
a(Vmanaged
VVBD
tp567
a(Vto
VTO
tp568
a(Vescape
VVB
tp569
a(Vto
VTO
tp570
a(VPeru
VNNP
tp571
a(V,
V,
tp572
a(Vwhere
VWRB
tp573
a(Vhe
VPRP
tp574
a(Vis
VVBZ
tp575
a(Vin
VIN
tp576
a(Vhiding
VVBG
tp577
a(V.
V.
tp578
aa(lp579
(VThis
VDT
tp580
a(Vcould
VMD
tp581
a(Vhave
VVB
tp582
a(Vbeen
VVBN
tp583
a(Vdone
VVBN
tp584
a(Vmuch
VRB
tp585
a(Vearlier
VRBR
tp586
a(V.
V.
tp587
aa(lp588
(VA
VDT
tp589
a(Vsupplementary
VJJ
tp590
a(Vquestion
VNN
tp591
a(V.
V.
tp592
aa(lp593
(VAt
VIN
tp594
a(Vthe
VDT
tp595
a(Vsame
VJJ
tp596
a(Vtime
VNN
tp597
a(V,
V,
tp598
a(Vhowever
VRB
tp599
a(V,
V,
tp600
a(Vthis
VDT
tp601
a(Vdoes
VVBZ
tp602
a(Vnot
VRB
tp603
a(Vmean
VVB
tp604
a(Vbusiness
VNN
tp605
a(Vas
VIN
tp606
a(Vusual
VJJ
tp607
a(V.
V.
tp608
aa(lp609
(VThe
VDT
tp610
a(VCommission
VNNP
tp611
a(Vis
VVBZ
tp612
a(Vnot
VRB
tp613
a(V,
V,
tp614
a(Vand
VCC
tp615
a(Vcategorically
VRB
tp616
a(Vmust
VMD
tp617
a(Vnot
VRB
tp618
a(Vbe
VVB
tp619
a(V,
V,
tp620
a(Va
VDT
tp621
a(Vgovernment
VNN
tp622
a(V.
V.
tp623
aa(lp624
(VIt
VPRP
tp625
a(Vappears
VVBZ
tp626
a(Vthat
VIN
tp627
a(Vthis
VDT
tp628
a(Vhas
VVBZ
tp629
a(Vhelped
VVBN
tp630
a(Vus
VPRP
tp631
a(Vto
VTO
tp632
a(Vunderstand
VVB
tp633
a(Vbetter
VJJR
tp634
a(Vthe
VDT
tp635
a(Vdangers
VNNS
tp636
a(Vthat
VIN
tp637
a(Vwe
VPRP
tp638
a(Vface
VVBP
tp639
a(V.
V.
tp640
aa(lp641
(VI
VPRP
tp642
a(Vfully
VRB
tp643
a(Vsupport
VVBP
tp644
a(Vthe
VDT
tp645
a(Vreport
VNN
tp646
a(Vof
VIN
tp647
a(VVladimir
VNNP
tp648
a(VRemek
VNNP
tp649
a(Vand
VCC
tp650
a(VI
VPRP
tp651
a(Vvoted
VVBD
tp652
a(Vin
VIN
tp653
a(Vfavour
VNN
tp654
a(V.
V.
tp655
aa(lp656
(VIn
VIN
tp657
a(Vfact
VNN
tp658
a(V,
V,
tp659
a(Vall
VDT
tp660
a(Vareas
VNNS
tp661
a(Vof
VIN
tp662
a(Vactivity
VNN
tp663
a(Vin
VIN
tp664
a(Vthese
VDT
tp665
a(Vcountries
VNNS
tp666
a(Vhave
VVBP
tp667
a(Vbeen
VVBN
tp668
a(Vdamaged
VVBN
tp669
a(V.
V.
tp670
aa(lp671
(VI
VPRP
tp672
a(Vthink
VVBP
tp673
a(Vwe
VPRP
tp674
a(Vare
VVBP
tp675
a(Vlosing
VVBG
tp676
a(Vtime
VNN
tp677
a(Vin
VIN
tp678
a(VEurope
VNNP
tp679
a(V.
V.
tp680
aa(lp681
(VIn
VIN
tp682
a(Vmy
VPRP$
tp683
a(Voffice
VNN
tp684
a(Vin
VIN
tp685
a(Vrecent
VJJ
tp686
a(Vweeks
VNNS
tp687
a(V,
V,
tp688
a(Vthree
VCD
tp689
a(Vcolleagues
VNNS
tp690
a(Vhave
VVBP
tp691
a(Vbeen
VVBN
tp692
a(Vattacked
VVBN
tp693
a(V.
V.
tp694
aa(lp695
(VNow
VRB
tp696
a(V,
V,
tp697
a(Vwith
VIN
tp698
a(Vnew
VJJ
tp699
a(Vgovernments
VNNS
tp700
a(Vin
VIN
tp701
a(Vthe
VDT
tp702
a(Vregion
VNN
tp703
a(Vand
VCC
tp704
a(Vin
VIN
tp705
a(VPortugal
VNNP
tp706
a(V,
V,
tp707
a(Vwhat
VWP
tp708
a(Vwe
VPRP
tp709
a(Vsupported
VVBD
tp710
a(Vin
VIN
tp711
a(V1995
VCD
tp712
a(Vis
VVBZ
tp713
a(Vbeing
VVBG
tp714
a(Vimplemented
VVBN
tp715
a(V.
V.
tp716
aa(lp717
(VI
VPRP
tp718
a(Vam
VVBP
tp719
a(Vamong
VIN
tp720
a(Vthose
VDT
tp721
a(Vwho
VWP
tp722
a(Vproceed
VVBP
tp723
a(Von
VIN
tp724
a(Vthe
VDT
tp725
a(Vbasis
VNN
tp726
a(Vthat
VIN
tp727
a(Vthe
VDT
tp728
a(Voption
VNN
tp729
a(Vof
VIN
tp730
a(Vfinding
VVBG
tp731
a(Va
VDT
tp732
a(Vthird
VJJ
tp733
a(Vway
VNN
tp734
a(Vcan
VMD
tp735
a(Valso
VRB
tp736
a(Vbe
VVB
tp737
a(Van
VDT
tp738
a(Vinstrument
VNN
tp739
a(V.
V.
tp740
aa(lp741
(VThis
VDT
tp742
a(Vis
VVBZ
tp743
a(Vtoo
VRB
tp744
a(Vfew
VJJ
tp745
a(V.
V.
tp746
aa(lp747
(VThe
VDT
tp748
a(Vmajority
VNN
tp749
a(Vof
VIN
tp750
a(Vnew
VJJ
tp751
a(Vinfections
VNNS
tp752
a(Vinvolve
VVBP
tp753
a(Vyoung
VJJ
tp754
a(Vpeople
VNNS
tp755
a(Vaged
VJJ
tp756
a(Vbetween
VIN
tp757
a(V15
VCD
tp758
a(Vand
VCC
tp759
a(V25
VCD
tp760
a(V,
V,
tp761
a(Vand
VCC
tp762
a(Vin
VIN
tp763
a(Vparticular
VJJ
tp764
a(Vwomen
VNNS
tp765
a(V.
V.
tp766
aa(lp767
(VHowever
VRB
tp768
a(V,
V,
tp769
a(Vthe
VDT
tp770
a(Vsituation
VNN
tp771
a(Vof
VIN
tp772
a(Vmedia
VNNS
tp773
a(Vfreedom
VNN
tp774
a(Vis
VVBZ
tp775
a(Vonly
VRB
tp776
a(Vgetting
VVBG
tp777
a(Vworse
VJJR
tp778
a(V.
V.
tp779
aa(lp780
(VIt
VPRP
tp781
a(Vis
VVBZ
tp782
a(Vparticularly
VRB
tp783
a(Vinteresting
VJJ
tp784
a(Vthat
VIN
tp785
a(Vthe
VDT
tp786
a(VChristian
VNNP
tp787
a(VDemocrats
VNNPS
tp788
a(Vare
VVBP
tp789
a(Vable
VJJ
tp790
a(Vto
VTO
tp791
a(Vdistinguish
VVB
tp792
a(Vbetween
VIN
tp793
a(Vthose
VDT
tp794
a(Vgifts
VNNS
tp795
a(Vwhich
VWDT
tp796
a(Vhave
VVBP
tp797
a(Van
VDT
tp798
a(Veffect
VNN
tp799
a(Von
VIN
tp800
a(Vvotes
VNNS
tp801
a(Vand
VCC
tp802
a(Vthose
VDT
tp803
a(Vwhich
VWDT
tp804
a(Vdo
VVBP
tp805
a(Vnot
VRB
tp806
a(V.
V.
tp807
aa(lp808
(VThe
VDT
tp809
a(Vuse
VNN
tp810
a(Vof
VIN
tp811
a(Vstun
VNN
tp812
a(Vguns
VNNS
tp813
a(Vis
VVBZ
tp814
a(Vfor
VIN
tp815
a(Vself-defence
VNN
tp816
a(Vand
VCC
tp817
a(Vriot
VNN
tp818
a(Vcontrol
VNN
tp819
a(Vis
VVBZ
tp820
a(Vnot
VRB
tp821
a(Vin
VIN
tp822
a(Vquestion
VNN
tp823
a(V.
V.
tp824
aa(lp825
(VWell
VRB
tp826
a(V,
V,
tp827
a(Vask
VVB
tp828
a(Vyourself
VPRP
tp829
a(V:
V:
tp830
a(Vwhy
VWRB
tp831
a(Vare
VVBP
tp832
a(Vthe
VDT
tp833
a(Vpoliticians
VNNS
tp834
a(V,
V,
tp835
a(Vwhy
VWRB
tp836
a(Vis
VVBZ
tp837
a(Vthis
VDT
tp838
a(Vclass
VNN
tp839
a(V,
V,
tp840
a(Vnow
VRB
tp841
a(Vunpopular
VJJ
tp842
a(V?
V.
tp843
aa(lp844
(VThe
VDT
tp845
a(Vtrend
VNN
tp846
a(Vof
VIN
tp847
a(Vdemand
VNN
tp848
a(Vis
VVBZ
tp849
a(Vmore
VRBR
tp850
a(Vtowards
VIN
tp851
a(Vpigmeat
VNN
tp852
a(V.
V.
tp853
aa(lp854
(VThe
VDT
tp855
a(Vnew
VJJ
tp856
a(Vlegislation
VNN
tp857
a(Valso
VRB
tp858
a(Vbrings
VVBZ
tp859
a(Vphysical
VJJ
tp860
a(Vand
VCC
tp861
a(Vmechanical
VJJ
tp862
a(Vproperties
VNNS
tp863
a(Vinto
VIN
tp864
a(Vline
VNN
tp865
a(Vin
VIN
tp866
a(Vorder
VNN
tp867
a(Vto
VTO
tp868
a(Vreduce
VVB
tp869
a(Vthe
VDT
tp870
a(Vrisks
VNNS
tp871
a(Vof
VIN
tp872
a(Vsuffocation
VNN
tp873
a(V.
V.
tp874
aa(lp875
(VNow
VRB
tp876
a(Vwe
VPRP
tp877
a(Vsee
VVBP
tp878
a(Vthat
VIN
tp879
a(Vthe
VDT
tp880
a(Vscoreboard
VNN
tp881
a(Vmethod
VNN
tp882
a(Vfalls
VVBZ
tp883
a(Vshort
VJJ
tp884
a(Vof
VIN
tp885
a(Vthese
VDT
tp886
a(Vambitious
VJJ
tp887
a(Vaims
VNNS
tp888
a(V.
V.
tp889
aa(lp890
(VHowever
VRB
tp891
a(V,
V,
tp892
a(Vwhat
VWDT
tp893
a(Vgoes
VVBZ
tp894
a(Von
VIN
tp895
a(Vin
VIN
tp896
a(Vterms
VNNS
tp897
a(Vof
VIN
tp898
a(Vsocial
VJJ
tp899
a(Vinteraction
VNN
tp900
a(Vis
VVBZ
tp901
a(Vnot
VRB
tp902
a(Vlegally
VRB
tp903
a(Vregulated
VVBN
tp904
a(V.
V.
tp905
aa(lp906
(VWe
VPRP
tp907
a(Vwill
VMD
tp908
a(Vensure
VVB
tp909
a(Vthat
VDT
tp910
a(Vis
VVBZ
tp911
a(Venforced
VVBN
tp912
a(V.
V.
tp913
aa(lp914
(VThe
VDT
tp915
a(Vdebate
VNN
tp916
a(Von
VIN
tp917
a(Vthis
VDT
tp918
a(Vreport
VNN
tp919
a(Vis
VVBZ
tp920
a(Vsuspended
VVBN
tp921
a(V.
V.
tp922
aa(lp923
(VThey
VPRP
tp924
a(Valso
VRB
tp925
a(Vcondemn
VVBP
tp926
a(Vfraud
VNN
tp927
a(Vor
VCC
tp928
a(Vthe
VDT
tp929
a(Vmisappropriation
VNN
tp930
a(Vof
VIN
tp931
a(Vpublic
VJJ
tp932
a(Vmonies
VNNS
tp933
a(V,
V,
tp934
a(Vthe
VDT
tp935
a(Vmoney
VNN
tp936
a(Vstolen
VVBN
tp937
a(Vfrom
VIN
tp938
a(VEuropean
VJJ
tp939
a(Vtaxpayers
VNNS
tp940
a(V.
V.
tp941
aa(lp942
(VHow
VWRB
tp943
a(Vshould
VMD
tp944
a(Vwe
VPRP
tp945
a(Vtackle
VVB
tp946
a(Vit
VPRP
tp947
a(V?
V.
tp948
aa(lp949
(VOf
VIN
tp950
a(Vthe
VDT
tp951
a(VEU
VNNP
tp952
a(V&amp;
VNN
tp953
a(V#
V#
tp954
a(Vx02BC
VNN
tp955
a(V;
V:
tp956
a(Vs
VNNS
tp957
a(Vfilm
VNN
tp958
a(Vmarket
VNN
tp959
a(V,
V,
tp960
a(V76
VCD
tp961
a(V%
VNN
tp962
a(Vconsists
VVBZ
tp963
a(Vof
VIN
tp964
a(VAmerican
VJJ
tp965
a(Vfilms
VNNS
tp966
a(V.
V.
tp967
aa(lp968
(VThe
VDT
tp969
a(Vfirst
VJJ
tp970
a(Vline
VNN
tp971
a(Vis
VVBZ
tp972
a(Vthe
VDT
tp973
a(Vcompletion
VNN
tp974
a(Vof
VIN
tp975
a(Vthe
VDT
tp976
a(V1994-1999
VCD
tp977
a(Vprogrammes
VNNS
tp978
a(V.
V.
tp979
aa(lp980
(VThere
VEX
tp981
a(Vare
VVBP
tp982
a(Vtwo
VCD
tp983
a(Vmore
VRBR
tp984
a(Vimportant
VJJ
tp985
a(Vreasons
VNNS
tp986
a(Vwhy
VWRB
tp987
a(Vwe
VPRP
tp988
a(Vshould
VMD
tp989
a(Vstrengthen
VVB
tp990
a(Vour
VPRP$
tp991
a(Vrelations
VNNS
tp992
a(Vwith
VIN
tp993
a(VTurkmenistan
VNNP
tp994
a(Vto
VTO
tp995
a(Vprotect
VVB
tp996
a(Vour
VPRP$
tp997
a(Vown
VJJ
tp998
a(Vinterests
VNNS
tp999
a(V:
V:
tp1000
a(Vsecurity
VNN
tp1001
a(Vand
VCC
tp1002
a(Venergy
VNN
tp1003
a(V.
V.
tp1004
aa(lp1005
(VIt
VPRP
tp1006
a(Vis
VVBZ
tp1007
a(Vmy
VPRP$
tp1008
a(Vdearest
VJJ
tp1009
a(Vwish
VNN
tp1010
a(Vfor
VIN
tp1011
a(Vthe
VDT
tp1012
a(VEU
VNNP
tp1013
a(V&apos;s
VNNS
tp1014
a(VHeads
VNNS
tp1015
a(Vof
VIN
tp1016
a(VGovernment
VNN
tp1017
a(Vand
VCC
tp1018
a(VState
VNN
tp1019
a(Vto
VTO
tp1020
a(Vfinally
VRB
tp1021
a(Vget
VVB
tp1022
a(Vthe
VDT
tp1023
a(VEuropean
VNNP
tp1024
a(VUnion
VNNP
tp1025
a(Vto
VTO
tp1026
a(Vgrow
VVB
tp1027
a(Vup
VRP
tp1028
a(V.
V.
tp1029
aa(lp1030
(VThis
VDT
tp1031
a(Vis
VVBZ
tp1032
a(Vthe
VDT
tp1033
a(Vpackage
VNN
tp1034
a(Vand
VCC
tp1035
a(Vthe
VDT
tp1036
a(Vdelay
VNN
tp1037
a(Vis
VVBZ
tp1038
a(Vthe
VDT
tp1039
a(Vprice
VNN
tp1040
a(Vpaid
VVBN
tp1041
a(Vby
VIN
tp1042
a(Vthe
VDT
tp1043
a(Vindustry
VNN
tp1044
a(V.
V.
tp1045
aa(lp1046
(VThe
VDT
tp1047
a(VZimbabwean
VJJ
tp1048
a(Vpopulation
VNN
tp1049
a(Vdeserves
VVBZ
tp1050
a(Va
VDT
tp1051
a(Vfar
VRB
tp1052
a(Vbetter
VJJR
tp1053
a(Vgovernment
VNN
tp1054
a(Vthan
VIN
tp1055
a(Vit
VPRP
tp1056
a(Vhas
VVBZ
tp1057
a(Vat
VIN
tp1058
a(Vthe
VDT
tp1059
a(Vmoment
VNN
tp1060
a(V.
V.
tp1061
aa(lp1062
a(lp1063
(VIt
VPRP
tp1064
a(Vwill
VMD
tp1065
a(Venable
VVB
tp1066
a(Vother
VJJ
tp1067
a(Vstates
VNNS
tp1068
a(Vto
VTO
tp1069
a(Vjoin
VVB
tp1070
a(V,
V,
tp1071
a(Vincluding
VVBG
tp1072
a(Va
VDT
tp1073
a(Vlink
VNN
tp1074
a(Vto
VTO
tp1075
a(VGreat
VNNP
tp1076
a(VBritain
VNNP
tp1077
a(Vand
VCC
tp1078
a(VIreland
VNNP
tp1079
a(V.
V.
tp1080
aa(lp1081
(VOr
VCC
tp1082
a(Vthat
VDT
tp1083
a(V,
V,
tp1084
a(Vin
VIN
tp1085
a(Vthe
VDT
tp1086
a(Vmidst
VNN
tp1087
a(Vof
VIN
tp1088
a(Va
VDT
tp1089
a(Vcrisis
VNN
tp1090
a(V,
V,
tp1091
a(Vwith
VIN
tp1092
a(Vthe
VDT
tp1093
a(Vmonetary
VJJ
tp1094
a(Vtool
VNN
tp1095
a(Vat
VIN
tp1096
a(VCommunity
VNNP
tp1097
a(Vlevel
VNN
tp1098
a(Vand
VCC
tp1099
a(Vthe
VDT
tp1100
a(Vfinancial
VJJ
tp1101
a(Vtool
VNN
tp1102
a(Vat
VIN
tp1103
a(Vnational
VJJ
tp1104
a(Vlevel
VNN
tp1105
a(V,
V,
tp1106
a(Vwe
VPRP
tp1107
a(Vshall
VMD
tp1108
a(Vend
VVB
tp1109
a(Vup
VRP
tp1110
a(Vin
VIN
tp1111
a(Van
VDT
tp1112
a(Vimpasse
VNN
tp1113
a(V?
V.
tp1114
aa(lp1115
(VIt
VPRP
tp1116
a(Vneeds
VVBZ
tp1117
a(Va
VDT
tp1118
a(Vlot
VNN
tp1119
a(Vof
VIN
tp1120
a(Vwork
VNN
tp1121
a(Vby
VIN
tp1122
a(VParliament
VNNP
tp1123
a(V.
V.
tp1124
aa(lp1125
(VAnd
VCC
tp1126
a(Vif
VIN
tp1127
a(Vyou
VPRP
tp1128
a(Vthink
VVBP
tp1129
a(Vthat
VDT
tp1130
a(Vis
VVBZ
tp1131
a(Va
VDT
tp1132
a(Vrather
VRB
tp1133
a(Vlong
VJJ
tp1134
a(Vtime
VNN
tp1135
a(Vframe
VNN
tp1136
a(V,
V,
tp1137
a(Vmay
VMD
tp1138
a(VI
VPRP
tp1139
a(Vassure
VVB
tp1140
a(Vyou
VPRP
tp1141
a(V,
V,
tp1142
a(Vas
VIN
tp1143
a(Van
VDT
tp1144
a(Vastronomer
VNN
tp1145
a(V,
V,
tp1146
a(Vthat
VIN
tp1147
a(Vthe
VDT
tp1148
a(Vsun
VNN
tp1149
a(Vwill
VMD
tp1150
a(Vbe
VVB
tp1151
a(Vin
VIN
tp1152
a(Vthe
VDT
tp1153
a(Vsky
VNN
tp1154
a(Vfor
VIN
tp1155
a(Vanother
VDT
tp1156
a(V4.5
VCD
tp1157
a(Vbillion
VCD
tp1158
a(Vyears
VNNS
tp1159
a(V.
V.
tp1160
aa(lp1161
(VYesterday
VNN
tp1162
a(V,
V,
tp1163
a(Von
VIN
tp1164
a(Vbehalf
VNN
tp1165
a(Vof
VIN
tp1166
a(Vthe
VDT
tp1167
a(VCommission
VNNP
tp1168
a(V,
V,
tp1169
a(VI
VPRP
tp1170
a(Vsent
VVBD
tp1171
a(Vcommiserations
VNNS
tp1172
a(Vto
VTO
tp1173
a(Vthe
VDT
tp1174
a(Vrelatives
VNNS
tp1175
a(Vand
VCC
tp1176
a(Vfriends
VNNS
tp1177
a(Vof
VIN
tp1178
a(Vthose
VDT
tp1179
a(Vwho
VWP
tp1180
a(Vlost
VVBD
tp1181
a(Vtheir
VPRP$
tp1182
a(Vlives
VNNS
tp1183
a(Vin
VIN
tp1184
a(VAthens
VNNP
tp1185
a(Vas
VIN
tp1186
a(Va
VDT
tp1187
a(Vresult
VNN
tp1188
a(Vof
VIN
tp1189
a(Vthe
VDT
tp1190
a(Vviolence
VNN
tp1191
a(V.
V.
tp1192
aa(lp1193
(VAs
VIN
tp1194
a(Vyet
VRB
tp1195
a(V,
V,
tp1196
a(Vnothing
VNN
tp1197
a(Vhas
VVBZ
tp1198
a(Vbeen
VVBN
tp1199
a(Vput
VVBN
tp1200
a(Von
VIN
tp1201
a(Vthe
VDT
tp1202
a(Vtable
VNN
tp1203
a(V-
V:
tp1204
a(Vnothing
VNN
tp1205
a(V!
V.
tp1206
aa(lp1207
(VVice-President
VNN
tp1208
a(Vof
VIN
tp1209
a(Vthe
VDT
tp1210
a(VCommission
VNNP
tp1211
a(V.
V.
tp1212
a(V-
V:
tp1213
a(VMadam
VNNP
tp1214
a(VPresident
VNNP
tp1215
a(V,
V,
tp1216
a(Vthe
VDT
tp1217
a(VCommission
VNNP
tp1218
a(Vshould
VMD
tp1219
a(V&apos;
VVB
tp1220
a(Vtake
VVB
tp1221
a(Va
VDT
tp1222
a(Vleading
VVBG
tp1223
a(Vrole
VNN
tp1224
a(Vin
VIN
tp1225
a(Vpromoting
VVBG
tp1226
a(Va
VDT
tp1227
a(Vservice
VNN
tp1228
a(Vculture
VNN
tp1229
a(V&apos;
VNN
tp1230
a(V.
V.
tp1231
aa(lp1232
(VEurope
VNNP
tp1233
a(Vhas
VVBZ
tp1234
a(Vbeen
VVBN
tp1235
a(Vat
VIN
tp1236
a(Vthe
VDT
tp1237
a(Vfore
VNN
tp1238
a(Vin
VIN
tp1239
a(Vdeveloping
VVBG
tp1240
a(Vthe
VDT
tp1241
a(Vconcept
VNN
tp1242
a(Vof
VIN
tp1243
a(Vuniversal
VJJ
tp1244
a(Vhuman
VJJ
tp1245
a(Vrights
VNNS
tp1246
a(V.
V.
tp1247
aa(lp1248
(VI
VPRP
tp1249
a(Vdeclare
VVBP
tp1250
a(Vadjourned
VVBN
tp1251
a(Vthe
VDT
tp1252
a(Vsession
VNN
tp1253
a(Vof
VIN
tp1254
a(Vthe
VDT
tp1255
a(VEuropean
VNNP
tp1256
a(VParliament
VNNP
tp1257
a(V.
V.
tp1258
aa(lp1259
(VNow
VRB
tp1260
a(Vthey
VPRP
tp1261
a(Vhave
VVBP
tp1262
a(Vthe
VDT
tp1263
a(Vresult
VNN
tp1264
a(Vthey
VPRP
tp1265
a(Vwanted
VVBD
tp1266
a(V.
V.
tp1267
aa(lp1268
(VI
VPRP
tp1269
a(Vtalked
VVBD
tp1270
a(Vwith
VIN
tp1271
a(Vthe
VDT
tp1272
a(Vteam
VNN
tp1273
a(Vwhile
VIN
tp1274
a(VI
VPRP
tp1275
a(Vwas
VVBD
tp1276
a(Vin
VIN
tp1277
a(VGeneva
VNNP
tp1278
a(V.
V.
tp1279
aa(lp1280
(VThis
VDT
tp1281
a(Vconfirms
VVBZ
tp1282
a(Vthat
VIN
tp1283
a(Vthere
VEX
tp1284
a(Vare
VVBP
tp1285
a(Vmany
VJJ
tp1286
a(Vdifferences
VNNS
tp1287
a(Vwithin
VIN
tp1288
a(Vour
VPRP$
tp1289
a(VUnion
VNNP
tp1290
a(V.
V.
tp1291
aa(lp1292
(VOn
VIN
tp1293
a(Vthe
VDT
tp1294
a(Vcontrary
VNN
tp1295
a(V,
V,
tp1296
a(Vit
VPRP
tp1297
a(Vemerged
VVBD
tp1298
a(Vas
VIN
tp1299
a(Vthe
VDT
tp1300
a(Vproduct
VNN
tp1301
a(Vof
VIN
tp1302
a(Vpractical
VJJ
tp1303
a(Vagreements
VNNS
tp1304
a(V.
V.
tp1305
aa(lp1306
(VThey
VPRP
tp1307
a(Vshould
VMD
tp1308
a(Vbe
VVB
tp1309
a(Vsent
VVBN
tp1310
a(Vstraight
VRB
tp1311
a(Vback
VRB
tp1312
a(Vto
VTO
tp1313
a(VAfrica
VNNP
tp1314
a(V.
V.
tp1315
aa(lp1316
(VI
VPRP
tp1317
a(Vwas
VVBD
tp1318
a(Vpresent
VJJ
tp1319
a(Vall
VDT
tp1320
a(Vday
VNN
tp1321
a(Vyesterday
VNN
tp1322
a(Vand
VCC
tp1323
a(Vduring
VIN
tp1324
a(Vthe
VDT
tp1325
a(Vvote
VNN
tp1326
a(Vwhich
VWDT
tp1327
a(Vtook
VVBD
tp1328
a(Vplace
VNN
tp1329
a(Vat
VIN
tp1330
a(Vnoon
VNN
tp1331
a(V,
V,
tp1332
a(Vbut
VCC
tp1333
a(VI
VPRP
tp1334
a(Vdo
VVBP
tp1335
a(Vnot
VRB
tp1336
a(Vappear
VVB
tp1337
a(Vin
VIN
tp1338
a(Vthe
VDT
tp1339
a(VMinutes
VNNPS
tp1340
a(V.
V.
tp1341
aa(lp1342
(VWhen
VWRB
tp1343
a(Vthis
VDT
tp1344
a(Vtakes
VVBZ
tp1345
a(Vplace
VNN
tp1346
a(Vamong
VIN
tp1347
a(Vadults
VNNS
tp1348
a(Vit
VPRP
tp1349
a(Vis
VVBZ
tp1350
a(Vnot
VRB
tp1351
a(Va
VDT
tp1352
a(Vcriminal
VJJ
tp1353
a(Voffence
VNN
tp1354
a(V.
V.
tp1355
aa(lp1356
(VWomen
VNNS
tp1357
a(Vwho
VWP
tp1358
a(Vgive
VVBP
tp1359
a(Vbirth
VNN
tp1360
a(Vto
VTO
tp1361
a(Valbino
VNN
tp1362
a(Vbabies
VNNS
tp1363
a(Vare
VVBP
tp1364
a(Vforced
VVBN
tp1365
a(Vinto
VIN
tp1366
a(Vdivorce
VNN
tp1367
a(V.
V.
tp1368
aa(lp1369
(VElections
VNNS
tp1370
a(Vin
VIN
tp1371
a(Va
VDT
tp1372
a(Vcountry
VNN
tp1373
a(Vof
VIN
tp1374
a(V110
VCD
tp1375
a(Vmillion
VCD
tp1376
a(V,
V,
tp1377
a(Vof
VIN
tp1378
a(Vwhich
VWDT
tp1379
a(V64
VCD
tp1380
a(Vmillion
VCD
tp1381
a(Vare
VVBP
tp1382
a(Vof
VIN
tp1383
a(Vvoting
VVBG
tp1384
a(Vage
VNN
tp1385
a(V,
V,
tp1386
a(Vshould
VMD
tp1387
a(Vfocus
VVB
tp1388
a(Vthe
VDT
tp1389
a(Vattention
VNN
tp1390
a(Vof
VIN
tp1391
a(Vpublic
VJJ
tp1392
a(Vopinion
VNN
tp1393
a(V.
V.
tp1394
aa(lp1395
(VThe
VDT
tp1396
a(VEU
VNNP
tp1397
a(Vand
VCC
tp1398
a(VTony
VNNP
tp1399
a(VBlair
VNNP
tp1400
a(Vdeserve
VVB
tp1401
a(Veach
VDT
tp1402
a(Vother
VJJ
tp1403
a(V.
V.
tp1404
aa(lp1405
(VThis
VDT
tp1406
a(Vlaw
VNN
tp1407
a(Vindeed
VRB
tp1408
a(Vprovides
VVBZ
tp1409
a(Vfor
VIN
tp1410
a(Vtough
VJJ
tp1411
a(Vsanctions
VNNS
tp1412
a(Von
VIN
tp1413
a(Vthose
VDT
tp1414
a(Vwho
VWP
tp1415
a(Vtrade
VVBP
tp1416
a(Vin
VIN
tp1417
a(Vweapons
VNNS
tp1418
a(Vwithout
VIN
tp1419
a(Va
VDT
tp1420
a(Vlicence
VNN
tp1421
a(V.
V.
tp1422
aa(lp1423
(VThose
VDT
tp1424
a(Vwho
VWP
tp1425
a(Vthink
VVBP
tp1426
a(Vin
VIN
tp1427
a(Vmerely
VRB
tp1428
a(Veconomic
VJJ
tp1429
a(Vterms
VNNS
tp1430
a(Vare
VVBP
tp1431
a(Vblind
VJJ
tp1432
a(Vin
VIN
tp1433
a(Vone
VCD
tp1434
a(Veye
VNN
tp1435
a(V.
V.
tp1436
aa(lp1437
(VWe
VPRP
tp1438
a(Vare
VVBP
tp1439
a(Vworking
VVBG
tp1440
a(Vtogether
VRB
tp1441
a(Vwith
VIN
tp1442
a(Vremarkable
VJJ
tp1443
a(Vsuccess
VNN
tp1444
a(Vin
VIN
tp1445
a(Vplaces
VNNS
tp1446
a(Vsuch
VJJ
tp1447
a(Vas
VIN
tp1448
a(Vthe
VDT
tp1449
a(VBalkans
VNNPS
tp1450
a(V,
V,
tp1451
a(VAfghanistan
VNNP
tp1452
a(Vand
VCC
tp1453
a(VUkraine
VNNP
tp1454
a(V.
V.
tp1455
aa(lp1456
(VThis
VDT
tp1457
a(Vis
VVBZ
tp1458
a(Vcompletely
VRB
tp1459
a(Vclear
VJJ
tp1460
a(V!
V.
tp1461
aa(lp1462
(VWe
VPRP
tp1463
a(Vshould
VMD
tp1464
a(Vnot
VRB
tp1465
a(Vbe
VVB
tp1466
a(Vseeking
VVBG
tp1467
a(Vgreater
VJJR
tp1468
a(Vpowers
VNNS
tp1469
a(Vfor
VIN
tp1470
a(Vthe
VDT
tp1471
a(Vcentre
VNN
tp1472
a(V.
V.
tp1473
aa(lp1474
(VSecondly
VRB
tp1475
a(V,
V,
tp1476
a(Vthe
VDT
tp1477
a(Vchange
VNN
tp1478
a(Vof
VIN
tp1479
a(VInterior
VNNP
tp1480
a(VMinister
VNNP
tp1481
a(V,
V,
tp1482
a(Vin
VIN
tp1483
a(Vother
VJJ
tp1484
a(Vwords
VNNS
tp1485
a(V,
V,
tp1486
a(Vthe
VDT
tp1487
a(VMinister
VNNP
tp1488
a(Vresponsible
VJJ
tp1489
a(Vfor
VIN
tp1490
a(Vsecurity
VNN
tp1491
a(V.
V.
tp1492
aa(lp1493
(VThe
VDT
tp1494
a(Vmain
VJJ
tp1495
a(Vargument
VNN
tp1496
a(Vput
VVBD
tp1497
a(Vforward
VRB
tp1498
a(Vby
VIN
tp1499
a(Vthe
VDT
tp1500
a(VUnited
VNNP
tp1501
a(VStates
VNNPS
tp1502
a(Vin
VIN
tp1503
a(Vthis
VDT
tp1504
a(Vcontext
VNN
tp1505
a(Vis
VVBZ
tp1506
a(Vthat
VIN
tp1507
a(Vthe
VDT
tp1508
a(Vpresent
VJJ
tp1509
a(Vprovisions
VNNS
tp1510
a(Vare
VVBP
tp1511
a(V,
V,
tp1512
a(Vthey
VPRP
tp1513
a(Vsay
VVBP
tp1514
a(V,
V,
tp1515
a(Vincompatible
VJJ
tp1516
a(Vwith
VIN
tp1517
a(Vinternational
VJJ
tp1518
a(Vtrade
VNN
tp1519
a(Vlaw
VNN
tp1520
a(V.
V.
tp1521
aa(lp1522
(VWe
VPRP
tp1523
a(Vmust
VMD
tp1524
a(Vbe
VVB
tp1525
a(Vambitious
VJJ
tp1526
a(Vand
VCC
tp1527
a(Vdemand
VVB
tp1528
a(Vthe
VDT
tp1529
a(Vprotection
VNN
tp1530
a(Vof
VIN
tp1531
a(Vall
VDT
tp1532
a(Vspecies
VNNS
tp1533
a(Vthat
VWDT
tp1534
a(Vare
VVBP
tp1535
a(Vat
VIN
tp1536
a(Vrisk
VNN
tp1537
a(Vof
VIN
tp1538
a(Vextinction
VNN
tp1539
a(V.
V.
tp1540
aa(lp1541
(VThe
VDT
tp1542
a(Vstrikes
VNNS
tp1543
a(Vthat
VWDT
tp1544
a(Vsometimes
VRB
tp1545
a(Vdisrupt
VVBP
tp1546
a(Vtraffic
VNN
tp1547
a(Vtake
VVB
tp1548
a(Vthousands
VNNS
tp1549
a(Vof
VIN
tp1550
a(Vpassengers
VNNS
tp1551
a(Vhostage
VNN
tp1552
a(Vwithout
VIN
tp1553
a(Vproper
VJJ
tp1554
a(Vwarning
VNN
tp1555
a(V.
V.
tp1556
aa(lp1557
(VI
VPRP
tp1558
a(Vwould
VMD
tp1559
a(Valso
VRB
tp1560
a(Vlike
VVB
tp1561
a(Vto
VTO
tp1562
a(Vthank
VVB
tp1563
a(Vthe
VDT
tp1564
a(Vhundreds
VNNS
tp1565
a(Vof
VIN
tp1566
a(VCzech
VNNP
tp1567
a(Vofficials
VNNS
tp1568
a(V,
V,
tp1569
a(Vnot
VRB
tp1570
a(Vonly
VRB
tp1571
a(Vin
VIN
tp1572
a(VBrussels
VNNP
tp1573
a(Vbut
VCC
tp1574
a(Vin
VIN
tp1575
a(Vall
VDT
tp1576
a(Vof
VIN
tp1577
a(Vthe
VDT
tp1578
a(VCzech
VNNP
tp1579
a(Vministries
VNNS
tp1580
a(V.
V.
tp1581
aa.