(lp1
(lp2
(VThis
VDT
tp3
a(Vis
VVBZ
tp4
a(Vhaving
VVBG
tp5
a(Van
VDT
tp6
a(Vadverse
VJJ
tp7
a(Vimpact
VNN
tp8
a(Von
VIN
tp9
a(VLithuania
VNNP
tp10
a(Vat
VIN
tp11
a(Va
VDT
tp12
a(Vtime
VNN
tp13
a(Vwhen
VWRB
tp14
a(Vit
VPRP
tp15
a(Vhas
VVBZ
tp16
a(Vone
VCD
tp17
a(Vof
VIN
tp18
a(Vhighest
VJJS
tp19
a(Vunemployment
VNN
tp20
a(Vrates
VNNS
tp21
a(Vin
VIN
tp22
a(Vthe
VDT
tp23
a(VEU
VNNP
tp24
a(V.
V.
tp25
aa(lp26
(VIn
VIN
tp27
a(Vthis
VDT
tp28
a(Vway
VNN
tp29
a(V,
V,
tp30
a(Vthey
VPRP
tp31
a(Vcan
VMD
tp32
a(Vmake
VVB
tp33
a(Va
VDT
tp34
a(Vconsiderable
VJJ
tp35
a(Vcontribution
VNN
tp36
a(Vto
VTO
tp37
a(Vbetter
VJJR
tp38
a(Vlaw
VNN
tp39
a(Vmaking
VNN
tp40
a(V.
V.
tp41
aa(lp42
(VEven
VRB
tp43
a(Vthough
VIN
tp44
a(Vonly
VRB
tp45
a(V7
VCD
tp46
a(V%
VNN
tp47
a(Vof
VIN
tp48
a(Vthe
VDT
tp49
a(Vpopulation
VNN
tp50
a(Vof
VIN
tp51
a(Vthe
VDT
tp52
a(VEU
VNNP
tp53
a(Vlives
VVBZ
tp54
a(Vin
VIN
tp55
a(Vcities
VNNS
tp56
a(Vwith
VIN
tp57
a(Vover
VIN
tp58
a(V5
VCD
tp59
a(Vmillion
VCD
tp60
a(Vinhabitants
VNNS
tp61
a(V,
V,
tp62
a(Vcompared
VVBN
tp63
a(Vwith
VIN
tp64
a(V25
VCD
tp65
a(V%
VNN
tp66
a(Vin
VIN
tp67
a(Vthe
VDT
tp68
a(VUnited
VNNP
tp69
a(VStates
VNNPS
tp70
a(Vof
VIN
tp71
a(VAmerica
VNNP
tp72
a(V,
V,
tp73
a(Vin
VIN
tp74
a(Vnumerous
VJJ
tp75
a(Vurban
VJJ
tp76
a(Vareas
VNNS
tp77
a(V,
V,
tp78
a(Vincluding
VVBG
tp79
a(Vin
VIN
tp80
a(VGreece
VNNP
tp81
a(V,
V,
tp82
a(Vthe
VDT
tp83
a(Vpopulation
VNN
tp84
a(Vis
VVBZ
tp85
a(Vincreasing
VVBG
tp86
a(V.
V.
tp87
aa(lp88
(VThere
VEX
tp89
a(Vis
VVBZ
tp90
a(Vone
VCD
tp91
a(Vgoal
VNN
tp92
a(Vin
VIN
tp93
a(VEurope
VNNP
tp94
a(Vtowards
VIN
tp95
a(Vwhich
VWDT
tp96
a(Vwe
VPRP
tp97
a(Vmust
VMD
tp98
a(Vstrive
VVB
tp99
a(V.
V.
tp100
aa(lp101
(VThe
VDT
tp102
a(VKnesset
VNNP
tp103
a(V&apos;s
VNNS
tp104
a(Vagreement
VNN
tp105
a(Vis
VVBZ
tp106
a(Va
VDT
tp107
a(Vpositive
VJJ
tp108
a(Vsign
VNN
tp109
a(V.
V.
tp110
aa(lp111
(VThis
VDT
tp112
a(Vis
VVBZ
tp113
a(Vthe
VDT
tp114
a(Vmatter
VNN
tp115
a(Vof
VIN
tp116
a(Vthe
VDT
tp117
a(Vunfair
VJJ
tp118
a(Vcompetition
VNN
tp119
a(Vthat
VIN
tp120
a(Vthe
VDT
tp121
a(Vpress
VNN
tp122
a(Vhas
VVBZ
tp123
a(Vto
VTO
tp124
a(Vsuffer
VVB
tp125
a(V.
V.
tp126
aa(lp127
(VThis
VDT
tp128
a(Vis
VVBZ
tp129
a(V75
VCD
tp130
a(V%
VNN
tp131
a(Vmore
VJJR
tp132
a(Vthan
VIN
tp133
a(Vother
VJJ
tp134
a(Vtypes
VNNS
tp135
a(Vof
VIN
tp136
a(Vbus
VNN
tp137
a(V,
V,
tp138
a(Vand
VCC
tp139
a(Vrepresents
VVBZ
tp140
a(Van
VDT
tp141
a(Vaverage
VNN
tp142
a(Vof
VIN
tp143
a(Valmost
VRB
tp144
a(Vfive
VCD
tp145
a(Vaccidents
VNNS
tp146
a(Vper
VIN
tp147
a(Vday
VNN
tp148
a(Vor
VCC
tp149
a(Vmore
VJJR
tp150
a(Vthan
VIN
tp151
a(Vfive
VCD
tp152
a(Vaccidents
VNNS
tp153
a(Vper
VIN
tp154
a(Vyear
VNN
tp155
a(Vfor
VIN
tp156
a(Veach
VDT
tp157
a(V&apos;
VJJ
tp158
a(Vbendy
VNN
tp159
a(Vbus
VNN
tp160
a(V&apos;
VNN
tp161
a(Vin
VIN
tp162
a(VLondon
VNNP
tp163
a(V&apos;s
VNNS
tp164
a(Vfleet
VNN
tp165
a(V.
V.
tp166
aa(lp167
(VObtaining
VVBG
tp168
a(Va
VDT
tp169
a(Vbirth
VNN
tp170
a(Vcertificate
VNN
tp171
a(Vis
VVBZ
tp172
a(Va
VDT
tp173
a(Vserious
VJJ
tp174
a(Vproblem
VNN
tp175
a(Vin
VIN
tp176
a(VYemen
VNNP
tp177
a(Vwhere
VWRB
tp178
a(Vonly
VRB
tp179
a(V22
VCD
tp180
a(V%
VNN
tp181
a(Vof
VIN
tp182
a(Vbirths
VNNS
tp183
a(Vare
VVBP
tp184
a(Vofficially
VRB
tp185
a(Vregistered
VVBN
tp186
a(V,
V,
tp187
a(Vaccording
VVBG
tp188
a(Vto
VTO
tp189
a(VUNICEF
VNNP
tp190
a(V.
V.
tp191
aa(lp192
(VThe
VDT
tp193
a(Vsame
VJJ
tp194
a(Vtime
VNN
tp195
a(Vhas
VVBZ
tp196
a(Vpassed
VVBN
tp197
a(Vsince
VIN
tp198
a(VLithuania
VNNP
tp199
a(Vfailed
VVBD
tp200
a(Vto
VTO
tp201
a(Vget
VVB
tp202
a(Vback
VRB
tp203
a(Vits
VPRP$
tp204
a(Vembassy
VNN
tp205
a(Vbuilding
VNN
tp206
a(Vin
VIN
tp207
a(VRome
VNNP
tp208
a(V,
V,
tp209
a(Vknown
VVBN
tp210
a(Vas
VIN
tp211
a(VVilla
VNNP
tp212
a(VLituania
VNNP
tp213
a(V,
V,
tp214
a(Vwhich
VWDT
tp215
a(Vwas
VVBD
tp216
a(Vowned
VVBN
tp217
a(Vby
VIN
tp218
a(VLithuania
VNNP
tp219
a(Vuntil
VIN
tp220
a(V1937
VCD
tp221
a(V.
V.
tp222
aa(lp223
(VMordechai
VNNP
tp224
a(VVanunu
VNNP
tp225
a(Vhas
VVBZ
tp226
a(Vbeen
VVBN
tp227
a(Velected
VVBN
tp228
a(Vrector
VNN
tp229
a(Vof
VIN
tp230
a(VGlasgow
VNNP
tp231
a(VUniversity
VNNP
tp232
a(Vin
VIN
tp233
a(Vmy
VPRP$
tp234
a(Vcountry
VNN
tp235
a(V,
V,
tp236
a(Vand
VCC
tp237
a(Vwe
VPRP
tp238
a(Vwould
VMD
tp239
a(Vvery
VRB
tp240
a(Vmuch
VRB
tp241
a(Vlike
VIN
tp242
a(Vto
VTO
tp243
a(Vsee
VVB
tp244
a(Vhim
VPRP
tp245
a(Vable
VJJ
tp246
a(Vto
VTO
tp247
a(Vcome
VVB
tp248
a(Vto
VTO
tp249
a(Vthe
VDT
tp250
a(Vuniversity
VNN
tp251
a(Vand
VCC
tp252
a(Vtake
VVB
tp253
a(Vup
VRP
tp254
a(Vhis
VPRP$
tp255
a(Vrole
VNN
tp256
a(V.
V.
tp257
aa(lp258
(VWe
VPRP
tp259
a(Vhope
VVBP
tp260
a(Vthis
VDT
tp261
a(Vwill
VMD
tp262
a(Vencourage
VVB
tp263
a(Vbringing
VVBG
tp264
a(Vabout
VIN
tp265
a(Vchange
VNN
tp266
a(Vin
VIN
tp267
a(Va
VDT
tp268
a(Vpainless
VJJ
tp269
a(Vway
VNN
tp270
a(V.
V.
tp271
aa(lp272
(VThis
VDT
tp273
a(Vis
VVBZ
tp274
a(Vthe
VDT
tp275
a(Vculmination
VNN
tp276
a(Vof
VIN
tp277
a(Vthe
VDT
tp278
a(Vinitiative
VNN
tp279
a(Vof
VIN
tp280
a(Vthose
VDT
tp281
a(VSlovaks
VNNPS
tp282
a(Vwho
VWP
tp283
a(Vset
VVBD
tp284
a(Vout
VRP
tp285
a(Vto
VTO
tp286
a(Vorganise
VVB
tp287
a(Van
VDT
tp288
a(Vexhibition
VNN
tp289
a(Von
VIN
tp290
a(Vthe
VDT
tp291
a(VTatras
VNNP
tp292
a(Vin
VIN
tp293
a(VStrasbourg
VNNP
tp294
a(V.
V.
tp295
aa(lp296
(VI
VPRP
tp297
a(Vbelieve
VVBP
tp298
a(Vthat
VIN
tp299
a(VCroatia
VNNP
tp300
a(V&apos;s
VNNS
tp301
a(Ventry
VNN
tp302
a(Vinto
VIN
tp303
a(Vthe
VDT
tp304
a(VEU
VNNP
tp305
a(Vwill
VMD
tp306
a(Vgive
VVB
tp307
a(Van
VDT
tp308
a(Vimpetus
VNN
tp309
a(Vto
VTO
tp310
a(Vreforms
VNNS
tp311
a(Vin
VIN
tp312
a(Vthe
VDT
tp313
a(Vregion
VNN
tp314
a(Vand
VCC
tp315
a(Vwill
VMD
tp316
a(Vbe
VVB
tp317
a(Va
VDT
tp318
a(Vsuccess
VNN
tp319
a(Vfor
VIN
tp320
a(Vthe
VDT
tp321
a(Vwhole
VNN
tp322
a(Vof
VIN
tp323
a(VEurope
VNNP
tp324
a(V.
V.
tp325
aa(lp326
(VGiven
VVBN
tp327
a(Vthat
VIN
tp328
a(Valternatives
VNNS
tp329
a(Vare
VVBP
tp330
a(Vavailable
VJJ
tp331
a(V,
V,
tp332
a(Vit
VPRP
tp333
a(Vis
VVBZ
tp334
a(Vto
VTO
tp335
a(Vbe
VVB
tp336
a(Vwelcomed
VVBN
tp337
a(Vthat
VIN
tp338
a(Vthe
VDT
tp339
a(Vmercury
VNN
tp340
a(Vthermometer
VNN
tp341
a(Vis
VVBZ
tp342
a(Vconsigned
VVBN
tp343
a(Vto
VTO
tp344
a(Vthe
VDT
tp345
a(Vpast
VNN
tp346
a(V.
V.
tp347
aa(lp348
(VIt
VPRP
tp349
a(Vis
VVBZ
tp350
a(Va
VDT
tp351
a(Vterrible
VJJ
tp352
a(Vphenomenon
VNN
tp353
a(Vwhose
VWP$
tp354
a(Vscale
VNN
tp355
a(Vis
VVBZ
tp356
a(Vunknown
VJJ
tp357
a(V.
V.
tp358
aa(lp359
(VWhere
VWRB
tp360
a(Vdo
VVBP
tp361
a(Vthe
VDT
tp362
a(Vreasons
VNNS
tp363
a(Vfor
VIN
tp364
a(Vthis
VDT
tp365
a(Vlie
VNN
tp366
a(V?
V.
tp367
aa(lp368
(VThere
VEX
tp369
a(Vis
VVBZ
tp370
a(Vunemployment
VNN
tp371
a(V;
V:
tp372
a(Vthere
VEX
tp373
a(Vis
VVBZ
tp374
a(Vconfusion
VNN
tp375
a(V.
V.
tp376
aa(lp377
(VIt
VPRP
tp378
a(Vhas
VVBZ
tp379
a(Vnot
VRB
tp380
a(Vmanaged
VVBN
tp381
a(Vto
VTO
tp382
a(Vput
VVB
tp383
a(Van
VDT
tp384
a(Vend
VNN
tp385
a(Vto
VTO
tp386
a(Vthe
VDT
tp387
a(Vcrimes
VNNS
tp388
a(Vagainst
VIN
tp389
a(Vthe
VDT
tp390
a(Vpeople
VNNS
tp391
a(Vof
VIN
tp392
a(VKosovo
VNNP
tp393
a(Vbut
VCC
tp394
a(Vinstead
VRB
tp395
a(Vhas
VVBZ
tp396
a(Vdramatically
VRB
tp397
a(Vworsened
VVBN
tp398
a(Vtheir
VPRP$
tp399
a(Vplight
VNN
tp400
a(V.
V.
tp401
aa(lp402
(VIt
VPRP
tp403
a(Vis
VVBZ
tp404
a(Vthe
VDT
tp405
a(Vopposite
VJJ
tp406
a(Vwith
VIN
tp407
a(Vthe
VDT
tp408
a(VVia
VNNP
tp409
a(VBaltica
VNNP
tp410
a(Vsituation
VNN
tp411
a(V.
V.
tp412
aa(lp413
(VBenchmarking
VVBG
tp414
aa(lp415
(VSecondly
VRB
tp416
a(V,
V,
tp417
a(Vtraceability
VNN
tp418
a(Vis
VVBZ
tp419
a(Vnecessary
VJJ
tp420
a(V,
V,
tp421
a(Vbut
VCC
tp422
a(Vour
VPRP$
tp423
a(Vcommittee
VNN
tp424
a(Vbelieves
VVBZ
tp425
a(Vthat
VIN
tp426
a(Vthis
VDT
tp427
a(Vneed
VNN
tp428
a(Vnot
VRB
tp429
a(Vgo
VVB
tp430
a(Vall
VPDT
tp431
a(Vthe
VDT
tp432
a(Vway
VNN
tp433
a(Vback
VRB
tp434
a(Vto
VTO
tp435
a(Vthe
VDT
tp436
a(Vtree
VNN
tp437
a(Vfrom
VIN
tp438
a(Vwhich
VWDT
tp439
a(Va
VDT
tp440
a(Vpaper
VNN
tp441
a(Vbag
VNN
tp442
a(Vis
VVBZ
tp443
a(Vmade
VVBN
tp444
a(V.
V.
tp445
aa(lp446
(VIf
VIN
tp447
a(VMugabe
VNNP
tp448
a(Vdoes
VVBZ
tp449
a(Vnot
VRB
tp450
a(Vtake
VVB
tp451
a(Vimmediate
VJJ
tp452
a(Vand
VCC
tp453
a(Vverifiable
VJJ
tp454
a(Vaction
VNN
tp455
a(Vin
VIN
tp456
a(Vthe
VDT
tp457
a(Vway
VNN
tp458
a(Vthat
VIN
tp459
a(Vthe
VDT
tp460
a(Vinternational
VJJ
tp461
a(Vcommunity
VNN
tp462
a(Vis
VVBZ
tp463
a(Vdemanding
VVBG
tp464
a(V,
V,
tp465
a(Vthe
VDT
tp466
a(VEuropean
VNNP
tp467
a(VUnion
VNNP
tp468
a(Vmust
VMD
tp469
a(Vbe
VVB
tp470
a(Vready
VJJ
tp471
a(Vat
VIN
tp472
a(Vonce
VRB
tp473
a(Vto
VTO
tp474
a(Vimpose
VVB
tp475
a(Vthe
VDT
tp476
a(Vsmart
VJJ
tp477
a(Vsanctions
VNNS
tp478
a(V.
V.
tp479
aa(lp480
(VFinally
VRB
tp481
a(Valso
VRB
tp482
a(Von
VIN
tp483
a(Vthe
VDT
tp484
a(Vbudget
VNN
tp485
a(Vreview
VNN
tp486
a(V,
V,
tp487
a(VI
VPRP
tp488
a(Vwould
VMD
tp489
a(Vlike
VVB
tp490
a(Vto
VTO
tp491
a(Vsay
VVB
tp492
a(Vthat
VIN
tp493
a(Vthis
VDT
tp494
a(Vconsultation
VNN
tp495
a(Vprocess
VNN
tp496
a(Von
VIN
tp497
a(Van
VDT
tp498
a(Vinitial
VJJ
tp499
a(Vso-called
VJJ
tp500
a(Vreflection
VNN
tp501
a(Vpaper
VNN
tp502
a(Vcan
VMD
tp503
a(Vhelp
VVB
tp504
a(Vus
VPRP
tp505
a(Vfrom
VIN
tp506
a(Vthe
VDT
tp507
a(Vend
VNN
tp508
a(Vof
VIN
tp509
a(VNovember
VNNP
tp510
a(Vto
VTO
tp511
a(Vpropose
VVB
tp512
a(Va
VDT
tp513
a(Vnew
VJJ
tp514
a(Vway
VNN
tp515
a(Vof
VIN
tp516
a(Vconstructing
VVBG
tp517
a(Vthe
VDT
tp518
a(Vbudget
VNN
tp519
a(V.
V.
tp520
aa(lp521
(VThe
VDT
tp522
a(Vabolition
VNN
tp523
a(Vof
VIN
tp524
a(Vthe
VDT
tp525
a(Vdeath
VNN
tp526
a(Vpenalty
VNN
tp527
a(Vbelongs
VVBZ
tp528
a(V,
V,
tp529
a(Vas
VIN
tp530
a(Vit
VPRP
tp531
a(Vwere
VVBD
tp532
a(V,
V,
tp533
a(Vto
VTO
tp534
a(Vour
VPRP$
tp535
a(Vculture
VNN
tp536
a(V.
V.
tp537
aa(lp538
(VThis
VDT
tp539
a(Vis
VVBZ
tp540
a(Valso
VRB
tp541
a(Vopen
VJJ
tp542
a(Vto
VTO
tp543
a(Vquestion
VNN
tp544
a(V.
V.
tp545
aa(lp546
(VDo
VVB
tp547
a(Vwe
VPRP
tp548
a(Vthink
VVBP
tp549
a(Vwe
VPRP
tp550
a(Vshould
VMD
tp551
a(Vset
VVB
tp552
a(Van
VDT
tp553
a(Vultimatum
VNN
tp554
a(V?
V.
tp555
aa(lp556
(VI
VPRP
tp557
a(Vwas
VVBD
tp558
a(Vonly
VRB
tp559
a(Vtold
VVBN
tp560
a(Vimmediately
VRB
tp561
a(Vbefore
VIN
tp562
a(Vthe
VDT
tp563
a(Vdebate
VNN
tp564
a(Vthat
VIN
tp565
a(Vthat
VDT
tp566
a(Vwas
VVBD
tp567
a(Vthe
VDT
tp568
a(Vcase
VNN
tp569
a(V.
V.
tp570
aa(lp571
(VThe
VDT
tp572
a(Vworld
VNN
tp573
a(Vis
VVBZ
tp574
a(Vstill
VRB
tp575
a(Vin
VIN
tp576
a(Vshock
VNN
tp577
a(Vfrom
VIN
tp578
a(Vthe
VDT
tp579
a(Vattacks
VNNS
tp580
a(Von
VIN
tp581
a(VNew
VNNP
tp582
a(VYork
VNNP
tp583
a(Vand
VCC
tp584
a(VWashington
VNNP
tp585
a(V.
V.
tp586
aa(lp587
(VCo
VNNP
tp588
a(VLtd
VNNP
tp589
a(V.
V.
tp590
aa(lp591
(VA
VDT
tp592
a(Vpolicy
VNN
tp593
a(Vof
VIN
tp594
a(Vmutual
VJJ
tp595
a(Vgood
VJJ
tp596
a(Vneighbourly
VJJ
tp597
a(Vrelations
VNNS
tp598
a(Vis
VVBZ
tp599
a(Vtherefore
VRB
tp600
a(Vnot
VRB
tp601
a(Vjust
VRB
tp602
a(Vdesirable
VJJ
tp603
a(V\u2013
VCD
tp604
a(Vit
VPRP
tp605
a(Vis
VVBZ
tp606
a(Vcrucial
VJJ
tp607
a(V.
V.
tp608
aa(lp609
(VIt
VPRP
tp610
a(Vis
VVBZ
tp611
a(Va
VDT
tp612
a(Vsign
VNN
tp613
a(Vof
VIN
tp614
a(Vconfidence
VNN
tp615
a(Vthat
VWDT
tp616
a(Vcorresponds
VVBZ
tp617
a(Vto
VTO
tp618
a(Vthe
VDT
tp619
a(Vdevelopment
VNN
tp620
a(Vof
VIN
tp621
a(Vyour
VPRP$
tp622
a(Vinstitution
VNN
tp623
a(V.
V.
tp624
aa(lp625
(VMoreover
VRB
tp626
a(V,
V,
tp627
a(Vthese
VDT
tp628
a(Vbananas
VNNS
tp629
a(Vare
VVBP
tp630
a(Vproduced
VVBN
tp631
a(Vin
VIN
tp632
a(VEcuador
VNNP
tp633
a(Vby
VIN
tp634
a(V10-year-old
VJJ
tp635
a(Vchildren
VNNS
tp636
a(Vwho
VWP
tp637
a(Vare
VVBP
tp638
a(Vpaid
VVBN
tp639
a(VUSD
VNN
tp640
a(V2
VCD
tp641
a(Va
VDT
tp642
a(Vday
VNN
tp643
a(V,
V,
tp644
a(Vwho
VWP
tp645
a(Vinhale
VVBP
tp646
a(Vpesticides
VNNS
tp647
a(V,
V,
tp648
a(Vwho
VWP
tp649
a(Vhave
VVBP
tp650
a(Vasthma
VNN
tp651
a(V,
V,
tp652
a(Vwho
VWP
tp653
a(Vhave
VVBP
tp654
a(Vproblems
VNNS
tp655
a(Vwith
VIN
tp656
a(Vtheir
VPRP$
tp657
a(Vbalance
VNN
tp658
a(Vand
VCC
tp659
a(Vwho
VWP
tp660
a(Vsuffer
VVBP
tp661
a(Vfrom
VIN
tp662
a(Vcerebellar
VNN
tp663
a(Vataxia
VNN
tp664
a(V.
V.
tp665
aa(lp666
(VVoting
VNNP
tp667
a(Vin
VIN
tp668
a(Velections
VNNS
tp669
a(Vis
VVBZ
tp670
a(Vthe
VDT
tp671
a(Vcitizens
VNNS
tp672
a(V&apos;
VVBP
tp673
a(Vopportunity
VNN
tp674
a(Vto
VTO
tp675
a(Vshow
VVB
tp676
a(Vwhat
VWP
tp677
a(Vthey
VPRP
tp678
a(Vwant
VVBP
tp679
a(VEurope
VNNP
tp680
a(V&apos;
VNN
tp681
a(Vs
VVBZ
tp682
a(Vdevelopment
VNN
tp683
a(Vto
VTO
tp684
a(Vlook
VVB
tp685
a(Vlike
VIN
tp686
a(V.
V.
tp687
aa(lp688
(VWe
VPRP
tp689
a(Vwant
VVBP
tp690
a(Vto
VTO
tp691
a(Vspeed
VVB
tp692
a(Vmatters
VNNS
tp693
a(Vup
VRB
tp694
a(Vand
VCC
tp695
a(Vmake
VVB
tp696
a(Vit
VPRP
tp697
a(Veasier
VJJR
tp698
a(Vfor
VIN
tp699
a(Vthem
VPRP
tp700
a(Vto
VTO
tp701
a(Vbe
VVB
tp702
a(Vadmitted
VVBN
tp703
a(Vinto
VIN
tp704
a(Vour
VPRP$
tp705
a(Vcountries
VNNS
tp706
a(V.
V.
tp707
aa(lp708
(VImmediate
VNNP
tp709
a(Vassistance
VNN
tp710
a(Vis
VVBZ
tp711
a(Vneeded
VVBN
tp712
a(Vto
VTO
tp713
a(Vprotect
VVB
tp714
a(Vthe
VDT
tp715
a(Vlife
VNN
tp716
a(Vand
VCC
tp717
a(Vhealth
VNN
tp718
a(Vof
VIN
tp719
a(Vthese
VDT
tp720
a(Vindividuals
VNNS
tp721
a(V.
V.
tp722
aa(lp723
(VWhat
VWP
tp724
a(Vare
VVBP
tp725
a(Vthe
VDT
tp726
a(VAmericans
VNNPS
tp727
a(Vand
VCC
tp728
a(Vother
VJJ
tp729
a(Vmajor
VJJ
tp730
a(Vpowers
VNNS
tp731
a(Vdoing
VVBG
tp732
a(Vtoday
VNN
tp733
a(V?
V.
tp734
aa(lp735
(VIn
VIN
tp736
a(Vparticular
VJJ
tp737
a(V,
V,
tp738
a(Vwe
VPRP
tp739
a(Vhave
VVBP
tp740
a(Valso
VRB
tp741
a(Vmanaged
VVBN
tp742
a(Vto
VTO
tp743
a(Vget
VVB
tp744
a(Vthe
VDT
tp745
a(Vso-called
VJJ
tp746
a(Vexternal
VJJ
tp747
a(Vcosts
VNNS
tp748
a(Vintegrated
VVBN
tp749
a(V.
V.
tp750
aa(lp751
(VI
VPRP
tp752
a(Vtherefore
VRB
tp753
a(Vbelieve
VVBP
tp754
a(Vthat
VIN
tp755
a(Vthe
VDT
tp756
a(VCommission
VNNP
tp757
a(V&apos;s
VNNS
tp758
a(Voriginal
VJJ
tp759
a(Vproposal
VNN
tp760
a(V,
V,
tp761
a(Vfor
VIN
tp762
a(Vwhich
VWDT
tp763
a(VI
VPRP
tp764
a(Vconfirm
VVBP
tp765
a(Vmy
VPRP$
tp766
a(Vsupport
VNN
tp767
a(V,
V,
tp768
a(Vis
VVBZ
tp769
a(Vbetter
VRBR
tp770
a(Vin
VIN
tp771
a(Vthat
VIN
tp772
a(Vit
VPRP
tp773
a(Vprovides
VVBZ
tp774
a(Va
VDT
tp775
a(Vwider
VJJR
tp776
a(Vrange
VNN
tp777
a(Vof
VIN
tp778
a(Vopportunities
VNNS
tp779
a(V.
V.
tp780
aa(lp781
(VWhere
VWRB
tp782
a(Vare
VVBP
tp783
a(Vthe
VDT
tp784
a(Venergy
VNN
tp785
a(Vsaving
VNN
tp786
a(Vprogrammes
VNNS
tp787
a(Vfor
VIN
tp788
a(Vthe
VDT
tp789
a(VCommission
VNNP
tp790
a(V?
V.
tp791
aa(lp792
(VCommissioner
VNNP
tp793
a(V,
V,
tp794
a(Va
VDT
tp795
a(Vsystem
VNN
tp796
a(Vhas
VVBZ
tp797
a(Vemerged
VVBN
tp798
a(Vhere
VRB
tp799
a(Vthat
VIN
tp800
a(Vcontinues
VVBZ
tp801
a(Vto
VTO
tp802
a(Vbenefit
VVB
tp803
a(Vthose
VDT
tp804
a(Vwho
VWP
tp805
a(Valready
VRB
tp806
a(Vensure
VVB
tp807
a(Vthat
VIN
tp808
a(Vlarge
VJJ
tp809
a(Vconcerns
VNNS
tp810
a(Vpay
VVBP
tp811
a(Vless
VJJR
tp812
a(Vand
VCC
tp813
a(Vless
VJJR
tp814
a(Vtax
VNN
tp815
a(Vand
VCC
tp816
a(Vwho
VWP
tp817
a(Vare
VVBP
tp818
a(Vnow
VRB
tp819
a(Vapparently
VRB
tp820
a(Vgiving
VVBG
tp821
a(Vup
VRP
tp822
a(Vpaying
VVBG
tp823
a(Vtax
VNN
tp824
a(V.
V.
tp825
aa(lp826
(VCertainly
VRB
tp827
a(V,
V,
tp828
a(VI
VPRP
tp829
a(Vam
VVBP
tp830
a(Vgaining
VVBG
tp831
a(Va
VDT
tp832
a(Vgreat
VJJ
tp833
a(Vdeal
VNN
tp834
a(Vfrom
VIN
tp835
a(Vthe
VDT
tp836
a(Vcurrent
VJJ
tp837
a(Vexperience
VNN
tp838
a(Vin
VIN
tp839
a(VFrance
VNNP
tp840
a(V.
V.
tp841
aa(lp842
(VThis
VDT
tp843
a(Vamendment
VNN
tp844
a(Vwill
VMD
tp845
a(Vallow
VVB
tp846
a(Vthe
VDT
tp847
a(Vpioneering
VJJ
tp848
a(Vresearch
VNN
tp849
a(Vwhich
VWDT
tp850
a(VI
VPRP
tp851
a(Vhave
VVBP
tp852
a(Vdescribed
VVBN
tp853
a(Vto
VTO
tp854
a(Vprogress
VVB
tp855
a(Vwhile
VIN
tp856
a(Vstriking
VVBG
tp857
a(Vthe
VDT
tp858
a(Vbalance
VNN
tp859
a(Vneeded
VVBN
tp860
a(Vin
VIN
tp861
a(Vorder
VNN
tp862
a(Vto
VTO
tp863
a(Vavoid
VVB
tp864
a(Vethical
VJJ
tp865
a(Vproblems
VNNS
tp866
a(V.
V.
tp867
aa(lp868
(VShould
VMD
tp869
a(Vthe
VDT
tp870
a(Vnationality
VNN
tp871
a(Vbe
VVB
tp872
a(Vstated
VVBN
tp873
a(V,
V,
tp874
a(Vyes
VUH
tp875
a(Vor
VCC
tp876
a(Vno
VDT
tp877
a(V?
V.
tp878
aa(lp879
(VIn
VIN
tp880
a(Vthe
VDT
tp881
a(Vfield
VNN
tp882
a(Vof
VIN
tp883
a(Vroad
VNN
tp884
a(Vsafety
VNN
tp885
a(V,
V,
tp886
a(Vof
VIN
tp887
a(Vcourse
VNN
tp888
a(V,
V,
tp889
a(Veverything
VNN
tp890
a(Vconnected
VVBN
tp891
a(Vwith
VIN
tp892
a(Vmass
VNN
tp893
a(Vsensors
VNNS
tp894
a(Vfor
VIN
tp895
a(Vpedestrians
VNNS
tp896
a(Vand
VCC
tp897
a(Vother
VJJ
tp898
a(Vvulnerable
VJJ
tp899
a(Vtoad
VNN
tp900
a(Vusers
VNNS
tp901
a(Vwill
VMD
tp902
a(Vbe
VVB
tp903
a(Vcrucial
VJJ
tp904
a(V.
V.
tp905
aa(lp906
(VI
VPRP
tp907
a(Vwould
VMD
tp908
a(Vnot
VRB
tp909
a(Vwish
VVB
tp910
a(VObama
VNNP
tp911
a(Venthusiasts
VNNS
tp912
a(Vto
VTO
tp913
a(Vsuffer
VVB
tp914
a(Vany
VDT
tp915
a(Vearly
VJJ
tp916
a(Vdisappointment
VNN
tp917
a(V.
V.
tp918
aa(lp919
(VLast
VJJ
tp920
a(VFriday
VNNP
tp921
a(Vhe
VPRP
tp922
a(Vmentioned
VVBD
tp923
a(Va
VDT
tp924
a(Vtwo
VCD
tp925
a(Vweek
VNN
tp926
a(Vtime
VNN
tp927
a(Vspan
VNN
tp928
a(V.
V.
tp929
aa(lp930
(VMadam
VNNP
tp931
a(VPresident
VNNP
tp932
a(V,
V,
tp933
a(Vaccording
VVBG
tp934
a(Vto
VTO
tp935
a(VHegel
VNNP
tp936
a(V,
V,
tp937
a(Vculture
VNN
tp938
a(V-
V:
tp939
a(Vthat
VWDT
tp940
a(Vis
VVBZ
tp941
a(V,
V,
tp942
a(Vphilosophy
VNN
tp943
a(V-
V:
tp944
a(Vspreads
VVBZ
tp945
a(Vits
VPRP$
tp946
a(Vwings
VNNS
tp947
a(Vonly
VRB
tp948
a(Vat
VIN
tp949
a(Vthe
VDT
tp950
a(Vfalling
VVBG
tp951
a(Vof
VIN
tp952
a(Vthe
VDT
tp953
a(Vdusk
VNN
tp954
a(V,
V,
tp955
a(Vbut
VCC
tp956
a(Vit
VPRP
tp957
a(Vis
VVBZ
tp958
a(Vgetting
VVBG
tp959
a(Von
VIN
tp960
a(Vfor
VIN
tp961
a(Vdawn
VNN
tp962
a(Vhere
VRB
tp963
a(V!
V.
tp964
aa(lp965
(VI
VPRP
tp966
a(Vrepeat
VVBP
tp967
a(V,
V,
tp968
a(Vpeople
VNNS
tp969
a(V\u2019
VVBP
tp970
a(Vs
VNNS
tp971
a(Vways
VNNS
tp972
a(Vof
VIN
tp973
a(Vthinking
VVBG
tp974
a(Vmust
VMD
tp975
a(Valso
VRB
tp976
a(Vbe
VVB
tp977
a(Vchanged
VVBN
tp978
a(V.
V.
tp979
aa(lp980
(VMr
VNNP
tp981
a(VSpencer
VNNP
tp982
a(Vhimself
VPRP
tp983
a(Vpoints
VVBZ
tp984
a(Vout
VRP
tp985
a(Vthat
VIN
tp986
a(V1997
VCD
tp987
a(Vshould
VMD
tp988
a(Vin
VIN
tp989
a(Vfact
VNN
tp990
a(Vbe
VVB
tp991
a(Vviewed
VVBN
tp992
a(Vas
VIN
tp993
a(Va
VDT
tp994
a(Vyear
VNN
tp995
a(Vof
VIN
tp996
a(Vtransition
VNN
tp997
a(V.
V.
tp998
aa(lp999
(VAppropriate
VJJ
tp1000
a(Vabilities
VNNS
tp1001
a(Vmust
VMD
tp1002
a(Vbe
VVB
tp1003
a(Vpreserved
VVBN
tp1004
a(Veven
VRB
tp1005
a(Vat
VIN
tp1006
a(Van
VDT
tp1007
a(Volder
VJJR
tp1008
a(Vage
VNN
tp1009
a(V,
V,
tp1010
a(Vand
VCC
tp1011
a(Vthis
VDT
tp1012
a(Vis
VVBZ
tp1013
a(Vpossible
VJJ
tp1014
a(Vonly
VRB
tp1015
a(Vwith
VIN
tp1016
a(Va
VDT
tp1017
a(Vmore
VRBR
tp1018
a(Vmodern
VJJ
tp1019
a(V,
V,
tp1020
a(Vmore
VRBR
tp1021
a(Vaccessible
VJJ
tp1022
a(Vhealth
VNN
tp1023
a(Vservice
VNN
tp1024
a(V.
V.
tp1025
aa(lp1026
(VThis
VDT
tp1027
a(Velement
VNN
tp1028
a(Vof
VIN
tp1029
a(Vthe
VDT
tp1030
a(Vreport
VNN
tp1031
a(Valso
VRB
tp1032
a(Vdemonstrates
VVBZ
tp1033
a(Vthe
VDT
tp1034
a(Vposition
VNN
tp1035
a(Vthat
VIN
tp1036
a(Vwe
VPRP
tp1037
a(Vintend
VVBP
tp1038
a(Vto
VTO
tp1039
a(Vgive
VVB
tp1040
a(Vsweeteners
VNNS
tp1041
a(Vin
VIN
tp1042
a(Vfood
VNN
tp1043
a(V.
V.
tp1044
aa(lp1045
(VAt
VIN
tp1046
a(Vthe
VDT
tp1047
a(Vtime
VNN
tp1048
a(Vthere
VEX
tp1049
a(Vwas
VVBD
tp1050
a(Va
VDT
tp1051
a(V.
V.
tp1052
aa(lp1053
(VWithout
VIN
tp1054
a(Vthis
VDT
tp1055
a(Vachievement
VNN
tp1056
a(V,
V,
tp1057
a(Vthe
VDT
tp1058
a(Vprospects
VNNS
tp1059
a(Vof
VIN
tp1060
a(Vreaching
VVBG
tp1061
a(Vdecisions
VNNS
tp1062
a(Vat
VIN
tp1063
a(VCOP
VNN
tp1064
a(V6
VCD
tp1065
a(Vwould
VMD
tp1066
a(Vhave
VVB
tp1067
a(Vbeen
VVBN
tp1068
a(Vbleak
VJJ
tp1069
a(V.
V.
tp1070
aa(lp1071
(VWe
VPRP
tp1072
a(Vneed
VVBP
tp1073
a(Vto
VTO
tp1074
a(Vfind
VVB
tp1075
a(Vways
VNNS
tp1076
a(Vto
VTO
tp1077
a(Vencourage
VVB
tp1078
a(Vinvestment
VNN
tp1079
a(V,
V,
tp1080
a(Vattract
VVB
tp1081
a(Vcapital
VNN
tp1082
a(Vand
VCC
tp1083
a(Vboldly
VRB
tp1084
a(Vcut
VVBD
tp1085
a(Vbureaucratic
VJJ
tp1086
a(Vexpenses
VNNS
tp1087
a(V.
V.
tp1088
aa(lp1089
(VThis
VDT
tp1090
a(Vcreates
VVBZ
tp1091
a(Va
VDT
tp1092
a(Vsystem
VNN
tp1093
a(Vwhere
VWRB
tp1094
a(Vthere
VEX
tp1095
a(Vis
VVBZ
tp1096
a(Vfree
VJJ
tp1097
a(Vmovement
VNN
tp1098
a(Vof
VIN
tp1099
a(Vpeople
VNNS
tp1100
a(Vfrom
VIN
tp1101
a(Vone
VCD
tp1102
a(VMember
VNNP
tp1103
a(VState
VNNP
tp1104
a(Vto
VTO
tp1105
a(Vthe
VDT
tp1106
a(Vnext
VJJ
tp1107
a(V.
V.
tp1108
aa(lp1109
(VAs
VIN
tp1110
a(Vyou
VPRP
tp1111
a(Vknow
VVBP
tp1112
a(V,
V,
tp1113
a(Va
VDT
tp1114
a(Vfew
VJJ
tp1115
a(Vdays
VNNS
tp1116
a(Vlater
VRB
tp1117
a(V,
V,
tp1118
a(Von
VIN
tp1119
a(V20
VCD
tp1120
a(VDecember
VNNP
tp1121
a(V,
V,
tp1122
a(Varmy
VNN
tp1123
a(Vand
VCC
tp1124
a(Vpolice
VNN
tp1125
a(Vdivisions
VNNS
tp1126
a(Vwent
VVBD
tp1127
a(Von
VIN
tp1128
a(Vthe
VDT
tp1129
a(Vattack
VNN
tp1130
a(Vin
VIN
tp1131
a(Vorder
VNN
tp1132
a(V,
V,
tp1133
a(Vnaturally
VRB
tp1134
a(V,
V,
tp1135
a(Vto
VTO
tp1136
a(Vsave
VVB
tp1137
a(Vthe
VDT
tp1138
a(Vprisoners
VNNS
tp1139
a(V&apos;
VVBP
tp1140
a(Vlives
VNNS
tp1141
a(V,
V,
tp1142
a(Vas
VIN
tp1143
a(Vthe
VDT
tp1144
a(VTurkish
VJJ
tp1145
a(Vambassador
VNN
tp1146
a(Vinforms
VVBZ
tp1147
a(Vus
VPRP
tp1148
a(Vin
VIN
tp1149
a(Vanother
VDT
tp1150
a(Vletter
VNN
tp1151
a(V.
V.
tp1152
a(VTwenty-four
VCD
tp1153
a(Vprisoners
VNNS
tp1154
a(Vwere
VVBD
tp1155
a(Vkilled
VVBN
tp1156
a(Vand
VCC
tp1157
a(V131
VCD
tp1158
a(Vwere
VVBD
tp1159
a(Vwounded
VVBN
tp1160
a(Vduring
VIN
tp1161
a(Vthis
VDT
tp1162
a(Vattack
VNN
tp1163
a(V.
V.
tp1164
aa(lp1165
(VThe
VDT
tp1166
a(Vwhole
VJJ
tp1167
a(Vincident
VNN
tp1168
a(Vwas
VVBD
tp1169
a(Vfilmed
VVBN
tp1170
a(V.
V.
tp1171
aa(lp1172
(VAccording
VVBG
tp1173
a(Vto
VTO
tp1174
a(VEuropean
VNNP
tp1175
a(VUnion
VNNP
tp1176
a(Vdata
VNNS
tp1177
a(V,
V,
tp1178
a(Vcurrently
VRB
tp1179
a(V1.5
VCD
tp1180
a(Vmillion
VCD
tp1181
a(Vboxes
VNNS
tp1182
a(Vof
VIN
tp1183
a(Vfalsified
VJJ
tp1184
a(Vmedicines
VNNS
tp1185
a(Vare
VVBP
tp1186
a(Vsold
VVBN
tp1187
a(Vevery
VDT
tp1188
a(Vyear
VNN
tp1189
a(Vvia
VIN
tp1190
a(Vthe
VDT
tp1191
a(Vlegal
VJJ
tp1192
a(Vsupply
VNN
tp1193
a(Vchain
VNN
tp1194
a(V.
V.
tp1195
aa(lp1196
(VThe
VDT
tp1197
a(VPresidency
VNNP
tp1198
a(Vgave
VVBD
tp1199
a(Vin
VIN
tp1200
a(Vand
VCC
tp1201
a(Vthe
VDT
tp1202
a(Vban
VNN
tp1203
a(Vremained
VVBD
tp1204
a(Vin
VIN
tp1205
a(Vplace
VNN
tp1206
a(V.
V.
tp1207
aa(lp1208
(VAt
VIN
tp1209
a(VCopenhagen
VNNP
tp1210
a(V,
V,
tp1211
a(Vwe
VPRP
tp1212
a(Vhad
VVBD
tp1213
a(Vthe
VDT
tp1214
a(Virony
VNN
tp1215
a(Vof
VIN
tp1216
a(Vnot
VRB
tp1217
a(Vjust
VRB
tp1218
a(V&apos;
VJJ
tp1219
a(VClimategate
VNN
tp1220
a(VII
VCD
tp1221
a(V&apos;
VNN
tp1222
a(V,
V,
tp1223
a(Vbut
VCC
tp1224
a(Valso
VRB
tp1225
a(Vthe
VDT
tp1226
a(Vonset
VNN
tp1227
a(Vof
VIN
tp1228
a(Vone
VCD
tp1229
a(Vof
VIN
tp1230
a(Vthe
VDT
tp1231
a(Vharshest
VJJS
tp1232
a(Vwinters
VNNS
tp1233
a(Vin
VIN
tp1234
a(Vdecades
VNNS
tp1235
a(V.
V.
tp1236
aa(lp1237
(VThen
VRB
tp1238
a(VMrs
VNNP
tp1239
a(VBjerregaard
VNNP
tp1240
a(Vcan
VMD
tp1241
a(Vgive
VVB
tp1242
a(Vup
VRP
tp1243
a(Vher
VPRP$
tp1244
a(Vwork
VNN
tp1245
a(V,
V,
tp1246
a(VI
VPRP
tp1247
a(Vcan
VMD
tp1248
a(Vdo
VVB
tp1249
a(Vthe
VDT
tp1250
a(Vsame
VJJ
tp1251
a(V,
V,
tp1252
a(Vand
VCC
tp1253
a(Vso
VRB
tp1254
a(V,
V,
tp1255
a(Vtoo
VRB
tp1256
a(V,
V,
tp1257
a(Vcan
VMD
tp1258
a(Vlarge
VJJ
tp1259
a(Vparts
VNNS
tp1260
a(Vof
VIN
tp1261
a(Vthe
VDT
tp1262
a(VUnion
VNNP
tp1263
a(Vtoo
VRB
tp1264
a(V.
V.
tp1265
aa(lp1266
(VThe
VDT
tp1267
a(Vcollapse
VNN
tp1268
a(Vof
VIN
tp1269
a(Va
VDT
tp1270
a(Vseries
VNN
tp1271
a(Vof
VIN
tp1272
a(Vfinancial
VJJ
tp1273
a(Vinstitutions
VNNS
tp1274
a(Vcost
VNN
tp1275
a(Vand
VCC
tp1276
a(Vis
VVBZ
tp1277
a(Vstill
VRB
tp1278
a(Vcosting
VVBG
tp1279
a(Vtaxpayers
VNNS
tp1280
a(Vdear
VRB
tp1281
a(V.
V.
tp1282
aa(lp1283
(VWe
VPRP
tp1284
a(Vhave
VVBP
tp1285
a(Vno
VDT
tp1286
a(Vintegrated
VJJ
tp1287
a(Vfighting
VNN
tp1288
a(Vforces
VNNS
tp1289
a(Vand
VCC
tp1290
a(Vcommand
VNN
tp1291
a(Vstructure
VNN
tp1292
a(V.
V.
tp1293
aa(lp1294
(VMadam
VNNP
tp1295
a(VPresident
VNNP
tp1296
a(V,
V,
tp1297
a(Vyesterday
VNN
tp1298
a(Vmorning
VNN
tp1299
a(VI
VPRP
tp1300
a(Vraised
VVBD
tp1301
a(V,
V,
tp1302
a(Vunder
VIN
tp1303
a(Vthe
VDT
tp1304
a(VMinutes
VNNPS
tp1305
a(V,
V,
tp1306
a(Vthe
VDT
tp1307
a(Vsuggestion
VNN
tp1308
a(Vthat
VIN
tp1309
a(Vwe
VPRP
tp1310
a(Vshould
VMD
tp1311
a(Vrecord
VVB
tp1312
a(Vin
VIN
tp1313
a(Vthe
VDT
tp1314
a(VMinutes
VNNPS
tp1315
a(Vthe
VDT
tp1316
a(Vaverage
VJJ
tp1317
a(Vcost
VNN
tp1318
a(Vof
VIN
tp1319
a(Vroll
VNN
tp1320
a(Vcall
VNN
tp1321
a(Vvotes
VNNS
tp1322
a(V,
V,
tp1323
a(Vbecause
VIN
tp1324
a(VI
VPRP
tp1325
a(Vnoticed
VVBD
tp1326
a(Vthat
VIN
tp1327
a(Vthere
VEX
tp1328
a(Vwere
VVBD
tp1329
a(Vquite
VRB
tp1330
a(Va
VDT
tp1331
a(Vlarge
VJJ
tp1332
a(Vnumber
VNN
tp1333
a(Vfrom
VIN
tp1334
a(Vthe
VDT
tp1335
a(Vprevious
VJJ
tp1336
a(Vday
VNN
tp1337
a(V.
V.
tp1338
aa(lp1339
(VIt
VPRP
tp1340
a(Vis
VVBZ
tp1341
a(Vestimated
VVBN
tp1342
a(Vthat
VIN
tp1343
a(Vit
VPRP
tp1344
a(Vmay
VMD
tp1345
a(Vbe
VVB
tp1346
a(Va
VDT
tp1347
a(Vyear
VNN
tp1348
a(Vbefore
VIN
tp1349
a(Vwe
VPRP
tp1350
a(Vknow
VVBP
tp1351
a(Vall
VPDT
tp1352
a(Vthe
VDT
tp1353
a(Vdetails
VNNS
tp1354
a(Vrelating
VVBG
tp1355
a(Vto
VTO
tp1356
a(Vthe
VDT
tp1357
a(Vcauses
VNNS
tp1358
a(Vof
VIN
tp1359
a(Vthis
VDT
tp1360
a(Vaccident
VNN
tp1361
a(V.
V.
tp1362
aa(lp1363
(VI
VPRP
tp1364
a(Vthink
VVBP
tp1365
a(Vit
VPRP
tp1366
a(Vis
VVBZ
tp1367
a(Vright
VJJ
tp1368
a(Vthat
VIN
tp1369
a(Vall
VDT
tp1370
a(Venrichment
VNN
tp1371
a(Vactivities
VNNS
tp1372
a(V\u2013
VVBP
tp1373
a(Vthat
VDT
tp1374
a(Vis
VVBZ
tp1375
a(V,
V,
tp1376
a(Vthose
VDT
tp1377
a(Vby
VIN
tp1378
a(Vall
VDT
tp1379
a(Vcountries
VNNS
tp1380
a(V\u2013
VVBP
tp1381
a(Vshould
VMD
tp1382
a(Vbe
VVB
tp1383
a(Vunder
VIN
tp1384
a(Vthe
VDT
tp1385
a(Vcontrol
VNN
tp1386
a(Vof
VIN
tp1387
a(Vthe
VDT
tp1388
a(VInternational
VNNP
tp1389
a(VAtomic
VJJ
tp1390
a(VEnergy
VNNP
tp1391
a(VAgency
VNNP
tp1392
a(V,
V,
tp1393
a(Vas
VIN
tp1394
a(Vproposed
VVBN
tp1395
a(Vby
VIN
tp1396
a(Vthe
VDT
tp1397
a(VIAEA
VNNP
tp1398
a(Vitself
VPRP
tp1399
a(V.
V.
tp1400
aa(lp1401
(VA
VDT
tp1402
a(Vright
VJJ
tp1403
a(Vcannot
VNN
tp1404
a(Vbe
VVB
tp1405
a(Vbought
VVBN
tp1406
a(Vor
VCC
tp1407
a(Vsold
VVBN
tp1408
a(Vin
VIN
tp1409
a(Va
VDT
tp1410
a(Vfree
VJJ
tp1411
a(Vsociety
VNN
tp1412
a(V.
V.
tp1413
aa(lp1414
(VThe
VDT
tp1415
a(Vgap
VNN
tp1416
a(Vbetween
VIN
tp1417
a(Vthose
VDT
tp1418
a(Vwho
VWP
tp1419
a(Vknow
VVBP
tp1420
a(Vand
VCC
tp1421
a(Vthose
VDT
tp1422
a(Vwho
VWP
tp1423
a(Vdo
VVBP
tp1424
a(Vnot
VRB
tp1425
a(Vknow
VVB
tp1426
a(Vmust
VMD
tp1427
a(Vbe
VVB
tp1428
a(Vnarrowed
VVBN
tp1429
a(V.
V.
tp1430
aa(lp1431
(VYou
VPRP
tp1432
a(Vwere
VVBD
tp1433
a(Vchairman
VNN
tp1434
a(Vof
VIN
tp1435
a(Vthe
VDT
tp1436
a(VLiberal
VNNP
tp1437
a(VGroup
VNNP
tp1438
a(Vat
VIN
tp1439
a(Vthe
VDT
tp1440
a(Vtime
VNN
tp1441
a(V.
V.
tp1442
aa(lp1443
(VOn
VIN
tp1444
a(Vwhat
VWDT
tp1445
a(Vcriteria
VNNS
tp1446
a(Vis
VVBZ
tp1447
a(Vit
VPRP
tp1448
a(Vto
VTO
tp1449
a(Vbe
VVB
tp1450
a(Vcarried
VVBN
tp1451
a(Vout
VRP
tp1452
a(V?
V.
tp1453
aa(lp1454
(VThis
VDT
tp1455
a(Vinformation
VNN
tp1456
a(Vshould
VMD
tp1457
a(Vbe
VVB
tp1458
a(Vavailable
VJJ
tp1459
a(V,
V,
tp1460
a(Vnot
VRB
tp1461
a(Vonly
VRB
tp1462
a(Vto
VTO
tp1463
a(Vensure
VVB
tp1464
a(Vtransparency
VNN
tp1465
a(Vbut
VCC
tp1466
a(Valso
VRB
tp1467
a(Vto
VTO
tp1468
a(Vassist
VVB
tp1469
a(Vin
VIN
tp1470
a(Vthe
VDT
tp1471
a(Vtraceability
VNN
tp1472
a(Vof
VIN
tp1473
a(Vproducts
VNNS
tp1474
a(V.
V.
tp1475
aa(lp1476
(VToday
VNN
tp1477
a(Vis
VVBZ
tp1478
a(Va
VDT
tp1479
a(Vspecial
VJJ
tp1480
a(Vday
VNN
tp1481
a(V,
V,
tp1482
a(V13
VCD
tp1483
a(VApril
VNNP
tp1484
a(V2000
VCD
tp1485
a(V,
V,
tp1486
a(Vthe
VDT
tp1487
a(Vdate
VNN
tp1488
a(Vof
VIN
tp1489
a(Vthe
VDT
tp1490
a(Vso-called
VJJ
tp1491
a(V&apos;
VJJ
tp1492
a(Vtrial
VNN
tp1493
a(V&apos;
VNN
tp1494
a(V.
V.
tp1495
aa(lp1496
(VJust
VRB
tp1497
a(Va
VDT
tp1498
a(Vfew
VJJ
tp1499
a(Vyears
VNNS
tp1500
a(Vago
VIN
tp1501
a(Vthe
VDT
tp1502
a(Vdebate
VNN
tp1503
a(Von
VIN
tp1504
a(VESDP
VNN
tp1505
a(Vrevolved
VVBD
tp1506
a(Varound
VIN
tp1507
a(Vthe
VDT
tp1508
a(Vlocation
VNN
tp1509
a(Vand
VCC
tp1510
a(Vstaffing
VNN
tp1511
a(Vof
VIN
tp1512
a(Va
VDT
tp1513
a(Vsmall
VJJ
tp1514
a(Vplanning
VNN
tp1515
a(Vcell
VNN
tp1516
a(Vin
VIN
tp1517
a(Va
VDT
tp1518
a(Vsuburb
VNN
tp1519
a(Vof
VIN
tp1520
a(VBrussels
VNNP
tp1521
a(V.
V.
tp1522
aa(lp1523
(VWhat
VWP
tp1524
a(Vis
VVBZ
tp1525
a(Vdoes
VVBZ
tp1526
a(Vmean
VVB
tp1527
a(Vis
VVBZ
tp1528
a(Vstrict
VJJ
tp1529
a(Vand
VCC
tp1530
a(Vefficient
VJJ
tp1531
a(Vmanagement
VNN
tp1532
a(V.
V.
tp1533
aa(lp1534
(VIt
VPRP
tp1535
a(Vis
VVBZ
tp1536
a(Vimportant
VJJ
tp1537
a(Vthat
VIN
tp1538
a(Vimmigrants
VNNS
tp1539
a(Vshould
VMD
tp1540
a(Vlearn
VVB
tp1541
a(Vthe
VDT
tp1542
a(Vhost
VNN
tp1543
a(Vcountry
VNN
tp1544
a(V\u2019
VCD
tp1545
a(Vs
VNNS
tp1546
a(Vlanguage
VNN
tp1547
a(V.
V.
tp1548
aa(lp1549
(VThe
VDT
tp1550
a(VBurmese
VJJ
tp1551
a(Veducation
VNN
tp1552
a(Vsystem
VNN
tp1553
a(Vis
VVBZ
tp1554
a(Vfalling
VVBG
tp1555
a(Vapart
VRB
tp1556
a(V.
V.
tp1557
aa(lp1558
(VSome
VDT
tp1559
a(VMembers
VNNS
tp1560
a(Vof
VIN
tp1561
a(Vthis
VDT
tp1562
a(VHouse
VNNP
tp1563
a(Vhope
VNN
tp1564
a(Vthat
VIN
tp1565
a(Vthe
VDT
tp1566
a(VCE
VNNP
tp1567
a(Vmark
VNN
tp1568
a(Vwill
VMD
tp1569
a(Vbe
VVB
tp1570
a(Vfollowed
VVBN
tp1571
a(Vby
VIN
tp1572
a(Va
VDT
tp1573
a(Vquality
VNN
tp1574
a(Vmark
VNN
tp1575
a(Vand
VCC
tp1576
a(V,
V,
tp1577
a(Vin
VIN
tp1578
a(Vfact
VNN
tp1579
a(V,
V,
tp1580
a(VParliament
VNNP
tp1581
a(Vpressed
VVBD
tp1582
a(Vme
VPRP
tp1583
a(Von
VIN
tp1584
a(Vthis
VDT
tp1585
a(Vat
VIN
tp1586
a(Vthe
VDT
tp1587
a(Vhearing
VVBG
tp1588
a(Va
VDT
tp1589
a(Vyear
VNN
tp1590
a(Vago
VRB
tp1591
a(V,
V,
tp1592
a(Vwhen
VWRB
tp1593
a(VI
VPRP
tp1594
a(Vput
VVBP
tp1595
a(Vforward
VRB
tp1596
a(Vmy
VPRP$
tp1597
a(Vcandidacy
VNN
tp1598
a(Vfor
VIN
tp1599
a(Vthe
VDT
tp1600
a(VCommission
VNNP
tp1601
a(V.
V.
tp1602
aa(lp1603
(VToday
VNN
tp1604
a(Vit
VPRP
tp1605
a(Vis
VVBZ
tp1606
a(Vthe
VDT
tp1607
a(Vthird
VJJ
tp1608
a(Vmost
VRBS
tp1609
a(Vvisited
VVBN
tp1610
a(Vcity
VNN
tp1611
a(Vin
VIN
tp1612
a(VBritain
VNNP
tp1613
a(V.
V.
tp1614
aa(lp1615
(VSince
VIN
tp1616
a(Vthe
VDT
tp1617
a(Vfunds
VNNS
tp1618
a(Vare
VVBP
tp1619
a(Vadministered
VVBN
tp1620
a(Vdecentrally
VRB
tp1621
a(Vand
VCC
tp1622
a(Vthe
VDT
tp1623
a(VMember
VNNP
tp1624
a(VStates
VNNPS
tp1625
a(V&apos;
VJJ
tp1626
a(Vnational
VJJ
tp1627
a(Vand
VCC
tp1628
a(Vregional
VJJ
tp1629
a(Vauthorities
VNNS
tp1630
a(Vare
VVBP
tp1631
a(Vsolely
VRB
tp1632
a(Vresponsible
VJJ
tp1633
a(Vfor
VIN
tp1634
a(Vselecting
VVBG
tp1635
a(Vthe
VDT
tp1636
a(Vindividual
VJJ
tp1637
a(Vprojects
VNNS
tp1638
a(V,
V,
tp1639
a(Vwe
VPRP
tp1640
a(Vhave
VVBP
tp1641
a(Vto
VTO
tp1642
a(Vstart
VVB
tp1643
a(Vwith
VIN
tp1644
a(Vthe
VDT
tp1645
a(VMember
VNNP
tp1646
a(VStates
VNNPS
tp1647
a(Vthemselves
VPRP
tp1648
a(V;
V:
tp1649
a(Vand
VCC
tp1650
a(Vlet
VVB
tp1651
a(Vme
VPRP
tp1652
a(Vpoint
VVB
tp1653
a(Vout
VRP
tp1654
a(Vagain
VRB
tp1655
a(Vthat
VIN
tp1656
a(Vthere
VEX
tp1657
a(Vis
VVBZ
tp1658
a(Vno
VDT
tp1659
a(Vobligation
VNN
tp1660
a(Von
VIN
tp1661
a(Vthem
VPRP
tp1662
a(Vto
VTO
tp1663
a(Vnotify
VVB
tp1664
a(Vsmaller
VJJR
tp1665
a(Vprojects
VNNS
tp1666
a(V.
V.
tp1667
aa(lp1668
(VIt
VPRP
tp1669
a(Vis
VVBZ
tp1670
a(Va
VDT
tp1671
a(Vcase
VNN
tp1672
a(Vof
VIN
tp1673
a(Vperverted
VJJ
tp1674
a(Vreligion
VNN
tp1675
a(V.
V.
tp1676
aa(lp1677
(VThey
VPRP
tp1678
a(Vset
VVBD
tp1679
a(Van
VDT
tp1680
a(Vexample
VNN
tp1681
a(V.
V.
tp1682
aa(lp1683
(VThis
VDT
tp1684
a(Vis
VVBZ
tp1685
a(Vsomething
VNN
tp1686
a(Vwhich
VWDT
tp1687
a(Vis
VVBZ
tp1688
a(Vyet
VRB
tp1689
a(Vto
VTO
tp1690
a(Vreach
VVB
tp1691
a(Va
VDT
tp1692
a(Vpoint
VNN
tp1693
a(Vwhich
VWDT
tp1694
a(VI
VPRP
tp1695
a(Vconsider
VVBP
tp1696
a(Vacceptable
VJJ
tp1697
a(V.
V.
tp1698
aa(lp1699
(VOne
VCD
tp1700
a(VMember
VNNP
tp1701
a(VState
VNNP
tp1702
a(Vhas
VVBZ
tp1703
a(Valready
VRB
tp1704
a(Vhinted
VVBN
tp1705
a(Vthat
VIN
tp1706
a(Vit
VPRP
tp1707
a(Vmay
VMD
tp1708
a(Vdo
VVB
tp1709
a(Vso
VRB
tp1710
a(V.
V.
tp1711
aa(lp1712
(VAfter
VIN
tp1713
a(Vvisits
VNNS
tp1714
a(Vto
VTO
tp1715
a(VOswiecim
VNNP
tp1716
a(V,
V,
tp1717
a(VYad
VNNP
tp1718
a(VVashem
VNNP
tp1719
a(Vor
VCC
tp1720
a(Vthe
VDT
tp1721
a(VHolocaust
VNNP
tp1722
a(VMuseum
VNNP
tp1723
a(Vin
VIN
tp1724
a(VWashington
VNNP
tp1725
a(VDC
VNNP
tp1726
a(V,
V,
tp1727
a(Vyou
VPRP
tp1728
a(Vare
VVBP
tp1729
a(Valways
VRB
tp1730
a(Vshocked
VVBN
tp1731
a(Vby
VIN
tp1732
a(Vthe
VDT
tp1733
a(Vinhumanity
VNN
tp1734
a(Vof
VIN
tp1735
a(Vthe
VDT
tp1736
a(VHolocaust
VNNP
tp1737
a(Vperpetrators
VNNS
tp1738
a(V.
V.
tp1739
aa(lp1740
(VA
VDT
tp1741
a(Vdirective
VNN
tp1742
a(Vthat
VWDT
tp1743
a(Vwill
VMD
tp1744
a(Vin
VIN
tp1745
a(Vall
VDT
tp1746
a(Vlikelihood
VNN
tp1747
a(Vnot
VRB
tp1748
a(Vcome
VVB
tp1749
a(Vinto
VIN
tp1750
a(Vforce
VNN
tp1751
a(Vuntil
VIN
tp1752
a(V2010
VCD
tp1753
a(Vis
VVBZ
tp1754
a(Va
VDT
tp1755
a(Vdisaster
VNN
tp1756
a(Vfor
VIN
tp1757
a(Vmillions
VNNS
tp1758
a(Vof
VIN
tp1759
a(Vartists
VNNS
tp1760
a(Vin
VIN
tp1761
a(Vthe
VDT
tp1762
a(VEU
VNNP
tp1763
a(V.
V.
tp1764
aa(lp1765
(VHe
VPRP
tp1766
a(Vis
VVBZ
tp1767
a(Va
VDT
tp1768
a(Vbusy
VJJ
tp1769
a(Vman
VNN
tp1770
a(V,
V,
tp1771
a(Va
VDT
tp1772
a(Vvery
VRB
tp1773
a(Vbusy
VJJ
tp1774
a(Vman
VNN
tp1775
a(V,
V,
tp1776
a(Vhe
VPRP
tp1777
a(Vhas
VVBZ
tp1778
a(Va
VDT
tp1779
a(Vfamily
VNN
tp1780
a(Vfirm
VNN
tp1781
a(V,
V,
tp1782
a(Vhe
VPRP
tp1783
a(Vworks
VVBZ
tp1784
a(Vhard
VJJ
tp1785
a(Vand
VCC
tp1786
a(Vmakes
VVBZ
tp1787
a(Va
VDT
tp1788
a(Vgood
VJJ
tp1789
a(Vliving
VNN
tp1790
a(V.
V.
tp1791
aa(lp1792
(VACTA
VNNP
tp1793
a(Vis
VVBZ
tp1794
a(Vabout
VIN
tp1795
a(Vestablishing
VVBG
tp1796
a(Va
VDT
tp1797
a(Vnew
VJJ
tp1798
a(Vtool
VNN
tp1799
a(Vthat
VWDT
tp1800
a(Vwill
VMD
tp1801
a(Vensure
VVB
tp1802
a(Vthat
VIN
tp1803
a(Vexisting
VVBG
tp1804
a(Vintellectual
VJJ
tp1805
a(Vproperty
VNN
tp1806
a(Vrights
VNNS
tp1807
a(Vare
VVBP
tp1808
a(Veffectively
VRB
tp1809
a(Vprotected
VVBN
tp1810
a(V.
V.
tp1811
aa(lp1812
(VThis
VDT
tp1813
a(Vhas
VVBZ
tp1814
a(Vbeen
VVBN
tp1815
a(Vhappening
VVBG
tp1816
a(Vfor
VIN
tp1817
a(Vsome
VDT
tp1818
a(Vdecades
VNNS
tp1819
a(V.
V.
tp1820
aa(lp1821
(VAs
VIN
tp1822
a(Vone
VCD
tp1823
a(VFrench
VJJ
tp1824
a(Vnewspaper
VNN
tp1825
a(Vdescribed
VVBD
tp1826
a(Vhim
VPRP
tp1827
a(V,
V,
tp1828
a(Vhe
VPRP
tp1829
a(Vis
VVBZ
tp1830
a(Vin
VIN
tp1831
a(Vthe
VDT
tp1832
a(Vposition
VNN
tp1833
a(Vof
VIN
tp1834
a(Va
VDT
tp1835
a(Vnew-look
VJJ
tp1836
a(VDoctor
VNNP
tp1837
a(VStrangelove
VNNP
tp1838
a(V.
V.
tp1839
aa(lp1840
(VTo
VTO
tp1841
a(Vgive
VVB
tp1842
a(Vyou
VPRP
tp1843
a(Vjust
VRB
tp1844
a(Vone
VCD
tp1845
a(Vstatistic
VNN
tp1846
a(V:
V:
tp1847
a(Von
VIN
tp1848
a(V12
VCD
tp1849
a(VAugust
VNNP
tp1850
a(V,
V,
tp1851
a(Vthe
VDT
tp1852
a(VErzgebirge
VNNP
tp1853
a(Vhad
VVBD
tp1854
a(V360
VCD
tp1855
a(Vlitres
VNNS
tp1856
a(Vof
VIN
tp1857
a(Vrain
VNN
tp1858
a(Vper
VIN
tp1859
a(Vsquare
VNN
tp1860
a(Vmetre
VNN
tp1861
a(Vwithin
VIN
tp1862
a(V24
VCD
tp1863
a(Vhours
VNNS
tp1864
a(V.
V.
tp1865
aa(lp1866
(VImmigrants
VNNS
tp1867
a(Vare
VVBP
tp1868
a(Vnot
VRB
tp1869
a(Vsecond-class
VJJ
tp1870
a(Vhuman
VJJ
tp1871
a(Vbeings
VNNS
tp1872
a(V!
V.
tp1873
aa(lp1874
(VNormally
VRB
tp1875
a(V,
V,
tp1876
a(Vin
VIN
tp1877
a(Vother
VJJ
tp1878
a(Vwar
VNN
tp1879
a(Vcrime
VNN
tp1880
a(Vcourts
VNNS
tp1881
a(V,
V,
tp1882
a(Vthere
VEX
tp1883
a(Vare
VVBP
tp1884
a(Vonly
VRB
tp1885
a(Vforeign
VJJ
tp1886
a(Vjudges
VNNS
tp1887
a(Vand
VCC
tp1888
a(Vprosecutors
VNNS
tp1889
a(V.
V.
tp1890
aa(lp1891
(VThey
VPRP
tp1892
a(Vmove
VVBP
tp1893
a(Vback
VRB
tp1894
a(Vand
VCC
tp1895
a(Vforth
VRB
tp1896
a(V.
V.
tp1897
aa(lp1898
(VAt
VIN
tp1899
a(Vthe
VDT
tp1900
a(Vsame
VJJ
tp1901
a(Vtime
VNN
tp1902
a(V,
V,
tp1903
a(Vas
VIN
tp1904
a(Va
VDT
tp1905
a(Vhuman
VJJ
tp1906
a(Vrights
VNNS
tp1907
a(Vand
VCC
tp1908
a(Vminority
VNN
tp1909
a(Vrights
VNNS
tp1910
a(Vlawyer
VNN
tp1911
a(VI
VPRP
tp1912
a(Vbelieve
VVBP
tp1913
a(Vthat
VIN
tp1914
a(Vmy
VPRP$
tp1915
a(Vyes
VUH
tp1916
a(Vvote
VNN
tp1917
a(Vis
VVBZ
tp1918
a(Vjustified
VJJ
tp1919
a(V.
V.
tp1920
aa(lp1921
(VThe
VDT
tp1922
a(Vreport
VNN
tp1923
a(Vunderlines
VVBZ
tp1924
a(Vthat
VIN
tp1925
a(Vconcluding
VVBG
tp1926
a(Vthe
VDT
tp1927
a(VFTA
VNN
tp1928
a(Vremains
VVBZ
tp1929
a(Va
VDT
tp1930
a(Vpriority
VNN
tp1931
a(V.
V.
tp1932
aa(lp1933
(VAll
VDT
tp1934
a(Vthey
VPRP
tp1935
a(Vdo
VVBP
tp1936
a(Vis
VVBZ
tp1937
a(Vresist
VVB
tp1938
a(Vthe
VDT
tp1939
a(Vuse
VNN
tp1940
a(Vof
VIN
tp1941
a(Va
VDT
tp1942
a(Vname
VNN
tp1943
a(Vwhich
VWDT
tp1944
a(Vis
VVBZ
tp1945
a(Vpart
VNN
tp1946
a(Vof
VIN
tp1947
a(Vtheir
VPRP$
tp1948
a(Vown
VJJ
tp1949
a(Vancient
VJJ
tp1950
a(Vhistorical
VJJ
tp1951
a(Vand
VCC
tp1952
a(Varchaeological
VJJ
tp1953
a(Vtradition
VNN
tp1954
a(V.
V.
tp1955
aa(lp1956
(VOver
VIN
tp1957
a(Vthe
VDT
tp1958
a(Vyears
VNNS
tp1959
a(Vwe
VPRP
tp1960
a(Vhave
VVBP
tp1961
a(Vseen
VVBN
tp1962
a(Vmasterpieces
VNNS
tp1963
a(Vof
VIN
tp1964
a(Vunintended
VJJ
tp1965
a(Vconsequences
VNNS
tp1966
a(Vfrom
VIN
tp1967
a(Vthis
VDT
tp1968
a(Vplace
VNN
tp1969
a(V.
V.
tp1970
aa(lp1971
(VIn
VIN
tp1972
a(Vthe
VDT
tp1973
a(VBaltic
VNNP
tp1974
a(VSea
VNNP
tp1975
a(V,
V,
tp1976
a(Vwe
VPRP
tp1977
a(Vhave
VVBP
tp1978
a(Valready
VRB
tp1979
a(Vbeen
VVBN
tp1980
a(Vusing
VVBG
tp1981
a(Vwhat
VWP
tp1982
a(Vis
VVBZ
tp1983
a(Vknown
VVBN
tp1984
a(Vas
VIN
tp1985
a(Vlow-sulphur
VJJ
tp1986
a(Vheavy
VJJ
tp1987
a(Vfuel
VNN
tp1988
a(Voil
VNN
tp1989
a(V,
V,
tp1990
a(Vwith
VIN
tp1991
a(Va
VDT
tp1992
a(Vsulphur
VNN
tp1993
a(Vcontent
VNN
tp1994
a(Vof
VIN
tp1995
a(V0.5
VCD
tp1996
a(V%
VNN
tp1997
a(V,
V,
tp1998
a(Vfor
VIN
tp1999
a(Vmany
VJJ
tp2000
a(Vyears
VNNS
tp2001
a(Vwith
VIN
tp2002
a(Va
VDT
tp2003
a(Vview
VNN
tp2004
a(Vto
VTO
tp2005
a(Vprotecting
VVBG
tp2006
a(Vthe
VDT
tp2007
a(Venvironment
VNN
tp2008
a(V.
V.
tp2009
aa(lp2010
(VWe
VPRP
tp2011
a(Vdefend
VVBP
tp2012
a(Vfishing
VNN
tp2013
a(Vwhich
VWDT
tp2014
a(Vis
VVBZ
tp2015
a(Vrespectful
VJJ
tp2016
a(Vof
VIN
tp2017
a(Vother
VJJ
tp2018
a(Vspecies
VNNS
tp2019
a(V,
V,
tp2020
a(Vsuch
VJJ
tp2021
a(Vas
VIN
tp2022
a(Vdolphins
VNNS
tp2023
a(V.
V.
tp2024
aa(lp2025
(VI
VPRP
tp2026
a(Vtake
VVBP
tp2027
a(Vissue
VNN
tp2028
a(Vwith
VIN
tp2029
a(Vthe
VDT
tp2030
a(Vreference
VNN
tp2031
a(Vto
VTO
tp2032
a(Vfisheries
VNNS
tp2033
a(Vbeing
VVBG
tp2034
a(Va
VDT
tp2035
a(Vsector
VNN
tp2036
a(Vin
VIN
tp2037
a(Vdecline
VNN
tp2038
a(V.
V.
tp2039
aa.